BL51 BANKED LINKER/LOCATER V6.22.2.0                                                    06/18/2026  10:05:40  PAGE 1


BL51 BANKED LINKER/LOCATER V6.22.2.0, INVOKED BY:
D:\KEIL_V5\C51\C51\BIN\BL51.EXE .\obj\STARTUP_M5.obj, .\obj\main.obj, .\obj\sys.obj, .\obj\control.obj, .\obj\uart.obj, 
>> .\obj\modbus.obj, .\obj\rtc.obj, .\obj\ErrorHistory.obj, .\obj\upload.obj, .\obj\Wifipro.obj, .\obj\OTA.obj, .\obj\mc
>> u_api.obj, .\obj\protocol.obj, .\obj\system.obj TO .\obj\T5L51 PRINT (.\Listings\T5L51.m51) RAMSIZE (256) CODE (0X010
>> 0-0XFFFF) XDATA (0X8000-0XFFFF)


MEMORY MODEL: LARGE WITH FLOATING POINT ARITHMETIC


INPUT MODULES INCLUDED:
  .\obj\STARTUP_M5.obj (?C_STARTUP)
  .\obj\main.obj (MAIN)
  .\obj\sys.obj (SYS)
  .\obj\control.obj (CONTROL)
  .\obj\uart.obj (UART)
  .\obj\modbus.obj (MODBUS)
  .\obj\rtc.obj (RTC)
  .\obj\ErrorHistory.obj (ERRORHISTORY)
  .\obj\upload.obj (UPLOAD)
  .\obj\Wifipro.obj (WIFIPRO)
  .\obj\OTA.obj (OTA)
  .\obj\mcu_api.obj (MCU_API)
  .\obj\protocol.obj (PROTOCOL)
  .\obj\system.obj (SYSTEM)
  D:\KEIL_V5\C51\C51\LIB\C51FPL.LIB (?C?FPDIV)
  D:\KEIL_V5\C51\C51\LIB\C51FPL.LIB (?C?FPCMP)
  D:\KEIL_V5\C51\C51\LIB\C51FPL.LIB (?C?FCAST)
  D:\KEIL_V5\C51\C51\LIB\C51FPL.LIB (?C?CASTF)
  D:\KEIL_V5\C51\C51\LIB\C51FPL.LIB (PRINTF)
  D:\KEIL_V5\C51\C51\LIB\C51FPL.LIB (?C?FPGETOPN)
  D:\KEIL_V5\C51\C51\LIB\C51FPL.LIB (?C?FPROUND)
  D:\KEIL_V5\C51\C51\LIB\C51FPL.LIB (?C?FPCONVERT)
  D:\KEIL_V5\C51\C51\LIB\C51FPL.LIB (?C?FPADD)
  D:\KEIL_V5\C51\C51\LIB\C51FPL.LIB (?C?FPMUL)
  D:\KEIL_V5\C51\C51\LIB\C51FPL.LIB (?C?FTNPWR)
  D:\KEIL_V5\C51\C51\LIB\C51L.LIB (?C_INIT)
  D:\KEIL_V5\C51\C51\LIB\C51L.LIB (?C?COPY)
  D:\KEIL_V5\C51\C51\LIB\C51L.LIB (?C?CLDPTR)
  D:\KEIL_V5\C51\C51\LIB\C51L.LIB (?C?CLDOPTR)
  D:\KEIL_V5\C51\C51\LIB\C51L.LIB (?C?CILDOPTR)
  D:\KEIL_V5\C51\C51\LIB\C51L.LIB (?C?CSTPTR)
  D:\KEIL_V5\C51\C51\LIB\C51L.LIB (?C?CSTOPTR)
  D:\KEIL_V5\C51\C51\LIB\C51L.LIB (?C?IMUL)
  D:\KEIL_V5\C51\C51\LIB\C51L.LIB (?C?UIDIV)
  D:\KEIL_V5\C51\C51\LIB\C51L.LIB (?C?SIDIV)
  D:\KEIL_V5\C51\C51\LIB\C51L.LIB (?C?IILDX)
  D:\KEIL_V5\C51\C51\LIB\C51L.LIB (?C?ILDIX)
  D:\KEIL_V5\C51\C51\LIB\C51L.LIB (?C?ILDIPTR)
  D:\KEIL_V5\C51\C51\LIB\C51L.LIB (?C?ILDOPTR)
  D:\KEIL_V5\C51\C51\LIB\C51L.LIB (?C?ISTPTR)
  D:\KEIL_V5\C51\C51\LIB\C51L.LIB (?C?ISTOPTR)
  D:\KEIL_V5\C51\C51\LIB\C51L.LIB (?C?LMUL)
  D:\KEIL_V5\C51\C51\LIB\C51L.LIB (?C?ULDIV)
  D:\KEIL_V5\C51\C51\LIB\C51L.LIB (?C?LNEG)
  D:\KEIL_V5\C51\C51\LIB\C51L.LIB (?C?SLCMP)
  D:\KEIL_V5\C51\C51\LIB\C51L.LIB (?C?ULCMP)
  D:\KEIL_V5\C51\C51\LIB\C51L.LIB (?C?ULSHR)
BL51 BANKED LINKER/LOCATER V6.22.2.0                                                  06/18/2026  10:05:40  PAGE 2


  D:\KEIL_V5\C51\C51\LIB\C51L.LIB (?C?LSHL)
  D:\KEIL_V5\C51\C51\LIB\C51L.LIB (?C?LLDPTR)
  D:\KEIL_V5\C51\C51\LIB\C51L.LIB (?C?LSTPTR)
  D:\KEIL_V5\C51\C51\LIB\C51L.LIB (?C?LSTXDATA)
  D:\KEIL_V5\C51\C51\LIB\C51L.LIB (?C?LSTKXDATA)
  D:\KEIL_V5\C51\C51\LIB\C51L.LIB (?C?OFFXADD)
  D:\KEIL_V5\C51\C51\LIB\C51L.LIB (?C?PLDIXDATA)
  D:\KEIL_V5\C51\C51\LIB\C51L.LIB (?C?PSTXDATA)
  D:\KEIL_V5\C51\C51\LIB\C51L.LIB (?C?CCASE)
  D:\KEIL_V5\C51\C51\LIB\C51L.LIB (?C?ICASE)
  D:\KEIL_V5\C51\C51\LIB\C51L.LIB (?C?LIMUL)
  D:\KEIL_V5\C51\C51\LIB\C51L.LIB (STRTOUL)
  D:\KEIL_V5\C51\C51\LIB\C51L.LIB (?C?LLDIDATA)
  D:\KEIL_V5\C51\C51\LIB\C51L.LIB (?C?LLDXDATA)
  D:\KEIL_V5\C51\C51\LIB\C51L.LIB (?C?LLDPDATA)
  D:\KEIL_V5\C51\C51\LIB\C51L.LIB (?C?LLDCODE)
  D:\KEIL_V5\C51\C51\LIB\C51L.LIB (?C?LSTIDATA)
  D:\KEIL_V5\C51\C51\LIB\C51L.LIB (?C?LSTPDATA)
  D:\KEIL_V5\C51\C51\LIB\C51L.LIB (?C?PSTPTR)
  D:\KEIL_V5\C51\C51\LIB\C51L.LIB (?C?PSTIDATA)
  D:\KEIL_V5\C51\C51\LIB\C51L.LIB (?C?PSTPDATA)


LINK MAP OF MODULE:  .\obj\T5L51 (?C_STARTUP)


            TYPE    BASE      LENGTH    RELOCATION   SEGMENT NAME
            -----------------------------------------------------

            * * * * * * *   D A T A   M E M O R Y   * * * * * * *
            REG     0000H     0008H     ABSOLUTE     "REG BANK 0"
            DATA    0008H     0005H     UNIT         _DATA_GROUP_
            DATA    000DH     0002H     UNIT         ?DT?SYS
                    000FH     0011H                  *** GAP ***
            BIT     0020H.0   0003H.1   UNIT         ?BI?MODBUS
            BIT     0023H.1   0001H.1   UNIT         _BIT_GROUP_
            BIT     0024H.2   0000H.7   UNIT         ?BI?UPLOAD
            BIT     0025H.1   0000H.5   UNIT         ?BI?CONTROL
            BIT     0025H.6   0000H.4   UNIT         ?BI?OTA
            BIT     0026H.2   0000H.1   UNIT         ?BI?MAIN
            BIT     0026H.3   0000H.1   UNIT         ?BI?PROTOCOL
                    0026H.4   0000H.4                *** GAP ***
            IDATA   0027H     0001H     UNIT         ?STACK

            * * * * * * *  X D A T A   M E M O R Y  * * * * * * *
                    0000H     8000H                  *** GAP ***
            XDATA   8000H     046AH     UNIT         ?XD?MODBUS
            XDATA   846AH     0301H     UNIT         ?XD?SYS
            XDATA   876BH     02B2H     UNIT         ?XD?SYSTEM
            XDATA   8A1DH     0205H     UNIT         ?XD?ERRORHISTORY
            XDATA   8C22H     01CFH     UNIT         _XDATA_GROUP_
            XDATA   8DF1H     0199H     UNIT         ?XD?_ERRORHISTORY_FLASHREAD?ERRORHISTORY
            XDATA   8F8AH     0198H     UNIT         ?XD?UART
            XDATA   9122H     0151H     UNIT         ?XD?PROTOCOL
            XDATA   9273H     0087H     UNIT         ?XD?UPLOAD
            XDATA   92FAH     0056H     UNIT         ?XD?CONTROL
            XDATA   9350H     004CH     UNIT         ?XD?UPLOAD_CHECK_STATUS?UPLOAD
BL51 BANKED LINKER/LOCATER V6.22.2.0                                                  06/18/2026  10:05:40  PAGE 3


            XDATA   939CH     003CH     UNIT         ?XD?MODBUS_ANALYSIS_DATA1?MODBUS
            XDATA   93D8H     003AH     UNIT         ?XD?_MEMORY_WRITETIMERSLOT?SYS
            XDATA   9412H     003AH     UNIT         ?XD?_MEMORY_READTIMERSLOT?SYS
            XDATA   944CH     001BH     UNIT         ?XD?RTC
            XDATA   9467H     0015H     UNIT         ?XD?MODBUS_SALVE_HANDLER1?MODBUS
            XDATA   947CH     0013H     UNIT         ?XD?_UPLOAD_ULTOSTR?UPLOAD
            XDATA   948FH     0012H     UNIT         ?XD?CHECK_RTC_SET?RTC
            XDATA   94A1H     0011H     UNIT         ?XD?RDTIME?RTC
            XDATA   94B2H     0010H     UNIT         ?XD?_MODBUS_WRITEFLOATTEMPPAIR?MODBUS
            XDATA   94C2H     0010H     UNIT         ?XD?UPLOAD_ELECTRICITY_STATISTICS?UPLOAD
            XDATA   94D2H     0010H     UNIT         ?XD?UPLOAD_TIMESTAMP_FROM_RTC?UPLOAD
            XDATA   94E2H     000EH     UNIT         ?XD?DEFROST_CHECKEXIT?CONTROL
            XDATA   94F0H     000EH     UNIT         ?XD?_READTIMERTEMPC?CONTROL
            XDATA   94FEH     000DH     UNIT         ?XD?_MODBUS_PACKCHECKSTATUSBLOCK?MODBUS
            XDATA   950BH     000DH     UNIT         ?XD?_ERRORHISTORY_READTIME?ERRORHISTORY
            XDATA   9518H     000CH     UNIT         ?XD?SCREENSAVER_PRO?CONTROL
            XDATA   9524H     000CH     UNIT         ?XD?_ERRORHISTORY_UNPACKRECLEGACY?ERRORHISTORY
            XDATA   9530H     000BH     UNIT         ?XD?TIMER_APPLYINDOORON?CONTROL
            XDATA   953BH     000BH     UNIT         ?XD?OTA
            XDATA   9546H     000AH     UNIT         ?XD?_ERRORHISTORY_UNPACKREC?ERRORHISTORY
            XDATA   9550H     0009H     UNIT         ?XD?_CALCULATEMODBUSCRC?MODBUS
            XDATA   9559H     0009H     UNIT         ?XD?_UPDATEERRORHISTORY?ERRORHISTORY
            XDATA   9562H     0009H     UNIT         ?XD?_MY_MEMSET?MCU_API
            XDATA   956BH     0009H     UNIT         ?XD?_MY_STRCPY?MCU_API
            XDATA   9574H     0008H     UNIT         ?XD?_GETTIMEDIFF?RTC
            XDATA   957CH     0008H     UNIT         ?XD?_UPLOAD_VALUEIFCHANGED?UPLOAD
            XDATA   9584H     0007H     UNIT         ?XD?TIMERRUNNING?CONTROL
            XDATA   958BH     0007H     UNIT         ?XD?_MCU_DP_FAULT_UPDATE?MCU_API
            XDATA   9592H     0006H     UNIT         ?XD?RTCUPDATE?RTC
            XDATA   9598H     0006H     UNIT         ?XD?_MY_STRCMP?MCU_API
            XDATA   959EH     0005H     UNIT         ?XD?_TIMER_ISWEEKDAYMATCH?CONTROL
            XDATA   95A3H     0005H     UNIT         ?XD?TIMER_APPLYINDOOROFF?CONTROL
            XDATA   95A8H     0005H     UNIT         ?XD?_MODBUS_APPENDMODESETTEMPREG?MODBUS
            XDATA   95ADH     0005H     UNIT         ?XD?_RTC_CONFIG?RTC
            XDATA   95B2H     0005H     UNIT         ?XD?_RTC_GET_WEEK?RTC
            XDATA   95B7H     0005H     UNIT         ?XD?_UART_RECEIVE_BUFF_INPUT?MCU_API
            XDATA   95BCH     0004H     UNIT         ?XD?_DGUS_WAITEN?SYS
            XDATA   95C0H     0004H     UNIT         ?XD?HOMEPAGE_ICON?CONTROL
            XDATA   95C4H     0004H     UNIT         ?XD?_MODBUS_SAVEINDOORSENTREGS?MODBUS
            XDATA   95C8H     0004H     UNIT         ?XD?OTAENCODEPRO?OTA
            XDATA   95CCH     0004H     UNIT         ?XD?_INT_TO_BYTE?MCU_API
            XDATA   95D0H     0003H     UNIT         ?XD?_UART5_SENDSTR?UART
            XDATA   95D3H     0003H     UNIT         ?XD?_MODBUS_SAVEGROUPSENTREGS?MODBUS
            XDATA   95D6H     0003H     UNIT         ?XD?_MODBUS_GETCHECKSTATUS?MODBUS
            XDATA   95D9H     0003H     UNIT         ?XD?_GETMODBUSREG?MODBUS
            XDATA   95DCH     0003H     UNIT         ?XD?MCU_API
            XDATA   95DFH     0002H     UNIT         ?XD?MAIN
            XDATA   95E1H     0002H     UNIT         ?XD?SAVE_DATA_HANDLER?SYS
            XDATA   95E3H     0002H     UNIT         ?XD?SYNCTIMERFROMVP?CONTROL
            XDATA   95E5H     0002H     UNIT         ?XD?_MODBUS_APPENDU16?MODBUS
            XDATA   95E7H     0002H     UNIT         ?XD?_MODBUS_REPORTFAULTCODE?MODBUS
            XDATA   95E9H     0001H     UNIT         ?XD?_MODBUS_ISFAULTACTIVE?MODBUS
            XDATA   95EAH     0001H     UNIT         ?XD?_ERRORHISTORY_CONVERTLEGACYRAWREC?ERRORHISTORY
            XDATA   95EBH     0001H     UNIT         ?XD?DECODEERRORHISTORY?ERRORHISTORY

            * * * * * * *   C O D E   M E M O R Y   * * * * * * *
            CODE    0000H     0003H     ABSOLUTE     
BL51 BANKED LINKER/LOCATER V6.22.2.0                                                  06/18/2026  10:05:40  PAGE 4


                    0003H     0008H                  *** GAP ***
            CODE    000BH     0003H     ABSOLUTE     
                    000EH     000DH                  *** GAP ***
            CODE    001BH     0003H     ABSOLUTE     
                    001EH     0005H                  *** GAP ***
            CODE    0023H     0003H     ABSOLUTE     
                    0026H     0005H                  *** GAP ***
            CODE    002BH     0003H     ABSOLUTE     
                    002EH     0035H                  *** GAP ***
            CODE    0063H     0003H     ABSOLUTE     
                    0066H     0005H                  *** GAP ***
            CODE    006BH     0003H     ABSOLUTE     
                    006EH     008AH                  *** GAP ***
            CODE    00F8H     0008H     ABSOLUTE     
            CODE    0100H     196AH     UNIT         ?PR?CONTROL_FUNCTION1?CONTROL
            CODE    1A6AH     0F3AH     UNIT         ?PR?MODBUS_ANALYSIS_DATA1?MODBUS
            CODE    29A4H     0D77H     UNIT         ?PR?MODBUS_SALVE_HANDLER1?MODBUS
            CODE    371BH     0BF5H     UNIT         ?C?LIB_CODE
            CODE    4310H     09C9H     UNIT         ?C_INITSEG
            CODE    4CD9H     07A7H     UNIT         ?PR?_DATA_HANDLE?SYSTEM
            CODE    5480H     0483H     UNIT         ?PR?PRINTF?PRINTF
            CODE    5903H     0449H     UNIT         ?PR?ALL_DATA_UPDATE?PROTOCOL
            CODE    5D4CH     038EH     UNIT         ?PR?OTAENCODEPRO?OTA
            CODE    60DAH     02E3H     UNIT         ?PR?_DP_DOWNLOAD_INSIDE_TIME_OPEN_HANDLE?PROTOCOL
            CODE    63BDH     02B3H     UNIT         ?PR?_TEMP_LIMIT?CONTROL
            CODE    6670H     02ADH     UNIT         ?PR?TEMPUNIT_REFRESHALL?CONTROL
            CODE    691DH     0294H     UNIT         ?PR?TIMERRUNNING?CONTROL
            CODE    6BB1H     026BH     UNIT         ?PR?_DP_DOWNLOAD_INDOOR_UNIT_HANDLE?PROTOCOL
            CODE    6E1CH     026AH     UNIT         ?PR?_TIMESTAMP_TO_YMDHMS?PROTOCOL
            CODE    7086H     0260H     UNIT         ?PR?_ERRORHISTORY_FLASHREAD?ERRORHISTORY
            CODE    72E6H     0252H     UNIT         ?PR?_STRTOUL?STRTOUL
            CODE    7538H     024DH     UNIT         ?PR?UPLOAD_INDOOR_UNIT?UPLOAD
            CODE    7785H     023CH     UNIT         ?PR?_ERRORHISTORY_PACKREC?ERRORHISTORY
            CODE    79C1H     022BH     UNIT         ?PR?SYNCTIMERFROMVP?CONTROL
            CODE    7BECH     0200H     UNIT         ?PR?UPLOAD_EXTERNAL_TIME_OPEN?UPLOAD
            CODE    7DECH     01FBH     UNIT         ?PR?_MODBUS_APPLYINDOORTIMERVPTOUNITS?MODBUS
            CODE    7FE7H     01FAH     UNIT         ?PR?_MODBUS_FILLINDOORUNITREGS?MODBUS
            CODE    81E1H     01F8H     UNIT         ?PR?WIFI_UART_SERVICE?MCU_API
            CODE    83D9H     01EDH     UNIT         ?PR?_READ_DGUS_VP?SYS
            CODE    85C6H     01E0H     UNIT         ?PR?UPLOAD_INSIDE_TIME_OPEN?UPLOAD
            CODE    87A6H     01DEH     UNIT         ?PR?_DP_DOWNLOAD_EXTERNAL_TIME_OPEN_HANDLE?PROTOCOL
            CODE    8984H     01D6H     UNIT         ?PR?_DP_DOWNLOAD_TIMESTAMP_HANDLE?PROTOCOL
            CODE    8B5AH     01BEH     UNIT         ?PR?RDTIME?RTC
            CODE    8D18H     01B4H     UNIT         ?PR?_WRITE_DGUS_VP?SYS
            CODE    8ECCH     01ABH     UNIT         ?PR?RTC_GETUNIXLOCAL?RTC
            CODE    9077H     0197H     UNIT         ?PR?_ERRORHISTORY_UNPACKRECLEGACY?ERRORHISTORY
            CODE    920EH     0193H     UNIT         ?PR?_ERRORHISTORY_UNPACKREC?ERRORHISTORY
            CODE    93A1H     0182H     UNIT         ?PR?_DP_DOWNLOAD_HANDLE?PROTOCOL
            CODE    9523H     0176H     UNIT         ?PR?DEFROST_CHECKEXIT?CONTROL
            CODE    9699H     016FH     UNIT         ?PR?UPLOAD_HISTORY_FAULTS?UPLOAD
            CODE    9808H     016CH     UNIT         ?PR?MODBUS_REFRESHCHECKPARAMDISPLAY?MODBUS
            CODE    9974H     0167H     UNIT         ?PR?CHECK_RTC_SET?RTC
            CODE    9ADBH     0167H     UNIT         ?PR?_MY_MEMCPY?MCU_API
            CODE    9C42H     015FH     UNIT         ?PR?_MCU_DP_FAULT_UPDATE?MCU_API
            CODE    9DA1H     015EH     UNIT         ?PR?_UPDATEERRORHISTORY?ERRORHISTORY
            CODE    9EFFH     015CH     UNIT         ?PR?HOMEPAGE_ICON?CONTROL
            CODE    A05BH     0153H     UNIT         ?PR?SCREENSAVER_PRO?CONTROL
BL51 BANKED LINKER/LOCATER V6.22.2.0                                                  06/18/2026  10:05:40  PAGE 5


            CODE    A1AEH     0140H     UNIT         ?PR?_FLASHCHECKSUMCALCULATE?SYS
            CODE    A2EEH     0138H     UNIT         ?PR?_BYTE_TO_INT?MCU_API
            CODE    A426H     0129H     UNIT         ?PR?READY4WRITERTC?CONTROL
            CODE    A54FH     0126H     UNIT         ?PR?TIMER_APPLYINDOORON?CONTROL
            CODE    A675H     0121H     UNIT         ?PR?PRODUCT_INFO_UPDATE?SYSTEM
            CODE    A796H     011BH     UNIT         ?PR?_UPLOAD_ULTOSTR?UPLOAD
            CODE    A8B1H     0113H     UNIT         ?PR?RTCDISPLAY4CHANGE?CONTROL
            CODE    A9C4H     010FH     UNIT         ?PR?_ERRORHISTORY_READTIME?ERRORHISTORY
            CODE    AAD3H     010EH     UNIT         ?PR?PREFILLSETTEMPEDITPAGE?CONTROL
            CODE    ABE1H     010CH     UNIT         ?PR?T0_ISR_PC?SYS
            CODE    ACEDH     0106H     UNIT         ?PR?HOMEPAGE_SYNCINDOORDISPLAY?CONTROL
            CODE    ADF3H     0106H     UNIT         ?PR?_MODBUS_FILLGROUPCONTROLREGS?MODBUS
            CODE    AEF9H     0102H     UNIT         ?PR?ERRORHISTORYDISPLAY?ERRORHISTORY
            CODE    AFFBH     00FBH     UNIT         ?PR?_HOMEPAGE_UPDATEMODEANIMATION?CONTROL
            CODE    B0F6H     00F1H     UNIT         ?PR?_DP_DOWNLOAD_SWITCH_HANDLE?PROTOCOL
            CODE    B1E7H     00EEH     UNIT         ?PR?_KEYADJUSTSETTEMPFORMODE?CONTROL
            CODE    B2D5H     00E4H     UNIT         ?PR?_RTC_CONFIG?RTC
            CODE    B3B9H     00E2H     UNIT         ?PR?UPLOAD_INSIDE_TIME_CLOSE?UPLOAD
            CODE    B49BH     00E2H     UNIT         ?PR?UPLOAD_EXTERNAL_TIME_CLOSE?UPLOAD
            CODE    B57DH     00D8H     UNIT         ?PR?_DP_DOWNLOAD_MODE_HANDLE?PROTOCOL
            CODE    B655H     00D1H     UNIT         ?PR?_DP_DOWNLOAD_INSIDE_TIME_CLOSE_HANDLE?PROTOCOL
            CODE    B726H     00D1H     UNIT         ?PR?_DP_DOWNLOAD_EXTERNAL_TIME_CLOSE_HANDLE?PROTOCOL
            CODE    B7F7H     00C8H     UNIT         ?PR?UART5_RX_ISR_PC?UART
            CODE    B8BFH     00C7H     UNIT         ?PR?_TEMPUNITTRANS?CONTROL
            CODE    B986H     00C3H     UNIT         ?PR?INIT_RTC?RTC
            CODE    BA49H     00BFH     UNIT         ?PR?_MEMORY_WRITETIMERSLOT?SYS
            CODE    BB08H     00B9H     UNIT         ?PR?_CALCULATEMODBUSCRC?MODBUS
            CODE    BBC1H     00ACH     UNIT         ?PR?_TIMER_ISWEEKDAYMATCH?CONTROL
            CODE    BC6DH     00ACH     UNIT         ?PR?_MODBUS_PACKCHECKSTATUSBLOCK?MODBUS
            CODE    BD19H     00ACH     UNIT         ?PR?_UART_RECEIVE_INPUT?MCU_API
            CODE    BDC5H     00ABH     UNIT         ?PR?_ERRORHISTORY_FLASHWRITE?ERRORHISTORY
            CODE    BE70H     00A7H     UNIT         ?PR?_MCU_DP_VALUE_UPDATE?MCU_API
            CODE    BF17H     00A5H     UNIT         ?PR?_DP_DOWNLOAD_TEMP_SET_HANDLE?PROTOCOL
            CODE    BFBCH     00A4H     UNIT         ?PR?RTCUPDATE?RTC
            CODE    C060H     00A1H     UNIT         ?C_C51STARTUP
            CODE    C101H     00A0H     UNIT         ?PR?_MEMORY_READTIMERSLOT?SYS
            CODE    C1A1H     009FH     UNIT         ?PR?_MCU_FIRM_UPDATE_HANDLE?PROTOCOL
            CODE    C240H     009BH     UNIT         ?PR?_SYNCSETTEMPCACHESFROMC?CONTROL
            CODE    C2DBH     009BH     UNIT         ?PR?UPLOAD_CHECK_STATUS?UPLOAD
            CODE    C376H     0094H     UNIT         ?PR?UART2_ISR_PC?UART
            CODE    C40AH     0094H     UNIT         ?PR?_RTC_GET_WEEK?RTC
            CODE    C49EH     0091H     UNIT         ?PR?_RTC_WRITEDISPLAYTIME?RTC
            CODE    C52FH     0091H     UNIT         ?PR?_RTC_WRITEEDITTIME?RTC
            CODE    C5C0H     008AH     UNIT         ?PR?ERRORHISTORY_TRYMIGRATEFLASH?ERRORHISTORY
            CODE    C64AH     008AH     UNIT         ?PR?_MY_STRCPY?MCU_API
            CODE    C6D4H     0086H     UNIT         ?PR?_DATA_POINT_HANDLE?SYSTEM
            CODE    C75AH     0083H     UNIT         ?PR?_READTIMERTEMPC?CONTROL
            CODE    C7DDH     0083H     UNIT         ?PR?_MODBUS_APPENDMODESETTEMPREG?MODBUS
            CODE    C860H     0080H     UNIT         ?PR?_MODBUS_INDOORREGSCHANGED?MODBUS
            CODE    C8E0H     007DH     UNIT         ?PR?UPLOAD_PACKTIMERROOMBYTE?UPLOAD
            CODE    C95DH     007CH     UNIT         ?PR?MODBUSCHANELCONTROL?MAIN
            CODE    C9D9H     007BH     UNIT         ?PR?OTADECODEPRO?OTA
            CODE    CA54H     0079H     UNIT         ?PR?_GETTIMEDIFF?RTC
            CODE    CACDH     0078H     UNIT         ?PR?TIMER_APPLYINDOOROFF?CONTROL
            CODE    CB45H     0075H     UNIT         ?PR?_MY_STRLEN?MCU_API
            CODE    CBBAH     0074H     UNIT         ?PR?_SYNCINDOORROOMTEMPVPPAIR?CONTROL
            CODE    CC2EH     0073H     UNIT         ?PR?_MY_STRCMP?MCU_API
BL51 BANKED LINKER/LOCATER V6.22.2.0                                                  06/18/2026  10:05:40  PAGE 6


            CODE    CCA1H     0071H     UNIT         ?PR?_UART5_SENDSTR?UART
            CODE    CD12H     0071H     UNIT         ?PR?UART5_TX_ISR_PC?UART
            CODE    CD83H     0071H     UNIT         ?PR?_HEX_TO_BCD?MCU_API
            CODE    CDF4H     0070H     UNIT         ?PR?_MODBUS_WRITEFLOATTEMPPAIR?MODBUS
            CODE    CE64H     006DH     UNIT         ?PR?TEMPUNIT_REFRESHACTIVESETFROMMODE?CONTROL
            CODE    CED1H     006DH     UNIT         ?PR?_ERRORHISTORY_CONVERTLEGACYRAWREC?ERRORHISTORY
            CODE    CF3EH     006CH     UNIT         ?PR?_SET_WIFI_UART_BUFFER?SYSTEM
            CODE    CFAAH     0069H     UNIT         ?PR?_WIFI_UART_WRITE_FRAME?SYSTEM
            CODE    D013H     0067H     UNIT         ?PR?INIT_CPU?SYS
            CODE    D07AH     0066H     UNIT         ?PR?_SYNCINDOORSETTEMPVPPAIR?CONTROL
            CODE    D0E0H     0066H     UNIT         ?PR?_MODBUS_GROUPREGSCHANGED?MODBUS
            CODE    D146H     0066H     UNIT         ?PR?UPLOAD_TIMESTAMP_FROM_RTC?UPLOAD
            CODE    D1ACH     0065H     UNIT         ?PR?GETVALUE0F00?CONTROL
            CODE    D211H     0065H     UNIT         ?PR?_MODBUS_SAVEINDOORSENTREGS?MODBUS
            CODE    D276H     0064H     UNIT         ?PR?_SETTEMPINTVPBYMODE?CONTROL
            CODE    D2DAH     0064H     UNIT         ?PR?_UPLOAD_VALUEIFCHANGED?UPLOAD
            CODE    D33EH     0063H     UNIT         ?PR?TAKE_BYTE_RXBUFF?SYSTEM
            CODE    D3A1H     0060H     UNIT         ?PR?_INT_TO_BYTE?MCU_API
            CODE    D401H     005FH     UNIT         ?PR?_SYNCTIMERTEMPVPPAIR?CONTROL
            CODE    D460H     005EH     UNIT         ?PR?MAIN?MAIN
            CODE    D4BEH     005CH     UNIT         ?PR?_TEMPUNIT_REFRESHFLOATPAIR?CONTROL
            CODE    D51AH     005BH     UNIT         ?PR?_MCU_DP_RAW_UPDATE?MCU_API
            CODE    D575H     005BH     UNIT         ?PR?_MCU_DP_STRING_UPDATE?MCU_API
            CODE    D5D0H     0058H     UNIT         ?PR?_MY_MEMSET?MCU_API
            CODE    D628H     0055H     UNIT         ?PR?T1_ISR_PC?SYS
            CODE    D67DH     0055H     UNIT         ?CO?CONTROL
            CODE    D6D2H     0054H     UNIT         ?PR?_MODBUS_ISFAULTACTIVE?MODBUS
            CODE    D726H     0054H     UNIT         ?PR?DECODEERRORHISTORY?ERRORHISTORY
            CODE    D77AH     0054H     UNIT         ?PR?_WIFI_UART_WRITE_DATA?SYSTEM
            CODE    D7CEH     0052H     UNIT         ?CO?SYS
            CODE    D820H     0051H     UNIT         ?PR?_MODBUS_TRIGGERINDOORUNITWRITE?MODBUS
            CODE    D871H     0050H     UNIT         ?PR?ERRORHISTORY_SANITIZE?ERRORHISTORY
            CODE    D8C1H     004EH     UNIT         ?PR?SAVE_DATA_HANDLER?SYS
            CODE    D90FH     004CH     UNIT         ?PR?_MODBUS_SAVEGROUPSENTREGS?MODBUS
            CODE    D95BH     004CH     UNIT         ?PR?_GETMODBUSREG?MODBUS
            CODE    D9A7H     004BH     UNIT         ?PR?_MODBUS_APPENDU16?MODBUS
            CODE    D9F2H     004AH     UNIT         ?PR?_GET_CHECK_SUM?SYSTEM
            CODE    DA3CH     0049H     UNIT         ?PR?_MODBUS_GETCHECKSTATUS?MODBUS
            CODE    DA85H     0045H     UNIT         ?PR?_DGUS_WAITEN?SYS
            CODE    DACAH     0045H     UNIT         ?PR?SCREENTIMEOUT_SET?SYS
            CODE    DB0FH     0045H     UNIT         ?PR?_SETTEMPFLOATWRITEC?CONTROL
            CODE    DB54H     0045H     UNIT         ?PR?MODBUS_STARTMANUALDEFROST?MODBUS
            CODE    DB99H     0044H     UNIT         ?PR?SYSTEM_PARM_INIT?SYS
            CODE    DBDDH     0044H     UNIT         ?PR?HOMEPAGE?CONTROL
            CODE    DC21H     0044H     UNIT         ?PR?ERRORHISTORY_FLASHCOMMITNOW?ERRORHISTORY
            CODE    DC65H     0044H     UNIT         ?PR?CLEARERRORHISTORY?ERRORHISTORY
            CODE    DCA9H     0044H     UNIT         ?PR?_MCU_DP_BOOL_UPDATE?MCU_API
            CODE    DCEDH     0043H     UNIT         ?PR?WIFI_RESTING_PRO?CONTROL
            CODE    DD30H     0042H     UNIT         ?CO?PROTOCOL
            CODE    DD72H     0041H     UNIT         ?PR?_PAGE_CHANGE_HANDLER?SYS
            CODE    DDB3H     0041H     UNIT         ?PR?_DP_DOWNLOAD_TEMP_UNIT_CONVERT_HANDLE?PROTOCOL
            CODE    DDF4H     003FH     UNIT         ?PR?_UART_RECEIVE_BUFF_INPUT?MCU_API
            CODE    DE33H     003EH     UNIT         ?PR?_MODBUS_ENCODEINDOORRUNMODE?MODBUS
            CODE    DE71H     003EH     UNIT         ?PR?_RTCI2CBW?RTC
            CODE    DEAFH     003EH     UNIT         ?PR?_MCU_DP_ENUM_UPDATE?MCU_API
            CODE    DEEDH     003EH     UNIT         ?PR?_DP_DOWNLOAD_CHILD_LOCK_HANDLE?PROTOCOL
            CODE    DF2BH     003BH     UNIT         ?PR?MODBUS_STARTNEXTTIMERWRITE?MODBUS
BL51 BANKED LINKER/LOCATER V6.22.2.0                                                  06/18/2026  10:05:40  PAGE 7


            CODE    DF66H     003BH     UNIT         ?CO?SYSTEM
            CODE    DFA1H     0039H     UNIT         ?PR?READY_TO_SAVE?SYS
            CODE    DFDAH     0039H     UNIT         ?PR?_DP_DOWNLOAD_RELAY_STATUS_HANDLE?PROTOCOL
            CODE    E013H     0038H     UNIT         ?PR?UPLOAD_ELECTRICITY_STATISTICS?UPLOAD
            CODE    E04BH     0038H     UNIT         ?CO?UPLOAD
            CODE    E083H     0037H     UNIT         ?PR?_MODBUS_REPORTFAULTCODE?MODBUS
            CODE    E0BAH     0036H     UNIT         ?PR?UNITCHANGEPRO?CONTROL
            CODE    E0F0H     0036H     UNIT         ?PR?_DP_DOWNLOAD_DEFROST_HANDLE?PROTOCOL
            CODE    E126H     0035H     UNIT         ?PR?_RTC_DAYS_IN_MONTH?RTC
            CODE    E15BH     0035H     UNIT         ?PR?WITH_DATA_RXBUFF?SYSTEM
            CODE    E190H     0033H     UNIT         ?PR?_ERRORHISTORY_PAGECHANGE?ERRORHISTORY
            CODE    E1C3H     0032H     UNIT         ?PR?_DELAY_US?RTC
            CODE    E1F5H     0032H     UNIT         ?PR?RTCI2CBR?RTC
            CODE    E227H     0030H     UNIT         ?PR?_SETTEMPINTREAD?CONTROL
            CODE    E257H     0030H     UNIT         ?PR?_SETTEMPINTWRITE?CONTROL
            CODE    E287H     0030H     UNIT         ?PR?_IS_LEAP_YEAR?PROTOCOL
            CODE    E2B7H     002FH     UNIT         ?PR?_GET_DOWMLOAD_DPID_INDEX?SYSTEM
            CODE    E2E6H     002CH     UNIT         ?PR?_SET_WIFI_UART_BYTE?SYSTEM
            CODE    E312H     002BH     UNIT         ?PR?_ERRORHISTORY_ISVALIDCODE?ERRORHISTORY
            CODE    E33DH     0029H     UNIT         ?PR?_MODBUS_ENCODEINDOORFAN?MODBUS
            CODE    E366H     0029H     UNIT         ?PR?RTCCACK?RTC
            CODE    E38FH     0029H     UNIT         ?PR?_MODE_MAP_TO_DGUS?PROTOCOL
            CODE    E3B8H     0028H     UNIT         ?PR?_LANGUAGE_CHANGE?SYS
            CODE    E3E0H     0028H     UNIT         ?PR?OTARELOAD_DELAYPAGE?CONTROL
            CODE    E408H     0028H     UNIT         ?PR?_RTC_IS_LEAP?RTC
            CODE    E430H     0028H     UNIT         ?PR?WIFI_PROTOCOL_INIT?MCU_API
            CODE    E458H     0027H     UNIT         ?PR?_MODBUS_QUEUEINDOORTIMERWRITE?MODBUS
            CODE    E47FH     0027H     UNIT         ?PR?HEAT_BEAT_CHECK?SYSTEM
            CODE    E4A6H     0026H     UNIT         ?PR?_ISITHOMEPAGE?CONTROL
            CODE    E4CCH     0026H     UNIT         ?PR?OTAINIT?OTA
            CODE    E4F2H     0023H     UNIT         ?PR?UI_OPENPAGE?MAIN
            CODE    E515H     0022H     UNIT         ?PR?GETPAGEID?CONTROL
            CODE    E537H     0022H     UNIT         ?PR?ERRORHISTORY_GETCOUNT?ERRORHISTORY
            CODE    E559H     0022H     UNIT         ?PR?_DP_DOWNLOAD_HISTORY_FAULT_EMPTY_HANDLE?PROTOCOL
            CODE    E57BH     0021H     UNIT         ?PR?_UPLOAD_CLAMPINDOORTEMP?UPLOAD
            CODE    E59CH     0020H     UNIT         ?PR?_BRIGHTNESS_HANDLER?SYS
            CODE    E5BCH     0020H     UNIT         ?PR?_DELAYUS?SYS
            CODE    E5DCH     0020H     UNIT         ?PR?_DELAYMS?SYS
            CODE    E5FCH     0020H     UNIT         ?PR?_SETMODEPROCESS?CONTROL
            CODE    E61CH     0020H     UNIT         ?PR?_PUTCHAR?UART
            CODE    E63CH     0020H     UNIT         ?PR?OTARECVPRO?OTA
            CODE    E65CH     001FH     UNIT         ?PR?_UPLOAD_DGUSMODETODP116?UPLOAD
            CODE    E67BH     001FH     UNIT         ?CO?MCU_API
            CODE    E69AH     001EH     UNIT         ?PR?_UPLOAD_WORKSTATETODP?UPLOAD
            CODE    E6B8H     001DH     UNIT         ?PR?UART2_INIT?UART
            CODE    E6D5H     001DH     UNIT         ?PR?MODBUS_TRIGGERGROUPCONTROLWRITE?MODBUS
            CODE    E6F2H     001AH     UNIT         ?PR?_DP117_MODE_TO_DGUS?PROTOCOL
            CODE    E70CH     0018H     UNIT         ?PR?RTCI2CSTART?RTC
            CODE    E724H     0018H     UNIT         ?PR?_UPLOAD_MODETODP101?UPLOAD
            CODE    E73CH     0018H     UNIT         ?PR?OTA_MODBUSPRO?OTA
            CODE    E754H     0017H     UNIT         ?PR?RTCI2CSTOP?RTC
            CODE    E76BH     0017H     UNIT         ?PR?MCU_RESET_WIFI?MCU_API
            CODE    E782H     0017H     UNIT         ?PR?_MCU_SET_WIFI_MODE?MCU_API
            CODE    E799H     0017H     UNIT         ?PR?MCU_GET_WIFI_WORK_STATE?MCU_API
            CODE    E7B0H     0016H     UNIT         ?PR?T2_INIT?SYS
            CODE    E7C6H     0016H     UNIT         ?PR?_MODBUS_PACKCHECKSTATUSBYTE?MODBUS
            CODE    E7DCH     0015H     UNIT         ?PR?UART5_INIT?UART
BL51 BANKED LINKER/LOCATER V6.22.2.0                                                  06/18/2026  10:05:40  PAGE 8


            CODE    E7F1H     0014H     UNIT         ?PR?READ_NOR_FLASH?SYS
            CODE    E805H     0014H     UNIT         ?PR?WRITE_NOR_FLASH?SYS
            CODE    E819H     0014H     UNIT         ?PR?_MODBUS_TRIGGERDEFROSTPARAMWRITE?MODBUS
            CODE    E82DH     0014H     UNIT         ?PR?_UPLOAD_BOOLIFCHANGED?UPLOAD
            CODE    E841H     0014H     UNIT         ?PR?_UPLOAD_ENUMIFCHANGED?UPLOAD
            CODE    E855H     0013H     UNIT         ?PR?T2_ISR_PC?SYS
            CODE    E868H     0013H     UNIT         ?PR?_BCD?RTC
            CODE    E87BH     0013H     UNIT         ?PR?_ERRORHISTORY_CLAMPBYTE?ERRORHISTORY
            CODE    E88EH     0013H     UNIT         ?PR?_UPGRADE_PACKAGE_CHOOSE?PROTOCOL
            CODE    E8A1H     0013H     UNIT         ?PR?_FILE_DOWNLOAD_PACKAGE_CHOOSE?PROTOCOL
            CODE    E8B4H     0012H     UNIT         ?PR?UART4_INIT?UART
            CODE    E8C6H     0012H     UNIT         ?PR?RTCMACK?RTC
            CODE    E8D8H     0012H     UNIT         ?PR?_FILE_DOWNLOAD_HANDLE?PROTOCOL
            CODE    E8EAH     0010H     UNIT         ?PR?T0_INIT?SYS
            CODE    E8FAH     0010H     UNIT         ?PR?T1_INIT?SYS
            CODE    E90AH     0010H     UNIT         ?PR?RTCMNAK?RTC
            CODE    E91AH     0010H     UNIT         ?CO?RTC
            CODE    E92AH     0010H     UNIT         ?PR?ERRORHISTORY_GETMAXPAGE?ERRORHISTORY
            CODE    E93AH     000FH     UNIT         ?PR?_DELAY_MS?SYS
            CODE    E949H     000FH     UNIT         ?PR?GETSYSTICKTIME?RTC
            CODE    E958H     000EH     UNIT         ?PR?ERRORHISTORY_INIT?ERRORHISTORY
            CODE    E966H     000DH     UNIT         ?PR?_RTC_MONTHFROMDISPLAYVP?RTC
            CODE    E973H     000DH     UNIT         ?PR?_MCU_GET_DP_DOWNLOAD_BOOL?MCU_API
            CODE    E980H     000DH     UNIT         ?PR?_MCU_GET_DP_DOWNLOAD_ENUM?MCU_API
            CODE    E98DH     000CH     UNIT         ?PR?_UART2SENDDATA?UART
            CODE    E999H     000CH     UNIT         ?CO?ERRORHISTORY
            CODE    E9A5H     000CH     UNIT         ?PR?UPLOAD_ALL_TIMERS?UPLOAD
            CODE    E9B1H     000CH     UNIT         ?PR?UPLOAD_REPORT_POLL?UPLOAD
            CODE    E9BDH     000BH     UNIT         ?PR?_MCU_GET_DP_DOWNLOAD_VALUE?MCU_API
            CODE    E9C8H     000AH     UNIT         ?PR?PORT_INIT?SYS
            CODE    E9D2H     000AH     UNIT         ?PR?MCU_START_WIFITEST?MCU_API
            CODE    E9DCH     000AH     UNIT         ?PR?GET_MCU_WIFI_MODE?SYSTEM
            CODE    E9E6H     0009H     UNIT         ?PR?UPLOAD_TIMESTAMP_BOOT_ONCE?UPLOAD
            CODE    E9EFH     0009H     UNIT         ?PR?_WIFI_TEST_RESULT?PROTOCOL
            CODE    E9F8H     0008H     UNIT         ?CO?MODBUS
            CODE    EA00H     0008H     UNIT         ?PR?ERRORHISTORY_FLASHVPADDR?ERRORHISTORY
            CODE    EA08H     0007H     UNIT         ?PR?UPLOAD_REQUEST_REPORT?UPLOAD
            CODE    EA0FH     0007H     UNIT         ?PR?UPLOAD_REPORT_FORCE_SYNC?UPLOAD
            CODE    EA16H     0006H     UNIT         ?PR?READY_TO_SAVE_REPORT?SYS
            CODE    EA1CH     0006H     UNIT         ?PR?RTC_GET_WEEKDAY?RTC
            CODE    EA22H     0006H     UNIT         ?PR?ERRORHISTORY_RESETPAGE?ERRORHISTORY
            CODE    EA28H     0006H     UNIT         ?PR?WIFI_INIT?WIFIPRO
            CODE    EA2EH     0006H     UNIT         ?PR?MCU_GET_RESET_WIFI_FLAG?MCU_API
            CODE    EA34H     0006H     UNIT         ?PR?MCU_GET_WIFIMODE_FLAG?MCU_API
            CODE    EA3AH     0003H     UNIT         ?PR?MODBUS_INIT?MODBUS
            CODE    EA3DH     0003H     UNIT         ?PR?_UART_TRANSMIT_OUTPUT?PROTOCOL
            CODE    EA40H     0003H     UNIT         ?PR?GET_DOWNLOAD_CMD_TOTAL?PROTOCOL
            CODE    EA43H     0001H     UNIT         ?PR?WRITE_MEMORY?SYS
            CODE    EA44H     0001H     UNIT         ?PR?READ_MEMORY?SYS
            CODE    EA45H     0001H     UNIT         ?PR?READ_MEMORY_ERROR?SYS
            CODE    EA46H     0001H     UNIT         ?PR?_UWOERRORCODEPROCESS?ERRORHISTORY



OVERLAY MAP OF MODULE:   .\obj\T5L51 (?C_STARTUP)


BL51 BANKED LINKER/LOCATER V6.22.2.0                                                  06/18/2026  10:05:40  PAGE 9


SEGMENT                                             BIT_GROUP          DATA_GROUP          XDATA_GROUP
  +--> CALLED SEGMENT                            START    LENGTH     START    LENGTH     START    LENGTH
--------------------------------------------------------------------------------------------------------
?C_C51STARTUP                                    -----    -----      -----    -----      -----    -----
  +--> ?PR?MAIN?MAIN
  +--> ?C_INITSEG

?PR?MAIN?MAIN                                    -----    -----      -----    -----      -----    -----
  +--> ?PR?INIT_CPU?SYS
  +--> ?PR?PORT_INIT?SYS
  +--> ?PR?T0_INIT?SYS
  +--> ?PR?T1_INIT?SYS
  +--> ?PR?T2_INIT?SYS
  +--> ?PR?MODBUS_INIT?MODBUS
  +--> ?PR?UART4_INIT?UART
  +--> ?PR?WIFI_INIT?WIFIPRO
  +--> ?PR?INIT_RTC?RTC
  +--> ?PR?SYSTEM_PARM_INIT?SYS
  +--> ?PR?WIFI_UART_SERVICE?MCU_API
  +--> ?PR?CONTROL_FUNCTION1?CONTROL
  +--> ?PR?MCU_GET_WIFI_WORK_STATE?MCU_API
  +--> ?PR?UI_OPENPAGE?MAIN
  +--> ?PR?WIFI_RESTING_PRO?CONTROL

?PR?MODBUS_INIT?MODBUS                           -----    -----      -----    -----      -----    -----
  +--> ?PR?UART5_INIT?UART

?PR?WIFI_INIT?WIFIPRO                            -----    -----      -----    -----      -----    -----
  +--> ?PR?UART2_INIT?UART
  +--> ?PR?WIFI_PROTOCOL_INIT?MCU_API

?PR?INIT_RTC?RTC                                 -----    -----      -----    -----      8C22H    0002H
  +--> ?PR?RTCI2CSTART?RTC
  +--> ?PR?_RTCI2CBW?RTC
  +--> ?PR?RTCI2CSTOP?RTC
  +--> ?PR?RTCI2CBR?RTC
  +--> ?PR?RTCMACK?RTC
  +--> ?PR?RTCMNAK?RTC

?PR?RTCI2CSTART?RTC                              -----    -----      -----    -----      -----    -----
  +--> ?PR?_DELAY_US?RTC

?PR?_DELAY_US?RTC                                -----    -----      0008H    0004H      -----    -----

?PR?_RTCI2CBW?RTC                                -----    -----      -----    -----      -----    -----
  +--> ?PR?_DELAY_US?RTC
  +--> ?PR?RTCCACK?RTC

?PR?RTCCACK?RTC                                  -----    -----      -----    -----      -----    -----
  +--> ?PR?_DELAY_US?RTC

?PR?RTCI2CSTOP?RTC                               -----    -----      -----    -----      -----    -----
  +--> ?PR?_DELAY_US?RTC

?PR?RTCI2CBR?RTC                                 -----    -----      -----    -----      -----    -----
  +--> ?PR?_DELAY_US?RTC

BL51 BANKED LINKER/LOCATER V6.22.2.0                                                  06/18/2026  10:05:40  PAGE 10


?PR?RTCMACK?RTC                                  -----    -----      -----    -----      -----    -----
  +--> ?PR?_DELAY_US?RTC

?PR?RTCMNAK?RTC                                  -----    -----      -----    -----      -----    -----
  +--> ?PR?_DELAY_US?RTC

?PR?SYSTEM_PARM_INIT?SYS                         -----    -----      -----    -----      8C22H    0002H
  +--> ?PR?READ_NOR_FLASH?SYS
  +--> ?PR?_DELAY_MS?SYS
  +--> ?PR?_READ_DGUS_VP?SYS
  +--> ?PR?_FLASHCHECKSUMCALCULATE?SYS
  +--> ?PR?READ_MEMORY_ERROR?SYS
  +--> ?PR?READ_MEMORY?SYS

?PR?READ_NOR_FLASH?SYS                           -----    -----      -----    -----      -----    -----
  +--> ?CO?SYS
  +--> ?PR?_WRITE_DGUS_VP?SYS
  +--> ?PR?_DELAY_MS?SYS
  +--> ?PR?_READ_DGUS_VP?SYS

?PR?_WRITE_DGUS_VP?SYS                           -----    -----      -----    -----      8DE1H    000FH

?PR?_READ_DGUS_VP?SYS                            -----    -----      -----    -----      8C87H    0015H

?PR?_FLASHCHECKSUMCALCULATE?SYS                  -----    -----      -----    -----      8C24H    002AH
  +--> ?CO?SYS
  +--> ?PR?_READ_DGUS_VP?SYS

?PR?WIFI_UART_SERVICE?MCU_API                    -----    -----      -----    -----      8C22H    0004H
  +--> ?PR?WITH_DATA_RXBUFF?SYSTEM
  +--> ?PR?TAKE_BYTE_RXBUFF?SYSTEM
  +--> ?PR?_GET_CHECK_SUM?SYSTEM
  +--> ?PR?_DATA_HANDLE?SYSTEM
  +--> ?PR?_MY_MEMCPY?MCU_API

?PR?_GET_CHECK_SUM?SYSTEM                        -----    -----      -----    -----      8CCFH    0006H

?PR?_DATA_HANDLE?SYSTEM                          -----    -----      -----    -----      8C26H    0013H
  +--> ?PR?HEAT_BEAT_CHECK?SYSTEM
  +--> ?PR?PRODUCT_INFO_UPDATE?SYSTEM
  +--> ?PR?GET_MCU_WIFI_MODE?SYSTEM
  +--> ?PR?_DATA_POINT_HANDLE?SYSTEM
  +--> ?PR?ALL_DATA_UPDATE?PROTOCOL
  +--> ?PR?_UPGRADE_PACKAGE_CHOOSE?PROTOCOL
  +--> ?PR?_MCU_FIRM_UPDATE_HANDLE?PROTOCOL
  +--> ?PR?_WIFI_UART_WRITE_FRAME?SYSTEM
  +--> ?PR?_WIFI_TEST_RESULT?PROTOCOL
  +--> ?PR?_FILE_DOWNLOAD_PACKAGE_CHOOSE?PRO...
  +--> ?PR?_FILE_DOWNLOAD_HANDLE?PROTOCOL

?PR?HEAT_BEAT_CHECK?SYSTEM                       -----    -----      -----    -----      -----    -----
  +--> ?PR?_SET_WIFI_UART_BYTE?SYSTEM
  +--> ?PR?_WIFI_UART_WRITE_FRAME?SYSTEM

?PR?_SET_WIFI_UART_BYTE?SYSTEM                   -----    -----      -----    -----      8CCDH    0002H

?PR?_WIFI_UART_WRITE_FRAME?SYSTEM                -----    -----      -----    -----      8CCDH    0002H
BL51 BANKED LINKER/LOCATER V6.22.2.0                                                  06/18/2026  10:05:40  PAGE 11


  +--> ?PR?_GET_CHECK_SUM?SYSTEM
  +--> ?PR?_WIFI_UART_WRITE_DATA?SYSTEM

?PR?_WIFI_UART_WRITE_DATA?SYSTEM                 -----    -----      -----    -----      8CCFH    0005H
  +--> ?PR?_UART_TRANSMIT_OUTPUT?PROTOCOL

?PR?_UART_TRANSMIT_OUTPUT?PROTOCOL               -----    -----      -----    -----      -----    -----
  +--> ?PR?_UART2SENDDATA?UART

?PR?PRODUCT_INFO_UPDATE?SYSTEM                   -----    -----      -----    -----      8C39H    000DH
  +--> ?CO?SYSTEM
  +--> ?PR?_MY_STRLEN?MCU_API
  +--> ?PR?_SET_WIFI_UART_BUFFER?SYSTEM
  +--> ?PR?_WIFI_UART_WRITE_FRAME?SYSTEM

?PR?_MY_STRLEN?MCU_API                           -----    -----      -----    -----      8C46H    0007H

?PR?_SET_WIFI_UART_BUFFER?SYSTEM                 -----    -----      -----    -----      8CCDH    0007H
  +--> ?PR?_MY_MEMCPY?MCU_API

?PR?_MY_MEMCPY?MCU_API                           -----    -----      -----    -----      8CD4H    0010H

?PR?GET_MCU_WIFI_MODE?SYSTEM                     -----    -----      -----    -----      -----    -----
  +--> ?PR?_WIFI_UART_WRITE_FRAME?SYSTEM

?PR?_DATA_POINT_HANDLE?SYSTEM                    -----    -----      -----    -----      8C39H    0007H
  +--> ?PR?_GET_DOWMLOAD_DPID_INDEX?SYSTEM
  +--> ?PR?_DP_DOWNLOAD_HANDLE?PROTOCOL

?PR?_GET_DOWMLOAD_DPID_INDEX?SYSTEM              -----    -----      -----    -----      8C40H    0001H
  +--> ?PR?GET_DOWNLOAD_CMD_TOTAL?PROTOCOL

?PR?_DP_DOWNLOAD_HANDLE?PROTOCOL                 -----    -----      -----    -----      8C40H    0007H
  +--> ?PR?_DP_DOWNLOAD_SWITCH_HANDLE?PROTOCOL
  +--> ?PR?_DP_DOWNLOAD_MODE_HANDLE?PROTOCOL
  +--> ?PR?_DP_DOWNLOAD_CHILD_LOCK_HANDLE?PR...
  +--> ?PR?_DP_DOWNLOAD_TEMP_SET_HANDLE?PROT...
  +--> ?PR?_DP_DOWNLOAD_TEMP_UNIT_CONVERT_HA...
  +--> ?PR?_DP_DOWNLOAD_DEFROST_HANDLE?PROTOCOL
  +--> ?PR?_DP_DOWNLOAD_RELAY_STATUS_HANDLE?...
  +--> ?PR?_DP_DOWNLOAD_TIMESTAMP_HANDLE?PRO...
  +--> ?PR?_DP_DOWNLOAD_INDOOR_UNIT_HANDLE?P...
  +--> ?PR?_DP_DOWNLOAD_HISTORY_FAULT_EMPTY_...
  +--> ?PR?_DP_DOWNLOAD_INSIDE_TIME_OPEN_HAN...
  +--> ?PR?_DP_DOWNLOAD_EXTERNAL_TIME_OPEN_H...
  +--> ?PR?_DP_DOWNLOAD_INSIDE_TIME_CLOSE_HA...
  +--> ?PR?_DP_DOWNLOAD_EXTERNAL_TIME_CLOSE_...

?PR?_DP_DOWNLOAD_SWITCH_HANDLE?PROTOCOL          -----    -----      -----    -----      8C47H    0005H
  +--> ?PR?_MCU_GET_DP_DOWNLOAD_BOOL?MCU_API
  +--> ?PR?_READ_DGUS_VP?SYS
  +--> ?PR?_WRITE_DGUS_VP?SYS
  +--> ?PR?READY_TO_SAVE_REPORT?SYS
  +--> ?PR?_MCU_DP_BOOL_UPDATE?MCU_API

?PR?_MCU_GET_DP_DOWNLOAD_BOOL?MCU_API            -----    -----      -----    -----      8C4CH    0002H

BL51 BANKED LINKER/LOCATER V6.22.2.0                                                  06/18/2026  10:05:40  PAGE 12


?PR?READY_TO_SAVE_REPORT?SYS                     -----    -----      -----    -----      -----    -----
  +--> ?PR?READY_TO_SAVE?SYS
  +--> ?PR?UPLOAD_REQUEST_REPORT?UPLOAD

?PR?READY_TO_SAVE?SYS                            -----    -----      -----    -----      8C67H    0002H
  +--> ?PR?_READ_DGUS_VP?SYS

?PR?_MCU_DP_BOOL_UPDATE?MCU_API                  -----    -----      -----    -----      8C4FH    0001H
  +--> ?PR?_SET_WIFI_UART_BYTE?SYSTEM
  +--> ?PR?_WIFI_UART_WRITE_FRAME?SYSTEM

?PR?_DP_DOWNLOAD_MODE_HANDLE?PROTOCOL            -----    -----      -----    -----      8C47H    0003H
  +--> ?PR?_MCU_GET_DP_DOWNLOAD_ENUM?MCU_API
  +--> ?PR?_WRITE_DGUS_VP?SYS
  +--> ?PR?READY_TO_SAVE_REPORT?SYS
  +--> ?PR?_READ_DGUS_VP?SYS
  +--> ?PR?_MCU_DP_ENUM_UPDATE?MCU_API

?PR?_MCU_GET_DP_DOWNLOAD_ENUM?MCU_API            -----    -----      -----    -----      8C4AH    0002H

?PR?_MCU_DP_ENUM_UPDATE?MCU_API                  -----    -----      -----    -----      8C4FH    0001H
  +--> ?PR?_SET_WIFI_UART_BYTE?SYSTEM
  +--> ?PR?_WIFI_UART_WRITE_FRAME?SYSTEM

?PR?_DP_DOWNLOAD_CHILD_LOCK_HANDLE?PR...         -----    -----      -----    -----      8C47H    0001H
  +--> ?PR?_MCU_GET_DP_DOWNLOAD_BOOL?MCU_API
  +--> ?PR?HOMEPAGE?CONTROL
  +--> ?PR?_WRITE_DGUS_VP?SYS
  +--> ?PR?_MCU_DP_BOOL_UPDATE?MCU_API

?PR?HOMEPAGE?CONTROL                             0023H.1  0000H.1    -----    -----      8C48H    0002H
  +--> ?PR?GETPAGEID?CONTROL
  +--> ?PR?_ISITHOMEPAGE?CONTROL
  +--> ?PR?_READ_DGUS_VP?SYS
  +--> ?PR?_PAGE_CHANGE_HANDLER?SYS
  +--> ?PR?HOMEPAGE_SYNCINDOORDISPLAY?CONTROL

?PR?GETPAGEID?CONTROL                            -----    -----      -----    -----      8C4AH    0002H
  +--> ?PR?_READ_DGUS_VP?SYS

?PR?_ISITHOMEPAGE?CONTROL                        0023H.2  0000H.1    -----    -----      -----    -----

?PR?_PAGE_CHANGE_HANDLER?SYS                     -----    -----      -----    -----      -----    -----
  +--> ?PR?_WRITE_DGUS_VP?SYS
  +--> ?PR?_DELAY_MS?SYS
  +--> ?PR?_READ_DGUS_VP?SYS

?PR?HOMEPAGE_SYNCINDOORDISPLAY?CONTROL           -----    -----      -----    -----      8C60H    0004H
  +--> ?PR?_READ_DGUS_VP?SYS
  +--> ?PR?_WRITE_DGUS_VP?SYS
  +--> ?PR?_HOMEPAGE_UPDATEMODEANIMATION?CON...

?PR?_HOMEPAGE_UPDATEMODEANIMATION?CON...         -----    -----      -----    -----      8C64H    0006H
  +--> ?PR?_WRITE_DGUS_VP?SYS

?PR?_DP_DOWNLOAD_TEMP_SET_HANDLE?PROT...         -----    -----      -----    -----      8C47H    000AH
  +--> ?PR?_MCU_GET_DP_DOWNLOAD_VALUE?MCU_API
BL51 BANKED LINKER/LOCATER V6.22.2.0                                                  06/18/2026  10:05:40  PAGE 13


  +--> ?PR?_WRITE_DGUS_VP?SYS
  +--> ?PR?_READ_DGUS_VP?SYS
  +--> ?PR?_SETTEMPINTWRITE?CONTROL
  +--> ?PR?_SYNCSETTEMPCACHESFROMC?CONTROL
  +--> ?PR?READY_TO_SAVE?SYS
  +--> ?PR?_MCU_DP_VALUE_UPDATE?MCU_API

?PR?_MCU_GET_DP_DOWNLOAD_VALUE?MCU_API           -----    -----      -----    -----      8C51H    0002H
  +--> ?PR?_BYTE_TO_INT?MCU_API

?PR?_BYTE_TO_INT?MCU_API                         -----    -----      -----    -----      8C53H    0007H

?PR?_SETTEMPINTWRITE?CONTROL                     -----    -----      -----    -----      8C5BH    0002H
  +--> ?PR?_SETTEMPINTVPBYMODE?CONTROL
  +--> ?PR?_WRITE_DGUS_VP?SYS

?PR?_SETTEMPINTVPBYMODE?CONTROL                  -----    -----      -----    -----      8C5DH    0001H

?PR?_SYNCSETTEMPCACHESFROMC?CONTROL              -----    -----      -----    -----      8C55H    0006H
  +--> ?PR?_TEMPUNITTRANS?CONTROL
  +--> ?PR?_WRITE_DGUS_VP?SYS
  +--> ?PR?_READ_DGUS_VP?SYS
  +--> ?PR?_SETTEMPINTWRITE?CONTROL

?PR?_TEMPUNITTRANS?CONTROL                       -----    -----      -----    -----      8C67H    0003H

?PR?_MCU_DP_VALUE_UPDATE?MCU_API                 -----    -----      -----    -----      8C51H    0005H
  +--> ?PR?_SET_WIFI_UART_BYTE?SYSTEM
  +--> ?PR?_WIFI_UART_WRITE_FRAME?SYSTEM

?PR?_DP_DOWNLOAD_TEMP_UNIT_CONVERT_HA...         -----    -----      -----    -----      8C47H    0001H
  +--> ?PR?_MCU_GET_DP_DOWNLOAD_ENUM?MCU_API
  +--> ?PR?_WRITE_DGUS_VP?SYS
  +--> ?PR?UNITCHANGEPRO?CONTROL
  +--> ?PR?HOMEPAGE?CONTROL
  +--> ?PR?READY_TO_SAVE?SYS
  +--> ?PR?_MCU_DP_ENUM_UPDATE?MCU_API

?PR?UNITCHANGEPRO?CONTROL                        -----    -----      -----    -----      8C48H    0002H
  +--> ?PR?_READ_DGUS_VP?SYS
  +--> ?PR?_MCU_DP_ENUM_UPDATE?MCU_API
  +--> ?PR?TEMPUNIT_REFRESHALL?CONTROL

?PR?TEMPUNIT_REFRESHALL?CONTROL                  -----    -----      -----    -----      8C4AH    0007H
  +--> ?PR?_READ_DGUS_VP?SYS
  +--> ?PR?_TEMPUNITTRANS?CONTROL
  +--> ?PR?_SYNCSETTEMPCACHESFROMC?CONTROL
  +--> ?PR?_WRITE_DGUS_VP?SYS
  +--> ?PR?TEMPUNIT_REFRESHACTIVESETFROMMODE...
  +--> ?PR?_TEMPUNIT_REFRESHFLOATPAIR?CONTROL
  +--> ?PR?_SETTEMPINTREAD?CONTROL
  +--> ?PR?_SETTEMPINTWRITE?CONTROL
  +--> ?PR?_SYNCINDOORSETTEMPVPPAIR?CONTROL
  +--> ?PR?_SYNCINDOORROOMTEMPVPPAIR?CONTROL
  +--> ?PR?_SYNCTIMERTEMPVPPAIR?CONTROL
  +--> ?PR?MODBUS_REFRESHCHECKPARAMDISPLAY?M...

BL51 BANKED LINKER/LOCATER V6.22.2.0                                                  06/18/2026  10:05:40  PAGE 14


?PR?TEMPUNIT_REFRESHACTIVESETFROMMODE...         -----    -----      -----    -----      8C51H    0004H
  +--> ?PR?_READ_DGUS_VP?SYS
  +--> ?PR?_SETTEMPINTREAD?CONTROL
  +--> ?PR?_TEMPUNITTRANS?CONTROL
  +--> ?PR?_SYNCSETTEMPCACHESFROMC?CONTROL

?PR?_SETTEMPINTREAD?CONTROL                      -----    -----      -----    -----      8C55H    0002H
  +--> ?PR?_SETTEMPINTVPBYMODE?CONTROL
  +--> ?PR?_READ_DGUS_VP?SYS

?PR?_TEMPUNIT_REFRESHFLOATPAIR?CONTROL           -----    -----      -----    -----      8C51H    0010H
  +--> ?PR?_READ_DGUS_VP?SYS
  +--> ?PR?_TEMPUNITTRANS?CONTROL
  +--> ?PR?_WRITE_DGUS_VP?SYS

?PR?_SYNCINDOORSETTEMPVPPAIR?CONTROL             -----    -----      -----    -----      8C51H    0005H
  +--> ?PR?_TEMPUNITTRANS?CONTROL
  +--> ?PR?_WRITE_DGUS_VP?SYS

?PR?_SYNCINDOORROOMTEMPVPPAIR?CONTROL            -----    -----      -----    -----      8C51H    0005H
  +--> ?PR?_TEMPUNITTRANS?CONTROL
  +--> ?PR?_WRITE_DGUS_VP?SYS

?PR?_SYNCTIMERTEMPVPPAIR?CONTROL                 -----    -----      -----    -----      8C51H    000CH
  +--> ?PR?_TEMPUNITTRANS?CONTROL
  +--> ?PR?_WRITE_DGUS_VP?SYS

?PR?MODBUS_REFRESHCHECKPARAMDISPLAY?M...         -----    -----      -----    -----      8C51H    0009H
  +--> ?PR?_READ_DGUS_VP?SYS
  +--> ?PR?_TEMPUNITTRANS?CONTROL
  +--> ?PR?_WRITE_DGUS_VP?SYS

?PR?_DP_DOWNLOAD_DEFROST_HANDLE?PROTOCOL         -----    -----      -----    -----      8C47H    0001H
  +--> ?PR?_MCU_GET_DP_DOWNLOAD_BOOL?MCU_API
  +--> ?PR?_WRITE_DGUS_VP?SYS
  +--> ?PR?_MCU_DP_BOOL_UPDATE?MCU_API

?PR?_DP_DOWNLOAD_RELAY_STATUS_HANDLE?...         -----    -----      -----    -----      8C47H    0001H
  +--> ?PR?_MCU_GET_DP_DOWNLOAD_ENUM?MCU_API
  +--> ?PR?_WRITE_DGUS_VP?SYS
  +--> ?PR?READY_TO_SAVE?SYS
  +--> ?PR?_MCU_DP_ENUM_UPDATE?MCU_API

?PR?_DP_DOWNLOAD_TIMESTAMP_HANDLE?PRO...         -----    -----      -----    -----      8C47H    0015H
  +--> ?CO?PROTOCOL
  +--> ?PR?_STRTOUL?STRTOUL
  +--> ?PR?_TIMESTAMP_TO_YMDHMS?PROTOCOL
  +--> ?PR?PRINTF?PRINTF
  +--> ?PR?_RTC_WRITEDISPLAYTIME?RTC
  +--> ?PR?_RTC_WRITEEDITTIME?RTC
  +--> ?PR?_WRITE_DGUS_VP?SYS
  +--> ?PR?_MCU_DP_STRING_UPDATE?MCU_API

?PR?_STRTOUL?STRTOUL                             -----    -----      -----    -----      8C5CH    0012H

?PR?_TIMESTAMP_TO_YMDHMS?PROTOCOL                -----    -----      -----    -----      8C5CH    0015H
  +--> ?CO?PROTOCOL
BL51 BANKED LINKER/LOCATER V6.22.2.0                                                  06/18/2026  10:05:40  PAGE 15


  +--> ?PR?PRINTF?PRINTF
  +--> ?PR?_IS_LEAP_YEAR?PROTOCOL

?PR?PRINTF?PRINTF                                0023H.1  0001H.1    0008H    0005H      8C71H    0030H
  +--> ?PR?_PUTCHAR?UART

?PR?_RTC_WRITEDISPLAYTIME?RTC                    -----    -----      -----    -----      8C5CH    000AH
  +--> ?PR?_WRITE_DGUS_VP?SYS

?PR?_RTC_WRITEEDITTIME?RTC                       -----    -----      -----    -----      8C5CH    000AH
  +--> ?PR?_WRITE_DGUS_VP?SYS

?PR?_MCU_DP_STRING_UPDATE?MCU_API                -----    -----      -----    -----      8C5CH    0006H
  +--> ?PR?_SET_WIFI_UART_BYTE?SYSTEM
  +--> ?PR?_SET_WIFI_UART_BUFFER?SYSTEM
  +--> ?PR?_WIFI_UART_WRITE_FRAME?SYSTEM

?PR?_DP_DOWNLOAD_INDOOR_UNIT_HANDLE?P...         -----    -----      -----    -----      8C47H    0019H
  +--> ?PR?_MODE_MAP_TO_DGUS?PROTOCOL
  +--> ?PR?_WRITE_DGUS_VP?SYS
  +--> ?PR?_TEMPUNITTRANS?CONTROL
  +--> ?PR?HOMEPAGE_SYNCINDOORDISPLAY?CONTROL
  +--> ?PR?_MODBUS_TRIGGERINDOORUNITWRITE?MO...
  +--> ?PR?UPLOAD_INDOOR_UNIT?UPLOAD

?PR?_MODBUS_TRIGGERINDOORUNITWRITE?MO...         -----    -----      -----    -----      8C60H    0002H
  +--> ?PR?_MODBUS_FILLINDOORUNITREGS?MODBUS
  +--> ?PR?_MODBUS_INDOORREGSCHANGED?MODBUS

?PR?_MODBUS_FILLINDOORUNITREGS?MODBUS            -----    -----      -----    -----      8C62H    0010H
  +--> ?PR?_READ_DGUS_VP?SYS
  +--> ?PR?_MODBUS_ENCODEINDOORRUNMODE?MODBUS
  +--> ?PR?_MODBUS_ENCODEINDOORFAN?MODBUS

?PR?_MODBUS_INDOORREGSCHANGED?MODBUS             -----    -----      -----    -----      8C62H    0005H

?PR?UPLOAD_INDOOR_UNIT?UPLOAD                    -----    -----      -----    -----      8C60H    0027H
  +--> ?CO?UPLOAD
  +--> ?PR?_READ_DGUS_VP?SYS
  +--> ?PR?_UPLOAD_CLAMPINDOORTEMP?UPLOAD
  +--> ?PR?_MCU_DP_RAW_UPDATE?MCU_API

?PR?_MCU_DP_RAW_UPDATE?MCU_API                   -----    -----      -----    -----      8CC7H    0006H
  +--> ?PR?_SET_WIFI_UART_BYTE?SYSTEM
  +--> ?PR?_SET_WIFI_UART_BUFFER?SYSTEM
  +--> ?PR?_WIFI_UART_WRITE_FRAME?SYSTEM

?PR?_DP_DOWNLOAD_HISTORY_FAULT_EMPTY_...         -----    -----      -----    -----      8C47H    0001H
  +--> ?PR?_MCU_GET_DP_DOWNLOAD_BOOL?MCU_API
  +--> ?PR?CLEARERRORHISTORY?ERRORHISTORY
  +--> ?PR?_MCU_DP_BOOL_UPDATE?MCU_API

?PR?CLEARERRORHISTORY?ERRORHISTORY               -----    -----      -----    -----      -----    -----
  +--> ?PR?ERRORHISTORY_FLASHCOMMITNOW?ERROR...
  +--> ?PR?UPLOAD_HISTORY_FAULTS?UPLOAD

?PR?ERRORHISTORY_FLASHCOMMITNOW?ERROR...         -----    -----      -----    -----      8C48H    0002H
BL51 BANKED LINKER/LOCATER V6.22.2.0                                                  06/18/2026  10:05:40  PAGE 16


  +--> ?PR?ERRORHISTORY_FLASHVPADDR?ERRORHIS...
  +--> ?PR?_ERRORHISTORY_FLASHWRITE?ERRORHIS...
  +--> ?PR?_READ_DGUS_VP?SYS
  +--> ?PR?WRITE_MEMORY?SYS
  +--> ?PR?WRITE_NOR_FLASH?SYS

?PR?_ERRORHISTORY_FLASHWRITE?ERRORHIS...         -----    -----      -----    -----      8C4AH    0197H
  +--> ?PR?_ERRORHISTORY_PACKREC?ERRORHISTORY
  +--> ?PR?_WRITE_DGUS_VP?SYS

?PR?_ERRORHISTORY_PACKREC?ERRORHISTORY           -----    -----      -----    -----      8DE1H    000AH
  +--> ?PR?_ERRORHISTORY_ISVALIDCODE?ERRORHI...
  +--> ?PR?_ERRORHISTORY_CLAMPBYTE?ERRORHISTORY

?PR?WRITE_NOR_FLASH?SYS                          -----    -----      -----    -----      -----    -----
  +--> ?CO?SYS
  +--> ?PR?_WRITE_DGUS_VP?SYS
  +--> ?PR?_DELAY_MS?SYS
  +--> ?PR?_READ_DGUS_VP?SYS

?PR?UPLOAD_HISTORY_FAULTS?UPLOAD                 -----    -----      -----    -----      8C48H    007FH
  +--> ?PR?_MCU_DP_RAW_UPDATE?MCU_API

?PR?_DP_DOWNLOAD_INSIDE_TIME_OPEN_HAN...         -----    -----      -----    -----      8C47H    0020H
  +--> ?PR?_WRITE_DGUS_VP?SYS
  +--> ?PR?_TEMPUNITTRANS?CONTROL
  +--> ?PR?_MODBUS_APPLYINDOORTIMERVPTOUNITS...
  +--> ?PR?READY_TO_SAVE?SYS
  +--> ?PR?_MCU_DP_RAW_UPDATE?MCU_API

?PR?_MODBUS_APPLYINDOORTIMERVPTOUNITS...         -----    -----      -----    -----      8C67H    0016H
  +--> ?PR?_READ_DGUS_VP?SYS
  +--> ?PR?_WRITE_DGUS_VP?SYS
  +--> ?PR?_MODBUS_QUEUEINDOORTIMERWRITE?MODBUS

?PR?_MODBUS_QUEUEINDOORTIMERWRITE?MODBUS         -----    -----      -----    -----      -----    -----
  +--> ?PR?MODBUS_STARTNEXTTIMERWRITE?MODBUS

?PR?_DP_DOWNLOAD_EXTERNAL_TIME_OPEN_H...         -----    -----      -----    -----      8C47H    0019H
  +--> ?PR?_WRITE_DGUS_VP?SYS
  +--> ?PR?_TEMPUNITTRANS?CONTROL
  +--> ?PR?_DP117_MODE_TO_DGUS?PROTOCOL
  +--> ?PR?READY_TO_SAVE?SYS
  +--> ?PR?_MCU_DP_RAW_UPDATE?MCU_API

?PR?_DP_DOWNLOAD_INSIDE_TIME_CLOSE_HA...         -----    -----      -----    -----      8C47H    000EH
  +--> ?PR?_WRITE_DGUS_VP?SYS
  +--> ?PR?_MCU_DP_RAW_UPDATE?MCU_API

?PR?_DP_DOWNLOAD_EXTERNAL_TIME_CLOSE_...         -----    -----      -----    -----      8C47H    000EH
  +--> ?PR?_WRITE_DGUS_VP?SYS
  +--> ?PR?_MCU_DP_RAW_UPDATE?MCU_API

?PR?ALL_DATA_UPDATE?PROTOCOL                     -----    -----      -----    -----      8C39H    0016H
  +--> ?CO?PROTOCOL
  +--> ?PR?_READ_DGUS_VP?SYS
  +--> ?PR?_MCU_DP_BOOL_UPDATE?MCU_API
BL51 BANKED LINKER/LOCATER V6.22.2.0                                                  06/18/2026  10:05:40  PAGE 17


  +--> ?PR?_MCU_DP_ENUM_UPDATE?MCU_API
  +--> ?PR?_MCU_DP_VALUE_UPDATE?MCU_API

?PR?_UPGRADE_PACKAGE_CHOOSE?PROTOCOL             -----    -----      -----    -----      -----    -----
  +--> ?PR?_SET_WIFI_UART_BYTE?SYSTEM
  +--> ?PR?_WIFI_UART_WRITE_FRAME?SYSTEM

?PR?_MCU_FIRM_UPDATE_HANDLE?PROTOCOL             -----    -----      -----    -----      8C39H    0009H

?PR?_WIFI_TEST_RESULT?PROTOCOL                   -----    -----      -----    -----      8C39H    0002H

?PR?_FILE_DOWNLOAD_PACKAGE_CHOOSE?PRO...         -----    -----      -----    -----      -----    -----
  +--> ?PR?_SET_WIFI_UART_BYTE?SYSTEM
  +--> ?PR?_WIFI_UART_WRITE_FRAME?SYSTEM

?PR?_FILE_DOWNLOAD_HANDLE?PROTOCOL               -----    -----      -----    -----      8C39H    0009H

?PR?CONTROL_FUNCTION1?CONTROL                    -----    -----      -----    -----      8C22H    0011H
  +--> ?PR?_READ_DGUS_VP?SYS
  +--> ?PR?GETVALUE0F00?CONTROL
  +--> ?PR?_ISITHOMEPAGE?CONTROL
  +--> ?PR?HOMEPAGE?CONTROL
  +--> ?PR?_ERRORHISTORY_PAGECHANGE?ERRORHIS...
  +--> ?PR?_WRITE_DGUS_VP?SYS
  +--> ?PR?_SETTEMPINTREAD?CONTROL
  +--> ?PR?_SYNCSETTEMPCACHESFROMC?CONTROL
  +--> ?PR?UNITCHANGEPRO?CONTROL
  +--> ?PR?_PAGE_CHANGE_HANDLER?SYS
  +--> ?PR?UPLOAD_INSIDE_TIME_OPEN?UPLOAD
  +--> ?PR?UPLOAD_EXTERNAL_TIME_OPEN?UPLOAD
  +--> ?PR?UPLOAD_INDOOR_UNIT?UPLOAD
  +--> ?PR?_MODBUS_TRIGGERINDOORUNITWRITE?MO...
  +--> ?PR?_KEYADJUSTSETTEMPFORMODE?CONTROL
  +--> ?PR?PREFILLSETTEMPEDITPAGE?CONTROL
  +--> ?PR?_TEMPUNITTRANS?CONTROL
  +--> ?PR?_MCU_DP_VALUE_UPDATE?MCU_API
  +--> ?PR?_SETTEMPINTWRITE?CONTROL
  +--> ?PR?_SETTEMPFLOATWRITEC?CONTROL
  +--> ?PR?_SETMODEPROCESS?CONTROL
  +--> ?PR?RTCDISPLAY4CHANGE?CONTROL
  +--> ?PR?_LANGUAGE_CHANGE?SYS
  +--> ?PR?RTC_GETUNIXLOCAL?RTC
  +--> ?PR?MODBUS_STARTMANUALDEFROST?MODBUS
  +--> ?PR?_MCU_DP_BOOL_UPDATE?MCU_API
  +--> ?PR?_BRIGHTNESS_HANDLER?SYS
  +--> ?PR?_MCU_DP_ENUM_UPDATE?MCU_API
  +--> ?PR?ERRORHISTORY_TRYMIGRATEFLASH?ERRO...
  +--> ?PR?UPLOAD_EXTERNAL_TIME_CLOSE?UPLOAD
  +--> ?PR?UPLOAD_INSIDE_TIME_CLOSE?UPLOAD
  +--> ?PR?MODBUS_TRIGGERGROUPCONTROLWRITE?M...
  +--> ?PR?READY_TO_SAVE_REPORT?SYS
  +--> ?PR?ERRORHISTORY_RESETPAGE?ERRORHISTORY
  +--> ?PR?ERRORHISTORYDISPLAY?ERRORHISTORY
  +--> ?PR?CLEARERRORHISTORY?ERRORHISTORY
  +--> ?PR?_MODBUS_TRIGGERDEFROSTPARAMWRITE?...
  +--> ?PR?_TEMP_LIMIT?CONTROL
  +--> ?CO?CONTROL
BL51 BANKED LINKER/LOCATER V6.22.2.0                                                  06/18/2026  10:05:40  PAGE 18


  +--> ?PR?PRINTF?PRINTF
  +--> ?PR?MCU_RESET_WIFI?MCU_API
  +--> ?PR?_MODBUS_APPLYINDOORTIMERVPTOUNITS...
  +--> ?PR?SCREENTIMEOUT_SET?SYS
  +--> ?PR?READY4WRITERTC?CONTROL

?PR?GETVALUE0F00?CONTROL                         -----    -----      -----    -----      8C33H    0004H
  +--> ?CO?CONTROL
  +--> ?PR?_READ_DGUS_VP?SYS
  +--> ?PR?_WRITE_DGUS_VP?SYS

?PR?_ERRORHISTORY_PAGECHANGE?ERRORHIS...         -----    -----      -----    -----      -----    -----
  +--> ?PR?ERRORHISTORY_GETMAXPAGE?ERRORHISTORY
  +--> ?PR?ERRORHISTORYDISPLAY?ERRORHISTORY

?PR?ERRORHISTORY_GETMAXPAGE?ERRORHISTORY         -----    -----      -----    -----      -----    -----
  +--> ?PR?ERRORHISTORY_GETCOUNT?ERRORHISTORY

?PR?ERRORHISTORYDISPLAY?ERRORHISTORY             -----    -----      -----    -----      8C33H    000EH
  +--> ?CO?ERRORHISTORY
  +--> ?PR?_WRITE_DGUS_VP?SYS

?PR?UPLOAD_INSIDE_TIME_OPEN?UPLOAD               -----    -----      -----    -----      8C33H    000BH
  +--> ?CO?UPLOAD
  +--> ?PR?_READ_DGUS_VP?SYS
  +--> ?PR?_UPLOAD_DGUSMODETODP116?UPLOAD
  +--> ?PR?UPLOAD_PACKTIMERROOMBYTE?UPLOAD
  +--> ?PR?_MCU_DP_RAW_UPDATE?MCU_API

?PR?UPLOAD_PACKTIMERROOMBYTE?UPLOAD              -----    -----      -----    -----      8C3EH    0006H
  +--> ?PR?_READ_DGUS_VP?SYS

?PR?UPLOAD_EXTERNAL_TIME_OPEN?UPLOAD             -----    -----      -----    -----      8C33H    0009H
  +--> ?CO?UPLOAD
  +--> ?PR?_READ_DGUS_VP?SYS
  +--> ?PR?_MCU_DP_RAW_UPDATE?MCU_API

?PR?_KEYADJUSTSETTEMPFORMODE?CONTROL             -----    -----      -----    -----      8C33H    000BH
  +--> ?PR?_READ_DGUS_VP?SYS
  +--> ?PR?_SETTEMPINTVPBYMODE?CONTROL
  +--> ?PR?_WRITE_DGUS_VP?SYS
  +--> ?PR?_TEMP_LIMIT?CONTROL
  +--> ?PR?_TEMPUNITTRANS?CONTROL
  +--> ?PR?_SYNCSETTEMPCACHESFROMC?CONTROL

?PR?_TEMP_LIMIT?CONTROL                          -----    -----      -----    -----      8C3EH    0009H
  +--> ?PR?_READ_DGUS_VP?SYS
  +--> ?PR?_TEMPUNITTRANS?CONTROL
  +--> ?PR?_WRITE_DGUS_VP?SYS
  +--> ?PR?_SYNCINDOORSETTEMPVPPAIR?CONTROL
  +--> ?PR?_SYNCSETTEMPCACHESFROMC?CONTROL
  +--> ?PR?_SETTEMPINTWRITE?CONTROL

?PR?PREFILLSETTEMPEDITPAGE?CONTROL               -----    -----      -----    -----      8C33H    0008H
  +--> ?PR?_READ_DGUS_VP?SYS
  +--> ?PR?_SETTEMPINTREAD?CONTROL
  +--> ?PR?_TEMPUNITTRANS?CONTROL
BL51 BANKED LINKER/LOCATER V6.22.2.0                                                  06/18/2026  10:05:40  PAGE 19


  +--> ?PR?_WRITE_DGUS_VP?SYS
  +--> ?PR?_PAGE_CHANGE_HANDLER?SYS

?PR?_SETTEMPFLOATWRITEC?CONTROL                  -----    -----      -----    -----      8C33H    0009H
  +--> ?PR?_TEMPUNITTRANS?CONTROL
  +--> ?PR?_SETTEMPINTWRITE?CONTROL

?PR?_SETMODEPROCESS?CONTROL                      -----    -----      -----    -----      8C33H    0002H
  +--> ?PR?_WRITE_DGUS_VP?SYS

?PR?RTCDISPLAY4CHANGE?CONTROL                    -----    -----      -----    -----      8C33H    0008H
  +--> ?PR?_READ_DGUS_VP?SYS
  +--> ?PR?_WRITE_DGUS_VP?SYS
  +--> ?PR?_RTC_MONTHFROMDISPLAYVP?RTC

?PR?_RTC_MONTHFROMDISPLAYVP?RTC                  -----    -----      -----    -----      8C3BH    0002H

?PR?_LANGUAGE_CHANGE?SYS                         -----    -----      -----    -----      8C33H    0004H
  +--> ?PR?_WRITE_DGUS_VP?SYS

?PR?RTC_GETUNIXLOCAL?RTC                         -----    -----      -----    -----      8C33H    0009H
  +--> ?PR?_RTC_IS_LEAP?RTC
  +--> ?PR?_RTC_DAYS_IN_MONTH?RTC

?PR?_RTC_DAYS_IN_MONTH?RTC                       -----    -----      -----    -----      -----    -----
  +--> ?PR?_RTC_IS_LEAP?RTC

?PR?MODBUS_STARTMANUALDEFROST?MODBUS             -----    -----      -----    -----      8C33H    0002H
  +--> ?PR?_WRITE_DGUS_VP?SYS

?PR?_BRIGHTNESS_HANDLER?SYS                      -----    -----      -----    -----      8C33H    0002H
  +--> ?PR?_WRITE_DGUS_VP?SYS

?PR?ERRORHISTORY_TRYMIGRATEFLASH?ERRO...         -----    -----      -----    -----      8C33H    0008H
  +--> ?PR?ERRORHISTORY_FLASHVPADDR?ERRORHIS...
  +--> ?PR?_READ_DGUS_VP?SYS
  +--> ?PR?ERRORHISTORY_SANITIZE?ERRORHISTORY
  +--> ?PR?_ERRORHISTORY_FLASHWRITE?ERRORHIS...
  +--> ?PR?WRITE_MEMORY?SYS
  +--> ?PR?WRITE_NOR_FLASH?SYS

?PR?ERRORHISTORY_SANITIZE?ERRORHISTORY           -----    -----      -----    -----      -----    -----
  +--> ?PR?_ERRORHISTORY_ISVALIDCODE?ERRORHI...

?PR?UPLOAD_EXTERNAL_TIME_CLOSE?UPLOAD            -----    -----      -----    -----      8C33H    0005H
  +--> ?CO?UPLOAD
  +--> ?PR?_READ_DGUS_VP?SYS
  +--> ?PR?_MCU_DP_RAW_UPDATE?MCU_API

?PR?UPLOAD_INSIDE_TIME_CLOSE?UPLOAD              -----    -----      -----    -----      8C33H    0005H
  +--> ?CO?UPLOAD
  +--> ?PR?_READ_DGUS_VP?SYS
  +--> ?PR?_MCU_DP_RAW_UPDATE?MCU_API

?PR?MODBUS_TRIGGERGROUPCONTROLWRITE?M...         -----    -----      -----    -----      -----    -----
  +--> ?PR?_MODBUS_FILLGROUPCONTROLREGS?MODBUS
  +--> ?PR?_MODBUS_GROUPREGSCHANGED?MODBUS
BL51 BANKED LINKER/LOCATER V6.22.2.0                                                  06/18/2026  10:05:40  PAGE 20



?PR?_MODBUS_FILLGROUPCONTROLREGS?MODBUS          -----    -----      -----    -----      8C33H    0005H
  +--> ?PR?_READ_DGUS_VP?SYS

?PR?_MODBUS_GROUPREGSCHANGED?MODBUS              -----    -----      -----    -----      8C33H    0004H

?PR?MCU_RESET_WIFI?MCU_API                       -----    -----      -----    -----      -----    -----
  +--> ?PR?_WIFI_UART_WRITE_FRAME?SYSTEM
  +--> ?CO?MCU_API
  +--> ?PR?PRINTF?PRINTF

?PR?SCREENTIMEOUT_SET?SYS                        0023H.1  0000H.1    -----    -----      8C33H    0004H
  +--> ?PR?_READ_DGUS_VP?SYS
  +--> ?PR?_WRITE_DGUS_VP?SYS

?PR?READY4WRITERTC?CONTROL                       -----    -----      -----    -----      8C33H    0012H
  +--> ?PR?_READ_DGUS_VP?SYS
  +--> ?PR?_WRITE_DGUS_VP?SYS
  +--> ?PR?_RTC_WRITEDISPLAYTIME?RTC

?PR?MCU_GET_WIFI_WORK_STATE?MCU_API              -----    -----      -----    -----      -----    -----
  +--> ?CO?MCU_API
  +--> ?PR?PRINTF?PRINTF

?PR?UI_OPENPAGE?MAIN                             -----    -----      -----    -----      -----    -----
  +--> ?PR?HOMEPAGE?CONTROL

?PR?WIFI_RESTING_PRO?CONTROL                     -----    -----      -----    -----      -----    -----
  +--> ?PR?MCU_GET_RESET_WIFI_FLAG?MCU_API
  +--> ?CO?CONTROL
  +--> ?PR?PRINTF?PRINTF
  +--> ?PR?_PAGE_CHANGE_HANDLER?SYS

*** NEW ROOT ***************************************************

?PR?UART2_ISR_PC?UART                            -----    -----      -----    -----      -----    -----
  +--> ?PR?_UART_RECEIVE_INPUT?MCU_API

?PR?_UART_RECEIVE_INPUT?MCU_API                  -----    -----      -----    -----      8DF0H    0001H



UNRESOLVED EXTERNAL SYMBOLS:
   OTALENGTH
   UPLOAD_REPORT_CHANGED



SYMBOL TABLE OF MODULE:  .\obj\T5L51 (?C_STARTUP)

  VALUE           TYPE          NAME
  ----------------------------------

  -------         MODULE        ?C_STARTUP
  C:C060H         SEGMENT       ?C_C51STARTUP
  I:0027H         SEGMENT       ?STACK
  C:0000H         PUBLIC        ?C_STARTUP
BL51 BANKED LINKER/LOCATER V6.22.2.0                                                  06/18/2026  10:05:40  PAGE 21


  D:00E0H         SYMBOL        ACC
  D:00F0H         SYMBOL        B
  D:008EH         SYMBOL        CKCON
  D:0094H         SYMBOL        DAGESEL
  D:0093H         SYMBOL        DPC
  D:0083H         SYMBOL        DPH
  D:0082H         SYMBOL        DPL
  D:0095H         SYMBOL        D_PAGESEL
  N:0000H         SYMBOL        IBPSTACK
  N:0100H         SYMBOL        IBPSTACKTOP
  N:0080H         SYMBOL        IDATALEN
  C:C078H         SYMBOL        IDATALOOP
  D:00C9H         SYMBOL        MUX_SEL
  N:0000H         SYMBOL        PBPSTACK
  N:0100H         SYMBOL        PBPSTACKTOP
  N:0000H         SYMBOL        PDATALEN
  N:0000H         SYMBOL        PDATASTART
  N:0000H         SYMBOL        PPAGE
  N:0000H         SYMBOL        PPAGEENABLE
  D:00A0H         SYMBOL        PPAGE_SFR
  D:00F8H         SYMBOL        RAMMODE
  D:0081H         SYMBOL        SP
  C:C060H         SYMBOL        STARTUP1
  D:00C8H         SYMBOL        T2CON
  N:0000H         SYMBOL        XBPSTACK
  N:0000H         SYMBOL        XBPSTACKTOP
  N:0000H         SYMBOL        XDATALEN
  N:0000H         SYMBOL        XDATASTART
  C:0000H         LINE#         133
  C:C060H         LINE#         143
  C:C063H         LINE#         144
  C:C066H         LINE#         145
  C:C069H         LINE#         146
  C:C06CH         LINE#         147
  C:C06FH         LINE#         148
  C:C072H         LINE#         149
  C:C075H         LINE#         152
  C:C077H         LINE#         153
  C:C078H         LINE#         154
  C:C079H         LINE#         155
  C:C07BH         LINE#         204
  C:C07EH         LINE#         215
  -------         ENDMOD        ?C_STARTUP

  -------         MODULE        MAIN
  C:0000H         SYMBOL        _ICE_DUMMY_
  D:0080H         PUBLIC        P0
  D:00B0H         PUBLIC        P3
  D:00F8H         PUBLIC        RAMMODE
  D:00A8H         PUBLIC        IEN0
  D:00B8H         PUBLIC        IEN1
  C:E4F2H         PUBLIC        UI_OpenPage
  C:C95DH         PUBLIC        ModbusChanelControl
  C:D460H         PUBLIC        main
  B:0026H.2       PUBLIC        OldTuyaOTAState
  D:0088H         PUBLIC        TCON
  D:00C9H         PUBLIC        MUX_SEL
BL51 BANKED LINKER/LOCATER V6.22.2.0                                                  06/18/2026  10:05:40  PAGE 22


  D:0098H         PUBLIC        SCON0
  D:00C8H         PUBLIC        T2CON
  D:00D0H         PUBLIC        PSW
  D:00C0H         PUBLIC        IRCON
  -------         PROC          UI_OPENPAGE
  -------         DO            
  X:95DFH         SYMBOL        WaitingTime
  X:95E0H         SYMBOL        AlreadyRunning
  -------         ENDDO         
  C:E4F2H         LINE#         32
  C:E4F2H         LINE#         33
  C:E4F2H         LINE#         37
  C:E4F8H         LINE#         38
  C:E4F8H         LINE#         39
  C:E4FEH         LINE#         40
  C:E4FEH         LINE#         41
  C:E500H         LINE#         42
  C:E503H         LINE#         43
  C:E503H         LINE#         44
  C:E508H         LINE#         45
  C:E50FH         LINE#         46
  C:E514H         LINE#         47
  C:E514H         LINE#         48
  C:E514H         LINE#         49
  C:E514H         LINE#         50
  -------         ENDPROC       UI_OPENPAGE
  -------         PROC          MODBUSCHANELCONTROL
  C:C95DH         LINE#         51
  C:C95DH         LINE#         52
  C:C95DH         LINE#         53
  C:C965H         LINE#         54
  C:C965H         LINE#         55
  C:C969H         LINE#         56
  C:C96CH         LINE#         57
  C:C96CH         LINE#         58
  C:C96FH         LINE#         59
  C:C974H         LINE#         60
  C:C976H         LINE#         62
  C:C976H         LINE#         63
  C:C978H         LINE#         64
  C:C97AH         LINE#         65
  C:C97CH         LINE#         66
  C:C97EH         LINE#         67
  C:C97EH         LINE#         68
  C:C97EH         LINE#         69
  C:C981H         LINE#         71
  C:C986H         LINE#         73
  C:C986H         LINE#         74
  C:C989H         LINE#         75
  C:C9AEH         LINE#         76
  C:C9AEH         LINE#         77
  C:C9BDH         LINE#         78
  C:C9BFH         LINE#         80
  C:C9C2H         LINE#         81
  C:C9C2H         LINE#         82
  C:C9C4H         LINE#         83
  C:C9C9H         LINE#         84
BL51 BANKED LINKER/LOCATER V6.22.2.0                                                  06/18/2026  10:05:40  PAGE 23


  C:C9C9H         LINE#         85
  C:C9CCH         LINE#         86
  C:C9CCH         LINE#         87
  C:C9D6H         LINE#         88
  C:C9D8H         LINE#         89
  C:C9D8H         LINE#         90
  -------         ENDPROC       MODBUSCHANELCONTROL
  -------         PROC          MAIN
  C:D460H         LINE#         93
  C:D460H         LINE#         94
  C:D460H         LINE#         95
  C:D463H         LINE#         96
  C:D466H         LINE#         97
  C:D469H         LINE#         98
  C:D46CH         LINE#         99
  C:D46FH         LINE#         102
  C:D472H         LINE#         103
  C:D475H         LINE#         104
  C:D478H         LINE#         106
  C:D47BH         LINE#         110
  C:D47EH         LINE#         111
  C:D481H         LINE#         113
  C:D481H         LINE#         114
  C:D481H         LINE#         116
  C:D484H         LINE#         117
  C:D487H         LINE#         119
  C:D496H         LINE#         120
  C:D496H         LINE#         121
  C:D49AH         LINE#         123
  C:D49DH         LINE#         128
  C:D49DH         LINE#         138
  C:D4ACH         LINE#         139
  C:D4ACH         LINE#         140
  C:D4AFH         LINE#         141
  C:D4B6H         LINE#         142
  C:D4B9H         LINE#         144
  C:D4BCH         LINE#         149
  C:D4BCH         LINE#         151
  -------         ENDPROC       MAIN
  -------         ENDMOD        MAIN

  -------         MODULE        SYS
  C:0000H         SYMBOL        _ICE_DUMMY_
  C:D013H         PUBLIC        INIT_CPU
  D:00F1H         PUBLIC        ADR_H
  D:0080H         PUBLIC        P0
  D:0090H         PUBLIC        P1
  D:00A0H         PUBLIC        P2
  D:00B0H         PUBLIC        P3
  D:00F3H         PUBLIC        ADR_L
  D:00F2H         PUBLIC        ADR_M
  C:C101H         SYMBOL        _Memory_ReadTimerSlot
  B:00A8H.7       PUBLIC        EA
  D:00F8H         PUBLIC        RAMMODE
  C:8D2BH         PUBLIC        _write_dgus_vp
  D:00B7H         PUBLIC        P0MDOUT
  D:00BCH         PUBLIC        P1MDOUT
BL51 BANKED LINKER/LOCATER V6.22.2.0                                                  06/18/2026  10:05:40  PAGE 24


  D:00A8H         PUBLIC        IEN0
  C:DFA1H         PUBLIC        Ready_To_Save
  D:00BDH         PUBLIC        P2MDOUT
  D:00B8H         PUBLIC        IEN1
  D:00BEH         PUBLIC        P3MDOUT
  D:009AH         PUBLIC        IEN2
  C:D7ECH         PUBLIC        read_flash
  C:D8C1H         PUBLIC        Save_Data_Handler
  B:00F8H.4       PUBLIC        APP_ACK
  D:00F4H         PUBLIC        ADR_INC
  X:846AH         PUBLIC        TempSensorData
  C:BA49H         SYMBOL        _Memory_WriteTimerSlot
  X:8732H         PUBLIC        read_flash_status
  C:A1AEH         PUBLIC        _FlashCheckSumCalculate
  C:D7F4H         PUBLIC        write_flash
  X:873AH         PUBLIC        Page_Change
  D:00BAH         PUBLIC        SREL0H
  C:E5DCH         PUBLIC        _DelayMs
  D:00F9H         PUBLIC        PORTDRV
  D:00AAH         PUBLIC        SREL0L
  D:0089H         PUBLIC        TMOD
  D:0088H         PUBLIC        TCON
  C:D7E0H         PUBLIC        mon_table
  D:0097H         PUBLIC        SCON2R
  D:00ABH         PUBLIC        SCON3R
  D:00D9H         PUBLIC        BODE2_DIV_H
  C:E5BCH         PUBLIC        _DelayUs
  D:00AEH         PUBLIC        BODE3_DIV_H
  D:0096H         PUBLIC        SCON2T
  D:00A7H         PUBLIC        SCON3T
  C:E9C8H         PUBLIC        PORT_Init
  C:DACAH         PUBLIC        ScreenTimeOut_Set
  D:00E7H         PUBLIC        BODE2_DIV_L
  C:D7FCH         PUBLIC        Soft_Ver_Num
  X:874EH         PUBLIC        Save_Flash_Flag
  D:00AFH         PUBLIC        BODE3_DIV_L
  D:00C9H         PUBLIC        MUX_SEL
  C:DA85H         SYMBOL        _Dgus_WaitEn
  C:D800H         SYMBOL        _?ix1000
  C:E59CH         PUBLIC        _Brightness_Handler
  C:ABE1H         PUBLIC        T0_ISR_PC
  C:D628H         PUBLIC        T1_ISR_PC
  X:874FH         PUBLIC        Modbus_Error_Count
  C:E855H         PUBLIC        T2_ISR_PC
  C:EA45H         PUBLIC        Read_Memory_Error
  D:00A9H         PUBLIC        IP0
  B:00A8H.1       PUBLIC        ET0
  D:00B9H         PUBLIC        IP1
  B:00A8H.3       PUBLIC        ET1
  D:00FDH         PUBLIC        DATA0
  C:DD72H         PUBLIC        _Page_Change_Handler
  D:00FCH         PUBLIC        DATA1
  B:00C0H.6       PUBLIC        TF2
  D:008CH         PUBLIC        TH0
  X:8751H         PUBLIC        page_set
  D:00FBH         PUBLIC        DATA2
  D:008DH         PUBLIC        TH1
BL51 BANKED LINKER/LOCATER V6.22.2.0                                                  06/18/2026  10:05:40  PAGE 25


  D:000DH         SYMBOL        SysTick
  D:00FAH         PUBLIC        DATA3
  D:00CDH         PUBLIC        TH2
  X:8755H         PUBLIC        Flash_Save_Count
  D:008AH         PUBLIC        TL0
  D:008BH         PUBLIC        TL1
  D:00CCH         PUBLIC        TL2
  C:E93EH         PUBLIC        _delay_ms
  C:E3B8H         PUBLIC        _Language_Change
  B:00F8H.6       PUBLIC        APP_EN
  B:00D0H.3       PUBLIC        RS0
  B:00D0H.4       PUBLIC        RS1
  B:0088H.4       PUBLIC        TR0
  B:0088H.6       PUBLIC        TR1
  X:8757H         PUBLIC        Password
  B:00C8H.0       PUBLIC        TR2
  C:EA44H         PUBLIC        Read_Memory
  X:875BH         PUBLIC        adc_average_channel7
  C:E7F1H         PUBLIC        Read_Nor_Flash
  D:0098H         PUBLIC        SCON0
  X:875DH         PUBLIC        task_10ms_count
  D:00D8H         PUBLIC        ADCON
  X:875FH         PUBLIC        Temp_Indoor
  D:00C8H         PUBLIC        T2CON
  C:EA43H         PUBLIC        Write_Memory
  D:00CBH         PUBLIC        TRL2H
  C:EA16H         PUBLIC        Ready_To_Save_Report
  C:E805H         PUBLIC        Write_Nor_Flash
  X:8761H         PUBLIC        AD_Count
  D:00CAH         PUBLIC        TRL2L
  C:DB99H         PUBLIC        System_Parm_Init
  X:8763H         PUBLIC        APP_1000ms_count
  X:8765H         PUBLIC        task_10000ms_count
  X:8767H         PUBLIC        Send_Count
  X:8769H         PUBLIC        rx485_Count
  C:E8EAH         PUBLIC        T0_Init
  D:00D0H         PUBLIC        PSW
  C:83F0H         PUBLIC        _read_dgus_vp
  C:E8FAH         PUBLIC        T1_Init
  C:E7B0H         PUBLIC        T2_Init
  D:00C0H         PUBLIC        IRCON
  -------         PROC          _DGUS_WAITEN
  X:95BCH         SYMBOL        addr
  X:95BEH         SYMBOL        limit
  C:DA85H         LINE#         29
  C:DA93H         LINE#         30
  C:DA93H         LINE#         31
  C:DA96H         LINE#         32
  C:DA96H         LINE#         33
  C:DAA4H         LINE#         34
  C:DAA4H         LINE#         35
  C:DABCH         LINE#         36
  C:DABFH         LINE#         37
  C:DAC1H         LINE#         38
  C:DAC3H         LINE#         39
  C:DAC3H         LINE#         40
  C:DAC6H         LINE#         41
BL51 BANKED LINKER/LOCATER V6.22.2.0                                                  06/18/2026  10:05:40  PAGE 26


  C:DAC8H         LINE#         42
  C:DAC9H         LINE#         43
  -------         ENDPROC       _DGUS_WAITEN
  -------         PROC          _MEMORY_WRITETIMERSLOT
  X:93D8H         SYMBOL        flash_addr
  X:93DCH         SYMBOL        vp_addr
  X:93E0H         SYMBOL        struct_bytes
  -------         DO            
  X:93E2H         SYMBOL        slot
  D:0007H         SYMBOL        i
  X:9402H         SYMBOL        temp
  -------         ENDDO         
  C:BA49H         LINE#         45
  C:BA4FH         LINE#         46
  C:BA4FH         LINE#         51
  C:BA5BH         LINE#         52
  C:BA6EH         LINE#         53
  C:BA7AH         LINE#         54
  C:BA89H         LINE#         55
  C:BABBH         LINE#         56
  C:BACDH         LINE#         57
  C:BAE8H         LINE#         58
  -------         ENDPROC       _MEMORY_WRITETIMERSLOT
  -------         PROC          _MEMORY_READTIMERSLOT
  X:9412H         SYMBOL        flash_addr
  X:9416H         SYMBOL        vp_addr
  X:941AH         SYMBOL        struct_bytes
  -------         DO            
  X:941CH         SYMBOL        slot
  D:0007H         SYMBOL        i
  X:943CH         SYMBOL        temp
  -------         ENDDO         
  C:C101H         LINE#         61
  C:C107H         LINE#         62
  C:C107H         LINE#         67
  C:C113H         LINE#         68
  C:C122H         LINE#         69
  C:C142H         LINE#         70
  C:C154H         LINE#         71
  C:C16FH         LINE#         72
  -------         ENDPROC       _MEMORY_READTIMERSLOT
  -------         PROC          INIT_CPU
  C:D013H         LINE#         145
  C:D013H         LINE#         146
  C:D013H         LINE#         147
  C:D015H         LINE#         148
  C:D017H         LINE#         149
  C:D019H         LINE#         151
  C:D01CH         LINE#         152
  C:D01FH         LINE#         153
  C:D021H         LINE#         154
  C:D023H         LINE#         155
  C:D025H         LINE#         156
  C:D027H         LINE#         158
  C:D02AH         LINE#         161
  C:D02CH         LINE#         162
  C:D02EH         LINE#         163
BL51 BANKED LINKER/LOCATER V6.22.2.0                                                  06/18/2026  10:05:40  PAGE 27


  C:D030H         LINE#         164
  C:D032H         LINE#         165
  C:D035H         LINE#         166
  C:D037H         LINE#         167
  C:D039H         LINE#         168
  C:D03BH         LINE#         171
  C:D03EH         LINE#         172
  C:D041H         LINE#         173
  C:D044H         LINE#         174
  C:D047H         LINE#         177
  C:D04AH         LINE#         178
  C:D04DH         LINE#         179
  C:D04FH         LINE#         180
  C:D052H         LINE#         183
  C:D055H         LINE#         184
  C:D058H         LINE#         185
  C:D05AH         LINE#         186
  C:D05DH         LINE#         189
  C:D060H         LINE#         191
  C:D062H         LINE#         192
  C:D064H         LINE#         193
  C:D066H         LINE#         196
  C:D068H         LINE#         197
  C:D06AH         LINE#         198
  C:D06CH         LINE#         202
  C:D06FH         LINE#         203
  C:D071H         LINE#         204
  C:D073H         LINE#         205
  C:D076H         LINE#         206
  C:D079H         LINE#         207
  -------         ENDPROC       INIT_CPU
  -------         PROC          PORT_INIT
  C:E9C8H         LINE#         219
  C:E9C8H         LINE#         220
  C:E9C8H         LINE#         221
  C:E9CBH         LINE#         222
  C:E9CEH         LINE#         223
  C:E9D1H         LINE#         224
  -------         ENDPROC       PORT_INIT
  -------         PROC          _FLASHCHECKSUMCALCULATE
  X:8C24H         SYMBOL        StartAddr
  X:8C26H         SYMBOL        Length
  -------         DO            
  X:8C28H         SYMBOL        i
  X:8C29H         SYMBOL        j
  X:8C2AH         SYMBOL        Page
  X:8C2BH         SYMBOL        Num
  X:8C2CH         SYMBOL        FlashCheckSum_Add
  X:8C2EH         SYMBOL        FlashCheckSum_Buff
  -------         ENDDO         
  C:A1AEH         LINE#         227
  C:A1BCH         LINE#         228
  C:A1BCH         LINE#         230
  C:A1C3H         LINE#         231
  C:A1D5H         LINE#         233
  C:A1E8H         LINE#         234
  C:A1FBH         LINE#         235
BL51 BANKED LINKER/LOCATER V6.22.2.0                                                  06/18/2026  10:05:40  PAGE 28


  C:A1FBH         LINE#         236
  C:A222H         LINE#         237
  C:A235H         LINE#         238
  C:A235H         LINE#         239
  C:A252H         LINE#         240
  C:A25AH         LINE#         241
  C:A262H         LINE#         242
  C:A26CH         LINE#         243
  C:A29FH         LINE#         244
  C:A2B2H         LINE#         245
  C:A2B2H         LINE#         246
  C:A2CFH         LINE#         247
  C:A2D7H         LINE#         248
  C:A2E5H         LINE#         249
  C:A2EDH         LINE#         250
  -------         ENDPROC       _FLASHCHECKSUMCALCULATE
  -------         PROC          SYSTEM_PARM_INIT
  -------         DO            
  X:8C22H         SYMBOL        FlashCheckSum
  -------         ENDDO         
  C:DB99H         LINE#         262
  C:DB99H         LINE#         263
  C:DB99H         LINE#         264
  C:DBA0H         LINE#         266
  C:DBA3H         LINE#         267
  C:DBAAH         LINE#         268
  C:DBBFH         LINE#         269
  C:DBD6H         LINE#         270
  C:DBD6H         LINE#         271
  C:DBD9H         LINE#         272
  C:DBD9H         LINE#         274
  C:DBD9H         LINE#         275
  C:DBDCH         LINE#         276
  C:DBDCH         LINE#         277
  -------         ENDPROC       SYSTEM_PARM_INIT
  -------         PROC          READ_NOR_FLASH
  C:E7F1H         LINE#         290
  C:E7F1H         LINE#         291
  C:E7F1H         LINE#         292
  C:E7F8H         LINE#         294
  C:E7F8H         LINE#         295
  C:E7FBH         LINE#         296
  C:E7FEH         LINE#         298
  C:E804H         LINE#         299
  -------         ENDPROC       READ_NOR_FLASH
  -------         PROC          WRITE_NOR_FLASH
  C:E805H         LINE#         312
  C:E805H         LINE#         313
  C:E805H         LINE#         314
  C:E80CH         LINE#         316
  C:E80CH         LINE#         317
  C:E80FH         LINE#         318
  C:E812H         LINE#         319
  C:E818H         LINE#         320
  -------         ENDPROC       WRITE_NOR_FLASH
  -------         PROC          SAVE_DATA_HANDLER
  -------         DO            
BL51 BANKED LINKER/LOCATER V6.22.2.0                                                  06/18/2026  10:05:40  PAGE 29


  X:95E1H         SYMBOL        temp
  -------         ENDDO         
  C:D8C1H         LINE#         332
  C:D8C1H         LINE#         333
  C:D8C1H         LINE#         334
  C:D8C8H         LINE#         336
  C:D8D0H         LINE#         337
  C:D8D0H         LINE#         338
  C:D8DFH         LINE#         339
  C:D8DFH         LINE#         340
  C:D8E2H         LINE#         341
  C:D8E5H         LINE#         342
  C:D8EAH         LINE#         343
  C:D8F0H         LINE#         344
  C:D8F0H         LINE#         345
  C:D8F0H         LINE#         347
  C:D907H         LINE#         348
  C:D907H         LINE#         349
  C:D90EH         LINE#         350
  C:D90EH         LINE#         351
  -------         ENDPROC       SAVE_DATA_HANDLER
  -------         PROC          READY_TO_SAVE
  -------         DO            
  X:8C67H         SYMBOL        Enable_Memory
  -------         ENDDO         
  C:DFA1H         LINE#         364
  C:DFA1H         LINE#         365
  C:DFA1H         LINE#         366
  C:DFA8H         LINE#         367
  C:DFBAH         LINE#         368
  C:DFC6H         LINE#         369
  C:DFC6H         LINE#         370
  C:DFCBH         LINE#         371
  C:DFCCH         LINE#         372
  C:DFCEH         LINE#         374
  C:DFCEH         LINE#         375
  C:DFD3H         LINE#         376
  C:DFD9H         LINE#         377
  C:DFD9H         LINE#         378
  -------         ENDPROC       READY_TO_SAVE
  -------         PROC          READY_TO_SAVE_REPORT
  C:EA16H         LINE#         380
  C:EA16H         LINE#         381
  C:EA16H         LINE#         382
  C:EA19H         LINE#         383
  -------         ENDPROC       READY_TO_SAVE_REPORT
  -------         PROC          _BRIGHTNESS_HANDLER
  D:0007H         SYMBOL        LEDBrightness
  -------         DO            
  X:8C33H         SYMBOL        Brightness_Handler_u8temp
  -------         ENDDO         
  C:E59CH         LINE#         386
  C:E59CH         LINE#         387
  C:E59CH         LINE#         390
  C:E5A1H         LINE#         391
  C:E5A4H         LINE#         392
  -------         ENDPROC       _BRIGHTNESS_HANDLER
BL51 BANKED LINKER/LOCATER V6.22.2.0                                                  06/18/2026  10:05:40  PAGE 30


  -------         PROC          WRITE_MEMORY
  C:EA43H         LINE#         407
  C:EA43H         LINE#         408
  C:EA43H         LINE#         452
  -------         ENDPROC       WRITE_MEMORY
  -------         PROC          READ_MEMORY
  C:EA44H         LINE#         463
  C:EA44H         LINE#         464
  C:EA44H         LINE#         534
  -------         ENDPROC       READ_MEMORY
  -------         PROC          READ_MEMORY_ERROR
  C:EA45H         LINE#         535
  C:EA45H         LINE#         536
  C:EA45H         LINE#         576
  -------         ENDPROC       READ_MEMORY_ERROR
  -------         PROC          T0_INIT
  C:E8EAH         LINE#         587
  C:E8EAH         LINE#         588
  C:E8EAH         LINE#         589
  C:E8EDH         LINE#         590
  C:E8F0H         LINE#         591
  C:E8F3H         LINE#         592
  C:E8F5H         LINE#         593
  C:E8F7H         LINE#         594
  C:E8F9H         LINE#         595
  -------         ENDPROC       T0_INIT
  -------         PROC          T1_INIT
  C:E8FAH         LINE#         608
  C:E8FAH         LINE#         609
  C:E8FAH         LINE#         610
  C:E8FDH         LINE#         611
  C:E900H         LINE#         612
  C:E903H         LINE#         613
  C:E905H         LINE#         614
  C:E907H         LINE#         615
  C:E909H         LINE#         616
  -------         ENDPROC       T1_INIT
  -------         PROC          T2_INIT
  C:E7B0H         LINE#         630
  C:E7B0H         LINE#         631
  C:E7B0H         LINE#         632
  C:E7B3H         LINE#         633
  C:E7B6H         LINE#         634
  C:E7B8H         LINE#         635
  C:E7BBH         LINE#         636
  C:E7BEH         LINE#         637
  C:E7C1H         LINE#         638
  C:E7C3H         LINE#         639
  C:E7C5H         LINE#         640
  -------         ENDPROC       T2_INIT
  C:83EAH         SYMBOL        L?0148
  C:83ECH         SYMBOL        L?0149
  -------         PROC          L?0147
  -------         ENDPROC       L?0147
  C:83EAH         SYMBOL        L?0148
  C:83ECH         SYMBOL        L?0149
  -------         PROC          _READ_DGUS_VP
BL51 BANKED LINKER/LOCATER V6.22.2.0                                                  06/18/2026  10:05:40  PAGE 31


  X:8C87H         SYMBOL        addr
  X:8C8BH         SYMBOL        buf
  X:8C8EH         SYMBOL        len
  -------         DO            
  X:8C90H         SYMBOL        OS_addr
  X:8C92H         SYMBOL        OS_addr_offset
  X:8C94H         SYMBOL        OS_len
  X:8C96H         SYMBOL        OS_len_offset
  X:8C98H         SYMBOL        LenLimit
  -------         ENDDO         
  C:83F0H         LINE#         657
  C:8401H         LINE#         658
  C:8401H         LINE#         659
  C:8408H         LINE#         660
  C:840CH         LINE#         661
  C:8414H         LINE#         663
  C:8421H         LINE#         665
  C:8443H         LINE#         666
  C:8462H         LINE#         667
  C:8462H         LINE#         668
  C:8473H         LINE#         669
  C:8473H         LINE#         670
  C:848EH         LINE#         671
  C:84A0H         LINE#         675
  C:84A3H         LINE#         676
  C:84AEH         LINE#         677
  C:84B0H         LINE#         679
  C:84B3H         LINE#         680
  C:84B6H         LINE#         682
  C:84B9H         LINE#         683
  C:84C3H         LINE#         684
  C:84C3H         LINE#         685
  C:84C5H         LINE#         686
  C:84C8H         LINE#         687
  C:84DDH         LINE#         688
  C:84F2H         LINE#         689
  C:8500H         LINE#         690
  C:8500H         LINE#         691
  C:8516H         LINE#         692
  C:8520H         LINE#         693
  C:852EH         LINE#         694
  C:852EH         LINE#         695
  C:8530H         LINE#         696
  C:8533H         LINE#         697
  C:8548H         LINE#         698
  C:855DH         LINE#         699
  C:8572H         LINE#         700
  C:8587H         LINE#         701
  C:8589H         LINE#         702
  C:8593H         LINE#         703
  C:8593H         LINE#         704
  C:8595H         LINE#         705
  C:8598H         LINE#         706
  C:85ADH         LINE#         707
  C:85C2H         LINE#         708
  C:85C2H         LINE#         709
  C:85C5H         LINE#         759
BL51 BANKED LINKER/LOCATER V6.22.2.0                                                  06/18/2026  10:05:40  PAGE 32


  -------         ENDPROC       _READ_DGUS_VP
  C:8D25H         SYMBOL        L?0151
  -------         PROC          L?0150
  -------         ENDPROC       L?0150
  C:8D25H         SYMBOL        L?0151
  -------         PROC          _WRITE_DGUS_VP
  X:8DE1H         SYMBOL        addr
  X:8DE5H         SYMBOL        buf
  X:8DE8H         SYMBOL        len
  -------         DO            
  D:0002H         SYMBOL        OS_addr
  X:8DEAH         SYMBOL        OS_addr_offset
  X:8DECH         SYMBOL        OS_len
  X:8DEEH         SYMBOL        OS_len_offset
  D:0006H         SYMBOL        LenLimit
  -------         ENDDO         
  C:8D2BH         LINE#         773
  C:8D3CH         LINE#         774
  C:8D3CH         LINE#         775
  C:8D3FH         LINE#         776
  C:8D45H         LINE#         777
  C:8D4DH         LINE#         779
  C:8D5AH         LINE#         781
  C:8D6BH         LINE#         782
  C:8D78H         LINE#         783
  C:8D78H         LINE#         784
  C:8D7DH         LINE#         785
  C:8D7DH         LINE#         786
  C:8D94H         LINE#         787
  C:8DA6H         LINE#         792
  C:8DA9H         LINE#         793
  C:8DACH         LINE#         794
  C:8DB0H         LINE#         796
  C:8DB3H         LINE#         797
  C:8DB6H         LINE#         847
  C:8DB9H         LINE#         848
  C:8DC3H         LINE#         849
  C:8DC3H         LINE#         850
  C:8DD8H         LINE#         851
  C:8DEDH         LINE#         852
  C:8DEFH         LINE#         853
  C:8DF2H         LINE#         854
  C:8E00H         LINE#         855
  C:8E00H         LINE#         856
  C:8E16H         LINE#         857
  C:8E20H         LINE#         858
  C:8E23H         LINE#         859
  C:8E31H         LINE#         860
  C:8E31H         LINE#         861
  C:8E46H         LINE#         862
  C:8E5BH         LINE#         863
  C:8E70H         LINE#         864
  C:8E85H         LINE#         865
  C:8E87H         LINE#         866
  C:8E8CH         LINE#         867
  C:8E8CH         LINE#         868
  C:8E96H         LINE#         869
BL51 BANKED LINKER/LOCATER V6.22.2.0                                                  06/18/2026  10:05:40  PAGE 33


  C:8E96H         LINE#         870
  C:8E99H         LINE#         871
  C:8EAEH         LINE#         872
  C:8EC3H         LINE#         873
  C:8EC5H         LINE#         874
  C:8EC8H         LINE#         875
  C:8EC8H         LINE#         876
  C:8ECBH         LINE#         881
  -------         ENDPROC       _WRITE_DGUS_VP
  -------         PROC          T0_ISR_PC
  C:ABE1H         LINE#         896
  C:ABFEH         LINE#         898
  C:AC00H         LINE#         899
  C:AC03H         LINE#         900
  C:AC06H         LINE#         902
  C:AC14H         LINE#         903
  C:AC22H         LINE#         904
  C:AC30H         LINE#         905
  C:AC3EH         LINE#         906
  C:AC4CH         LINE#         908
  C:AC5AH         LINE#         909
  C:AC68H         LINE#         910
  C:AC6BH         LINE#         911
  C:AC6BH         LINE#         912
  C:AC82H         LINE#         913
  C:AC90H         LINE#         914
  C:AC90H         LINE#         916
  C:ACA7H         LINE#         917
  C:ACB5H         LINE#         918
  C:ACC4H         LINE#         919
  C:ACD0H         LINE#         921
  C:ACD2H         LINE#         922
  -------         ENDPROC       T0_ISR_PC
  -------         PROC          T1_ISR_PC
  C:D628H         LINE#         935
  C:D63FH         LINE#         937
  C:D641H         LINE#         938
  C:D644H         LINE#         939
  C:D647H         LINE#         941
  C:D666H         LINE#         942
  C:D668H         LINE#         943
  -------         ENDPROC       T1_ISR_PC
  C:E93AH         SYMBOL        L?0153
  -------         PROC          L?0152
  -------         ENDPROC       L?0152
  C:E93AH         SYMBOL        L?0153
  -------         PROC          _DELAY_MS
  D:0006H         SYMBOL        n
  C:E93EH         LINE#         957
  C:E93EH         LINE#         958
  C:E93EH         LINE#         959
  C:E942H         LINE#         960
  C:E948H         LINE#         961
  -------         ENDPROC       _DELAY_MS
  -------         PROC          T2_ISR_PC
  C:E855H         LINE#         973
  C:E857H         LINE#         975
BL51 BANKED LINKER/LOCATER V6.22.2.0                                                  06/18/2026  10:05:40  PAGE 34


  C:E859H         LINE#         976
  C:E85BH         LINE#         977
  C:E863H         LINE#         978
  C:E865H         LINE#         979
  -------         ENDPROC       T2_ISR_PC
  -------         PROC          _DELAYUS
  D:0006H         SYMBOL        n
  -------         DO            
  D:0004H         SYMBOL        i
  D:0002H         SYMBOL        j
  -------         ENDDO         
  C:E5BCH         LINE#         983
  C:E5BCH         LINE#         984
  C:E5BCH         LINE#         986
  C:E5C6H         LINE#         987
  C:E5DBH         LINE#         988
  -------         ENDPROC       _DELAYUS
  -------         PROC          _DELAYMS
  D:0006H         SYMBOL        n
  -------         DO            
  D:0004H         SYMBOL        i
  D:0002H         SYMBOL        j
  -------         ENDDO         
  C:E5DCH         LINE#         991
  C:E5DCH         LINE#         992
  C:E5DCH         LINE#         994
  C:E5E6H         LINE#         995
  C:E5FBH         LINE#         996
  -------         ENDPROC       _DELAYMS
  -------         PROC          _PAGE_CHANGE_HANDLER
  D:0007H         SYMBOL        n
  C:DD72H         LINE#         1008
  C:DD72H         LINE#         1009
  C:DD72H         LINE#         1027
  C:DD78H         LINE#         1028
  C:DD7CH         LINE#         1029
  C:DD7FH         LINE#         1030
  C:DD82H         LINE#         1031
  C:DD96H         LINE#         1033
  C:DD96H         LINE#         1034
  C:DD99H         LINE#         1035
  C:DDACH         LINE#         1036
  C:DDB2H         LINE#         1037
  -------         ENDPROC       _PAGE_CHANGE_HANDLER
  -------         PROC          _LANGUAGE_CHANGE
  D:0007H         SYMBOL        num
  -------         DO            
  X:8C33H         SYMBOL        Language_Change_Buffer
  -------         ENDDO         
  C:E3B8H         LINE#         1039
  C:E3B8H         LINE#         1040
  C:E3B8H         LINE#         1043
  C:E3BEH         LINE#         1044
  C:E3C1H         LINE#         1045
  C:E3C3H         LINE#         1046
  C:E3C6H         LINE#         1047
  -------         ENDPROC       _LANGUAGE_CHANGE
BL51 BANKED LINKER/LOCATER V6.22.2.0                                                  06/18/2026  10:05:40  PAGE 35


  -------         PROC          SCREENTIMEOUT_SET
  B:0023H.1       SYMBOL        enable
  -------         DO            
  X:8C33H         SYMBOL        ScreenTimeOut_Set_Temp
  -------         ENDDO         
  C:DACAH         LINE#         1049
  C:DACAH         LINE#         1050
  C:DACAH         LINE#         1053
  C:DAE0H         LINE#         1054
  C:DAE7H         LINE#         1055
  C:DAECH         LINE#         1057
  C:DAEFH         LINE#         1058
  C:DAF5H         LINE#         1059
  -------         ENDPROC       SCREENTIMEOUT_SET
  -------         ENDMOD        SYS

  -------         MODULE        CONTROL
  C:0000H         SYMBOL        _ICE_DUMMY_
  X:9308H         PUBLIC        ExternTimer
  X:9311H         SYMBOL        s_defrost_start_sec
  C:D276H         PUBLIC        _SetTempIntVpByMode
  X:9315H         PUBLIC        set_send_type
  D:0080H         PUBLIC        P0
  C:AFFBH         PUBLIC        _HomePage_UpdateModeAnimation
  C:79C1H         SYMBOL        SyncTimerFromVp
  C:E264H         PUBLIC        _SetTempIntWrite
  D:00B0H         PUBLIC        P3
  C:A8B1H         PUBLIC        RTCdisplay4change
  C:E4A6H         PUBLIC        _IsItHomePage
  D:00F8H         PUBLIC        RAMMODE
  C:6670H         PUBLIC        TempUnit_RefreshAll
  C:DBDDH         PUBLIC        HomePage
  X:9316H         PUBLIC        getDar1
  C:C240H         PUBLIC        _SyncSetTempCachesFromC
  D:00A8H         PUBLIC        IEN0
  D:00B8H         PUBLIC        IEN1
  B:0025H.1       PUBLIC        LockKeyCountEnalbe
  X:9318H         PUBLIC        SetTempOld_HeatC
  X:9319H         PUBLIC        SetPara_Addr
  C:B1E7H         SYMBOL        _KeyAdjustSetTempForMode
  C:DB0FH         PUBLIC        _SetTempFloatWriteC
  C:E3E0H         PUBLIC        OTAReload_DelayPage
  B:0025H.2       PUBLIC        OTAReload_Delay
  X:931AH         PUBLIC        SetTempOld_HeatF
  C:D407H         SYMBOL        _SyncTimerTempVpPair
  X:931BH         PUBLIC        HomePageID
  C:E5FCH         PUBLIC        _SetModeProcess
  X:9323H         PUBLIC        SetTempOld_CoolC
  C:A54FH         SYMBOL        Timer_ApplyIndoorOn
  X:9324H         PUBLIC        Defrosting
  C:CE64H         SYMBOL        TempUnit_RefreshActiveSetFromMode
  B:0025H.3       PUBLIC        WiFi_Tuya_Reseting
  X:9326H         PUBLIC        SetTempOld_CoolF
  C:CBBAH         SYMBOL        _SyncIndoorRoomTempVpPair
  C:E0BAH         PUBLIC        UnitChangePro
  C:AAD3H         SYMBOL        PrefillSetTempEditPage
  C:A426H         PUBLIC        Ready4WriteRTC
BL51 BANKED LINKER/LOCATER V6.22.2.0                                                  06/18/2026  10:05:40  PAGE 36


  X:9327H         PUBLIC        SetTempOld_AutoC
  X:9328H         PUBLIC        SetTempOld_AutoF
  C:D07AH         SYMBOL        _SyncIndoorSetTempVpPair
  C:E515H         PUBLIC        GetPageID
  X:9329H         PUBLIC        ExternTimer1
  B:0025H.4       PUBLIC        Screensaver_Enable
  D:0088H         PUBLIC        TCON
  C:9523H         SYMBOL        Defrost_CheckExit
  X:9333H         PUBLIC        Language_Num
  X:9335H         PUBLIC        Return_key_Set
  D:00C9H         PUBLIC        MUX_SEL
  C:D6CCH         SYMBOL        _?ix1000
  C:0100H         PUBLIC        Control_Function1
  X:9337H         PUBLIC        LockKeyCount
  C:D6D0H         SYMBOL        _?ix1001
  C:B8C9H         PUBLIC        _TempUnitTrans
  X:9339H         PUBLIC        BeforeScreenSavePage
  B:0025H.5       PUBLIC        TimerEnable
  X:933AH         PUBLIC        Electric_Heating
  C:ACEDH         PUBLIC        HomePage_SyncIndoorDisplay
  X:933CH         PUBLIC        key_down_delay
  X:933EH         PUBLIC        SetTemp_HeatLower_C
  X:933FH         PUBLIC        SetTemp_HeatLower_F
  X:9340H         PUBLIC        SetTemp_HeatUpper_C
  C:C760H         SYMBOL        _ReadTimerTempC
  C:BBC6H         SYMBOL        _Timer_IsWeekdayMatch
  X:9341H         PUBLIC        SetTemp_HeatUpper_F
  X:9342H         PUBLIC        key_dowm
  D:0098H         PUBLIC        SCON0
  C:DCEDH         PUBLIC        Wifi_Resting_Pro
  X:9344H         PUBLIC        SetTemp_CoolLower_C
  D:00C8H         PUBLIC        T2CON
  X:9345H         PUBLIC        SetTemp_CoolLower_F
  X:9346H         PUBLIC        SetTemp_CoolUpper_C
  C:691DH         PUBLIC        TimerRunning
  X:9347H         PUBLIC        SetTemp_CoolUpper_F
  X:9348H         PUBLIC        APP_down_delay
  C:E22DH         PUBLIC        _SetTempIntRead
  X:934AH         PUBLIC        Screensaver_Count
  C:9EFFH         PUBLIC        HomePage_Icon
  X:934CH         PUBLIC        value0F00
  C:D4C4H         SYMBOL        _TempUnit_RefreshFloatPair
  C:D1ACH         PUBLIC        GetValue0F00
  C:CACDH         SYMBOL        Timer_ApplyIndoorOff
  C:63C5H         PUBLIC        _Temp_Limit
  D:00D0H         PUBLIC        PSW
  C:A05BH         PUBLIC        ScreenSaver_Pro
  D:00C0H         PUBLIC        IRCON
  -------         PROC          _SETTEMPINTVPBYMODE
  X:8C5DH         SYMBOL        mode
  D:0005H         SYMBOL        unit_f
  C:D276H         LINE#         50
  C:D27BH         LINE#         51
  C:D27BH         LINE#         52
  C:D28EH         LINE#         53
  C:D294H         LINE#         54
  C:D29AH         LINE#         55
BL51 BANKED LINKER/LOCATER V6.22.2.0                                                  06/18/2026  10:05:40  PAGE 37


  C:D2B5H         LINE#         56
  C:D2D9H         LINE#         57
  -------         ENDPROC       _SETTEMPINTVPBYMODE
  -------         PROC          PREFILLSETTEMPEDITPAGE
  -------         DO            
  X:8C33H         SYMBOL        mode
  X:8C35H         SYMBOL        unit
  X:8C37H         SYMBOL        temp_c
  X:8C39H         SYMBOL        temp_f
  -------         ENDDO         
  C:AAD3H         LINE#         62
  C:AAD3H         LINE#         63
  C:AAD3H         LINE#         69
  C:AAECH         LINE#         70
  C:AAFFH         LINE#         71
  C:AB12H         LINE#         72
  C:AB27H         LINE#         73
  C:AB34H         LINE#         74
  C:AB49H         LINE#         75
  C:AB56H         LINE#         76
  C:AB6FH         LINE#         77
  C:AB88H         LINE#         78
  C:ABA1H         LINE#         79
  C:ABABH         LINE#         80
  C:ABABH         LINE#         81
  C:ABB0H         LINE#         82
  C:ABC0H         LINE#         83
  C:ABC2H         LINE#         85
  C:ABC2H         LINE#         86
  C:ABC7H         LINE#         87
  C:ABE0H         LINE#         88
  C:ABE0H         LINE#         89
  -------         ENDPROC       PREFILLSETTEMPEDITPAGE
  -------         PROC          DEFROST_CHECKEXIT
  -------         DO            
  X:94E2H         SYMBOL        defrost_en
  X:94E4H         SYMBOL        duration_min
  X:94E6H         SYMBOL        evap_c
  X:94EAH         SYMBOL        t3_c
  C:965FH         SYMBOL        defrost_exit
  -------         DO            
  X:94EEH         SYMBOL        zero
  -------         ENDDO         
  -------         ENDDO         
  C:9523H         LINE#         91
  C:9523H         LINE#         92
  C:9523H         LINE#         98
  C:9530H         LINE#         101
  C:9549H         LINE#         102
  C:9553H         LINE#         103
  C:9553H         LINE#         104
  C:955AH         LINE#         106
  C:955AH         LINE#         108
  C:9573H         LINE#         109
  C:957DH         LINE#         110
  C:9595H         LINE#         111
  C:95BDH         LINE#         112
BL51 BANKED LINKER/LOCATER V6.22.2.0                                                  06/18/2026  10:05:40  PAGE 38


  C:95BDH         LINE#         113
  C:9608H         LINE#         114
  C:9608H         LINE#         115
  C:9608H         LINE#         117
  C:9622H         LINE#         118
  C:963CH         LINE#         119
  C:965FH         LINE#         120
  C:965FH         LINE#         123
  C:965FH         LINE#         124
  C:965FH         LINE#         125
  C:9666H         LINE#         127
  C:966CH         LINE#         128
  C:9676H         LINE#         129
  C:968FH         LINE#         130
  C:9696H         LINE#         131
  C:9698H         LINE#         132
  C:9698H         LINE#         133
  -------         ENDPROC       DEFROST_CHECKEXIT
  -------         PROC          L?0693
  -------         ENDPROC       L?0693
  -------         PROC          _SETTEMPINTREAD
  D:0007H         SYMBOL        mode
  D:0005H         SYMBOL        unit_f
  -------         DO            
  X:8C55H         SYMBOL        temp
  D:0004H         SYMBOL        vp
  -------         ENDDO         
  C:E22DH         LINE#         135
  C:E22DH         LINE#         136
  C:E22DH         LINE#         137
  C:E234H         LINE#         138
  C:E237H         LINE#         140
  C:E23DH         LINE#         141
  C:E24EH         LINE#         142
  C:E256H         LINE#         143
  -------         ENDPROC       _SETTEMPINTREAD
  C:E25CH         SYMBOL        L?0688
  C:E25DH         SYMBOL        L?0689
  -------         PROC          L?0687
  -------         ENDPROC       L?0687
  C:E25CH         SYMBOL        L?0688
  C:E25DH         SYMBOL        L?0689
  -------         PROC          _SETTEMPINTWRITE
  D:0007H         SYMBOL        mode
  D:0005H         SYMBOL        unit_f
  X:8C5BH         SYMBOL        temp
  -------         DO            
  D:0004H         SYMBOL        vp
  -------         ENDDO         
  C:E264H         LINE#         145
  C:E26CH         LINE#         146
  C:E26CH         LINE#         147
  C:E26FH         LINE#         149
  C:E275H         LINE#         150
  C:E286H         LINE#         151
  -------         ENDPROC       _SETTEMPINTWRITE
  -------         PROC          _SETTEMPFLOATWRITEC
BL51 BANKED LINKER/LOCATER V6.22.2.0                                                  06/18/2026  10:05:40  PAGE 39


  X:8C33H         SYMBOL        mode
  X:8C34H         SYMBOL        temp_c
  -------         DO            
  X:8C38H         SYMBOL        temp_f
  X:8C3AH         SYMBOL        ic
  -------         ENDDO         
  C:DB0FH         LINE#         153
  C:DB14H         LINE#         154
  C:DB14H         LINE#         158
  C:DB2BH         LINE#         159
  C:DB38H         LINE#         160
  C:DB42H         LINE#         161
  -------         ENDPROC       _SETTEMPFLOATWRITEC
  C:D4BEH         SYMBOL        L?0691
  C:D4C0H         SYMBOL        L?0692
  -------         PROC          L?0690
  -------         ENDPROC       L?0690
  C:D4BEH         SYMBOL        L?0691
  C:D4C0H         SYMBOL        L?0692
  -------         PROC          _TEMPUNIT_REFRESHFLOATPAIR
  D:0004H         SYMBOL        vp_c
  X:8C55H         SYMBOL        vp_f
  -------         DO            
  X:8C59H         SYMBOL        fc
  X:8C5DH         SYMBOL        ff
  -------         ENDDO         
  C:D4C4H         LINE#         164
  C:D4C4H         LINE#         165
  C:D4C4H         LINE#         169
  C:D4D6H         LINE#         170
  C:D4FAH         LINE#         171
  -------         ENDPROC       _TEMPUNIT_REFRESHFLOATPAIR
  -------         PROC          _SYNCINDOORSETTEMPVPPAIR
  X:8C51H         SYMBOL        index
  X:8C52H         SYMBOL        temp_c
  -------         DO            
  X:8C54H         SYMBOL        temp_f
  -------         ENDDO         
  C:D07AH         LINE#         174
  C:D087H         LINE#         175
  C:D087H         LINE#         178
  C:D090H         LINE#         180
  C:D0A3H         LINE#         181
  C:D0C1H         LINE#         182
  C:D0DFH         LINE#         183
  -------         ENDPROC       _SYNCINDOORSETTEMPVPPAIR
  -------         PROC          _SYNCINDOORROOMTEMPVPPAIR
  X:8C51H         SYMBOL        index
  X:8C52H         SYMBOL        temp_c
  -------         DO            
  X:8C54H         SYMBOL        temp_f
  -------         ENDDO         
  C:CBBAH         LINE#         185
  C:CBC7H         LINE#         186
  C:CBC7H         LINE#         189
  C:CBD0H         LINE#         191
  C:CBE3H         LINE#         192
BL51 BANKED LINKER/LOCATER V6.22.2.0                                                  06/18/2026  10:05:40  PAGE 40


  C:CC08H         LINE#         193
  C:CC2DH         LINE#         194
  -------         ENDPROC       _SYNCINDOORROOMTEMPVPPAIR
  -------         PROC          L?0697
  -------         ENDPROC       L?0697
  -------         PROC          _SYNCTIMERTEMPVPPAIR
  X:8C51H         SYMBOL        vp_c
  X:8C55H         SYMBOL        vp_f
  X:8C59H         SYMBOL        temp_c
  -------         DO            
  X:8C5BH         SYMBOL        temp_f
  -------         ENDDO         
  C:D407H         LINE#         196
  C:D40DH         LINE#         197
  C:D40DH         LINE#         200
  C:D422H         LINE#         201
  C:D441H         LINE#         202
  -------         ENDPROC       _SYNCTIMERTEMPVPPAIR
  -------         PROC          L?0698
  -------         ENDPROC       L?0698
  -------         PROC          _READTIMERTEMPC
  X:94F0H         SYMBOL        vp_c
  X:94F4H         SYMBOL        vp_f
  -------         DO            
  X:94F8H         SYMBOL        unit
  X:94FAH         SYMBOL        temp_c
  X:94FCH         SYMBOL        temp_f
  -------         ENDDO         
  C:C760H         LINE#         205
  C:C766H         LINE#         206
  C:C766H         LINE#         211
  C:C77FH         LINE#         212
  C:C789H         LINE#         213
  C:C789H         LINE#         214
  C:C7A8H         LINE#         215
  C:C7B5H         LINE#         216
  C:C7B5H         LINE#         217
  C:C7D4H         LINE#         218
  C:C7DCH         LINE#         219
  -------         ENDPROC       _READTIMERTEMPC
  -------         PROC          _KEYADJUSTSETTEMPFORMODE
  X:8C33H         SYMBOL        mode
  X:8C34H         SYMBOL        delta
  -------         DO            
  X:8C36H         SYMBOL        unit
  X:8C38H         SYMBOL        temp
  X:8C3AH         SYMBOL        vp
  -------         ENDDO         
  C:B1E7H         LINE#         221
  C:B1F2H         LINE#         222
  C:B1F2H         LINE#         227
  C:B20BH         LINE#         228
  C:B21FH         LINE#         229
  C:B236H         LINE#         231
  C:B247H         LINE#         232
  C:B261H         LINE#         233
  C:B27EH         LINE#         234
BL51 BANKED LINKER/LOCATER V6.22.2.0                                                  06/18/2026  10:05:40  PAGE 41


  C:B29BH         LINE#         235
  C:B2BAH         LINE#         236
  C:B2C7H         LINE#         237
  C:B2CCH         LINE#         239
  C:B2D4H         LINE#         240
  -------         ENDPROC       _KEYADJUSTSETTEMPFORMODE
  -------         PROC          _HOMEPAGE_UPDATEMODEANIMATION
  D:0007H         SYMBOL        mode
  -------         DO            
  X:8C64H         SYMBOL        icon_start
  X:8C66H         SYMBOL        icon_end
  X:8C68H         SYMBOL        anim_val
  -------         ENDDO         
  C:AFFBH         LINE#         242
  C:AFFBH         LINE#         243
  C:AFFBH         LINE#         248
  C:B005H         LINE#         249
  C:B007H         LINE#         250
  C:B015H         LINE#         251
  C:B015H         LINE#         252
  C:B015H         LINE#         253
  C:B01EH         LINE#         254
  C:B025H         LINE#         255
  C:B027H         LINE#         256
  C:B027H         LINE#         257
  C:B030H         LINE#         258
  C:B037H         LINE#         259
  C:B039H         LINE#         260
  C:B039H         LINE#         261
  C:B042H         LINE#         262
  C:B049H         LINE#         263
  C:B04BH         LINE#         264
  C:B04BH         LINE#         265
  C:B053H         LINE#         266
  C:B05AH         LINE#         267
  C:B05CH         LINE#         268
  C:B05CH         LINE#         269
  C:B065H         LINE#         270
  C:B06CH         LINE#         271
  C:B06CH         LINE#         272
  C:B06CH         LINE#         274
  C:B085H         LINE#         275
  C:B09EH         LINE#         276
  C:B0B7H         LINE#         278
  C:B0BFH         LINE#         279
  C:B0D7H         LINE#         280
  C:B0DEH         LINE#         281
  -------         ENDPROC       _HOMEPAGE_UPDATEMODEANIMATION
  -------         PROC          GETVALUE0F00
  -------         DO            
  X:8C33H         SYMBOL        cleanData
  -------         ENDDO         
  C:D1ACH         LINE#         338
  C:D1ACH         LINE#         339
  C:D1ACH         LINE#         340
  C:D1BFH         LINE#         341
  C:D1D9H         LINE#         342
BL51 BANKED LINKER/LOCATER V6.22.2.0                                                  06/18/2026  10:05:40  PAGE 42


  C:D1E1H         LINE#         343
  C:D1E1H         LINE#         344
  C:D1F1H         LINE#         345
  C:D20BH         LINE#         346
  C:D20EH         LINE#         347
  C:D20EH         LINE#         348
  C:D210H         LINE#         349
  -------         ENDPROC       GETVALUE0F00
  -------         PROC          GETPAGEID
  -------         DO            
  X:8C4AH         SYMBOL        usPID
  -------         ENDDO         
  C:E515H         LINE#         350
  C:E515H         LINE#         351
  C:E515H         LINE#         353
  C:E52EH         LINE#         354
  C:E536H         LINE#         355
  -------         ENDPROC       GETPAGEID
  -------         PROC          CONTROL_FUNCTION1
  -------         DO            
  X:8C22H         SYMBOL        LockFlag
  X:8C24H         SYMBOL        Control_u16temp
  X:8C26H         SYMBOL        Control_s16temp
  X:8C28H         SYMBOL        i
  -------         DO            
  X:8C29H         SYMBOL        unit
  X:8C2BH         SYMBOL        temp_c
  X:8C2DH         SYMBOL        power_mode
  X:8C29H         SYMBOL        mode
  X:8C29H         SYMBOL        i
  X:8C2AH         SYMBOL        CF
  X:8C29H         SYMBOL        unit_sel
  -------         ENDDO         
  -------         DO            
  X:8C29H         SYMBOL        mode
  X:8C29H         SYMBOL        i
  X:8C2AH         SYMBOL        CF
  X:8C29H         SYMBOL        unit_sel
  -------         ENDDO         
  -------         DO            
  X:8C29H         SYMBOL        i
  X:8C2AH         SYMBOL        CF
  X:8C29H         SYMBOL        unit_sel
  -------         ENDDO         
  -------         DO            
  X:8C29H         SYMBOL        unit_sel
  -------         ENDDO         
  -------         DO            
  X:8C29H         SYMBOL        SaveSetTemp_u16tempC
  X:8C2BH         SYMBOL        SaveSetTemp_u16tempF
  X:8C2DH         SYMBOL        SaveSetTemp_u16temp
  X:8C2FH         SYMBOL        SaveSetTemp_u16mode
  X:8C29H         SYMBOL        Enable_Memory
  X:8C29H         SYMBOL        SaveSetTemp_u16mode
  X:8C2BH         SYMBOL        SaveSetTemp_u16mode1
  X:8C29H         SYMBOL        idx
  X:8C2AH         SYMBOL        temp_f
BL51 BANKED LINKER/LOCATER V6.22.2.0                                                  06/18/2026  10:05:40  PAGE 43


  X:8C2CH         SYMBOL        temp_c
  X:8C29H         SYMBOL        temp_f
  X:8C2BH         SYMBOL        temp_c
  X:8C29H         SYMBOL        temp_f
  X:8C2BH         SYMBOL        temp_c
  -------         DO            
  X:8C31H         SYMBOL        save_mode
  -------         ENDDO         
  -------         ENDDO         
  -------         DO            
  X:8C29H         SYMBOL        Enable_Memory
  X:8C29H         SYMBOL        SaveSetTemp_u16mode
  X:8C2BH         SYMBOL        SaveSetTemp_u16mode1
  X:8C29H         SYMBOL        idx
  X:8C2AH         SYMBOL        temp_f
  X:8C2CH         SYMBOL        temp_c
  X:8C29H         SYMBOL        temp_f
  X:8C2BH         SYMBOL        temp_c
  X:8C29H         SYMBOL        temp_f
  X:8C2BH         SYMBOL        temp_c
  -------         ENDDO         
  -------         DO            
  X:8C29H         SYMBOL        SaveSetTemp_u16mode
  X:8C2BH         SYMBOL        SaveSetTemp_u16mode1
  X:8C29H         SYMBOL        idx
  X:8C2AH         SYMBOL        temp_f
  X:8C2CH         SYMBOL        temp_c
  X:8C29H         SYMBOL        temp_f
  X:8C2BH         SYMBOL        temp_c
  X:8C29H         SYMBOL        temp_f
  X:8C2BH         SYMBOL        temp_c
  -------         ENDDO         
  -------         DO            
  X:8C29H         SYMBOL        idx
  X:8C2AH         SYMBOL        temp_f
  X:8C2CH         SYMBOL        temp_c
  X:8C29H         SYMBOL        temp_f
  X:8C2BH         SYMBOL        temp_c
  X:8C29H         SYMBOL        temp_f
  X:8C2BH         SYMBOL        temp_c
  -------         ENDDO         
  -------         DO            
  X:8C29H         SYMBOL        temp_f
  X:8C2BH         SYMBOL        temp_c
  X:8C29H         SYMBOL        temp_f
  X:8C2BH         SYMBOL        temp_c
  -------         ENDDO         
  -------         DO            
  X:8C29H         SYMBOL        temp_f
  X:8C2BH         SYMBOL        temp_c
  -------         ENDDO         
  -------         DO            
  X:8C29H         SYMBOL        para_idx
  -------         ENDDO         
  -------         ENDDO         
  C:0100H         LINE#         357
  C:0100H         LINE#         358
BL51 BANKED LINKER/LOCATER V6.22.2.0                                                  06/18/2026  10:05:40  PAGE 44


  C:0100H         LINE#         363
  C:0119H         LINE#         364
  C:0128H         LINE#         365
  C:012EH         LINE#         366
  C:012EH         LINE#         367
  C:0135H         LINE#         368
  C:02C5H         LINE#         369
  C:02C5H         LINE#         370
  C:02C5H         LINE#         371
  C:02C5H         LINE#         372
  C:02C8H         LINE#         373
  C:02C8H         LINE#         374
  C:02D5H         LINE#         375
  C:02D5H         LINE#         376
  C:02EDH         LINE#         377
  C:02F7H         LINE#         378
  C:02FAH         LINE#         380
  C:02FCH         LINE#         381
  C:02FCH         LINE#         382
  C:02FFH         LINE#         383
  C:02FFH         LINE#         384
  C:030CH         LINE#         385
  C:0324H         LINE#         386
  C:032EH         LINE#         387
  C:0333H         LINE#         389
  C:0335H         LINE#         390
  C:0335H         LINE#         391
  C:0338H         LINE#         392
  C:0338H         LINE#         393
  C:0345H         LINE#         394
  C:0347H         LINE#         395
  C:034AH         LINE#         396
  C:034AH         LINE#         397
  C:0354H         LINE#         398
  C:035CH         LINE#         400
  C:0361H         LINE#         401
  C:0364H         LINE#         402
  C:0364H         LINE#         403
  C:037DH         LINE#         404
  C:0393H         LINE#         405
  C:0393H         LINE#         406
  C:0396H         LINE#         407
  C:039DH         LINE#         408
  C:03AEH         LINE#         409
  C:03AEH         LINE#         410
  C:03B1H         LINE#         411
  C:03B1H         LINE#         412
  C:03B1H         LINE#         413
  C:03B1H         LINE#         414
  C:03B4H         LINE#         415
  C:03B4H         LINE#         419
  C:03B6H         LINE#         420
  C:03CFH         LINE#         421
  C:03E2H         LINE#         422
  C:03E2H         LINE#         423
  C:03E2H         LINE#         424
  C:03E2H         LINE#         425
BL51 BANKED LINKER/LOCATER V6.22.2.0                                                  06/18/2026  10:05:40  PAGE 45


  C:03E9H         LINE#         426
  C:03E9H         LINE#         427
  C:03ECH         LINE#         428
  C:03F5H         LINE#         429
  C:03F7H         LINE#         431
  C:03F7H         LINE#         432
  C:03FCH         LINE#         433
  C:0414H         LINE#         434
  C:0414H         LINE#         435
  C:042DH         LINE#         436
  C:0439H         LINE#         437
  C:0439H         LINE#         438
  C:0446H         LINE#         439
  C:0449H         LINE#         440
  C:0457H         LINE#         441
  C:0465H         LINE#         442
  C:0465H         LINE#         443
  C:0467H         LINE#         444
  C:0473H         LINE#         445
  C:0473H         LINE#         446
  C:0480H         LINE#         447
  C:0483H         LINE#         448
  C:0491H         LINE#         449
  C:049CH         LINE#         450
  C:049CH         LINE#         451
  C:049EH         LINE#         452
  C:04AAH         LINE#         453
  C:04AAH         LINE#         454
  C:04BDH         LINE#         455
  C:04C0H         LINE#         456
  C:04CEH         LINE#         457
  C:04D9H         LINE#         458
  C:04DCH         LINE#         459
  C:04DCH         LINE#         460
  C:04DCH         LINE#         461
  C:04DCH         LINE#         462
  C:04DFH         LINE#         463
  C:04DFH         LINE#         464
  C:04E2H         LINE#         465
  C:04E7H         LINE#         466
  C:04E7H         LINE#         467
  C:04EAH         LINE#         468
  C:04EAH         LINE#         470
  C:0503H         LINE#         471
  C:0515H         LINE#         472
  C:0515H         LINE#         473
  C:0515H         LINE#         474
  C:0515H         LINE#         475
  C:052EH         LINE#         476
  C:0538H         LINE#         477
  C:0538H         LINE#         478
  C:053EH         LINE#         479
  C:0547H         LINE#         480
  C:0549H         LINE#         481
  C:0553H         LINE#         482
  C:0553H         LINE#         483
  C:055AH         LINE#         484
BL51 BANKED LINKER/LOCATER V6.22.2.0                                                  06/18/2026  10:05:40  PAGE 46


  C:0572H         LINE#         485
  C:0572H         LINE#         486
  C:0574H         LINE#         487
  C:0574H         LINE#         488
  C:0574H         LINE#         489
  C:0577H         LINE#         490
  C:0577H         LINE#         491
  C:057CH         LINE#         492
  C:0595H         LINE#         493
  C:05A1H         LINE#         494
  C:05B9H         LINE#         495
  C:05D2H         LINE#         497
  C:05D9H         LINE#         498
  C:05F1H         LINE#         499
  C:0603H         LINE#         500
  C:0606H         LINE#         501
  C:0612H         LINE#         502
  C:0629H         LINE#         503
  C:0642H         LINE#         505
  C:065BH         LINE#         506
  C:066DH         LINE#         507
  C:0670H         LINE#         508
  C:067CH         LINE#         509
  C:0694H         LINE#         510
  C:06ADH         LINE#         512
  C:06C6H         LINE#         513
  C:06D8H         LINE#         514
  C:06DBH         LINE#         515
  C:06E7H         LINE#         516
  C:06FFH         LINE#         517
  C:0718H         LINE#         519
  C:0731H         LINE#         520
  C:0743H         LINE#         521
  C:0746H         LINE#         522
  C:0752H         LINE#         523
  C:076AH         LINE#         524
  C:0783H         LINE#         526
  C:079CH         LINE#         527
  C:07AEH         LINE#         528
  C:07B1H         LINE#         529
  C:07C0H         LINE#         530
  C:07D8H         LINE#         531
  C:07F1H         LINE#         533
  C:080AH         LINE#         534
  C:081CH         LINE#         535
  C:081CH         LINE#         538
  C:081FH         LINE#         539
  C:081FH         LINE#         540
  C:0821H         LINE#         541
  C:0824H         LINE#         542
  C:0824H         LINE#         543
  C:0829H         LINE#         545
  C:0841H         LINE#         546
  C:085AH         LINE#         547
  C:0866H         LINE#         548
  C:0866H         LINE#         549
  C:0878H         LINE#         550
BL51 BANKED LINKER/LOCATER V6.22.2.0                                                  06/18/2026  10:05:40  PAGE 47


  C:0893H         LINE#         551
  C:08B1H         LINE#         552
  C:08B9H         LINE#         553
  C:08C5H         LINE#         554
  C:08CAH         LINE#         556
  C:08CCH         LINE#         557
  C:08CFH         LINE#         558
  C:08CFH         LINE#         559
  C:08E2H         LINE#         560
  C:08FDH         LINE#         561
  C:091BH         LINE#         562
  C:0923H         LINE#         563
  C:092FH         LINE#         564
  C:0934H         LINE#         566
  C:0936H         LINE#         567
  C:0936H         LINE#         568
  C:0936H         LINE#         569
  C:0939H         LINE#         570
  C:0939H         LINE#         571
  C:093CH         LINE#         572
  C:093FH         LINE#         573
  C:093FH         LINE#         574
  C:0942H         LINE#         575
  C:0945H         LINE#         576
  C:0945H         LINE#         577
  C:095EH         LINE#         578
  C:096AH         LINE#         579
  C:0982H         LINE#         580
  C:098EH         LINE#         581
  C:0993H         LINE#         583
  C:0995H         LINE#         584
  C:0998H         LINE#         585
  C:09A7H         LINE#         586
  C:09BFH         LINE#         587
  C:09CBH         LINE#         588
  C:09D0H         LINE#         590
  C:09D2H         LINE#         591
  C:09D2H         LINE#         592
  C:09D5H         LINE#         593
  C:09D5H         LINE#         594
  C:09DAH         LINE#         595
  C:09F3H         LINE#         596
  C:0A0CH         LINE#         598
  C:0A25H         LINE#         599
  C:0A37H         LINE#         600
  C:0A3AH         LINE#         601
  C:0A3AH         LINE#         602
  C:0A3AH         LINE#         604
  C:0A53H         LINE#         605
  C:0A5EH         LINE#         606
  C:0A63H         LINE#         607
  C:0A68H         LINE#         608
  C:0A81H         LINE#         609
  C:0A9AH         LINE#         611
  C:0AB3H         LINE#         612
  C:0AC3H         LINE#         613
  C:0AD2H         LINE#         614
BL51 BANKED LINKER/LOCATER V6.22.2.0                                                  06/18/2026  10:05:40  PAGE 48


  C:0AD7H         LINE#         615
  C:0AF0H         LINE#         616
  C:0B08H         LINE#         618
  C:0B21H         LINE#         619
  C:0B31H         LINE#         620
  C:0B40H         LINE#         621
  C:0B45H         LINE#         622
  C:0B5EH         LINE#         623
  C:0B77H         LINE#         625
  C:0B90H         LINE#         626
  C:0BA0H         LINE#         627
  C:0BAFH         LINE#         628
  C:0BB4H         LINE#         629
  C:0BCDH         LINE#         630
  C:0BE6H         LINE#         632
  C:0BFFH         LINE#         633
  C:0C0FH         LINE#         634
  C:0C1EH         LINE#         635
  C:0C23H         LINE#         636
  C:0C3CH         LINE#         637
  C:0C55H         LINE#         639
  C:0C6EH         LINE#         640
  C:0C7EH         LINE#         641
  C:0C8CH         LINE#         642
  C:0C91H         LINE#         643
  C:0CAAH         LINE#         644
  C:0CC3H         LINE#         646
  C:0CDCH         LINE#         647
  C:0CF5H         LINE#         648
  C:0CF5H         LINE#         649
  C:0CF8H         LINE#         650
  C:0D18H         LINE#         651
  C:0D22H         LINE#         652
  C:0D22H         LINE#         653
  C:0D25H         LINE#         654
  C:0D25H         LINE#         655
  C:0D3EH         LINE#         656
  C:0D4DH         LINE#         657
  C:0D4FH         LINE#         658
  C:0D51H         LINE#         659
  C:0D51H         LINE#         660
  C:0D6AH         LINE#         661
  C:0D79H         LINE#         662
  C:0D7FH         LINE#         663
  C:0D82H         LINE#         664
  C:0D82H         LINE#         665
  C:0D9BH         LINE#         666
  C:0DAAH         LINE#         667
  C:0DB0H         LINE#         668
  C:0DB3H         LINE#         669
  C:0DB3H         LINE#         670
  C:0DCCH         LINE#         671
  C:0DDBH         LINE#         672
  C:0DE0H         LINE#         673
  C:0DE2H         LINE#         674
  C:0DE2H         LINE#         675
  C:0DFBH         LINE#         676
BL51 BANKED LINKER/LOCATER V6.22.2.0                                                  06/18/2026  10:05:40  PAGE 49


  C:0E0AH         LINE#         677
  C:0E0FH         LINE#         678
  C:0E11H         LINE#         679
  C:0E11H         LINE#         680
  C:0E2AH         LINE#         681
  C:0E39H         LINE#         682
  C:0E42H         LINE#         683
  C:0E45H         LINE#         688
  C:0E45H         LINE#         689
  C:0E48H         LINE#         690
  C:0E4BH         LINE#         691
  C:0E4BH         LINE#         698
  C:0E64H         LINE#         699
  C:0E73H         LINE#         700
  C:0E73H         LINE#         701
  C:0E89H         LINE#         702
  C:0EA2H         LINE#         703
  C:0EB7H         LINE#         704
  C:0ED0H         LINE#         705
  C:0EE9H         LINE#         706
  C:0EFFH         LINE#         707
  C:0F05H         LINE#         708
  C:0F18H         LINE#         709
  C:0F37H         LINE#         710
  C:0F39H         LINE#         711
  C:0F3CH         LINE#         713
  C:0F3CH         LINE#         715
  C:0F53H         LINE#         716
  C:0F6CH         LINE#         717
  C:0F7AH         LINE#         718
  C:0F93H         LINE#         719
  C:0FACH         LINE#         720
  C:0FC2H         LINE#         721
  C:0FC8H         LINE#         722
  C:0FDBH         LINE#         723
  C:0FFAH         LINE#         724
  C:0FFFH         LINE#         725
  C:0FFFH         LINE#         726
  C:1001H         LINE#         727
  C:1001H         LINE#         728
  C:1001H         LINE#         729
  C:1004H         LINE#         730
  C:1004H         LINE#         731
  C:101DH         LINE#         732
  C:1028H         LINE#         733
  C:102AH         LINE#         734
  C:102AH         LINE#         735
  C:102DH         LINE#         750
  C:102DH         LINE#         751
  C:1032H         LINE#         752
  C:1035H         LINE#         753
  C:1038H         LINE#         754
  C:1038H         LINE#         755
  C:1051H         LINE#         756
  C:1061H         LINE#         757
  C:1064H         LINE#         758
  C:1064H         LINE#         759
BL51 BANKED LINKER/LOCATER V6.22.2.0                                                  06/18/2026  10:05:40  PAGE 50


  C:1067H         LINE#         773
  C:1067H         LINE#         774
  C:1070H         LINE#         775
  C:1073H         LINE#         776
  C:107AH         LINE#         777
  C:107DH         LINE#         786
  C:107DH         LINE#         787
  C:1096H         LINE#         788
  C:10AFH         LINE#         789
  C:10B8H         LINE#         790
  C:10B8H         LINE#         791
  C:10BBH         LINE#         792
  C:10BBH         LINE#         793
  C:10C2H         LINE#         794
  C:10DAH         LINE#         795
  C:10E5H         LINE#         796
  C:10FEH         LINE#         797
  C:1101H         LINE#         798
  C:1101H         LINE#         799
  C:1101H         LINE#         800
  C:1104H         LINE#         801
  C:1104H         LINE#         802
  C:1106H         LINE#         803
  C:1109H         LINE#         804
  C:1109H         LINE#         805
  C:1122H         LINE#         806
  C:112CH         LINE#         807
  C:1131H         LINE#         809
  C:1133H         LINE#         810
  C:1136H         LINE#         811
  C:1136H         LINE#         812
  C:114FH         LINE#         813
  C:1159H         LINE#         814
  C:115EH         LINE#         816
  C:1160H         LINE#         817
  C:1163H         LINE#         818
  C:1163H         LINE#         819
  C:117CH         LINE#         820
  C:1186H         LINE#         821
  C:118BH         LINE#         823
  C:118DH         LINE#         824
  C:1190H         LINE#         825
  C:1190H         LINE#         826
  C:11A9H         LINE#         827
  C:11B8H         LINE#         828
  C:11D0H         LINE#         829
  C:11DCH         LINE#         830
  C:11DCH         LINE#         831
  C:11F4H         LINE#         832
  C:120DH         LINE#         833
  C:1226H         LINE#         834
  C:123FH         LINE#         835
  C:1242H         LINE#         836
  C:1242H         LINE#         837
  C:1244H         LINE#         838
  C:1247H         LINE#         839
  C:1256H         LINE#         840
BL51 BANKED LINKER/LOCATER V6.22.2.0                                                  06/18/2026  10:05:40  PAGE 51


  C:126EH         LINE#         841
  C:127AH         LINE#         842
  C:127AH         LINE#         843
  C:1292H         LINE#         844
  C:12ABH         LINE#         845
  C:12C4H         LINE#         846
  C:12DDH         LINE#         847
  C:12E0H         LINE#         848
  C:12E0H         LINE#         849
  C:12E2H         LINE#         850
  C:12E5H         LINE#         851
  C:12F4H         LINE#         852
  C:130CH         LINE#         853
  C:1318H         LINE#         854
  C:1318H         LINE#         855
  C:1330H         LINE#         856
  C:1349H         LINE#         857
  C:1362H         LINE#         858
  C:137BH         LINE#         859
  C:137BH         LINE#         860
  C:137DH         LINE#         861
  C:1380H         LINE#         862
  C:138FH         LINE#         863
  C:13A7H         LINE#         864
  C:13B3H         LINE#         865
  C:13B3H         LINE#         866
  C:13CBH         LINE#         867
  C:13E4H         LINE#         868
  C:13FDH         LINE#         869
  C:1416H         LINE#         870
  C:1419H         LINE#         871
  C:1419H         LINE#         872
  C:141BH         LINE#         873
  C:141BH         LINE#         874
  C:141EH         LINE#         875
  C:141EH         LINE#         876
  C:1437H         LINE#         877
  C:1441H         LINE#         878
  C:1446H         LINE#         880
  C:1448H         LINE#         881
  C:144BH         LINE#         882
  C:144BH         LINE#         883
  C:1464H         LINE#         884
  C:146EH         LINE#         885
  C:146EH         LINE#         886
  C:147DH         LINE#         887
  C:147DH         LINE#         888
  C:1496H         LINE#         889
  C:14B0H         LINE#         890
  C:14C9H         LINE#         891
  C:14D4H         LINE#         892
  C:14D4H         LINE#         893
  C:14D6H         LINE#         894
  C:14DDH         LINE#         895
  C:14E0H         LINE#         897
  C:14E0H         LINE#         898
  C:14E2H         LINE#         899
BL51 BANKED LINKER/LOCATER V6.22.2.0                                                  06/18/2026  10:05:40  PAGE 52


  C:14E2H         LINE#         900
  C:14E5H         LINE#         901
  C:14E5H         LINE#         904
  C:14FEH         LINE#         905
  C:1511H         LINE#         906
  C:152BH         LINE#         907
  C:1533H         LINE#         908
  C:1551H         LINE#         909
  C:1559H         LINE#         911
  C:1572H         LINE#         912
  C:1585H         LINE#         913
  C:15A8H         LINE#         915
  C:15C1H         LINE#         916
  C:15D4H         LINE#         917
  C:15F7H         LINE#         918
  C:15FAH         LINE#         919
  C:1601H         LINE#         920
  C:1604H         LINE#         921
  C:1607H         LINE#         922
  C:1609H         LINE#         923
  C:1609H         LINE#         924
  C:160CH         LINE#         925
  C:160CH         LINE#         926
  C:1625H         LINE#         927
  C:163EH         LINE#         928
  C:1640H         LINE#         929
  C:1640H         LINE#         930
  C:1643H         LINE#         931
  C:1643H         LINE#         932
  C:1646H         LINE#         933
  C:164BH         LINE#         934
  C:164EH         LINE#         935
  C:1651H         LINE#         936
  C:1651H         LINE#         937
  C:166AH         LINE#         938
  C:1679H         LINE#         939
  C:1679H         LINE#         940
  C:167CH         LINE#         941
  C:167FH         LINE#         942
  C:1686H         LINE#         943
  C:169EH         LINE#         944
  C:169EH         LINE#         945
  C:16A1H         LINE#         946
  C:16A1H         LINE#         947
  C:16A1H         LINE#         948
  C:16A1H         LINE#         949
  C:16A1H         LINE#         950
  C:16A1H         LINE#         951
  C:16ACH         LINE#         952
  C:16ACH         LINE#         953
  C:16AFH         LINE#         954
  C:16AFH         LINE#         955
  C:16AFH         LINE#         956
  C:16AFH         LINE#         957
  C:16AFH         LINE#         958
  C:16AFH         LINE#         959
  C:16AFH         LINE#         960
BL51 BANKED LINKER/LOCATER V6.22.2.0                                                  06/18/2026  10:05:40  PAGE 53


  C:16BFH         LINE#         961
  C:16C8H         LINE#         962
  C:16C8H         LINE#         963
  C:16C8H         LINE#         964
  C:16CBH         LINE#         965
  C:16CBH         LINE#         966
  C:16CBH         LINE#         967
  C:16CBH         LINE#         968
  C:16CBH         LINE#         969
  C:16CBH         LINE#         970
  C:16CBH         LINE#         971
  C:16D9H         LINE#         972
  C:16DEH         LINE#         973
  C:16DEH         LINE#         974
  C:16DEH         LINE#         975
  C:16E1H         LINE#         976
  C:16E1H         LINE#         977
  C:16E1H         LINE#         978
  C:16E1H         LINE#         979
  C:16E1H         LINE#         980
  C:16E1H         LINE#         981
  C:16E1H         LINE#         982
  C:16F1H         LINE#         983
  C:16FAH         LINE#         984
  C:16FAH         LINE#         985
  C:16FAH         LINE#         986
  C:16FDH         LINE#         987
  C:16FDH         LINE#         988
  C:16FDH         LINE#         989
  C:16FDH         LINE#         990
  C:16FDH         LINE#         991
  C:16FDH         LINE#         992
  C:16FDH         LINE#         993
  C:16FDH         LINE#         994
  C:16FDH         LINE#         995
  C:1702H         LINE#         996
  C:1712H         LINE#         997
  C:171BH         LINE#         998
  C:171BH         LINE#         999
  C:171BH         LINE#         1000
  C:171DH         LINE#         1001
  C:171DH         LINE#         1002
  C:171DH         LINE#         1003
  C:171DH         LINE#         1004
  C:171DH         LINE#         1005
  C:171DH         LINE#         1006
  C:171DH         LINE#         1007
  C:171DH         LINE#         1012
  C:1722H         LINE#         1013
  C:1730H         LINE#         1014
  C:1747H         LINE#         1015
  C:1755H         LINE#         1016
  C:1773H         LINE#         1017
  C:177DH         LINE#         1018
  C:1780H         LINE#         1019
  C:1783H         LINE#         1020
  C:1783H         LINE#         1021
BL51 BANKED LINKER/LOCATER V6.22.2.0                                                  06/18/2026  10:05:40  PAGE 54


  C:1786H         LINE#         1022
  C:1786H         LINE#         1023
  C:178FH         LINE#         1024
  C:1792H         LINE#         1025
  C:1797H         LINE#         1026
  C:1799H         LINE#         1027
  C:179CH         LINE#         1031
  C:179CH         LINE#         1032
  C:179CH         LINE#         1033
  C:179CH         LINE#         1034
  C:179FH         LINE#         1035
  C:179FH         LINE#         1036
  C:17A2H         LINE#         1037
  C:17A2H         LINE#         1038
  C:17A2H         LINE#         1042
  C:17BDH         LINE#         1043
  C:17CBH         LINE#         1044
  C:17E4H         LINE#         1045
  C:17E7H         LINE#         1046
  C:17E7H         LINE#         1047
  C:17E7H         LINE#         1048
  C:17EAH         LINE#         1049
  C:17EAH         LINE#         1050
  C:17F1H         LINE#         1051
  C:17F4H         LINE#         1052
  C:17F4H         LINE#         1053
  C:17F7H         LINE#         1054
  C:17F7H         LINE#         1055
  C:17F7H         LINE#         1059
  C:1812H         LINE#         1060
  C:1820H         LINE#         1061
  C:1839H         LINE#         1062
  C:1840H         LINE#         1063
  C:1843H         LINE#         1064
  C:1843H         LINE#         1065
  C:1843H         LINE#         1066
  C:1845H         LINE#         1067
  C:1845H         LINE#         1068
  C:184CH         LINE#         1069
  C:184FH         LINE#         1070
  C:184FH         LINE#         1071
  C:1851H         LINE#         1072
  C:1851H         LINE#         1073
  C:1854H         LINE#         1074
  C:1854H         LINE#         1075
  C:1856H         LINE#         1076
  C:1856H         LINE#         1077
  C:186FH         LINE#         1078
  C:1879H         LINE#         1079
  C:187DH         LINE#         1081
  C:187FH         LINE#         1082
  C:1887H         LINE#         1083
  C:188AH         LINE#         1084
  C:188CH         LINE#         1085
  C:188CH         LINE#         1086
  C:188CH         LINE#         1087
  C:188CH         LINE#         1088
BL51 BANKED LINKER/LOCATER V6.22.2.0                                                  06/18/2026  10:05:40  PAGE 55


  C:188CH         LINE#         1089
  C:188CH         LINE#         1090
  C:188FH         LINE#         1091
  C:1891H         LINE#         1092
  C:1891H         LINE#         1093
  C:18AAH         LINE#         1094
  C:18B4H         LINE#         1095
  C:18B8H         LINE#         1097
  C:18BDH         LINE#         1098
  C:18BDH         LINE#         1099
  C:18BDH         LINE#         1100
  C:18DAH         LINE#         1101
  C:18DAH         LINE#         1104
  C:1940H         LINE#         1107
  C:195AH         LINE#         1108
  C:195AH         LINE#         1109
  C:195CH         LINE#         1110
  C:195CH         LINE#         1111
  C:195EH         LINE#         1112
  C:197FH         LINE#         1113
  C:197FH         LINE#         1114
  C:198CH         LINE#         1115
  C:198CH         LINE#         1116
  C:198FH         LINE#         1118
  C:198FH         LINE#         1119
  C:19AAH         LINE#         1120
  C:19B3H         LINE#         1121
  C:19E2H         LINE#         1122
  C:19E2H         LINE#         1123
  C:19F6H         LINE#         1124
  C:1A0FH         LINE#         1125
  C:1A30H         LINE#         1126
  C:1A38H         LINE#         1127
  C:1A38H         LINE#         1128
  C:1A53H         LINE#         1129
  C:1A5BH         LINE#         1130
  C:1A5DH         LINE#         1131
  C:1A66H         LINE#         1132
  C:1A69H         LINE#         1133
  C:1A69H         LINE#         1134
  C:1A69H         LINE#         1135
  C:1A69H         LINE#         1136
  -------         ENDPROC       CONTROL_FUNCTION1
  -------         PROC          _ISITHOMEPAGE
  D:0007H         SYMBOL        NowPage
  -------         DO            
  B:0023H.2       SYMBOL        IsHomePage
  D:0006H         SYMBOL        i
  -------         ENDDO         
  C:E4A6H         LINE#         1148
  C:E4A6H         LINE#         1149
  C:E4A6H         LINE#         1150
  C:E4A8H         LINE#         1153
  C:E4B4H         LINE#         1154
  C:E4B4H         LINE#         1155
  C:E4C2H         LINE#         1156
  C:E4C2H         LINE#         1157
BL51 BANKED LINKER/LOCATER V6.22.2.0                                                  06/18/2026  10:05:40  PAGE 56


  C:E4C4H         LINE#         1158
  C:E4C6H         LINE#         1159
  C:E4C6H         LINE#         1160
  C:E4C9H         LINE#         1161
  C:E4CBH         LINE#         1162
  -------         ENDPROC       _ISITHOMEPAGE
  -------         PROC          HOMEPAGE_SYNCINDOORDISPLAY
  -------         DO            
  X:8C60H         SYMBOL        HomePage_Power
  X:8C62H         SYMBOL        i
  X:8C63H         SYMBOL        first_one
  X:92FAH         SYMBOL        s_last_anim_mode
  -------         ENDDO         
  C:ACEDH         LINE#         1164
  C:ACEDH         LINE#         1165
  C:ACEDH         LINE#         1166
  C:ACF4H         LINE#         1167
  C:ACF6H         LINE#         1168
  C:ACFAH         LINE#         1171
  C:AD0DH         LINE#         1172
  C:AD0DH         LINE#         1173
  C:AD28H         LINE#         1174
  C:AD34H         LINE#         1175
  C:AD34H         LINE#         1176
  C:AD3AH         LINE#         1177
  C:AD3CH         LINE#         1178
  C:AD3CH         LINE#         1179
  C:AD44H         LINE#         1180
  C:AD4BH         LINE#         1181
  C:AD59H         LINE#         1182
  C:AD59H         LINE#         1183
  C:AD79H         LINE#         1184
  C:AD88H         LINE#         1185
  C:AD88H         LINE#         1186
  C:ADA6H         LINE#         1187
  C:ADB5H         LINE#         1188
  C:ADB9H         LINE#         1189
  C:ADB9H         LINE#         1190
  C:ADB9H         LINE#         1191
  C:ADD1H         LINE#         1192
  C:ADE4H         LINE#         1193
  C:ADE4H         LINE#         1194
  C:ADE9H         LINE#         1195
  C:ADF2H         LINE#         1196
  C:ADF2H         LINE#         1197
  -------         ENDPROC       HOMEPAGE_SYNCINDOORDISPLAY
  -------         PROC          HOMEPAGE
  B:0023H.1       SYMBOL        TurnPage
  -------         DO            
  X:8C48H         SYMBOL        HomePage_TempType
  -------         ENDDO         
  C:DBDDH         LINE#         1199
  C:DBDDH         LINE#         1200
  C:DBDDH         LINE#         1201
  C:DBE4H         LINE#         1203
  C:DBE7H         LINE#         1204
  C:DBE7H         LINE#         1205
BL51 BANKED LINKER/LOCATER V6.22.2.0                                                  06/18/2026  10:05:40  PAGE 57


  C:DBEFH         LINE#         1207
  C:DBF1H         LINE#         1209
  C:DBF1H         LINE#         1211
  C:DC0AH         LINE#         1212
  C:DC14H         LINE#         1213
  C:DC18H         LINE#         1215
  C:DC1DH         LINE#         1216
  C:DC20H         LINE#         1217
  -------         ENDPROC       HOMEPAGE
  -------         PROC          L?0696
  -------         ENDPROC       L?0696
  -------         PROC          _TEMP_LIMIT
  X:8C3EH         SYMBOL        Addr
  X:8C40H         SYMBOL        TempType
  -------         DO            
  X:8C41H         SYMBOL        Temp_Limit_Temp
  X:8C43H         SYMBOL        lo
  X:8C45H         SYMBOL        hi
  -------         ENDDO         
  C:63C5H         LINE#         1219
  C:63D2H         LINE#         1220
  C:63D2H         LINE#         1224
  C:63D2H         LINE#         1225
  C:63E5H         LINE#         1226
  C:63FEH         LINE#         1227
  C:63FEH         LINE#         1228
  C:63FEH         LINE#         1229
  C:63FEH         LINE#         1230
  C:6400H         LINE#         1231
  C:6412H         LINE#         1232
  C:6412H         LINE#         1233
  C:6412H         LINE#         1234
  C:6412H         LINE#         1235
  C:6414H         LINE#         1236
  C:6422H         LINE#         1237
  C:6422H         LINE#         1238
  C:642BH         LINE#         1239
  C:6432H         LINE#         1240
  C:6435H         LINE#         1241
  C:643BH         LINE#         1242
  C:643BH         LINE#         1243
  C:644CH         LINE#         1244
  C:6450H         LINE#         1245
  C:6453H         LINE#         1246
  C:6461H         LINE#         1247
  C:6461H         LINE#         1248
  C:646AH         LINE#         1249
  C:6471H         LINE#         1250
  C:6474H         LINE#         1251
  C:647AH         LINE#         1252
  C:647AH         LINE#         1253
  C:6483H         LINE#         1254
  C:648AH         LINE#         1255
  C:648DH         LINE#         1256
  C:6493H         LINE#         1257
  C:6493H         LINE#         1258
  C:649CH         LINE#         1259
BL51 BANKED LINKER/LOCATER V6.22.2.0                                                  06/18/2026  10:05:40  PAGE 58


  C:64A3H         LINE#         1260
  C:64A5H         LINE#         1261
  C:64ABH         LINE#         1262
  C:64ABH         LINE#         1263
  C:64BCH         LINE#         1264
  C:64C0H         LINE#         1265
  C:64C2H         LINE#         1266
  C:64CEH         LINE#         1267
  C:64CEH         LINE#         1268
  C:64DFH         LINE#         1269
  C:64E3H         LINE#         1270
  C:64E5H         LINE#         1271
  C:64F6H         LINE#         1272
  C:64F6H         LINE#         1273
  C:6506H         LINE#         1274
  C:6517H         LINE#         1275
  C:6517H         LINE#         1278
  C:652DH         LINE#         1279
  C:652FH         LINE#         1280
  C:653EH         LINE#         1281
  C:6546H         LINE#         1282
  C:6561H         LINE#         1283
  C:657AH         LINE#         1284
  C:657FH         LINE#         1285
  C:6598H         LINE#         1286
  C:6598H         LINE#         1287
  C:65A3H         LINE#         1288
  C:65B6H         LINE#         1289
  C:65B6H         LINE#         1290
  C:65C2H         LINE#         1291
  C:65CCH         LINE#         1292
  C:65D8H         LINE#         1293
  C:65DEH         LINE#         1294
  C:6603H         LINE#         1296
  C:662BH         LINE#         1297
  C:6650H         LINE#         1299
  C:666FH         LINE#         1300
  -------         ENDPROC       _TEMP_LIMIT
  -------         PROC          _SETMODEPROCESS
  X:8C33H         SYMBOL        NewMode
  C:E5FCH         LINE#         1301
  C:E604H         LINE#         1302
  C:E604H         LINE#         1303
  -------         ENDPROC       _SETMODEPROCESS
  -------         PROC          RTCDISPLAY4CHANGE
  -------         DO            
  X:8C33H         SYMBOL        RTCS2C_temp
  X:8C35H         SYMBOL        year
  X:8C37H         SYMBOL        month_vp
  X:8C39H         SYMBOL        month
  -------         ENDDO         
  C:A8B1H         LINE#         1305
  C:A8B1H         LINE#         1306
  C:A8B1H         LINE#         1310
  C:A8CAH         LINE#         1311
  C:A8E3H         LINE#         1312
  C:A8FCH         LINE#         1313
BL51 BANKED LINKER/LOCATER V6.22.2.0                                                  06/18/2026  10:05:40  PAGE 59


  C:A915H         LINE#         1314
  C:A92EH         LINE#         1315
  C:A947H         LINE#         1316
  C:A960H         LINE#         1317
  C:A979H         LINE#         1318
  C:A992H         LINE#         1319
  C:A9ABH         LINE#         1320
  -------         ENDPROC       RTCDISPLAY4CHANGE
  -------         PROC          READY4WRITERTC
  -------         DO            
  X:8C33H         SYMBOL        RTCC2W_write
  X:8C39H         SYMBOL        year_full
  X:8C3BH         SYMBOL        month
  X:8C3DH         SYMBOL        day
  X:8C3FH         SYMBOL        hour
  X:8C41H         SYMBOL        minute
  X:8C43H         SYMBOL        year
  -------         ENDDO         
  C:A426H         LINE#         1322
  C:A426H         LINE#         1323
  C:A426H         LINE#         1327
  C:A43FH         LINE#         1328
  C:A458H         LINE#         1329
  C:A471H         LINE#         1330
  C:A48AH         LINE#         1331
  C:A4A3H         LINE#         1332
  C:A4B3H         LINE#         1333
  C:A4BFH         LINE#         1335
  C:A4CEH         LINE#         1336
  C:A4E2H         LINE#         1337
  C:A4F6H         LINE#         1338
  C:A501H         LINE#         1339
  C:A51AH         LINE#         1340
  -------         ENDPROC       READY4WRITERTC
  -------         PROC          _SYNCSETTEMPCACHESFROMC
  X:8C55H         SYMBOL        temp_c
  -------         DO            
  X:8C57H         SYMBOL        temp_f
  X:8C59H         SYMBOL        mode
  -------         ENDDO         
  C:C240H         LINE#         1343
  C:C248H         LINE#         1344
  C:C248H         LINE#         1348
  C:C25DH         LINE#         1349
  C:C276H         LINE#         1350
  C:C28FH         LINE#         1351
  C:C2A8H         LINE#         1352
  C:C2C1H         LINE#         1353
  C:C2C1H         LINE#         1354
  C:C2C7H         LINE#         1355
  C:C2DAH         LINE#         1356
  C:C2DAH         LINE#         1357
  -------         ENDPROC       _SYNCSETTEMPCACHESFROMC
  -------         PROC          TEMPUNIT_REFRESHACTIVESETFROMMODE
  -------         DO            
  X:8C51H         SYMBOL        mode
  X:8C53H         SYMBOL        unit
BL51 BANKED LINKER/LOCATER V6.22.2.0                                                  06/18/2026  10:05:40  PAGE 60


  D:0006H         SYMBOL        temp_c
  -------         ENDDO         
  C:CE64H         LINE#         1359
  C:CE64H         LINE#         1360
  C:CE64H         LINE#         1365
  C:CE7DH         LINE#         1366
  C:CE96H         LINE#         1367
  C:CEAFH         LINE#         1369
  C:CEB6H         LINE#         1370
  C:CEC4H         LINE#         1371
  C:CEC9H         LINE#         1372
  C:CECDH         LINE#         1373
  C:CED0H         LINE#         1374
  -------         ENDPROC       TEMPUNIT_REFRESHACTIVESETFROMMODE
  -------         PROC          TEMPUNIT_REFRESHALL
  -------         DO            
  X:8C4AH         SYMBOL        unit
  X:8C4CH         SYMBOL        temp_c
  X:8C4EH         SYMBOL        temp_f
  X:8C50H         SYMBOL        i
  -------         ENDDO         
  C:6670H         LINE#         1376
  C:6670H         LINE#         1377
  C:6670H         LINE#         1383
  C:6689H         LINE#         1384
  C:66A2H         LINE#         1385
  C:66BBH         LINE#         1386
  C:66C5H         LINE#         1387
  C:66C5H         LINE#         1388
  C:66D0H         LINE#         1389
  C:66D2H         LINE#         1390
  C:66DDH         LINE#         1391
  C:66DDH         LINE#         1392
  C:66DFH         LINE#         1394
  C:66DFH         LINE#         1395
  C:66EAH         LINE#         1396
  C:66F4H         LINE#         1397
  C:66FFH         LINE#         1398
  C:670CH         LINE#         1399
  C:670CH         LINE#         1400
  C:6717H         LINE#         1401
  C:6719H         LINE#         1402
  C:6724H         LINE#         1403
  C:6724H         LINE#         1404
  C:6731H         LINE#         1405
  C:673CH         LINE#         1406
  C:673CH         LINE#         1407
  C:6755H         LINE#         1408
  C:676EH         LINE#         1409
  C:6771H         LINE#         1411
  C:6780H         LINE#         1412
  C:678FH         LINE#         1413
  C:679EH         LINE#         1414
  C:67ADH         LINE#         1415
  C:67C1H         LINE#         1416
  C:67C1H         LINE#         1417
  C:67CEH         LINE#         1418
BL51 BANKED LINKER/LOCATER V6.22.2.0                                                  06/18/2026  10:05:40  PAGE 61


  C:67D9H         LINE#         1419
  C:67D9H         LINE#         1420
  C:67E6H         LINE#         1421
  C:67F6H         LINE#         1422
  C:67F6H         LINE#         1423
  C:67F9H         LINE#         1424
  C:6801H         LINE#         1425
  C:6812H         LINE#         1426
  C:6823H         LINE#         1428
  C:6836H         LINE#         1429
  C:6836H         LINE#         1430
  C:6851H         LINE#         1431
  C:6861H         LINE#         1432
  C:6886H         LINE#         1433
  C:6891H         LINE#         1434
  C:6899H         LINE#         1435
  C:689CH         LINE#         1436
  C:68A4H         LINE#         1438
  C:68BDH         LINE#         1439
  C:68C8H         LINE#         1440
  C:68DFH         LINE#         1441
  C:68F8H         LINE#         1442
  C:6903H         LINE#         1443
  C:691AH         LINE#         1445
  -------         ENDPROC       TEMPUNIT_REFRESHALL
  C:B8BFH         SYMBOL        L?0685
  C:B8C2H         SYMBOL        L?0686
  -------         PROC          L?0684
  -------         ENDPROC       L?0684
  C:B8BFH         SYMBOL        L?0685
  C:B8C2H         SYMBOL        L?0686
  -------         PROC          _TEMPUNITTRANS
  D:0006H         SYMBOL        temp
  X:8C67H         SYMBOL        type
  -------         DO            
  X:8C68H         SYMBOL        Cache
  -------         ENDDO         
  C:B8C9H         LINE#         1448
  C:B8CEH         LINE#         1449
  C:B8CEH         LINE#         1452
  C:B8D2H         LINE#         1453
  C:B8D2H         LINE#         1454
  C:B8DDH         LINE#         1455
  C:B8E3H         LINE#         1456
  C:B8EEH         LINE#         1457
  C:B8F2H         LINE#         1458
  C:B90AH         LINE#         1459
  C:B90CH         LINE#         1460
  C:B914H         LINE#         1461
  C:B914H         LINE#         1462
  C:B91FH         LINE#         1463
  C:B925H         LINE#         1464
  C:B930H         LINE#         1465
  C:B934H         LINE#         1466
  C:B94EH         LINE#         1467
  C:B94EH         LINE#         1469
  C:B985H         LINE#         1470
BL51 BANKED LINKER/LOCATER V6.22.2.0                                                  06/18/2026  10:05:40  PAGE 62


  C:B985H         LINE#         1471
  -------         ENDPROC       _TEMPUNITTRANS
  -------         PROC          UNITCHANGEPRO
  -------         DO            
  X:8C48H         SYMBOL        UnitChange_TempType
  -------         ENDDO         
  C:E0BAH         LINE#         1472
  C:E0BAH         LINE#         1473
  C:E0BAH         LINE#         1474
  C:E0C1H         LINE#         1476
  C:E0D9H         LINE#         1477
  C:E0E3H         LINE#         1478
  C:E0E6H         LINE#         1480
  C:E0EDH         LINE#         1481
  -------         ENDPROC       UNITCHANGEPRO
  -------         PROC          SYNCTIMERFROMVP
  -------         DO            
  X:95E3H         SYMBOL        u8tou16
  -------         ENDDO         
  C:79C1H         LINE#         1523
  C:79C1H         LINE#         1524
  C:79C1H         LINE#         1525
  C:79D4H         LINE#         1527
  C:79EDH         LINE#         1528
  C:79F5H         LINE#         1529
  C:7A0EH         LINE#         1530
  C:7A16H         LINE#         1531
  C:7A2FH         LINE#         1532
  C:7A37H         LINE#         1533
  C:7A50H         LINE#         1534
  C:7A58H         LINE#         1535
  C:7A71H         LINE#         1536
  C:7A79H         LINE#         1537
  C:7A92H         LINE#         1538
  C:7A9AH         LINE#         1539
  C:7AB3H         LINE#         1540
  C:7ABBH         LINE#         1541
  C:7ACFH         LINE#         1543
  C:7AE8H         LINE#         1544
  C:7AF0H         LINE#         1545
  C:7B09H         LINE#         1546
  C:7B11H         LINE#         1547
  C:7B2AH         LINE#         1548
  C:7B32H         LINE#         1549
  C:7B4BH         LINE#         1550
  C:7B53H         LINE#         1551
  C:7B6CH         LINE#         1552
  C:7B74H         LINE#         1553
  C:7B8DH         LINE#         1554
  C:7B95H         LINE#         1555
  C:7BAEH         LINE#         1556
  C:7BB6H         LINE#         1557
  C:7BCFH         LINE#         1558
  C:7BD7H         LINE#         1559
  C:7BEBH         LINE#         1560
  -------         ENDPROC       SYNCTIMERFROMVP
  C:BBC1H         SYMBOL        L?0695
BL51 BANKED LINKER/LOCATER V6.22.2.0                                                  06/18/2026  10:05:40  PAGE 63


  -------         PROC          L?0694
  -------         ENDPROC       L?0694
  C:BBC1H         SYMBOL        L?0695
  -------         PROC          _TIMER_ISWEEKDAYMATCH
  D:0007H         SYMBOL        rtc_week
  -------         DO            
  X:959EH         SYMBOL        bit_idx
  X:959FH         SYMBOL        week_en
  X:95A0H         SYMBOL        week_mask
  X:95A2H         SYMBOL        i
  -------         ENDDO         
  C:BBC6H         LINE#         1562
  C:BBC6H         LINE#         1563
  C:BBC6H         LINE#         1565
  C:BBCDH         LINE#         1568
  C:BBDEH         LINE#         1569
  C:BBF1H         LINE#         1570
  C:BBF1H         LINE#         1571
  C:BC0CH         LINE#         1572
  C:BC12H         LINE#         1573
  C:BC32H         LINE#         1574
  C:BC3AH         LINE#         1575
  C:BC45H         LINE#         1576
  C:BC48H         LINE#         1577
  C:BC6CH         LINE#         1578
  -------         ENDPROC       _TIMER_ISWEEKDAYMATCH
  -------         PROC          TIMER_APPLYINDOORON
  -------         DO            
  X:9530H         SYMBOL        i
  X:9531H         SYMBOL        power
  X:9533H         SYMBOL        mode
  X:9535H         SYMBOL        temp
  X:9537H         SYMBOL        fan
  -------         DO            
  X:9539H         SYMBOL        sel
  -------         ENDDO         
  -------         ENDDO         
  C:A54FH         LINE#         1580
  C:A54FH         LINE#         1581
  C:A54FH         LINE#         1585
  C:A568H         LINE#         1586
  C:A581H         LINE#         1587
  C:A59AH         LINE#         1588
  C:A5B0H         LINE#         1589
  C:A5B0H         LINE#         1590
  C:A5B7H         LINE#         1591
  C:A5D2H         LINE#         1592
  C:A5DFH         LINE#         1593
  C:A5DFH         LINE#         1594
  C:A5E7H         LINE#         1595
  C:A605H         LINE#         1596
  C:A623H         LINE#         1597
  C:A641H         LINE#         1598
  C:A65FH         LINE#         1599
  C:A669H         LINE#         1600
  C:A672H         LINE#         1601
  -------         ENDPROC       TIMER_APPLYINDOORON
BL51 BANKED LINKER/LOCATER V6.22.2.0                                                  06/18/2026  10:05:40  PAGE 64


  -------         PROC          TIMER_APPLYINDOOROFF
  -------         DO            
  X:95A3H         SYMBOL        i
  X:95A4H         SYMBOL        power
  -------         DO            
  X:95A6H         SYMBOL        sel
  -------         ENDDO         
  -------         ENDDO         
  C:CACDH         LINE#         1604
  C:CACDH         LINE#         1605
  C:CACDH         LINE#         1607
  C:CAD4H         LINE#         1609
  C:CAE6H         LINE#         1610
  C:CAE6H         LINE#         1611
  C:CAEDH         LINE#         1612
  C:CB08H         LINE#         1613
  C:CB12H         LINE#         1614
  C:CB12H         LINE#         1615
  C:CB30H         LINE#         1616
  C:CB3AH         LINE#         1617
  C:CB42H         LINE#         1618
  -------         ENDPROC       TIMER_APPLYINDOOROFF
  -------         PROC          TIMERRUNNING
  -------         DO            
  X:9584H         SYMBOL        Timer_ReadRtc
  X:9586H         SYMBOL        Timer_Power
  X:9588H         SYMBOL        rtc_week
  X:9589H         SYMBOL        time_key
  X:92FBH         SYMBOL        s_last_ext_on
  X:92FDH         SYMBOL        s_last_ext_off
  X:92FFH         SYMBOL        s_last_in_on
  X:9301H         SYMBOL        s_last_in_off
  -------         ENDDO         
  C:691DH         LINE#         1621
  C:691DH         LINE#         1622
  C:691DH         LINE#         1632
  C:6936H         LINE#         1633
  C:6939H         LINE#         1634
  C:6941H         LINE#         1635
  C:6953H         LINE#         1637
  C:6965H         LINE#         1638
  C:6965H         LINE#         1639
  C:6983H         LINE#         1640
  C:6983H         LINE#         1641
  C:699AH         LINE#         1642
  C:699AH         LINE#         1643
  C:69A2H         LINE#         1644
  C:69BAH         LINE#         1645
  C:69D3H         LINE#         1646
  C:69DBH         LINE#         1647
  C:69E6H         LINE#         1648
  C:69EEH         LINE#         1649
  C:69F9H         LINE#         1650
  C:6A01H         LINE#         1651
  C:6A0DH         LINE#         1652
  C:6A17H         LINE#         1653
  C:6A19H         LINE#         1654
BL51 BANKED LINKER/LOCATER V6.22.2.0                                                  06/18/2026  10:05:40  PAGE 65


  C:6A1CH         LINE#         1655
  C:6A2BH         LINE#         1656
  C:6A2BH         LINE#         1657
  C:6A2DH         LINE#         1658
  C:6A41H         LINE#         1659
  C:6A49H         LINE#         1660
  C:6A49H         LINE#         1661
  C:6A5BH         LINE#         1662
  C:6A5BH         LINE#         1663
  C:6A73H         LINE#         1664
  C:6A73H         LINE#         1665
  C:6A87H         LINE#         1666
  C:6A87H         LINE#         1667
  C:6A8EH         LINE#         1668
  C:6AA6H         LINE#         1669
  C:6AA8H         LINE#         1670
  C:6AABH         LINE#         1671
  C:6ABAH         LINE#         1672
  C:6ABAH         LINE#         1673
  C:6ABCH         LINE#         1674
  C:6AD0H         LINE#         1675
  C:6AD8H         LINE#         1676
  C:6AD8H         LINE#         1677
  C:6AE4H         LINE#         1678
  C:6AE4H         LINE#         1679
  C:6AFCH         LINE#         1680
  C:6AFCH         LINE#         1681
  C:6B10H         LINE#         1682
  C:6B10H         LINE#         1683
  C:6B13H         LINE#         1684
  C:6B16H         LINE#         1685
  C:6B25H         LINE#         1686
  C:6B25H         LINE#         1687
  C:6B27H         LINE#         1688
  C:6B3BH         LINE#         1689
  C:6B43H         LINE#         1690
  C:6B43H         LINE#         1691
  C:6B4FH         LINE#         1692
  C:6B4FH         LINE#         1693
  C:6B67H         LINE#         1694
  C:6B67H         LINE#         1695
  C:6B7BH         LINE#         1696
  C:6B7BH         LINE#         1697
  C:6B7EH         LINE#         1698
  C:6B81H         LINE#         1699
  C:6B90H         LINE#         1700
  C:6B90H         LINE#         1701
  C:6B92H         LINE#         1702
  C:6BA6H         LINE#         1703
  C:6BAEH         LINE#         1704
  C:6BAEH         LINE#         1705
  -------         ENDPROC       TIMERRUNNING
  -------         PROC          HOMEPAGE_ICON
  -------         DO            
  X:95C0H         SYMBOL        HomePage_Icon_u16temp
  X:9303H         SYMBOL        s_last_home_mode
  X:9304H         SYMBOL        s_last_wifi_st
BL51 BANKED LINKER/LOCATER V6.22.2.0                                                  06/18/2026  10:05:40  PAGE 66


  X:95C2H         SYMBOL        cur_mode
  X:95C3H         SYMBOL        wifi_st
  -------         ENDDO         
  C:9EFFH         LINE#         1707
  C:9EFFH         LINE#         1708
  C:9EFFH         LINE#         1715
  C:9F07H         LINE#         1716
  C:9F1DH         LINE#         1717
  C:9F1DH         LINE#         1718
  C:9F2BH         LINE#         1719
  C:9F33H         LINE#         1720
  C:9F33H         LINE#         1721
  C:9F40H         LINE#         1722
  C:9F42H         LINE#         1723
  C:9F4AH         LINE#         1724
  C:9F4AH         LINE#         1725
  C:9F4AH         LINE#         1726
  C:9F52H         LINE#         1727
  C:9F54H         LINE#         1728
  C:9F54H         LINE#         1729
  C:9F5BH         LINE#         1730
  C:9F5BH         LINE#         1731
  C:9F5BH         LINE#         1732
  C:9F74H         LINE#         1734
  C:9F7BH         LINE#         1735
  C:9F93H         LINE#         1736
  C:9F9DH         LINE#         1737
  C:9FB5H         LINE#         1738
  C:9FBFH         LINE#         1739
  C:9FD7H         LINE#         1740
  C:9FE1H         LINE#         1741
  C:9FF9H         LINE#         1742
  C:A012H         LINE#         1744
  C:A02AH         LINE#         1745
  C:A037H         LINE#         1746
  C:A037H         LINE#         1747
  C:A03AH         LINE#         1748
  C:A042H         LINE#         1749
  C:A042H         LINE#         1751
  -------         ENDPROC       HOMEPAGE_ICON
  -------         PROC          WIFI_RESTING_PRO
  -------         DO            
  X:9305H         SYMBOL        Wifi_Resting_Pro_Count
  -------         ENDDO         
  C:DCEDH         LINE#         1754
  C:DCEDH         LINE#         1755
  C:DCEDH         LINE#         1758
  C:DCF0H         LINE#         1759
  C:DCF0H         LINE#         1760
  C:DCF2H         LINE#         1762
  C:DCF2H         LINE#         1764
  C:DCF8H         LINE#         1765
  C:DCF8H         LINE#         1766
  C:DD01H         LINE#         1767
  C:DD06H         LINE#         1768
  C:DD08H         LINE#         1769
  C:DD0AH         LINE#         1771
BL51 BANKED LINKER/LOCATER V6.22.2.0                                                  06/18/2026  10:05:40  PAGE 67


  C:DD0AH         LINE#         1773
  C:DD10H         LINE#         1774
  C:DD1AH         LINE#         1775
  C:DD1AH         LINE#         1776
  C:DD23H         LINE#         1777
  C:DD28H         LINE#         1778
  C:DD2AH         LINE#         1779
  C:DD2FH         LINE#         1780
  C:DD2FH         LINE#         1781
  -------         ENDPROC       WIFI_RESTING_PRO
  -------         PROC          OTARELOAD_DELAYPAGE
  -------         DO            
  X:9306H         SYMBOL        OTAReloadDelayCount
  -------         ENDDO         
  C:E3E0H         LINE#         1782
  C:E3E0H         LINE#         1783
  C:E3E0H         LINE#         1786
  C:E3E3H         LINE#         1787
  C:E3E3H         LINE#         1788
  C:E3F0H         LINE#         1789
  C:E3F4H         LINE#         1791
  C:E3F4H         LINE#         1792
  C:E3F6H         LINE#         1793
  C:E3FBH         LINE#         1794
  C:E400H         LINE#         1795
  C:E407H         LINE#         1796
  C:E407H         LINE#         1797
  C:E407H         LINE#         1798
  -------         ENDPROC       OTARELOAD_DELAYPAGE
  -------         PROC          SCREENSAVER_PRO
  -------         DO            
  X:9307H         SYMBOL        ScreenSaveType_Old
  X:9518H         SYMBOL        i
  X:9519H         SYMBOL        ScreenSaveType
  X:951AH         SYMBOL        ScreenSaver_Pro_SetMode
  X:951CH         SYMBOL        ScreenSaver_Pro_Power
  X:951EH         SYMBOL        ScreenSaver_Pro_Error
  X:9520H         SYMBOL        ScreenSaver_Pro_Temp
  X:9522H         SYMBOL        ScreenSaver_Pro_TempA
  -------         ENDDO         
  C:A05BH         LINE#         1799
  C:A05BH         LINE#         1800
  C:A05BH         LINE#         1805
  C:A067H         LINE#         1806
  C:A067H         LINE#         1807
  C:A07FH         LINE#         1808
  C:A07FH         LINE#         1809
  C:A088H         LINE#         1810
  C:A088H         LINE#         1811
  C:A090H         LINE#         1812
  C:A095H         LINE#         1813
  C:A095H         LINE#         1814
  C:A0AEH         LINE#         1815
  C:A0C6H         LINE#         1816
  C:A0DFH         LINE#         1817
  C:A0E9H         LINE#         1818
  C:A0F1H         LINE#         1819
BL51 BANKED LINKER/LOCATER V6.22.2.0                                                  06/18/2026  10:05:40  PAGE 68


  C:A0FBH         LINE#         1820
  C:A101H         LINE#         1822
  C:A101H         LINE#         1823
  C:A114H         LINE#         1824
  C:A114H         LINE#         1825
  C:A114H         LINE#         1826
  C:A11AH         LINE#         1827
  C:A11CH         LINE#         1828
  C:A11CH         LINE#         1829
  C:A122H         LINE#         1830
  C:A124H         LINE#         1831
  C:A124H         LINE#         1832
  C:A124H         LINE#         1833
  C:A12AH         LINE#         1834
  C:A12AH         LINE#         1835
  C:A12AH         LINE#         1836
  C:A12AH         LINE#         1837
  C:A136H         LINE#         1838
  C:A136H         LINE#         1839
  C:A149H         LINE#         1840
  C:A149H         LINE#         1841
  C:A14EH         LINE#         1842
  C:A14EH         LINE#         1843
  C:A157H         LINE#         1844
  C:A15BH         LINE#         1846
  C:A16BH         LINE#         1847
  C:A16DH         LINE#         1849
  C:A16DH         LINE#         1850
  C:A184H         LINE#         1851
  C:A18AH         LINE#         1853
  C:A19DH         LINE#         1854
  C:A19DH         LINE#         1855
  C:A1A5H         LINE#         1856
  C:A1ADH         LINE#         1857
  C:A1ADH         LINE#         1858
  C:A1ADH         LINE#         1859
  C:A1ADH         LINE#         1860
  -------         ENDPROC       SCREENSAVER_PRO
  -------         ENDMOD        CONTROL

  -------         MODULE        UART
  C:0000H         SYMBOL        _ICE_DUMMY_
  X:8F8AH         PUBLIC        Uart5_Rx
  D:0080H         PUBLIC        P0
  X:908AH         PUBLIC        modbus_send_finish
  B:00A8H.7       PUBLIC        EA
  D:00F8H         PUBLIC        RAMMODE
  X:908BH         PUBLIC        nUart0Sending
  D:00B7H         PUBLIC        P0MDOUT
  D:00A8H         PUBLIC        IEN0
  B:0080H.0       PUBLIC        RS485_UART4_EN
  D:00B8H         PUBLIC        IEN1
  X:908CH         PUBLIC        nUart5Sending
  X:908DH         PUBLIC        uart2_busy
  C:CCA1H         PUBLIC        _UART5_SendStr
  X:908EH         PUBLIC        modbus_error
  B:00B8H.5       PUBLIC        ES3R
BL51 BANKED LINKER/LOCATER V6.22.2.0                                                  06/18/2026  10:05:40  PAGE 69


  X:9090H         PUBLIC        modbus_res_finish
  B:00B8H.4       PUBLIC        ES3T
  D:00BAH         PUBLIC        SREL0H
  D:0087H         PUBLIC        PCON
  C:C376H         PUBLIC        UART2_ISR_PC
  D:00AAH         PUBLIC        SREL0L
  D:0088H         PUBLIC        TCON
  D:0097H         PUBLIC        SCON2R
  D:00ABH         PUBLIC        SCON3R
  D:00D9H         PUBLIC        BODE2_DIV_H
  D:00AEH         PUBLIC        BODE3_DIV_H
  D:0096H         PUBLIC        SCON2T
  D:00A7H         PUBLIC        SCON3T
  D:00E7H         PUBLIC        BODE2_DIV_L
  D:00AFH         PUBLIC        BODE3_DIV_L
  D:00C9H         PUBLIC        MUX_SEL
  C:B7F7H         PUBLIC        UART5_RX_ISR_PC
  C:CD12H         PUBLIC        UART5_TX_ISR_PC
  X:9091H         PUBLIC        nUart0SendIndex
  B:0080H.1       PUBLIC        RS485_TX_EN
  B:00A8H.4       PUBLIC        ES0
  X:9093H         PUBLIC        uart2_rx_count
  X:9095H         PUBLIC        pUart0SendAddr
  X:9098H         PUBLIC        nUart5SendIndex
  B:0098H.0       PUBLIC        RI0
  X:909AH         PUBLIC        uart5_rx_count
  B:0098H.1       PUBLIC        TI0
  X:909CH         PUBLIC        pUart5SendAddr
  C:E98DH         PUBLIC        _Uart2SendData
  D:0099H         PUBLIC        SBUF0
  X:909FH         PUBLIC        modbus_rx_status
  D:0098H         PUBLIC        SCON0
  C:E6B8H         PUBLIC        UART2_Init
  D:00D8H         PUBLIC        ADCON
  D:00C8H         PUBLIC        T2CON
  C:E8B4H         PUBLIC        UART4_Init
  C:E7DCH         PUBLIC        UART5_Init
  D:00ADH         PUBLIC        SBUF3_RX
  D:009EH         PUBLIC        SBUF2_TX
  D:00ACH         PUBLIC        SBUF3_TX
  X:90A1H         PUBLIC        wifi_send_en
  D:00D0H         PUBLIC        PSW
  X:90A2H         PUBLIC        Uart2_Rx
  C:E61CH         PUBLIC        _putchar
  D:00C0H         PUBLIC        IRCON
  -------         PROC          UART2_INIT
  C:E6B8H         LINE#         61
  C:E6B8H         LINE#         62
  C:E6B8H         LINE#         63
  C:E6BBH         LINE#         64
  C:E6BEH         LINE#         65
  C:E6C1H         LINE#         66
  C:E6C4H         LINE#         67
  C:E6C7H         LINE#         68
  C:E6CAH         LINE#         70
  C:E6CDH         LINE#         71
  C:E6D0H         LINE#         73
BL51 BANKED LINKER/LOCATER V6.22.2.0                                                  06/18/2026  10:05:40  PAGE 70


  C:E6D2H         LINE#         74
  C:E6D4H         LINE#         75
  -------         ENDPROC       UART2_INIT
  -------         PROC          _UART2SENDDATA
  D:0007H         SYMBOL        byte
  C:E98DH         LINE#         78
  C:E98DH         LINE#         79
  C:E98DH         LINE#         80
  C:E98FH         LINE#         81
  C:E991H         LINE#         82
  C:E994H         LINE#         83
  C:E996H         LINE#         84
  C:E998H         LINE#         85
  -------         ENDPROC       _UART2SENDDATA
  -------         PROC          UART2_ISR_PC
  -------         DO            
  D:0007H         SYMBOL        res
  -------         ENDDO         
  C:C376H         LINE#         88
  C:C393H         LINE#         91
  C:C395H         LINE#         92
  C:C398H         LINE#         93
  C:C398H         LINE#         94
  C:C39AH         LINE#         95
  C:C39CH         LINE#         96
  C:C39FH         LINE#         97
  C:C39FH         LINE#         99
  C:C3A2H         LINE#         100
  C:C3A2H         LINE#         101
  C:C3A4H         LINE#         103
  C:C3B3H         LINE#         104
  C:C3B3H         LINE#         105
  C:C3C3H         LINE#         106
  C:C3CDH         LINE#         107
  C:C3DBH         LINE#         108
  C:C3E1H         LINE#         109
  C:C3E3H         LINE#         111
  C:C3E3H         LINE#         112
  C:C3E8H         LINE#         113
  C:C3E8H         LINE#         115
  C:C3EDH         LINE#         116
  C:C3EDH         LINE#         117
  C:C3EFH         LINE#         118
  -------         ENDPROC       UART2_ISR_PC
  -------         PROC          UART5_INIT
  C:E7DCH         LINE#         266
  C:E7DCH         LINE#         267
  C:E7DCH         LINE#         268
  C:E7DFH         LINE#         269
  C:E7E2H         LINE#         275
  C:E7E5H         LINE#         276
  C:E7E8H         LINE#         279
  C:E7EAH         LINE#         280
  C:E7ECH         LINE#         282
  C:E7EEH         LINE#         283
  C:E7F0H         LINE#         284
  -------         ENDPROC       UART5_INIT
BL51 BANKED LINKER/LOCATER V6.22.2.0                                                  06/18/2026  10:05:40  PAGE 71


  -------         PROC          _UART5_SENDSTR
  X:95D0H         SYMBOL        pstr
  D:0004H         SYMBOL        strlen
  C:CCA1H         LINE#         296
  C:CCACH         LINE#         297
  C:CCACH         LINE#         298
  C:CCC3H         LINE#         301
  C:CCD5H         LINE#         302
  C:CCDFH         LINE#         304
  C:CCE1H         LINE#         307
  C:CCF1H         LINE#         308
  C:CCFBH         LINE#         309
  C:CD09H         LINE#         310
  C:CD0FH         LINE#         311
  C:CD11H         LINE#         312
  -------         ENDPROC       _UART5_SENDSTR
  -------         PROC          UART5_TX_ISR_PC
  C:CD12H         LINE#         318
  C:CD27H         LINE#         320
  C:CD29H         LINE#         321
  C:CD2CH         LINE#         323
  C:CD3BH         LINE#         324
  C:CD3BH         LINE#         326
  C:CD4BH         LINE#         327
  C:CD55H         LINE#         328
  C:CD63H         LINE#         329
  C:CD65H         LINE#         331
  C:CD65H         LINE#         332
  C:CD67H         LINE#         333
  C:CD6CH         LINE#         334
  C:CD6EH         LINE#         336
  C:CD6EH         LINE#         338
  C:CD70H         LINE#         339
  -------         ENDPROC       UART5_TX_ISR_PC
  -------         PROC          UART5_RX_ISR_PC
  -------         DO            
  D:0001H         SYMBOL        res
  D:0006H         SYMBOL        modbus_len
  -------         ENDDO         
  C:B7F7H         LINE#         345
  C:B80CH         LINE#         348
  C:B80CH         LINE#         350
  C:B80EH         LINE#         352
  C:B819H         LINE#         353
  C:B819H         LINE#         354
  C:B81BH         LINE#         397
  C:B82BH         LINE#         398
  C:B82BH         LINE#         400
  C:B837H         LINE#         401
  C:B845H         LINE#         404
  C:B84DH         LINE#         405
  C:B84DH         LINE#         406
  C:B850H         LINE#         407
  C:B852H         LINE#         409
  C:B852H         LINE#         410
  C:B85CH         LINE#         411
  C:B85CH         LINE#         413
BL51 BANKED LINKER/LOCATER V6.22.2.0                                                  06/18/2026  10:05:40  PAGE 72


  C:B869H         LINE#         414
  C:B869H         LINE#         415
  C:B86FH         LINE#         416
  C:B876H         LINE#         419
  C:B87CH         LINE#         420
  C:B87CH         LINE#         421
  C:B883H         LINE#         422
  C:B885H         LINE#         424
  C:B885H         LINE#         425
  C:B899H         LINE#         426
  C:B8A7H         LINE#         427
  C:B8A7H         LINE#         430
  C:B8AAH         LINE#         431
  C:B8AAH         LINE#         432
  C:B8ACH         LINE#         433
  -------         ENDPROC       UART5_RX_ISR_PC
  -------         PROC          UART4_INIT
  C:E8B4H         LINE#         439
  C:E8B4H         LINE#         440
  C:E8B4H         LINE#         441
  C:E8B7H         LINE#         442
  C:E8BAH         LINE#         446
  C:E8BDH         LINE#         447
  C:E8C0H         LINE#         450
  C:E8C3H         LINE#         451
  C:E8C5H         LINE#         452
  -------         ENDPROC       UART4_INIT
  -------         PROC          _PUTCHAR
  D:0007H         SYMBOL        c
  -------         DO            
  D:0004H         SYMBOL        i
  -------         ENDDO         
  C:E61CH         LINE#         459
  C:E61CH         LINE#         460
  C:E61CH         LINE#         462
  C:E61EH         LINE#         464
  C:E620H         LINE#         465
  C:E625H         LINE#         466
  C:E628H         LINE#         470
  C:E636H         LINE#         472
  C:E638H         LINE#         474
  C:E63BH         LINE#         475
  C:E63BH         LINE#         476
  -------         ENDPROC       _PUTCHAR
  -------         ENDMOD        UART

  -------         MODULE        MODBUS
  C:0000H         SYMBOL        _ICE_DUMMY_
  C:CDFAH         SYMBOL        _Modbus_WriteFloatTempPair
  C:7FEDH         SYMBOL        _Modbus_FillIndoorUnitRegs
  D:0080H         PUBLIC        P0
  C:D211H         SYMBOL        _Modbus_SaveIndoorSentRegs
  C:C860H         SYMBOL        _Modbus_IndoorRegsChanged
  X:8006H         PUBLIC        FirstQueryMember
  D:00B0H         PUBLIC        P3
  C:E819H         PUBLIC        _Modbus_TriggerDefrostParamWrite
  D:00F8H         PUBLIC        RAMMODE
BL51 BANKED LINKER/LOCATER V6.22.2.0                                                  06/18/2026  10:05:40  PAGE 73


  X:8012H         PUBLIC        En_change_Controller
  X:8014H         SYMBOL        s_defrost_param_vp
  D:00A8H         PUBLIC        IEN0
  B:0020H.0       PUBLIC        Modbus_Write_DefrostParam
  B:0020H.1       PUBLIC        Modbus_Read_Check
  D:00B8H         PUBLIC        IEN1
  X:8016H         PUBLIC        Read_Or_Write
  B:0020H.2       PUBLIC        First_Write600
  X:8017H         SYMBOL        s_indoor_sent_regs
  X:8077H         SYMBOL        s_group_sent_valid
  C:DF2BH         SYMBOL        Modbus_StartNextTimerWrite
  X:8078H         SYMBOL        s_group_regs
  B:0020H.3       PUBLIC        Modbus_Write_Defrost
  C:C7E3H         SYMBOL        _Modbus_AppendModeSetTempReg
  B:0020H.4       SYMBOL        Modbus_Write_5_Pending
  B:0020H.5       SYMBOL        Modbus_Write_6_Pending
  C:BB08H         PUBLIC        _CalculateModbusCrc
  C:DB54H         PUBLIC        Modbus_StartManualDefrost
  B:0020H.6       PUBLIC        Modbus_Read_Check_2
  B:0020H.7       PUBLIC        Modbus_Read_Check_3
  C:29A4H         PUBLIC        Modbus_Salve_Handler1
  C:D90FH         SYMBOL        _Modbus_SaveGroupSentRegs
  C:D0E0H         SYMBOL        _Modbus_GroupRegsChanged
  B:0021H.0       PUBLIC        Modbus_Read_Check_4
  B:0021H.1       PUBLIC        Modbus_Read_Check_5
  C:1A6AH         PUBLIC        Modbus_Analysis_Data1
  C:E33DH         SYMBOL        _Modbus_EncodeIndoorFan
  C:BC73H         SYMBOL        _Modbus_PackCheckStatusBlock
  X:80A8H         PUBLIC        Modbus_Buffer
  C:E6D5H         PUBLIC        Modbus_TriggerGroupControlWrite
  C:D965H         PUBLIC        _GetModbusReg
  X:81D4H         SYMBOL        Modbus_Timer_Unit_Index
  X:81D5H         PUBLIC        xuantest1
  X:81D7H         PUBLIC        xuantest2
  X:81D9H         SYMBOL        s_group_sent_regs
  D:0088H         PUBLIC        TCON
  B:0021H.2       PUBLIC        Modbus_Write_ClearPower
  B:0021H.3       PUBLIC        Modbus_Read_Error
  B:0021H.4       PUBLIC        Modbus_Read_LowerLimit
  B:0021H.5       PUBLIC        Modbus_Read_UpperLimit
  D:00C9H         PUBLIC        MUX_SEL
  B:0021H.6       PUBLIC        Modbus_Write_Timer
  C:E9F8H         SYMBOL        _?ix1000
  B:0021H.7       PUBLIC        Modbus_Read_Check_4_old
  B:0022H.0       PUBLIC        Modbus_Write_Ueser
  X:8209H         PUBLIC        Analysis_OK
  X:820AH         SYMBOL        s_timer_q
  X:8210H         SYMBOL        s_defrost_verify
  C:D820H         PUBLIC        _Modbus_TriggerIndoorUnitWrite
  C:E083H         SYMBOL        _Modbus_ReportFaultCode
  X:8211H         PUBLIC        Indoor_Unit_Index
  B:0022H.1       PUBLIC        Modbus_Read_User
  C:DE33H         SYMBOL        _Modbus_EncodeIndoorRunMode
  C:E7CDH         SYMBOL        _Modbus_PackCheckStatusByte
  X:8212H         PUBLIC        send_type
  X:8213H         PUBLIC        Modbus_DefrostRetryLeft
  C:9808H         PUBLIC        Modbus_RefreshCheckParamDisplay
BL51 BANKED LINKER/LOCATER V6.22.2.0                                                  06/18/2026  10:05:40  PAGE 74


  C:E458H         SYMBOL        _Modbus_QueueIndoorTimerWrite
  C:DA3CH         PUBLIC        _Modbus_GetCheckStatus
  B:0022H.2       PUBLIC        Modbus_Read_Set
  X:8214H         SYMBOL        s_check_status
  X:825FH         PUBLIC        IsCheckParameterTemperature
  C:ADF9H         SYMBOL        _Modbus_FillGroupControlRegs
  C:EA3AH         PUBLIC        Modbus_Init
  D:0098H         PUBLIC        SCON0
  X:8278H         PUBLIC        SetParameterLowerLimit
  C:D9B4H         SYMBOL        _Modbus_AppendU16
  D:00C8H         PUBLIC        T2CON
  X:8338H         PUBLIC        SetParameterUpperLimit
  X:83F8H         SYMBOL        s_timer_q_len
  B:0022H.3       PUBLIC        Modbus_Write_Set
  C:D6D2H         SYMBOL        _Modbus_IsFaultActive
  B:0022H.4       SYMBOL        Modbus_Write_Timer_Pending
  X:83F9H         SYMBOL        s_defrost_want
  B:0022H.5       PUBLIC        Modbus_Write_6_All
  X:83FAH         PUBLIC        IsCheckParameterTemperature_2
  C:7DECH         PUBLIC        _Modbus_ApplyIndoorTimerVpToUnits
  B:0022H.6       PUBLIC        Modbus_Write_5
  B:0022H.7       PUBLIC        Modbus_Write_6
  X:8427H         SYMBOL        s_indoor_sent_valid
  X:842DH         SYMBOL        s_indoor_regs
  D:00D0H         PUBLIC        PSW
  B:0023H.0       PUBLIC        Modbus_Read_Initial
  D:00C0H         PUBLIC        IRCON
  X:8469H         SYMBOL        s_timer_q_pos
  -------         PROC          _CALCULATEMODBUSCRC
  X:9550H         SYMBOL        pBuf
  X:9553H         SYMBOL        nLen
  -------         DO            
  X:9555H         SYMBOL        i
  D:0005H         SYMBOL        j
  X:9557H         SYMBOL        nData
  D:0002H         SYMBOL        nFlag
  -------         ENDDO         
  C:BB08H         LINE#         86
  C:BB19H         LINE#         87
  C:BB19H         LINE#         93
  C:BB21H         LINE#         94
  C:BB3DH         LINE#         95
  C:BB3DH         LINE#         96
  C:BB60H         LINE#         97
  C:BB6CH         LINE#         98
  C:BB6CH         LINE#         99
  C:BB73H         LINE#         100
  C:BB86H         LINE#         101
  C:BB90H         LINE#         103
  C:BB95H         LINE#         104
  C:BB95H         LINE#         105
  C:BBA1H         LINE#         106
  C:BBA1H         LINE#         107
  C:BBA4H         LINE#         108
  C:BBB8H         LINE#         110
  C:BBC0H         LINE#         111
  -------         ENDPROC       _CALCULATEMODBUSCRC
BL51 BANKED LINKER/LOCATER V6.22.2.0                                                  06/18/2026  10:05:40  PAGE 75


  -------         PROC          MODBUS_INIT
  C:EA3AH         LINE#         123
  C:EA3AH         LINE#         124
  C:EA3AH         LINE#         125
  -------         ENDPROC       MODBUS_INIT
  C:D9A7H         SYMBOL        L?0315
  -------         PROC          L?0314
  -------         ENDPROC       L?0314
  C:D9A7H         SYMBOL        L?0315
  -------         PROC          _MODBUS_APPENDU16
  D:0001H         SYMBOL        pLen
  X:95E5H         SYMBOL        val
  C:D9B4H         LINE#         128
  C:D9BCH         LINE#         129
  C:D9BCH         LINE#         130
  C:D9D6H         LINE#         131
  C:D9F1H         LINE#         132
  -------         ENDPROC       _MODBUS_APPENDU16
  -------         PROC          L?0318
  -------         ENDPROC       L?0318
  -------         PROC          _MODBUS_APPENDMODESETTEMPREG
  X:95A8H         SYMBOL        pLen
  D:0005H         SYMBOL        mode
  -------         DO            
  X:95ABH         SYMBOL        temp
  -------         ENDDO         
  C:C7E3H         LINE#         134
  C:C7EEH         LINE#         135
  C:C7EEH         LINE#         136
  C:C7F3H         LINE#         138
  C:C80AH         LINE#         139
  C:C83FH         LINE#         140
  -------         ENDPROC       _MODBUS_APPENDMODESETTEMPREG
  -------         PROC          _MODBUS_ENCODEINDOORRUNMODE
  D:0006H         SYMBOL        power
  D:0004H         SYMBOL        dgus_mode
  -------         DO            
  D:0002H         SYMBOL        modbus_mode
  -------         ENDDO         
  C:DE33H         LINE#         143
  C:DE33H         LINE#         144
  C:DE33H         LINE#         146
  C:DE37H         LINE#         147
  C:DE3AH         LINE#         148
  C:DE4EH         LINE#         149
  C:DE4EH         LINE#         150
  C:DE54H         LINE#         151
  C:DE5AH         LINE#         152
  C:DE60H         LINE#         153
  C:DE66H         LINE#         154
  C:DE66H         LINE#         155
  C:DE6AH         LINE#         156
  C:DE6AH         LINE#         157
  C:DE70H         LINE#         158
  -------         ENDPROC       _MODBUS_ENCODEINDOORRUNMODE
  -------         PROC          _MODBUS_ENCODEINDOORFAN
  D:0006H         SYMBOL        dgus_fan
BL51 BANKED LINKER/LOCATER V6.22.2.0                                                  06/18/2026  10:05:40  PAGE 76


  C:E33DH         LINE#         160
  C:E33DH         LINE#         161
  C:E33DH         LINE#         162
  C:E34EH         LINE#         163
  C:E34EH         LINE#         164
  C:E352H         LINE#         165
  C:E357H         LINE#         166
  C:E35CH         LINE#         167
  C:E361H         LINE#         168
  C:E365H         LINE#         169
  C:E365H         LINE#         170
  -------         ENDPROC       _MODBUS_ENCODEINDOORFAN
  -------         PROC          L?0321
  -------         ENDPROC       L?0321
  -------         PROC          _MODBUS_FILLINDOORUNITREGS
  X:8C62H         SYMBOL        index
  X:8C63H         SYMBOL        regs
  -------         DO            
  D:0007H         SYMBOL        i
  X:8C66H         SYMBOL        power
  X:8C68H         SYMBOL        mode
  X:8C6AH         SYMBOL        temp
  X:8C6CH         SYMBOL        fan
  X:8C6EH         SYMBOL        vp_base
  -------         ENDDO         
  C:7FEDH         LINE#         181
  C:7FFBH         LINE#         182
  C:7FFBH         LINE#         187
  C:8019H         LINE#         188
  C:8037H         LINE#         189
  C:8055H         LINE#         190
  C:8073H         LINE#         192
  C:8095H         LINE#         193
  C:80B4H         LINE#         194
  C:80C4H         LINE#         196
  C:80E6H         LINE#         197
  C:80FAH         LINE#         198
  C:811AH         LINE#         199
  C:814EH         LINE#         200
  C:8182H         LINE#         201
  C:81B6H         LINE#         203
  C:81C2H         LINE#         204
  C:81E0H         LINE#         205
  -------         ENDPROC       _MODBUS_FILLINDOORUNITREGS
  -------         PROC          _MODBUS_INDOORREGSCHANGED
  X:8C62H         SYMBOL        idx
  X:8C63H         SYMBOL        regs
  -------         DO            
  X:8C66H         SYMBOL        i
  -------         ENDDO         
  C:C860H         LINE#         207
  C:C86EH         LINE#         208
  C:C86EH         LINE#         211
  C:C87EH         LINE#         212
  C:C881H         LINE#         213
  C:C893H         LINE#         214
  C:C893H         LINE#         215
BL51 BANKED LINKER/LOCATER V6.22.2.0                                                  06/18/2026  10:05:40  PAGE 77


  C:C8D2H         LINE#         216
  C:C8D5H         LINE#         217
  C:C8DDH         LINE#         218
  C:C8DFH         LINE#         219
  -------         ENDPROC       _MODBUS_INDOORREGSCHANGED
  -------         PROC          _MODBUS_SAVEINDOORSENTREGS
  X:95C4H         SYMBOL        idx
  X:95C5H         SYMBOL        regs
  -------         DO            
  D:0007H         SYMBOL        i
  -------         ENDDO         
  C:D211H         LINE#         221
  C:D21FH         LINE#         222
  C:D21FH         LINE#         225
  C:D22BH         LINE#         226
  C:D265H         LINE#         227
  C:D275H         LINE#         228
  -------         ENDPROC       _MODBUS_SAVEINDOORSENTREGS
  -------         PROC          L?0320
  -------         ENDPROC       L?0320
  -------         PROC          _MODBUS_FILLGROUPCONTROLREGS
  X:8C33H         SYMBOL        regs
  -------         DO            
  D:0007H         SYMBOL        i
  X:8C36H         SYMBOL        val
  -------         ENDDO         
  C:ADF9H         LINE#         237
  C:AE04H         LINE#         238
  C:AE04H         LINE#         242
  C:AE10H         LINE#         243
  C:AE2FH         LINE#         245
  C:AE48H         LINE#         246
  C:AE64H         LINE#         248
  C:AE7DH         LINE#         249
  C:AE99H         LINE#         251
  C:AEB2H         LINE#         252
  C:AECEH         LINE#         254
  C:AEDAH         LINE#         255
  C:AEF8H         LINE#         256
  -------         ENDPROC       _MODBUS_FILLGROUPCONTROLREGS
  -------         PROC          _MODBUS_GROUPREGSCHANGED
  X:8C33H         SYMBOL        regs
  -------         DO            
  X:8C36H         SYMBOL        i
  -------         ENDDO         
  C:D0E0H         LINE#         258
  C:D0EBH         LINE#         259
  C:D0EBH         LINE#         262
  C:D0F1H         LINE#         263
  C:D0F4H         LINE#         264
  C:D107H         LINE#         265
  C:D107H         LINE#         266
  C:D138H         LINE#         267
  C:D13BH         LINE#         268
  C:D143H         LINE#         269
  C:D145H         LINE#         270
  -------         ENDPROC       _MODBUS_GROUPREGSCHANGED
BL51 BANKED LINKER/LOCATER V6.22.2.0                                                  06/18/2026  10:05:40  PAGE 78


  -------         PROC          _MODBUS_SAVEGROUPSENTREGS
  X:95D3H         SYMBOL        regs
  -------         DO            
  D:0007H         SYMBOL        i
  -------         ENDDO         
  C:D90FH         LINE#         272
  C:D91AH         LINE#         273
  C:D91AH         LINE#         276
  C:D926H         LINE#         277
  C:D954H         LINE#         278
  C:D95AH         LINE#         279
  -------         ENDPROC       _MODBUS_SAVEGROUPSENTREGS
  -------         PROC          MODBUS_TRIGGERGROUPCONTROLWRITE
  C:E6D5H         LINE#         281
  C:E6D5H         LINE#         282
  C:E6D5H         LINE#         283
  C:E6D8H         LINE#         284
  C:E6E4H         LINE#         285
  C:E6E4H         LINE#         286
  C:E6E6H         LINE#         287
  C:E6E8H         LINE#         288
  C:E6F1H         LINE#         289
  C:E6F1H         LINE#         290
  -------         ENDPROC       MODBUS_TRIGGERGROUPCONTROLWRITE
  -------         PROC          _MODBUS_REPORTFAULTCODE
  X:95E7H         SYMBOL        fault_code
  C:E083H         LINE#         292
  C:E08BH         LINE#         293
  C:E08BH         LINE#         294
  C:E0A4H         LINE#         295
  -------         ENDPROC       _MODBUS_REPORTFAULTCODE
  -------         PROC          _MODBUS_ISFAULTACTIVE
  D:0004H         SYMBOL        err_code
  D:0001H         SYMBOL        err_words
  -------         DO            
  X:95E9H         SYMBOL        wi
  D:0007H         SYMBOL        bi
  -------         ENDDO         
  C:D6D2H         LINE#         298
  C:D6D6H         LINE#         299
  C:D6D6H         LINE#         302
  C:D6DAH         LINE#         303
  C:D6DCH         LINE#         304
  C:D6F1H         LINE#         305
  C:D6F9H         LINE#         306
  C:D704H         LINE#         307
  C:D707H         LINE#         308
  C:D725H         LINE#         309
  -------         ENDPROC       _MODBUS_ISFAULTACTIVE
  -------         PROC          L?0319
  -------         ENDPROC       L?0319
  -------         PROC          _MODBUS_PACKCHECKSTATUSBYTE
  D:0002H         SYMBOL        val
  D:0005H         SYMBOL        is_temp
  -------         DO            
  D:0006H         SYMBOL        temp
  -------         ENDDO         
BL51 BANKED LINKER/LOCATER V6.22.2.0                                                  06/18/2026  10:05:40  PAGE 79


  C:E7CDH         LINE#         311
  C:E7CFH         LINE#         312
  C:E7CFH         LINE#         315
  C:E7D2H         LINE#         316
  C:E7D2H         LINE#         317
  C:E7D9H         LINE#         318
  C:E7D9H         LINE#         319
  C:E7D9H         LINE#         320
  C:E7DBH         LINE#         321
  -------         ENDPROC       _MODBUS_PACKCHECKSTATUSBYTE
  -------         PROC          L?0322
  -------         ENDPROC       L?0322
  -------         PROC          _MODBUS_PACKCHECKSTATUSBLOCK
  X:94FEH         SYMBOL        rx
  X:9501H         SYMBOL        count
  X:9502H         SYMBOL        is_temp_arr
  X:9505H         SYMBOL        dst_off
  -------         DO            
  X:9506H         SYMBOL        i
  X:9507H         SYMBOL        u8tou16
  -------         ENDDO         
  C:BC73H         LINE#         323
  C:BC81H         LINE#         324
  C:BC81H         LINE#         328
  C:BC97H         LINE#         329
  C:BC97H         LINE#         330
  C:BCB7H         LINE#         331
  C:BCD7H         LINE#         332
  C:BD0FH         LINE#         333
  C:BD18H         LINE#         334
  -------         ENDPROC       _MODBUS_PACKCHECKSTATUSBLOCK
  C:CDF4H         SYMBOL        L?0317
  -------         PROC          L?0316
  -------         ENDPROC       L?0316
  C:CDF4H         SYMBOL        L?0317
  -------         PROC          _MODBUS_WRITEFLOATTEMPPAIR
  X:94B2H         SYMBOL        vp_c
  X:94B6H         SYMBOL        vp_f
  X:94BAH         SYMBOL        temp_c
  -------         DO            
  X:94BEH         SYMBOL        temp_f
  -------         ENDDO         
  C:CDFAH         LINE#         336
  C:CE00H         LINE#         337
  C:CE00H         LINE#         340
  C:CE24H         LINE#         341
  C:CE44H         LINE#         342
  -------         ENDPROC       _MODBUS_WRITEFLOATTEMPPAIR
  -------         PROC          _MODBUS_GETCHECKSTATUS
  X:95D6H         SYMBOL        buf
  D:0005H         SYMBOL        len
  -------         DO            
  D:0006H         SYMBOL        i
  D:0007H         SYMBOL        n
  -------         ENDDO         
  C:DA3CH         LINE#         345
  C:DA47H         LINE#         346
BL51 BANKED LINKER/LOCATER V6.22.2.0                                                  06/18/2026  10:05:40  PAGE 80


  C:DA47H         LINE#         349
  C:DA4AH         LINE#         351
  C:DA5AH         LINE#         352
  C:DA61H         LINE#         353
  C:DA84H         LINE#         354
  -------         ENDPROC       _MODBUS_GETCHECKSTATUS
  -------         PROC          MODBUS_STARTMANUALDEFROST
  -------         DO            
  X:8C33H         SYMBOL        one
  -------         ENDDO         
  C:DB54H         LINE#         356
  C:DB54H         LINE#         357
  C:DB54H         LINE#         358
  C:DB5CH         LINE#         360
  C:DB60H         LINE#         361
  C:DB65H         LINE#         362
  C:DB6BH         LINE#         363
  C:DB73H         LINE#         364
  C:DB8BH         LINE#         365
  C:DB8DH         LINE#         366
  C:DB8FH         LINE#         367
  C:DB98H         LINE#         368
  -------         ENDPROC       MODBUS_STARTMANUALDEFROST
  -------         PROC          MODBUS_STARTNEXTTIMERWRITE
  C:DF2BH         LINE#         370
  C:DF2BH         LINE#         371
  C:DF2BH         LINE#         372
  C:DF38H         LINE#         373
  C:DF38H         LINE#         374
  C:DF3DH         LINE#         375
  C:DF42H         LINE#         377
  C:DF42H         LINE#         378
  C:DF58H         LINE#         379
  C:DF5AH         LINE#         380
  C:DF5CH         LINE#         381
  C:DF65H         LINE#         382
  -------         ENDPROC       MODBUS_STARTNEXTTIMERWRITE
  -------         PROC          _MODBUS_QUEUEINDOORTIMERWRITE
  D:0007H         SYMBOL        index
  C:E458H         LINE#         384
  C:E458H         LINE#         385
  C:E458H         LINE#         386
  C:E465H         LINE#         387
  C:E475H         LINE#         388
  C:E47BH         LINE#         389
  C:E47EH         LINE#         390
  -------         ENDPROC       _MODBUS_QUEUEINDOORTIMERWRITE
  -------         PROC          _MODBUS_APPLYINDOORTIMERVPTOUNITS
  X:8C67H         SYMBOL        update_on
  X:8C68H         SYMBOL        update_off
  -------         DO            
  X:8C69H         SYMBOL        i
  X:8C6AH         SYMBOL        sel_count
  X:8C6BH         SYMBOL        on_en
  X:8C6DH         SYMBOL        off_en
  X:8C6FH         SYMBOL        hour
  X:8C71H         SYMBOL        minute
BL51 BANKED LINKER/LOCATER V6.22.2.0                                                  06/18/2026  10:05:40  PAGE 81


  X:8C73H         SYMBOL        on_time
  X:8C75H         SYMBOL        off_time
  X:8C77H         SYMBOL        sel
  X:8C79H         SYMBOL        vp_base
  -------         ENDDO         
  C:7DECH         LINE#         392
  C:7DF6H         LINE#         393
  C:7DF6H         LINE#         394
  C:7DFBH         LINE#         398
  C:7DFFH         LINE#         399
  C:7E03H         LINE#         401
  C:7E06H         LINE#         402
  C:7E06H         LINE#         403
  C:7E1FH         LINE#         404
  C:7E38H         LINE#         405
  C:7E51H         LINE#         406
  C:7E62H         LINE#         407
  C:7E62H         LINE#         408
  C:7E68H         LINE#         409
  C:7E68H         LINE#         410
  C:7E81H         LINE#         411
  C:7E9AH         LINE#         412
  C:7EB3H         LINE#         413
  C:7EC6H         LINE#         414
  C:7EC6H         LINE#         416
  C:7EDCH         LINE#         417
  C:7EDCH         LINE#         418
  C:7EF7H         LINE#         419
  C:7F04H         LINE#         420
  C:7F04H         LINE#         421
  C:7F0AH         LINE#         422
  C:7F2CH         LINE#         423
  C:7F32H         LINE#         424
  C:7F32H         LINE#         425
  C:7F51H         LINE#         426
  C:7F7BH         LINE#         427
  C:7F7BH         LINE#         428
  C:7F81H         LINE#         429
  C:7F81H         LINE#         430
  C:7FABH         LINE#         431
  C:7FD5H         LINE#         432
  C:7FD5H         LINE#         433
  C:7FDDH         LINE#         434
  C:7FE6H         LINE#         435
  -------         ENDPROC       _MODBUS_APPLYINDOORTIMERVPTOUNITS
  -------         PROC          _MODBUS_TRIGGERINDOORUNITWRITE
  X:8C60H         SYMBOL        index
  X:8C61H         SYMBOL        write_all
  C:D820H         LINE#         437
  C:D82AH         LINE#         438
  C:D82AH         LINE#         439
  C:D833H         LINE#         440
  C:D833H         LINE#         441
  C:D838H         LINE#         442
  C:D84FH         LINE#         443
  C:D84FH         LINE#         444
  C:D857H         LINE#         445
BL51 BANKED LINKER/LOCATER V6.22.2.0                                                  06/18/2026  10:05:40  PAGE 82


  C:D863H         LINE#         446
  C:D865H         LINE#         447
  C:D867H         LINE#         448
  C:D870H         LINE#         449
  C:D870H         LINE#         450
  C:D870H         LINE#         451
  -------         ENDPROC       _MODBUS_TRIGGERINDOORUNITWRITE
  -------         PROC          _MODBUS_TRIGGERDEFROSTPARAMWRITE
  D:0006H         SYMBOL        vp
  C:E819H         LINE#         453
  C:E819H         LINE#         454
  C:E819H         LINE#         455
  C:E821H         LINE#         456
  C:E823H         LINE#         457
  C:E82CH         LINE#         458
  -------         ENDPROC       _MODBUS_TRIGGERDEFROSTPARAMWRITE
  -------         PROC          MODBUS_SALVE_HANDLER1
  -------         DO            
  D:0006H         SYMBOL        Modbus_Crc
  X:9467H         SYMBOL        Modbus_Len
  D:0004H         SYMBOL        Modbus_u16temp
  X:9469H         SYMBOL        Modbus_Power
  X:946BH         SYMBOL        Modbus_Mode
  D:0006H         SYMBOL        error
  -------         DO            
  X:946DH         SYMBOL        addr
  X:946DH         SYMBOL        addr
  X:946DH         SYMBOL        i
  X:946DH         SYMBOL        ri
  X:946EH         SYMBOL        addr
  X:946DH         SYMBOL        reg
  X:946FH         SYMBOL        val
  X:946DH         SYMBOL        freq
  X:946FH         SYMBOL        dtime
  X:9471H         SYMBOL        t3c
  X:9473H         SYMBOL        reg
  X:946DH         SYMBOL        ti
  X:946EH         SYMBOL        addr
  X:9470H         SYMBOL        vp_base
  X:9474H         SYMBOL        treg
  -------         ENDDO         
  -------         DO            
  X:946DH         SYMBOL        addr
  X:946DH         SYMBOL        i
  X:946DH         SYMBOL        ri
  X:946EH         SYMBOL        addr
  X:946DH         SYMBOL        reg
  X:946FH         SYMBOL        val
  X:946DH         SYMBOL        freq
  X:946FH         SYMBOL        dtime
  X:9471H         SYMBOL        t3c
  X:9473H         SYMBOL        reg
  X:946DH         SYMBOL        ti
  X:946EH         SYMBOL        addr
  X:9470H         SYMBOL        vp_base
  X:9474H         SYMBOL        treg
  -------         ENDDO         
BL51 BANKED LINKER/LOCATER V6.22.2.0                                                  06/18/2026  10:05:40  PAGE 83


  -------         DO            
  X:946DH         SYMBOL        i
  X:946DH         SYMBOL        ri
  X:946EH         SYMBOL        addr
  X:946DH         SYMBOL        reg
  X:946FH         SYMBOL        val
  X:946DH         SYMBOL        freq
  X:946FH         SYMBOL        dtime
  X:9471H         SYMBOL        t3c
  X:9473H         SYMBOL        reg
  X:946DH         SYMBOL        ti
  X:946EH         SYMBOL        addr
  X:9470H         SYMBOL        vp_base
  X:9474H         SYMBOL        treg
  -------         ENDDO         
  -------         DO            
  X:946DH         SYMBOL        ri
  X:946EH         SYMBOL        addr
  X:946DH         SYMBOL        reg
  X:946FH         SYMBOL        val
  X:946DH         SYMBOL        freq
  X:946FH         SYMBOL        dtime
  X:9471H         SYMBOL        t3c
  X:9473H         SYMBOL        reg
  X:946DH         SYMBOL        ti
  X:946EH         SYMBOL        addr
  X:9470H         SYMBOL        vp_base
  X:9474H         SYMBOL        treg
  -------         ENDDO         
  -------         DO            
  X:946DH         SYMBOL        reg
  X:946FH         SYMBOL        val
  X:946DH         SYMBOL        freq
  X:946FH         SYMBOL        dtime
  X:9471H         SYMBOL        t3c
  X:9473H         SYMBOL        reg
  X:946DH         SYMBOL        ti
  X:946EH         SYMBOL        addr
  X:9470H         SYMBOL        vp_base
  X:9474H         SYMBOL        treg
  -------         ENDDO         
  -------         DO            
  X:946DH         SYMBOL        freq
  X:946FH         SYMBOL        dtime
  X:9471H         SYMBOL        t3c
  X:9473H         SYMBOL        reg
  X:946DH         SYMBOL        ti
  X:946EH         SYMBOL        addr
  X:9470H         SYMBOL        vp_base
  X:9474H         SYMBOL        treg
  -------         ENDDO         
  -------         DO            
  X:946DH         SYMBOL        ti
  X:946EH         SYMBOL        addr
  X:9470H         SYMBOL        vp_base
  X:9474H         SYMBOL        treg
  -------         ENDDO         
BL51 BANKED LINKER/LOCATER V6.22.2.0                                                  06/18/2026  10:05:40  PAGE 84


  -------         ENDDO         
  C:29A4H         LINE#         459
  C:29A4H         LINE#         460
  C:29A4H         LINE#         462
  C:29ABH         LINE#         466
  C:29ADH         LINE#         467
  C:29B0H         LINE#         468
  C:29B8H         LINE#         469
  C:29BBH         LINE#         470
  C:29C3H         LINE#         471
  C:29C6H         LINE#         472
  C:29CEH         LINE#         473
  C:29D1H         LINE#         474
  C:29D9H         LINE#         475
  C:29DCH         LINE#         476
  C:29E4H         LINE#         477
  C:29E7H         LINE#         478
  C:29EFH         LINE#         479
  C:29F2H         LINE#         480
  C:29F7H         LINE#         481
  C:29FAH         LINE#         482
  C:2A02H         LINE#         483
  C:2A05H         LINE#         484
  C:2A0DH         LINE#         485
  C:2A10H         LINE#         486
  C:2A18H         LINE#         487
  C:2A1BH         LINE#         488
  C:2A23H         LINE#         489
  C:2A29H         LINE#         490
  C:2A2EH         LINE#         492
  C:2A31H         LINE#         494
  C:2A4AH         LINE#         496
  C:2A8AH         LINE#         497
  C:2A8AH         LINE#         498
  C:2A8AH         LINE#         499
  C:2AA3H         LINE#         500
  C:2ABBH         LINE#         501
  C:2AD3H         LINE#         502
  C:2AEBH         LINE#         503
  C:2B03H         LINE#         505
  C:2B06H         LINE#         506
  C:2B06H         LINE#         507
  C:2B1FH         LINE#         508
  C:2B37H         LINE#         509
  C:2B4FH         LINE#         510
  C:2B67H         LINE#         511
  C:2B7FH         LINE#         513
  C:2B82H         LINE#         515
  C:2B82H         LINE#         516
  C:2B9BH         LINE#         517
  C:2BB4H         LINE#         518
  C:2BCDH         LINE#         519
  C:2BE5H         LINE#         520
  C:2BFDH         LINE#         521
  C:2C00H         LINE#         523
  C:2C00H         LINE#         524
  C:2C19H         LINE#         525
BL51 BANKED LINKER/LOCATER V6.22.2.0                                                  06/18/2026  10:05:40  PAGE 85


  C:2C32H         LINE#         526
  C:2C4BH         LINE#         527
  C:2C63H         LINE#         528
  C:2C7BH         LINE#         529
  C:2C7EH         LINE#         530
  C:2C7EH         LINE#         531
  C:2C7EH         LINE#         532
  C:2C9AH         LINE#         533
  C:2CB3H         LINE#         534
  C:2CD5H         LINE#         535
  C:2CEDH         LINE#         536
  C:2D05H         LINE#         537
  C:2D1DH         LINE#         538
  C:2D1DH         LINE#         539
  C:2D20H         LINE#         540
  C:2D20H         LINE#         541
  C:2D20H         LINE#         542
  C:2D3CH         LINE#         543
  C:2D55H         LINE#         544
  C:2D77H         LINE#         545
  C:2D8FH         LINE#         546
  C:2DA7H         LINE#         547
  C:2DBFH         LINE#         548
  C:2DBFH         LINE#         549
  C:2DC2H         LINE#         550
  C:2DC2H         LINE#         553
  C:2DC5H         LINE#         554
  C:2DDEH         LINE#         555
  C:2DF7H         LINE#         556
  C:2E10H         LINE#         557
  C:2E28H         LINE#         558
  C:2E40H         LINE#         559
  C:2E59H         LINE#         560
  C:2E6FH         LINE#         561
  C:2E84H         LINE#         562
  C:2E84H         LINE#         563
  C:2E84H         LINE#         564
  C:2E84H         LINE#         565
  C:2E84H         LINE#         567
  C:2EA1H         LINE#         569
  C:2EA6H         LINE#         570
  C:2EBFH         LINE#         571
  C:2EE1H         LINE#         572
  C:2EF9H         LINE#         573
  C:2F11H         LINE#         574
  C:2F29H         LINE#         575
  C:2F42H         LINE#         577
  C:2F55H         LINE#         578
  C:2F6AH         LINE#         579
  C:2F7FH         LINE#         580
  C:2F7FH         LINE#         581
  C:2F97H         LINE#         582
  C:2FAEH         LINE#         583
  C:2FB6H         LINE#         584
  C:2FB6H         LINE#         585
  C:2FB6H         LINE#         586
  C:2FB6H         LINE#         587
BL51 BANKED LINKER/LOCATER V6.22.2.0                                                  06/18/2026  10:05:40  PAGE 86


  C:2FCFH         LINE#         588
  C:2FE7H         LINE#         589
  C:2FFFH         LINE#         590
  C:3017H         LINE#         591
  C:302FH         LINE#         592
  C:3048H         LINE#         594
  C:3061H         LINE#         595
  C:3061H         LINE#         596
  C:306EH         LINE#         597
  C:3087H         LINE#         598
  C:30A1H         LINE#         600
  C:30BAH         LINE#         601
  C:30BAH         LINE#         602
  C:30C2H         LINE#         607
  C:30DCH         LINE#         608
  C:30F4H         LINE#         610
  C:30F9H         LINE#         611
  C:30FEH         LINE#         613
  C:3100H         LINE#         614
  C:3117H         LINE#         615
  C:312EH         LINE#         617
  C:312EH         LINE#         618
  C:3145H         LINE#         619
  C:315CH         LINE#         621
  C:3172H         LINE#         622
  C:317AH         LINE#         623
  C:3194H         LINE#         624
  C:31ACH         LINE#         626
  C:31ADH         LINE#         627
  C:31C4H         LINE#         628
  C:31DBH         LINE#         630
  C:31DBH         LINE#         631
  C:31F2H         LINE#         632
  C:3209H         LINE#         634
  C:3214H         LINE#         636
  C:3215H         LINE#         637
  C:322CH         LINE#         638
  C:3243H         LINE#         640
  C:3243H         LINE#         641
  C:325AH         LINE#         642
  C:3272H         LINE#         644
  C:3274H         LINE#         645
  C:328CH         LINE#         646
  C:32A4H         LINE#         647
  C:32A7H         LINE#         648
  C:32A7H         LINE#         649
  C:32A7H         LINE#         650
  C:32BBH         LINE#         653
  C:32D4H         LINE#         654
  C:32EDH         LINE#         655
  C:330FH         LINE#         656
  C:3327H         LINE#         657
  C:3349H         LINE#         658
  C:3361H         LINE#         659
  C:3361H         LINE#         660
  C:3364H         LINE#         661
  C:3364H         LINE#         662
BL51 BANKED LINKER/LOCATER V6.22.2.0                                                  06/18/2026  10:05:40  PAGE 87


  C:3364H         LINE#         664
  C:336EH         LINE#         666
  C:3387H         LINE#         667
  C:33A0H         LINE#         668
  C:33B9H         LINE#         669
  C:33D0H         LINE#         671
  C:33E9H         LINE#         672
  C:340BH         LINE#         673
  C:3423H         LINE#         674
  C:343BH         LINE#         675
  C:3453H         LINE#         676
  C:346CH         LINE#         677
  C:347DH         LINE#         678
  C:3488H         LINE#         679
  C:3493H         LINE#         680
  C:3493H         LINE#         681
  C:3496H         LINE#         682
  C:3496H         LINE#         683
  C:3496H         LINE#         685
  C:34B5H         LINE#         686
  C:34D0H         LINE#         689
  C:34EFH         LINE#         690
  C:3519H         LINE#         691
  C:3543H         LINE#         692
  C:356DH         LINE#         694
  C:3586H         LINE#         695
  C:35A8H         LINE#         696
  C:35C0H         LINE#         697
  C:35D8H         LINE#         698
  C:35F0H         LINE#         699
  C:3609H         LINE#         700
  C:361CH         LINE#         701
  C:3631H         LINE#         702
  C:3631H         LINE#         703
  C:3631H         LINE#         705
  C:3631H         LINE#         706
  C:3642H         LINE#         707
  C:365AH         LINE#         708
  C:3674H         LINE#         711
  C:36A7H         LINE#         712
  C:36A7H         LINE#         713
  C:36AFH         LINE#         714
  C:36AFH         LINE#         715
  C:36B4H         LINE#         716
  C:36B6H         LINE#         718
  C:36B6H         LINE#         719
  C:36BBH         LINE#         720
  C:36BBH         LINE#         721
  C:36C1H         LINE#         722
  C:36C1H         LINE#         723
  C:36D2H         LINE#         724
  C:36D2H         LINE#         726
  C:36D9H         LINE#         728
  C:36E3H         LINE#         729
  C:36E3H         LINE#         730
  C:36E9H         LINE#         731
  C:36EBH         LINE#         732
BL51 BANKED LINKER/LOCATER V6.22.2.0                                                  06/18/2026  10:05:40  PAGE 88


  C:3702H         LINE#         733
  C:3702H         LINE#         734
  C:3706H         LINE#         735
  C:3709H         LINE#         736
  C:3710H         LINE#         737
  C:3710H         LINE#         739
  C:3718H         LINE#         740
  C:3718H         LINE#         744
  -------         ENDPROC       MODBUS_SALVE_HANDLER1
  C:D95DH         SYMBOL        L?0313
  -------         PROC          L?0312
  -------         ENDPROC       L?0312
  C:D95DH         SYMBOL        L?0313
  -------         PROC          _GETMODBUSREG
  X:95D9H         SYMBOL        rx
  D:0004H         SYMBOL        reg
  -------         DO            
  D:0004H         SYMBOL        index
  -------         ENDDO         
  C:D965H         LINE#         748
  C:D970H         LINE#         749
  C:D970H         LINE#         750
  C:D981H         LINE#         753
  C:D9A6H         LINE#         754
  -------         ENDPROC       _GETMODBUSREG
  -------         PROC          MODBUS_ANALYSIS_DATA1
  -------         DO            
  X:939CH         SYMBOL        modbus_addr
  X:939EH         SYMBOL        u8tou16
  X:93A2H         SYMBOL        u8tos16
  X:93A4H         SYMBOL        Modbus_Analysis_TempType
  D:0006H         SYMBOL        Modbus_Analysis_Onoff
  X:93A6H         SYMBOL        Modbus_Analysis_mode
  X:93A8H         SYMBOL        Modbus_Analysis_ModeTemp
  X:93AAH         SYMBOL        Modbus_Analysis_SetTemp
  X:93ACH         SYMBOL        Modbus_Analysis_FanMode
  X:93AEH         SYMBOL        Modbus_Temp1
  X:8000H         SYMBOL        SetTempOld
  X:8002H         SYMBOL        OnoffOld
  X:8004H         SYMBOL        modeOld
  X:93B0H         SYMBOL        Modbus_Power
  X:93B4H         SYMBOL        i
  X:93B6H         SYMBOL        j
  X:93B8H         SYMBOL        modbus_rec_len
  X:93BAH         SYMBOL        modbus_rec_CRC
  X:93BCH         SYMBOL        modbus_calculate_CRC
  X:93BEH         SYMBOL        ftemp
  X:93C2H         SYMBOL        Error_Code
  X:93C4H         SYMBOL        Error_Cnt
  X:93C6H         SYMBOL        NewError
  X:93CEH         SYMBOL        Error_Temp
  -------         DO            
  X:93D0H         SYMBOL        power_vp
  X:93D0H         SYMBOL        temp_c
  X:93D2H         SYMBOL        freq_raw
  X:93D4H         SYMBOL        time_raw
  X:93D6H         SYMBOL        t3_raw
BL51 BANKED LINKER/LOCATER V6.22.2.0                                                  06/18/2026  10:05:40  PAGE 89


  X:93D0H         SYMBOL        temp_c
  X:93D2H         SYMBOL        temp_f
  -------         ENDDO         
  -------         DO            
  X:93D0H         SYMBOL        temp_c
  X:93D2H         SYMBOL        freq_raw
  X:93D4H         SYMBOL        time_raw
  X:93D6H         SYMBOL        t3_raw
  X:93D0H         SYMBOL        temp_c
  X:93D2H         SYMBOL        temp_f
  -------         ENDDO         
  -------         DO            
  X:93D0H         SYMBOL        temp_c
  X:93D2H         SYMBOL        temp_f
  -------         ENDDO         
  -------         ENDDO         
  C:1A6AH         LINE#         756
  C:1A6AH         LINE#         757
  C:1A6AH         LINE#         758
  C:1A71H         LINE#         773
  C:1A7BH         LINE#         775
  C:1A7FH         LINE#         776
  C:1A83H         LINE#         777
  C:1A87H         LINE#         780
  C:1A8DH         LINE#         781
  C:1A9FH         LINE#         782
  C:1AA6H         LINE#         783
  C:1AB1H         LINE#         784
  C:1AB1H         LINE#         785
  C:1AB2H         LINE#         791
  C:1ABAH         LINE#         792
  C:1ABAH         LINE#         793
  C:1ACAH         LINE#         794
  C:1ACCH         LINE#         796
  C:1ACCH         LINE#         797
  C:1AD5H         LINE#         798
  C:1AD5H         LINE#         801
  C:1AEBH         LINE#         802
  C:1AFAH         LINE#         803
  C:1B09H         LINE#         805
  C:1B28H         LINE#         808
  C:1B34H         LINE#         809
  C:1B34H         LINE#         810
  C:1B41H         LINE#         811
  C:1B46H         LINE#         812
  C:1B48H         LINE#         814
  C:1B48H         LINE#         815
  C:1B50H         LINE#         817
  C:1B50H         LINE#         819
  C:1B5BH         LINE#         820
  C:1B5BH         LINE#         821
  C:1B93H         LINE#         822
  C:1B93H         LINE#         823
  C:1B93H         LINE#         824
  C:1B99H         LINE#         825
  C:1B99H         LINE#         828
  C:1BB2H         LINE#         829
BL51 BANKED LINKER/LOCATER V6.22.2.0                                                  06/18/2026  10:05:40  PAGE 90


  C:1BBAH         LINE#         830
  C:1BC2H         LINE#         831
  C:1BC9H         LINE#         832
  C:1BE1H         LINE#         833
  C:1BF5H         LINE#         834
  C:1BF5H         LINE#         835
  C:1C0EH         LINE#         836
  C:1C27H         LINE#         837
  C:1C31H         LINE#         838
  C:1C31H         LINE#         839
  C:1C37H         LINE#         840
  C:1C4FH         LINE#         841
  C:1C4FH         LINE#         842
  C:1C52H         LINE#         843
  C:1C52H         LINE#         846
  C:1C6BH         LINE#         847
  C:1C73H         LINE#         848
  C:1C7BH         LINE#         849
  C:1C8AH         LINE#         850
  C:1C9EH         LINE#         851
  C:1C9EH         LINE#         852
  C:1CB7H         LINE#         853
  C:1CBAH         LINE#         854
  C:1CBAH         LINE#         856
  C:1CD3H         LINE#         857
  C:1CDBH         LINE#         858
  C:1CE3H         LINE#         859
  C:1CFAH         LINE#         860
  C:1D0EH         LINE#         861
  C:1D15H         LINE#         862
  C:1D2DH         LINE#         863
  C:1D30H         LINE#         864
  C:1D30H         LINE#         866
  C:1D49H         LINE#         867
  C:1D51H         LINE#         868
  C:1D59H         LINE#         869
  C:1D70H         LINE#         870
  C:1D84H         LINE#         871
  C:1D8BH         LINE#         872
  C:1DA3H         LINE#         873
  C:1DA6H         LINE#         874
  C:1DA6H         LINE#         876
  C:1DBFH         LINE#         877
  C:1DC7H         LINE#         878
  C:1DCFH         LINE#         879
  C:1DE6H         LINE#         880
  C:1DFAH         LINE#         881
  C:1E01H         LINE#         882
  C:1E19H         LINE#         883
  C:1E1CH         LINE#         884
  C:1E1CH         LINE#         886
  C:1E35H         LINE#         887
  C:1E3DH         LINE#         888
  C:1E45H         LINE#         889
  C:1E54H         LINE#         890
  C:1E68H         LINE#         891
  C:1E68H         LINE#         892
BL51 BANKED LINKER/LOCATER V6.22.2.0                                                  06/18/2026  10:05:40  PAGE 91


  C:1E81H         LINE#         893
  C:1E9BH         LINE#         894
  C:1E9EH         LINE#         895
  C:1E9EH         LINE#         897
  C:1E9EH         LINE#         899
  C:1EA0H         LINE#         900
  C:1EA2H         LINE#         901
  C:1EA3H         LINE#         902
  C:1EA3H         LINE#         903
  C:1EA3H         LINE#         904
  C:1EBCH         LINE#         905
  C:1EC9H         LINE#         906
  C:1EC9H         LINE#         910
  C:1ED0H         LINE#         911
  C:1ED0H         LINE#         912
  C:1EEDH         LINE#         913
  C:1EFCH         LINE#         914
  C:1F09H         LINE#         915
  C:1F09H         LINE#         916
  C:1F10H         LINE#         917
  C:1F27H         LINE#         918
  C:1F3CH         LINE#         919
  C:1F4FH         LINE#         920
  C:1F51H         LINE#         922
  C:1F51H         LINE#         923
  C:1F79H         LINE#         924
  C:1F79H         LINE#         925
  C:1F9CH         LINE#         926
  C:1F9CH         LINE#         928
  C:1F9CH         LINE#         931
  C:1FA3H         LINE#         932
  C:1FA3H         LINE#         933
  C:1FC0H         LINE#         934
  C:1FCFH         LINE#         936
  C:1FDCH         LINE#         937
  C:1FDCH         LINE#         938
  C:1FE3H         LINE#         939
  C:1FFAH         LINE#         940
  C:2017H         LINE#         941
  C:2019H         LINE#         943
  C:2019H         LINE#         944
  C:2041H         LINE#         945
  C:2041H         LINE#         947
  C:2061H         LINE#         948
  C:2061H         LINE#         950
  C:2077H         LINE#         952
  C:208DH         LINE#         953
  C:20AAH         LINE#         955
  C:20C8H         LINE#         956
  C:20E5H         LINE#         958
  C:20F9H         LINE#         959
  C:2116H         LINE#         961
  C:212BH         LINE#         962
  C:2144H         LINE#         964
  C:2156H         LINE#         965
  C:216FH         LINE#         967
  C:2171H         LINE#         968
BL51 BANKED LINKER/LOCATER V6.22.2.0                                                  06/18/2026  10:05:40  PAGE 92


  C:2173H         LINE#         969
  C:2173H         LINE#         970
  C:2174H         LINE#         972
  C:2174H         LINE#         975
  C:218DH         LINE#         976
  C:219AH         LINE#         977
  C:219AH         LINE#         978
  C:21A1H         LINE#         979
  C:21A1H         LINE#         980
  C:21BEH         LINE#         981
  C:21CDH         LINE#         982
  C:21DAH         LINE#         983
  C:21DAH         LINE#         984
  C:21E1H         LINE#         985
  C:21F8H         LINE#         986
  C:220DH         LINE#         987
  C:2221H         LINE#         988
  C:2223H         LINE#         990
  C:2223H         LINE#         991
  C:224CH         LINE#         992
  C:224CH         LINE#         993
  C:226FH         LINE#         994
  C:226FH         LINE#         996
  C:226FH         LINE#         997
  C:2276H         LINE#         998
  C:2276H         LINE#         999
  C:2293H         LINE#         1000
  C:22A2H         LINE#         1002
  C:22AFH         LINE#         1003
  C:22AFH         LINE#         1004
  C:22B6H         LINE#         1005
  C:22CDH         LINE#         1006
  C:22EBH         LINE#         1007
  C:22EDH         LINE#         1009
  C:22EDH         LINE#         1010
  C:2316H         LINE#         1011
  C:2316H         LINE#         1012
  C:2336H         LINE#         1013
  C:2336H         LINE#         1016
  C:233DH         LINE#         1017
  C:2356H         LINE#         1018
  C:2356H         LINE#         1019
  C:236CH         LINE#         1020
  C:237BH         LINE#         1021
  C:2399H         LINE#         1022
  C:23B0H         LINE#         1025
  C:23BAH         LINE#         1026
  C:23BAH         LINE#         1027
  C:23C8H         LINE#         1028
  C:23C8H         LINE#         1029
  C:23D9H         LINE#         1031
  C:23E8H         LINE#         1032
  C:23E8H         LINE#         1033
  C:23EFH         LINE#         1034
  C:23F7H         LINE#         1035
  C:2410H         LINE#         1036
  C:2413H         LINE#         1038
BL51 BANKED LINKER/LOCATER V6.22.2.0                                                  06/18/2026  10:05:40  PAGE 93


  C:2413H         LINE#         1039
  C:241AH         LINE#         1040
  C:241AH         LINE#         1041
  C:2434H         LINE#         1042
  C:2434H         LINE#         1043
  C:245FH         LINE#         1044
  C:245FH         LINE#         1045
  C:2466H         LINE#         1046
  C:248CH         LINE#         1047
  C:24A5H         LINE#         1048
  C:24A5H         LINE#         1049
  C:24B6H         LINE#         1050
  C:24D6H         LINE#         1051
  C:24D6H         LINE#         1053
  C:24EDH         LINE#         1055
  C:24F5H         LINE#         1056
  C:24FDH         LINE#         1057
  C:2519H         LINE#         1058
  C:2533H         LINE#         1059
  C:2557H         LINE#         1060
  C:2571H         LINE#         1062
  C:2579H         LINE#         1063
  C:2581H         LINE#         1064
  C:259DH         LINE#         1065
  C:25C9H         LINE#         1068
  C:25CBH         LINE#         1069
  C:25CDH         LINE#         1070
  C:25CEH         LINE#         1071
  C:25CEH         LINE#         1072
  C:25CEH         LINE#         1076
  C:25D6H         LINE#         1077
  C:25DEH         LINE#         1078
  C:25EDH         LINE#         1079
  C:25FCH         LINE#         1080
  C:2616H         LINE#         1081
  C:262FH         LINE#         1083
  C:2637H         LINE#         1084
  C:263FH         LINE#         1085
  C:264EH         LINE#         1086
  C:265DH         LINE#         1087
  C:2677H         LINE#         1088
  C:2690H         LINE#         1090
  C:2698H         LINE#         1091
  C:26A0H         LINE#         1092
  C:26AFH         LINE#         1093
  C:26C6H         LINE#         1094
  C:26D8H         LINE#         1095
  C:26F2H         LINE#         1096
  C:270DH         LINE#         1097
  C:2727H         LINE#         1098
  C:2740H         LINE#         1099
  C:274BH         LINE#         1100
  C:2756H         LINE#         1101
  C:2768H         LINE#         1102
  C:2768H         LINE#         1103
  C:276AH         LINE#         1104
  C:276FH         LINE#         1105
BL51 BANKED LINKER/LOCATER V6.22.2.0                                                  06/18/2026  10:05:40  PAGE 94


  C:2771H         LINE#         1106
  C:2774H         LINE#         1107
  C:2777H         LINE#         1108
  C:2777H         LINE#         1109
  C:2777H         LINE#         1110
  C:2777H         LINE#         1115
  C:277FH         LINE#         1116
  C:2787H         LINE#         1117
  C:2796H         LINE#         1118
  C:27BAH         LINE#         1119
  C:27D1H         LINE#         1120
  C:27F6H         LINE#         1121
  C:280BH         LINE#         1122
  C:2830H         LINE#         1124
  C:2838H         LINE#         1125
  C:2840H         LINE#         1126
  C:284FH         LINE#         1127
  C:2873H         LINE#         1129
  C:2880H         LINE#         1130
  C:2880H         LINE#         1131
  C:2883H         LINE#         1132
  C:2885H         LINE#         1133
  C:2886H         LINE#         1135
  C:2886H         LINE#         1136
  C:288BH         LINE#         1137
  C:288DH         LINE#         1138
  C:288FH         LINE#         1139
  C:288FH         LINE#         1140
  C:288FH         LINE#         1141
  C:2890H         LINE#         1142
  C:2890H         LINE#         1146
  C:289DH         LINE#         1147
  C:289DH         LINE#         1148
  C:28A0H         LINE#         1149
  C:28A2H         LINE#         1150
  C:28A3H         LINE#         1152
  C:28A3H         LINE#         1153
  C:28A8H         LINE#         1154
  C:28AAH         LINE#         1155
  C:28ACH         LINE#         1156
  C:28ACH         LINE#         1157
  C:28ACH         LINE#         1158
  C:28ADH         LINE#         1159
  C:28ADH         LINE#         1161
  C:28ADH         LINE#         1163
  C:28ADH         LINE#         1164
  C:28B2H         LINE#         1165
  C:28BEH         LINE#         1166
  C:28BEH         LINE#         1167
  C:28C5H         LINE#         1168
  C:28D7H         LINE#         1169
  C:28D7H         LINE#         1171
  C:292BH         LINE#         1172
  C:292BH         LINE#         1173
  C:292BH         LINE#         1174
  C:292DH         LINE#         1175
  C:292FH         LINE#         1176
BL51 BANKED LINKER/LOCATER V6.22.2.0                                                  06/18/2026  10:05:40  PAGE 95


  C:2930H         LINE#         1178
  C:2930H         LINE#         1179
  C:2932H         LINE#         1180
  C:2934H         LINE#         1181
  C:293DH         LINE#         1182
  C:293DH         LINE#         1184
  C:293DH         LINE#         1185
  C:293DH         LINE#         1186
  C:293DH         LINE#         1187
  C:293DH         LINE#         1188
  C:293DH         LINE#         1189
  C:293DH         LINE#         1190
  C:294BH         LINE#         1191
  C:295BH         LINE#         1192
  C:295BH         LINE#         1193
  C:295EH         LINE#         1194
  C:2960H         LINE#         1195
  C:2961H         LINE#         1197
  C:2961H         LINE#         1198
  C:2966H         LINE#         1199
  C:2968H         LINE#         1200
  C:296AH         LINE#         1201
  C:296CH         LINE#         1202
  C:296CH         LINE#         1203
  C:296DH         LINE#         1205
  C:296DH         LINE#         1206
  C:296DH         LINE#         1207
  C:296DH         LINE#         1208
  C:296DH         LINE#         1209
  C:296DH         LINE#         1210
  C:296DH         LINE#         1211
  C:296FH         LINE#         1212
  C:2971H         LINE#         1213
  C:297EH         LINE#         1214
  C:2981H         LINE#         1216
  C:2981H         LINE#         1218
  C:2981H         LINE#         1219
  C:2983H         LINE#         1220
  C:2984H         LINE#         1222
  C:2984H         LINE#         1224
  C:2986H         LINE#         1225
  C:2987H         LINE#         1227
  C:2987H         LINE#         1228
  C:2989H         LINE#         1229
  C:298AH         LINE#         1231
  C:298AH         LINE#         1232
  C:29A1H         LINE#         1233
  C:29A3H         LINE#         1234
  C:29A3H         LINE#         1235
  C:29A3H         LINE#         1236
  C:29A3H         LINE#         1237
  -------         ENDPROC       MODBUS_ANALYSIS_DATA1
  -------         PROC          MODBUS_REFRESHCHECKPARAMDISPLAY
  -------         DO            
  X:8C51H         SYMBOL        i
  X:8C52H         SYMBOL        raw
  X:8C54H         SYMBOL        temp_c
BL51 BANKED LINKER/LOCATER V6.22.2.0                                                  06/18/2026  10:05:40  PAGE 96


  X:8C56H         SYMBOL        temp_f
  X:8C58H         SYMBOL        unit
  -------         ENDDO         
  C:9808H         LINE#         1239
  C:9808H         LINE#         1240
  C:9808H         LINE#         1246
  C:9821H         LINE#         1247
  C:9837H         LINE#         1248
  C:9837H         LINE#         1249
  C:9857H         LINE#         1250
  C:9867H         LINE#         1251
  C:9867H         LINE#         1252
  C:987CH         LINE#         1253
  C:9889H         LINE#         1254
  C:9891H         LINE#         1255
  C:98B4H         LINE#         1256
  C:98B4H         LINE#         1257
  C:98BEH         LINE#         1258
  C:98C1H         LINE#         1259
  C:98CAH         LINE#         1260
  C:98E0H         LINE#         1261
  C:98E0H         LINE#         1262
  C:9900H         LINE#         1263
  C:9910H         LINE#         1264
  C:9910H         LINE#         1265
  C:9925H         LINE#         1266
  C:9932H         LINE#         1267
  C:993AH         LINE#         1268
  C:995DH         LINE#         1269
  C:995DH         LINE#         1270
  C:9967H         LINE#         1271
  C:996AH         LINE#         1272
  C:9973H         LINE#         1273
  -------         ENDPROC       MODBUS_REFRESHCHECKPARAMDISPLAY
  -------         ENDMOD        MODBUS

  -------         MODULE        RTC
  C:0000H         SYMBOL        _ICE_DUMMY_
  C:E366H         PUBLIC        RTCcack
  D:0080H         PUBLIC        P0
  C:8ECCH         PUBLIC        RTC_GetUnixLocal
  D:00B0H         PUBLIC        P3
  D:00F8H         PUBLIC        RAMMODE
  C:8B5AH         PUBLIC        rdtime
  C:E8C6H         PUBLIC        RTCmack
  C:E408H         SYMBOL        _rtc_is_leap
  D:00A8H         PUBLIC        IEN0
  C:E966H         PUBLIC        _RTC_MonthFromDisplayVp
  D:00B8H         PUBLIC        IEN1
  D:00BEH         PUBLIC        P3MDOUT
  C:E90AH         PUBLIC        RTCmnak
  C:E70CH         PUBLIC        RTCi2cstart
  C:E126H         SYMBOL        _rtc_days_in_month
  C:E949H         PUBLIC        GetSystickTime
  B:00B0H.3       PUBLIC        RTC_SDA
  C:B2D5H         PUBLIC        _rtc_config
  X:945CH         SYMBOL        s_rtc_month
BL51 BANKED LINKER/LOCATER V6.22.2.0                                                  06/18/2026  10:05:40  PAGE 97


  X:945DH         SYMBOL        s_rtc_week
  B:00B0H.2       PUBLIC        RTC_SCL
  C:CA54H         PUBLIC        _GetTimeDiff
  X:945EH         SYMBOL        s_rtc_year
  C:E754H         PUBLIC        RTCi2cstop
  D:0088H         PUBLIC        TCON
  X:945FH         SYMBOL        s_rtc_sec
  C:EA1CH         PUBLIC        rtc_get_weekday
  X:9460H         SYMBOL        s_rtc_day
  X:9461H         SYMBOL        s_rtc_hour
  C:E1F5H         PUBLIC        RTCi2cbr
  C:E91AH         SYMBOL        _?ix1000
  C:E922H         SYMBOL        _?ix1001
  X:9462H         SYMBOL        s_rtc_min
  C:DE76H         PUBLIC        _RTCi2cbw
  C:C49EH         PUBLIC        _RTC_WriteDisplayTime
  C:E868H         PUBLIC        _BCD
  C:BFBCH         PUBLIC        RTCUpdate
  C:9974H         PUBLIC        check_rtc_set
  C:E1C9H         PUBLIC        _delay_us
  X:9463H         PUBLIC        ulSystickCount
  C:B986H         PUBLIC        init_rtc
  D:0098H         PUBLIC        SCON0
  D:00C8H         PUBLIC        T2CON
  C:C52FH         PUBLIC        _RTC_WriteEditTime
  D:00D0H         PUBLIC        PSW
  C:C40AH         PUBLIC        _rtc_get_week
  D:00C0H         PUBLIC        IRCON
  -------         PROC          _RTC_MONTHFROMDISPLAYVP
  X:8C3BH         SYMBOL        year
  D:0004H         SYMBOL        month_vp
  C:E966H         LINE#         18
  C:E96EH         LINE#         19
  C:E96EH         LINE#         20
  C:E96EH         LINE#         21
  C:E972H         LINE#         22
  -------         ENDPROC       _RTC_MONTHFROMDISPLAYVP
  -------         PROC          _RTC_WRITEDISPLAYTIME
  X:8C5CH         SYMBOL        year
  X:8C5EH         SYMBOL        month
  X:8C60H         SYMBOL        day
  X:8C62H         SYMBOL        hour
  X:8C64H         SYMBOL        minute
  C:C49EH         LINE#         26
  C:C4B2H         LINE#         27
  C:C4B2H         LINE#         28
  C:C4CBH         LINE#         29
  C:C4E4H         LINE#         30
  C:C4FDH         LINE#         31
  C:C516H         LINE#         32
  -------         ENDPROC       _RTC_WRITEDISPLAYTIME
  -------         PROC          _RTC_WRITEEDITTIME
  X:8C5CH         SYMBOL        year
  X:8C5EH         SYMBOL        month
  X:8C60H         SYMBOL        day
  X:8C62H         SYMBOL        hour
  X:8C64H         SYMBOL        minute
BL51 BANKED LINKER/LOCATER V6.22.2.0                                                  06/18/2026  10:05:40  PAGE 98


  C:C52FH         LINE#         35
  C:C543H         LINE#         36
  C:C543H         LINE#         37
  C:C55CH         LINE#         38
  C:C575H         LINE#         39
  C:C58EH         LINE#         40
  C:C5A7H         LINE#         41
  -------         ENDPROC       _RTC_WRITEEDITTIME
  -------         PROC          INIT_RTC
  -------         DO            
  X:8C22H         SYMBOL        dat1
  X:8C23H         SYMBOL        dat2
  -------         ENDDO         
  C:B986H         LINE#         47
  C:B986H         LINE#         48
  C:B986H         LINE#         49
  C:B986H         LINE#         50
  C:B989H         LINE#         52
  C:B98CH         LINE#         53
  C:B991H         LINE#         54
  C:B996H         LINE#         55
  C:B999H         LINE#         56
  C:B99CH         LINE#         57
  C:B9A1H         LINE#         58
  C:B9A9H         LINE#         59
  C:B9ACH         LINE#         60
  C:B9AFH         LINE#         61
  C:B9B2H         LINE#         62
  C:B9B5H         LINE#         63
  C:B9C2H         LINE#         64
  C:B9C2H         LINE#         66
  C:B9C5H         LINE#         67
  C:B9CAH         LINE#         68
  C:B9CFH         LINE#         69
  C:B9D4H         LINE#         70
  C:B9D7H         LINE#         71
  C:B9DAH         LINE#         72
  C:B9DFH         LINE#         73
  C:B9E4H         LINE#         74
  C:B9E9H         LINE#         75
  C:B9EEH         LINE#         76
  C:B9F3H         LINE#         77
  C:B9F8H         LINE#         78
  C:B9FBH         LINE#         79
  C:B9FEH         LINE#         80
  C:BA03H         LINE#         81
  C:BA08H         LINE#         82
  C:BA0DH         LINE#         83
  C:BA12H         LINE#         84
  C:BA17H         LINE#         85
  C:BA1CH         LINE#         86
  C:BA21H         LINE#         87
  C:BA26H         LINE#         88
  C:BA2BH         LINE#         89
  C:BA2EH         LINE#         90
  C:BA31H         LINE#         91
  C:BA36H         LINE#         92
BL51 BANKED LINKER/LOCATER V6.22.2.0                                                  06/18/2026  10:05:40  PAGE 99


  C:BA3BH         LINE#         93
  C:BA40H         LINE#         94
  C:BA45H         LINE#         95
  C:BA48H         LINE#         96
  C:BA48H         LINE#         97
  -------         ENDPROC       INIT_RTC
  C:E1C5H         SYMBOL        L?0090
  -------         PROC          L?0089
  -------         ENDPROC       L?0089
  C:E1C5H         SYMBOL        L?0090
  -------         PROC          _DELAY_US
  D:0006H         SYMBOL        n
  -------         DO            
  D:0008H         SYMBOL        ui
  D:000AH         SYMBOL        uj
  -------         ENDDO         
  C:E1C9H         LINE#         110
  C:E1C9H         LINE#         111
  C:E1C9H         LINE#         113
  C:E1D7H         LINE#         114
  C:E1F4H         LINE#         116
  -------         ENDPROC       _DELAY_US
  -------         PROC          _RTC_CONFIG
  X:95ADH         SYMBOL        prtc_set
  -------         DO            
  X:95B0H         SYMBOL        dat
  X:95B1H         SYMBOL        dat1
  -------         ENDDO         
  C:B2D5H         LINE#         118
  C:B2E0H         LINE#         119
  C:B2E0H         LINE#         121
  C:B2E3H         LINE#         122
  C:B2E8H         LINE#         123
  C:B2EDH         LINE#         124
  C:B2F2H         LINE#         125
  C:B2F5H         LINE#         126
  C:B2F8H         LINE#         127
  C:B2FDH         LINE#         128
  C:B302H         LINE#         129
  C:B307H         LINE#         130
  C:B30CH         LINE#         131
  C:B311H         LINE#         132
  C:B316H         LINE#         133
  C:B319H         LINE#         134
  C:B31CH         LINE#         135
  C:B321H         LINE#         136
  C:B326H         LINE#         137
  C:B338H         LINE#         138
  C:B348H         LINE#         139
  C:B358H         LINE#         140
  C:B369H         LINE#         141
  C:B37AH         LINE#         142
  C:B38BH         LINE#         143
  C:B39CH         LINE#         144
  C:B39FH         LINE#         145
  C:B3A2H         LINE#         146
  C:B3A7H         LINE#         147
BL51 BANKED LINKER/LOCATER V6.22.2.0                                                  06/18/2026  10:05:40  PAGE 100


  C:B3ACH         LINE#         148
  C:B3B1H         LINE#         149
  C:B3B6H         LINE#         150
  -------         ENDPROC       _RTC_CONFIG
  -------         PROC          RDTIME
  -------         DO            
  X:94A1H         SYMBOL        rtcdata
  X:94A9H         SYMBOL        i
  X:94AAH         SYMBOL        n
  X:94ABH         SYMBOL        m
  -------         DO            
  X:94ACH         SYMBOL        rtc_vp
  -------         ENDDO         
  -------         ENDDO         
  C:8B5AH         LINE#         154
  C:8B5AH         LINE#         155
  C:8B5AH         LINE#         156
  C:8B5AH         LINE#         158
  C:8B5DH         LINE#         159
  C:8B60H         LINE#         160
  C:8B65H         LINE#         161
  C:8B6AH         LINE#         162
  C:8B6DH         LINE#         163
  C:8B70H         LINE#         164
  C:8B75H         LINE#         165
  C:8B88H         LINE#         166
  C:8B88H         LINE#         167
  C:8B9AH         LINE#         168
  C:8B9DH         LINE#         169
  C:8BA5H         LINE#         170
  C:8BADH         LINE#         172
  C:8BB0H         LINE#         173
  C:8BB3H         LINE#         174
  C:8BC6H         LINE#         175
  C:8BC6H         LINE#         176
  C:8BDAH         LINE#         177
  C:8BE0H         LINE#         178
  C:8BF3H         LINE#         179
  C:8BFBH         LINE#         180
  C:8C0FH         LINE#         181
  C:8C0FH         LINE#         182
  C:8C23H         LINE#         183
  C:8C29H         LINE#         184
  C:8C3CH         LINE#         185
  C:8C44H         LINE#         187
  C:8C49H         LINE#         188
  C:8C51H         LINE#         189
  C:8C63H         LINE#         190
  C:8C63H         LINE#         191
  C:8C6BH         LINE#         193
  C:8C71H         LINE#         194
  C:8C76H         LINE#         195
  C:8C7EH         LINE#         196
  C:8C86H         LINE#         197
  C:8C8BH         LINE#         198
  C:8C93H         LINE#         199
  C:8C93H         LINE#         202
BL51 BANKED LINKER/LOCATER V6.22.2.0                                                  06/18/2026  10:05:40  PAGE 101


  C:8CA5H         LINE#         203
  C:8CB9H         LINE#         204
  C:8CCBH         LINE#         205
  C:8CE5H         LINE#         206
  C:8CE5H         LINE#         207
  C:8CEDH         LINE#         208
  C:8CF5H         LINE#         209
  C:8CFDH         LINE#         210
  C:8D05H         LINE#         211
  C:8D0DH         LINE#         212
  C:8D15H         LINE#         214
  -------         ENDPROC       RDTIME
  -------         PROC          _BCD
  D:0007H         SYMBOL        dat
  C:E868H         LINE#         239
  C:E868H         LINE#         240
  C:E868H         LINE#         241
  C:E87AH         LINE#         242
  -------         ENDPROC       _BCD
  -------         PROC          _RTC_GET_WEEK
  D:0004H         SYMBOL        year
  D:0005H         SYMBOL        month
  X:95B2H         SYMBOL        day
  -------         DO            
  D:0006H         SYMBOL        tmp
  X:95B3H         SYMBOL        mon
  X:95B5H         SYMBOL        y
  D:0007H         SYMBOL        week
  -------         ENDDO         
  C:C40AH         LINE#         249
  C:C411H         LINE#         250
  C:C411H         LINE#         253
  C:C41EH         LINE#         254
  C:C41EH         LINE#         255
  C:C42BH         LINE#         256
  C:C437H         LINE#         257
  C:C439H         LINE#         259
  C:C439H         LINE#         260
  C:C443H         LINE#         261
  C:C44BH         LINE#         262
  C:C44BH         LINE#         263
  C:C496H         LINE#         264
  C:C49DH         LINE#         265
  C:C49DH         LINE#         266
  -------         ENDPROC       _RTC_GET_WEEK
  -------         PROC          CHECK_RTC_SET
  -------         DO            
  X:948FH         SYMBOL        rtc_parm
  X:9497H         SYMBOL        rtc_set
  -------         DO            
  X:949FH         SYMBOL        yfull
  -------         ENDDO         
  -------         ENDDO         
  C:9974H         LINE#         268
  C:9974H         LINE#         269
  C:9974H         LINE#         270
  C:9987H         LINE#         271
BL51 BANKED LINKER/LOCATER V6.22.2.0                                                  06/18/2026  10:05:40  PAGE 102


  C:999AH         LINE#         272
  C:99B4H         LINE#         273
  C:99C8H         LINE#         274
  C:99C8H         LINE#         275
  C:99D3H         LINE#         276
  C:99E0H         LINE#         277
  C:99EDH         LINE#         278
  C:9A0AH         LINE#         279
  C:9A17H         LINE#         280
  C:9A24H         LINE#         281
  C:9A2FH         LINE#         282
  C:9A38H         LINE#         283
  C:9A38H         LINE#         284
  C:9A47H         LINE#         286
  C:9A4FH         LINE#         287
  C:9A5AH         LINE#         288
  C:9A89H         LINE#         289
  C:9AB8H         LINE#         290
  C:9AB8H         LINE#         291
  C:9ABDH         LINE#         292
  C:9ABFH         LINE#         293
  C:9AD7H         LINE#         294
  C:9ADAH         LINE#         295
  C:9ADAH         LINE#         296
  -------         ENDPROC       CHECK_RTC_SET
  -------         PROC          RTCI2CSTART
  C:E70CH         LINE#         300
  C:E70CH         LINE#         301
  C:E70CH         LINE#         302
  C:E70FH         LINE#         303
  C:E711H         LINE#         304
  C:E713H         LINE#         305
  C:E71AH         LINE#         306
  C:E71CH         LINE#         307
  C:E71FH         LINE#         308
  C:E721H         LINE#         309
  -------         ENDPROC       RTCI2CSTART
  -------         PROC          RTCI2CSTOP
  C:E754H         LINE#         312
  C:E754H         LINE#         313
  C:E754H         LINE#         314
  C:E757H         LINE#         315
  C:E759H         LINE#         316
  C:E75BH         LINE#         317
  C:E762H         LINE#         318
  C:E764H         LINE#         319
  C:E767H         LINE#         320
  C:E76AH         LINE#         321
  -------         ENDPROC       RTCI2CSTOP
  -------         PROC          RTCMACK
  C:E8C6H         LINE#         323
  C:E8C6H         LINE#         324
  C:E8C6H         LINE#         325
  C:E8C9H         LINE#         326
  C:E8CBH         LINE#         327
  C:E8CEH         LINE#         328
  C:E8D0H         LINE#         329
BL51 BANKED LINKER/LOCATER V6.22.2.0                                                  06/18/2026  10:05:40  PAGE 103


  C:E8D3H         LINE#         330
  C:E8D5H         LINE#         331
  -------         ENDPROC       RTCMACK
  -------         PROC          RTCMNAK
  C:E90AH         LINE#         334
  C:E90AH         LINE#         335
  C:E90AH         LINE#         336
  C:E90DH         LINE#         337
  C:E90DH         LINE#         338
  C:E910H         LINE#         339
  C:E912H         LINE#         340
  C:E915H         LINE#         341
  C:E917H         LINE#         342
  -------         ENDPROC       RTCMNAK
  -------         PROC          RTCCACK
  -------         DO            
  D:0005H         SYMBOL        i
  -------         ENDDO         
  C:E366H         LINE#         345
  C:E366H         LINE#         346
  C:E366H         LINE#         347
  C:E366H         LINE#         348
  C:E369H         LINE#         349
  C:E369H         LINE#         350
  C:E36CH         LINE#         351
  C:E36EH         LINE#         352
  C:E371H         LINE#         353
  C:E37DH         LINE#         354
  C:E37DH         LINE#         355
  C:E380H         LINE#         356
  C:E380H         LINE#         357
  C:E380H         LINE#         358
  C:E380H         LINE#         359
  C:E383H         LINE#         360
  C:E386H         LINE#         361
  C:E388H         LINE#         362
  C:E38BH         LINE#         363
  C:E38EH         LINE#         364
  -------         ENDPROC       RTCCACK
  C:DE72H         SYMBOL        L?0092
  -------         PROC          L?0091
  -------         ENDPROC       L?0091
  C:DE72H         SYMBOL        L?0092
  -------         PROC          _RTCI2CBW
  D:0005H         SYMBOL        dat
  -------         DO            
  D:0004H         SYMBOL        i
  -------         ENDDO         
  C:DE76H         LINE#         367
  C:DE78H         LINE#         368
  C:DE78H         LINE#         369
  C:DE78H         LINE#         370
  C:DE7BH         LINE#         371
  C:DE8EH         LINE#         372
  C:DE8EH         LINE#         373
  C:DE92H         LINE#         374
  C:DE92H         LINE#         375
BL51 BANKED LINKER/LOCATER V6.22.2.0                                                  06/18/2026  10:05:40  PAGE 104


  C:DE94H         LINE#         376
  C:DE96H         LINE#         378
  C:DE96H         LINE#         379
  C:DE98H         LINE#         380
  C:DE98H         LINE#         381
  C:DE9CH         LINE#         382
  C:DE9FH         LINE#         383
  C:DEA1H         LINE#         384
  C:DEA4H         LINE#         385
  C:DEA6H         LINE#         386
  C:DEA9H         LINE#         387
  C:DEACH         LINE#         388
  -------         ENDPROC       _RTCI2CBW
  -------         PROC          RTCI2CBR
  -------         DO            
  D:0004H         SYMBOL        i
  D:0005H         SYMBOL        dat
  -------         ENDDO         
  C:E1F5H         LINE#         392
  C:E1F5H         LINE#         393
  C:E1F5H         LINE#         394
  C:E1F5H         LINE#         396
  C:E1F8H         LINE#         397
  C:E204H         LINE#         398
  C:E204H         LINE#         399
  C:E207H         LINE#         400
  C:E209H         LINE#         401
  C:E20CH         LINE#         402
  C:E210H         LINE#         403
  C:E213H         LINE#         404
  C:E213H         LINE#         405
  C:E216H         LINE#         406
  C:E218H         LINE#         408
  C:E218H         LINE#         409
  C:E21CH         LINE#         410
  C:E21CH         LINE#         412
  C:E21EH         LINE#         413
  C:E221H         LINE#         414
  C:E224H         LINE#         415
  C:E226H         LINE#         416
  -------         ENDPROC       RTCI2CBR
  -------         PROC          RTCUPDATE
  -------         DO            
  X:944CH         SYMBOL        ulUpdateTime
  X:9592H         SYMBOL        year
  D:0004H         SYMBOL        month
  D:0002H         SYMBOL        day
  X:9594H         SYMBOL        hour
  X:9596H         SYMBOL        minute
  -------         ENDDO         
  C:BFBCH         LINE#         417
  C:BFBCH         LINE#         418
  C:BFBCH         LINE#         421
  C:BFF3H         LINE#         422
  C:BFF3H         LINE#         423
  C:BFFCH         LINE#         424
  C:BFFFH         LINE#         425
BL51 BANKED LINKER/LOCATER V6.22.2.0                                                  06/18/2026  10:05:40  PAGE 105


  C:C010H         LINE#         426
  C:C017H         LINE#         427
  C:C01EH         LINE#         428
  C:C029H         LINE#         429
  C:C036H         LINE#         430
  C:C05FH         LINE#         431
  C:C05FH         LINE#         432
  -------         ENDPROC       RTCUPDATE
  -------         PROC          GETSYSTICKTIME
  C:E949H         LINE#         440
  C:E949H         LINE#         441
  C:E949H         LINE#         442
  C:E957H         LINE#         443
  -------         ENDPROC       GETSYSTICKTIME
  -------         PROC          _GETTIMEDIFF
  X:9574H         SYMBOL        currtime
  X:9578H         SYMBOL        lasttime
  C:CA54H         LINE#         453
  C:CA5AH         LINE#         454
  C:CA5AH         LINE#         455
  C:CA8AH         LINE#         456
  C:CA8AH         LINE#         457
  C:CAA3H         LINE#         458
  C:CAA3H         LINE#         460
  C:CAA3H         LINE#         462
  C:CACCH         LINE#         463
  C:CACCH         LINE#         464
  -------         ENDPROC       _GETTIMEDIFF
  -------         PROC          RTC_GET_WEEKDAY
  C:EA1CH         LINE#         466
  C:EA1CH         LINE#         467
  C:EA1CH         LINE#         468
  C:EA21H         LINE#         469
  -------         ENDPROC       RTC_GET_WEEKDAY
  -------         PROC          _RTC_IS_LEAP
  D:0002H         SYMBOL        year
  C:E408H         LINE#         471
  C:E40CH         LINE#         472
  C:E40CH         LINE#         473
  C:E42FH         LINE#         474
  -------         ENDPROC       _RTC_IS_LEAP
  -------         PROC          _RTC_DAYS_IN_MONTH
  D:0006H         SYMBOL        year
  D:0001H         SYMBOL        month
  -------         DO            
  X:9450H         SYMBOL        mdays
  -------         ENDDO         
  C:E126H         LINE#         476
  C:E128H         LINE#         477
  C:E128H         LINE#         480
  C:E133H         LINE#         481
  C:E136H         LINE#         482
  C:E14BH         LINE#         483
  C:E158H         LINE#         484
  C:E15AH         LINE#         485
  -------         ENDPROC       _RTC_DAYS_IN_MONTH
  -------         PROC          RTC_GETUNIXLOCAL
BL51 BANKED LINKER/LOCATER V6.22.2.0                                                  06/18/2026  10:05:40  PAGE 106


  -------         DO            
  X:8C33H         SYMBOL        days
  X:8C37H         SYMBOL        year
  X:8C39H         SYMBOL        month
  X:8C3AH         SYMBOL        full_year
  -------         ENDDO         
  C:8ECCH         LINE#         487
  C:8ECCH         LINE#         488
  C:8ECCH         LINE#         489
  C:8ED6H         LINE#         494
  C:8EE7H         LINE#         495
  C:8F06H         LINE#         496
  C:8F5EH         LINE#         497
  C:8F71H         LINE#         498
  C:8FBDH         LINE#         499
  C:8FCAH         LINE#         500
  C:8FFAH         LINE#         501
  C:9076H         LINE#         502
  -------         ENDPROC       RTC_GETUNIXLOCAL
  -------         ENDMOD        RTC

  -------         MODULE        ERRORHISTORY
  C:0000H         SYMBOL        _ICE_DUMMY_
  C:7785H         PUBLIC        _ErrorHistory_PackRec
  D:00B0H         PUBLIC        P3
  X:8A25H         PUBLIC        ErrorHistory
  D:00F8H         PUBLIC        RAMMODE
  D:00A8H         PUBLIC        IEN0
  D:00B8H         PUBLIC        IEN1
  C:E537H         SYMBOL        ErrorHistory_GetCount
  C:E322H         SYMBOL        _ErrorHistory_IsValidCode
  C:EA00H         SYMBOL        ErrorHistory_FlashVpAddr
  C:E92AH         SYMBOL        ErrorHistory_GetMaxPage
  C:E190H         PUBLIC        _ErrorHistory_PageChange
  C:D871H         PUBLIC        ErrorHistory_Sanitize
  D:0088H         PUBLIC        TCON
  C:9077H         SYMBOL        _ErrorHistory_UnpackRecLegacy
  C:E999H         SYMBOL        _?ix1000
  X:8C19H         PUBLIC        AllErrorBit
  C:D726H         PUBLIC        DecodeErrorHistory
  C:7086H         PUBLIC        _ErrorHistory_FlashRead
  C:AEF9H         PUBLIC        ErrorHistoryDisplay
  D:0098H         PUBLIC        SCON0
  C:BDC5H         PUBLIC        _ErrorHistory_FlashWrite
  C:C5C0H         PUBLIC        ErrorHistory_TryMigrateFlash
  C:920EH         SYMBOL        _ErrorHistory_UnpackRec
  D:00C8H         PUBLIC        T2CON
  C:EA22H         PUBLIC        ErrorHistory_ResetPage
  C:E880H         SYMBOL        _ErrorHistory_ClampByte
  C:EA46H         PUBLIC        _UWOErrorCodeProcess
  C:9DA1H         PUBLIC        _UpdateErrorHistory
  C:CED1H         SYMBOL        _ErrorHistory_ConvertLegacyRawRec
  C:DC65H         PUBLIC        ClearErrorHistory
  X:8C21H         SYMBOL        s_page
  C:A9C4H         SYMBOL        _ErrorHistory_ReadTime
  C:DC21H         PUBLIC        ErrorHistory_FlashCommitNow
  D:00D0H         PUBLIC        PSW
BL51 BANKED LINKER/LOCATER V6.22.2.0                                                  06/18/2026  10:05:40  PAGE 107


  C:E958H         PUBLIC        ErrorHistory_Init
  D:00C0H         PUBLIC        IRCON
  -------         PROC          L?0133
  -------         ENDPROC       L?0133
  -------         PROC          _ERRORHISTORY_ISVALIDCODE
  D:0007H         SYMBOL        fault_code
  C:E322H         LINE#         390
  C:E322H         LINE#         391
  C:E322H         LINE#         392
  C:E33CH         LINE#         393
  -------         ENDPROC       _ERRORHISTORY_ISVALIDCODE
  -------         PROC          L?0134
  -------         ENDPROC       L?0134
  -------         PROC          _ERRORHISTORY_CLAMPBYTE
  D:0006H         SYMBOL        v
  D:0005H         SYMBOL        maxv
  C:E880H         LINE#         395
  C:E880H         LINE#         396
  C:E880H         LINE#         397
  C:E88AH         LINE#         398
  C:E88DH         LINE#         399
  C:E88DH         LINE#         400
  -------         ENDPROC       _ERRORHISTORY_CLAMPBYTE
  -------         PROC          _ERRORHISTORY_READTIME
  X:950BH         SYMBOL        rec
  -------         DO            
  X:950EH         SYMBOL        year
  X:9510H         SYMBOL        month_vp
  X:9512H         SYMBOL        day
  X:9514H         SYMBOL        hour
  X:9516H         SYMBOL        minute
  -------         ENDDO         
  C:A9C4H         LINE#         403
  C:A9CFH         LINE#         404
  C:A9CFH         LINE#         405
  C:A9D4H         LINE#         406
  C:A9D8H         LINE#         407
  C:A9DCH         LINE#         408
  C:A9E0H         LINE#         409
  C:A9E4H         LINE#         411
  C:A9FCH         LINE#         412
  C:AA15H         LINE#         413
  C:AA2EH         LINE#         414
  C:AA47H         LINE#         415
  C:AA60H         LINE#         416
  C:AA80H         LINE#         417
  C:AA9AH         LINE#         418
  C:AAB4H         LINE#         419
  -------         ENDPROC       _ERRORHISTORY_READTIME
  -------         PROC          _ERRORHISTORY_PACKREC
  X:8DE1H         SYMBOL        out
  X:8DE4H         SYMBOL        rec
  -------         DO            
  X:8DE7H         SYMBOL        v
  -------         ENDDO         
  C:7785H         LINE#         422
  C:7790H         LINE#         423
BL51 BANKED LINKER/LOCATER V6.22.2.0                                                  06/18/2026  10:05:40  PAGE 108


  C:7790H         LINE#         426
  C:77A6H         LINE#         427
  C:77A6H         LINE#         428
  C:77B5H         LINE#         429
  C:77C7H         LINE#         430
  C:77CEH         LINE#         431
  C:77D5H         LINE#         433
  C:77D5H         LINE#         434
  C:77F3H         LINE#         435
  C:784BH         LINE#         436
  C:78A3H         LINE#         437
  C:78FBH         LINE#         438
  C:7950H         LINE#         439
  C:7967H         LINE#         440
  C:798CH         LINE#         441
  C:79A6H         LINE#         442
  C:79C0H         LINE#         443
  -------         ENDPROC       _ERRORHISTORY_PACKREC
  -------         PROC          _ERRORHISTORY_UNPACKREC
  X:9546H         SYMBOL        rec
  X:9549H         SYMBOL        in
  -------         DO            
  X:954CH         SYMBOL        v
  -------         ENDDO         
  C:920EH         LINE#         445
  C:9219H         LINE#         446
  C:9219H         LINE#         449
  C:92C1H         LINE#         450
  C:92D9H         LINE#         451
  C:92D9H         LINE#         452
  C:92E8H         LINE#         453
  C:92FAH         LINE#         454
  C:9301H         LINE#         455
  C:9308H         LINE#         456
  C:930FH         LINE#         458
  C:930FH         LINE#         459
  C:932BH         LINE#         460
  C:9349H         LINE#         461
  C:9367H         LINE#         462
  C:9385H         LINE#         463
  C:93A0H         LINE#         464
  -------         ENDPROC       _ERRORHISTORY_UNPACKREC
  -------         PROC          _ERRORHISTORY_UNPACKRECLEGACY
  X:9524H         SYMBOL        rec
  X:9527H         SYMBOL        in
  -------         DO            
  X:952AH         SYMBOL        v
  D:0007H         SYMBOL        month
  X:952EH         SYMBOL        day
  X:952FH         SYMBOL        hour
  -------         ENDDO         
  C:9077H         LINE#         466
  C:9082H         LINE#         467
  C:9082H         LINE#         473
  C:912AH         LINE#         474
  C:9142H         LINE#         475
  C:9142H         LINE#         476
BL51 BANKED LINKER/LOCATER V6.22.2.0                                                  06/18/2026  10:05:40  PAGE 109


  C:9151H         LINE#         477
  C:9163H         LINE#         478
  C:916AH         LINE#         479
  C:9171H         LINE#         480
  C:9178H         LINE#         482
  C:9178H         LINE#         483
  C:9194H         LINE#         484
  C:91AEH         LINE#         485
  C:91C5H         LINE#         486
  C:91D4H         LINE#         487
  C:91EBH         LINE#         488
  C:91F5H         LINE#         489
  C:91FCH         LINE#         490
  C:920DH         LINE#         491
  -------         ENDPROC       _ERRORHISTORY_UNPACKRECLEGACY
  -------         PROC          _ERRORHISTORY_CONVERTLEGACYRAWREC
  D:0001H         SYMBOL        rec
  -------         DO            
  X:95EAH         SYMBOL        month
  D:0007H         SYMBOL        day
  D:0006H         SYMBOL        hour
  D:0005H         SYMBOL        fault_code
  -------         ENDDO         
  C:CED1H         LINE#         493
  C:CED1H         LINE#         494
  C:CED1H         LINE#         500
  C:CEDEH         LINE#         501
  C:CEDEH         LINE#         502
  C:CEE1H         LINE#         503
  C:CEE7H         LINE#         504
  C:CEEEH         LINE#         505
  C:CEF5H         LINE#         506
  C:CEFBH         LINE#         508
  C:CEFBH         LINE#         509
  C:CF05H         LINE#         510
  C:CF0CH         LINE#         511
  C:CF13H         LINE#         512
  C:CF1AH         LINE#         513
  C:CF21H         LINE#         514
  C:CF28H         LINE#         515
  C:CF2FH         LINE#         516
  C:CF36H         LINE#         517
  C:CF3DH         LINE#         518
  -------         ENDPROC       _ERRORHISTORY_CONVERTLEGACYRAWREC
  -------         PROC          _ERRORHISTORY_FLASHWRITE
  X:8C4AH         SYMBOL        flash_vp_addr
  -------         DO            
  X:8C4EH         SYMBOL        packed
  X:8DDEH         SYMBOL        i
  X:8DDFH         SYMBOL        magic
  -------         ENDDO         
  C:BDC5H         LINE#         520
  C:BDCBH         LINE#         521
  C:BDCBH         LINE#         524
  C:BDD5H         LINE#         526
  C:BDE8H         LINE#         527
  C:BE26H         LINE#         528
BL51 BANKED LINKER/LOCATER V6.22.2.0                                                  06/18/2026  10:05:40  PAGE 110


  C:BE45H         LINE#         529
  -------         ENDPROC       _ERRORHISTORY_FLASHWRITE
  -------         PROC          ERRORHISTORY_FLASHVPADDR
  C:EA00H         LINE#         532
  C:EA00H         LINE#         533
  C:EA00H         LINE#         534
  C:EA07H         LINE#         536
  -------         ENDPROC       ERRORHISTORY_FLASHVPADDR
  -------         PROC          ERRORHISTORY_FLASHCOMMITNOW
  -------         DO            
  X:8C48H         SYMBOL        enable_memory
  -------         ENDDO         
  C:DC21H         LINE#         538
  C:DC21H         LINE#         539
  C:DC21H         LINE#         540
  C:DC28H         LINE#         542
  C:DC2EH         LINE#         543
  C:DC47H         LINE#         544
  C:DC53H         LINE#         545
  C:DC53H         LINE#         546
  C:DC56H         LINE#         547
  C:DC59H         LINE#         548
  C:DC5EH         LINE#         549
  C:DC64H         LINE#         550
  C:DC64H         LINE#         551
  -------         ENDPROC       ERRORHISTORY_FLASHCOMMITNOW
  -------         PROC          ERRORHISTORY_TRYMIGRATEFLASH
  -------         DO            
  X:8C33H         SYMBOL        magic
  X:8C35H         SYMBOL        enable_memory
  X:8C37H         SYMBOL        addr
  -------         ENDDO         
  C:C5C0H         LINE#         553
  C:C5C0H         LINE#         554
  C:C5C0H         LINE#         555
  C:C5C7H         LINE#         556
  C:C5CBH         LINE#         559
  C:C5D2H         LINE#         560
  C:C5F1H         LINE#         561
  C:C5FFH         LINE#         564
  C:C602H         LINE#         565
  C:C613H         LINE#         567
  C:C62CH         LINE#         568
  C:C638H         LINE#         569
  C:C638H         LINE#         570
  C:C63BH         LINE#         571
  C:C63EH         LINE#         572
  C:C643H         LINE#         573
  C:C649H         LINE#         574
  C:C649H         LINE#         575
  -------         ENDPROC       ERRORHISTORY_TRYMIGRATEFLASH
  -------         PROC          _ERRORHISTORY_FLASHREAD
  X:8DF1H         SYMBOL        flash_vp_addr
  -------         DO            
  X:8DF5H         SYMBOL        magic
  X:8DF7H         SYMBOL        packed
  X:8F87H         SYMBOL        i
BL51 BANKED LINKER/LOCATER V6.22.2.0                                                  06/18/2026  10:05:40  PAGE 111


  X:8F88H         SYMBOL        j
  -------         DO            
  X:8F89H         SYMBOL        k
  -------         ENDDO         
  -------         ENDDO         
  C:7086H         LINE#         577
  C:708CH         LINE#         578
  C:708CH         LINE#         579
  C:7093H         LINE#         583
  C:70B2H         LINE#         584
  C:70C3H         LINE#         585
  C:70C3H         LINE#         586
  C:70EEH         LINE#         587
  C:7104H         LINE#         588
  C:7142H         LINE#         590
  C:7142H         LINE#         591
  C:7153H         LINE#         592
  C:7153H         LINE#         593
  C:717EH         LINE#         594
  C:7194H         LINE#         595
  C:71D2H         LINE#         597
  C:71D2H         LINE#         599
  C:71F2H         LINE#         600
  C:7205H         LINE#         601
  C:721FH         LINE#         602
  C:7232H         LINE#         603
  C:7232H         LINE#         604
  C:7243H         LINE#         605
  C:7269H         LINE#         606
  C:7271H         LINE#         607
  C:7284H         LINE#         608
  C:7284H         LINE#         609
  C:728BH         LINE#         610
  C:728BH         LINE#         611
  C:729EH         LINE#         612
  C:729EH         LINE#         614
  C:72AFH         LINE#         615
  C:72D5H         LINE#         616
  C:72DDH         LINE#         617
  C:72DDH         LINE#         618
  C:72DDH         LINE#         619
  C:72E5H         LINE#         620
  -------         ENDPROC       _ERRORHISTORY_FLASHREAD
  -------         PROC          ERRORHISTORY_SANITIZE
  -------         DO            
  D:0006H         SYMBOL        i
  D:0007H         SYMBOL        j
  D:0005H         SYMBOL        k
  -------         ENDDO         
  C:D871H         LINE#         622
  C:D871H         LINE#         623
  C:D871H         LINE#         626
  C:D87DH         LINE#         627
  C:D87DH         LINE#         628
  C:D884H         LINE#         629
  C:D884H         LINE#         630
  C:D890H         LINE#         631
BL51 BANKED LINKER/LOCATER V6.22.2.0                                                  06/18/2026  10:05:40  PAGE 112


  C:D890H         LINE#         632
  C:D89CH         LINE#         633
  C:D8BAH         LINE#         634
  C:D8BDH         LINE#         635
  C:D8BDH         LINE#         636
  C:D8BDH         LINE#         637
  C:D8C0H         LINE#         638
  -------         ENDPROC       ERRORHISTORY_SANITIZE
  -------         PROC          ERRORHISTORY_INIT
  C:E958H         LINE#         640
  C:E958H         LINE#         641
  C:E958H         LINE#         642
  C:E95BH         LINE#         643
  C:E960H         LINE#         644
  C:E963H         LINE#         645
  -------         ENDPROC       ERRORHISTORY_INIT
  -------         PROC          ERRORHISTORY_GETCOUNT
  -------         DO            
  D:0007H         SYMBOL        i
  -------         ENDDO         
  C:E537H         LINE#         648
  C:E537H         LINE#         649
  C:E537H         LINE#         652
  C:E543H         LINE#         653
  C:E543H         LINE#         654
  C:E555H         LINE#         655
  C:E555H         LINE#         656
  C:E558H         LINE#         657
  C:E558H         LINE#         658
  -------         ENDPROC       ERRORHISTORY_GETCOUNT
  -------         PROC          ERRORHISTORY_GETMAXPAGE
  -------         DO            
  D:0007H         SYMBOL        count
  -------         ENDDO         
  C:E92AH         LINE#         660
  C:E92AH         LINE#         661
  C:E92AH         LINE#         664
  C:E92DH         LINE#         665
  C:E930H         LINE#         666
  C:E932H         LINE#         667
  C:E939H         LINE#         668
  -------         ENDPROC       ERRORHISTORY_GETMAXPAGE
  -------         PROC          _UPDATEERRORHISTORY
  X:9559H         SYMBOL        NewError
  X:955BH         SYMBOL        ErrorBuffNum
  -------         DO            
  X:8A1DH         SYMBOL        OldError
  X:955CH         SYMBOL        i
  D:0007H         SYMBOL        j
  X:955DH         SYMBOL        k
  X:955EH         SYMBOL        time_rec
  -------         ENDDO         
  C:9DA1H         LINE#         670
  C:9DACH         LINE#         671
  C:9DACH         LINE#         676
  C:9DC5H         LINE#         677
  C:9DC5H         LINE#         678
BL51 BANKED LINKER/LOCATER V6.22.2.0                                                  06/18/2026  10:05:40  PAGE 113


  C:9DCEH         LINE#         679
  C:9DE3H         LINE#         680
  C:9DE3H         LINE#         681
  C:9E2CH         LINE#         682
  C:9E2CH         LINE#         683
  C:9E38H         LINE#         684
  C:9E38H         LINE#         685
  C:9E4AH         LINE#         686
  C:9E4AH         LINE#         687
  C:9E82H         LINE#         688
  C:9E8AH         LINE#         689
  C:9E8DH         LINE#         690
  C:9E9FH         LINE#         691
  C:9E9FH         LINE#         692
  C:9EB8H         LINE#         693
  C:9EC0H         LINE#         694
  C:9ED5H         LINE#         695
  C:9ED5H         LINE#         696
  C:9EDEH         LINE#         697
  C:9EF8H         LINE#         698
  C:9EFBH         LINE#         699
  C:9EFEH         LINE#         700
  C:9EFEH         LINE#         701
  -------         ENDPROC       _UPDATEERRORHISTORY
  -------         PROC          ERRORHISTORYDISPLAY
  -------         DO            
  X:8C33H         SYMBOL        i
  X:8C34H         SYMBOL        j
  D:0003H         SYMBOL        rowIdx
  X:8C35H         SYMBOL        ErrorHistoryDisplay_Temp
  -------         ENDDO         
  C:AEF9H         LINE#         702
  C:AEF9H         LINE#         703
  C:AEF9H         LINE#         706
  C:AF0CH         LINE#         708
  C:AF22H         LINE#         709
  C:AF22H         LINE#         710
  C:AF2EH         LINE#         711
  C:AF4CH         LINE#         712
  C:AF4CH         LINE#         713
  C:AF59H         LINE#         714
  C:AF6CH         LINE#         715
  C:AF6CH         LINE#         716
  C:AF9AH         LINE#         717
  C:AFA2H         LINE#         718
  C:AFA2H         LINE#         720
  C:AFA2H         LINE#         721
  C:AFB5H         LINE#         722
  C:AFB5H         LINE#         723
  C:AFC5H         LINE#         724
  C:AFCDH         LINE#         725
  C:AFCDH         LINE#         726
  C:AFF1H         LINE#         727
  C:AFFAH         LINE#         728
  -------         ENDPROC       ERRORHISTORYDISPLAY
  -------         PROC          _ERRORHISTORY_PAGECHANGE
  D:0004H         SYMBOL        keyValue
BL51 BANKED LINKER/LOCATER V6.22.2.0                                                  06/18/2026  10:05:40  PAGE 114


  -------         DO            
  D:0007H         SYMBOL        maxPage
  -------         ENDDO         
  C:E190H         LINE#         729
  C:E194H         LINE#         730
  C:E194H         LINE#         733
  C:E197H         LINE#         734
  C:E19DH         LINE#         735
  C:E19DH         LINE#         736
  C:E1AAH         LINE#         737
  C:E1ADH         LINE#         738
  C:E1AFH         LINE#         739
  C:E1B5H         LINE#         740
  C:E1B5H         LINE#         741
  C:E1BDH         LINE#         742
  C:E1C0H         LINE#         743
  C:E1C0H         LINE#         744
  -------         ENDPROC       _ERRORHISTORY_PAGECHANGE
  -------         PROC          ERRORHISTORY_RESETPAGE
  C:EA22H         LINE#         746
  C:EA22H         LINE#         747
  C:EA22H         LINE#         748
  C:EA27H         LINE#         749
  -------         ENDPROC       ERRORHISTORY_RESETPAGE
  -------         PROC          CLEARERRORHISTORY
  -------         DO            
  D:0007H         SYMBOL        i
  D:0006H         SYMBOL        j
  -------         ENDDO         
  C:DC65H         LINE#         750
  C:DC65H         LINE#         751
  C:DC65H         LINE#         754
  C:DC71H         LINE#         755
  C:DC71H         LINE#         756
  C:DC7DH         LINE#         757
  C:DC7DH         LINE#         758
  C:DC98H         LINE#         759
  C:DC9BH         LINE#         760
  C:DC9EH         LINE#         761
  C:DCA3H         LINE#         762
  C:DCA6H         LINE#         763
  -------         ENDPROC       CLEARERRORHISTORY
  -------         PROC          DECODEERRORHISTORY
  -------         DO            
  X:95EBH         SYMBOL        i
  D:0006H         SYMBOL        DecodeErrorHistory_Page
  -------         ENDDO         
  C:D726H         LINE#         765
  C:D726H         LINE#         766
  C:D726H         LINE#         770
  C:D739H         LINE#         771
  C:D739H         LINE#         772
  C:D74DH         LINE#         773
  C:D755H         LINE#         774
  C:D758H         LINE#         775
  C:D776H         LINE#         776
  C:D776H         LINE#         777
BL51 BANKED LINKER/LOCATER V6.22.2.0                                                  06/18/2026  10:05:40  PAGE 115


  C:D779H         LINE#         778
  C:D779H         LINE#         779
  -------         ENDPROC       DECODEERRORHISTORY
  -------         PROC          _UWOERRORCODEPROCESS
  D:0007H         SYMBOL        Code
  C:EA46H         LINE#         780
  C:EA46H         LINE#         781
  C:EA46H         LINE#         782
  C:EA46H         LINE#         783
  -------         ENDPROC       _UWOERRORCODEPROCESS
  -------         ENDMOD        ERRORHISTORY

  -------         MODULE        UPLOAD
  C:0000H         SYMBOL        _ICE_DUMMY_
  D:00B0H         PUBLIC        P3
  C:C8E0H         SYMBOL        Upload_PackTimerRoomByte
  C:D146H         PUBLIC        upload_timestamp_from_rtc
  D:00F8H         PUBLIC        RAMMODE
  C:A796H         SYMBOL        _Upload_UlToStr
  D:00A8H         PUBLIC        IEN0
  D:00B8H         PUBLIC        IEN1
  C:85C6H         PUBLIC        upload_inside_time_open
  C:7538H         PUBLIC        upload_indoor_unit
  C:EA0FH         PUBLIC        upload_report_force_sync
  C:E9A5H         PUBLIC        upload_all_timers
  C:E9B1H         PUBLIC        upload_report_poll
  X:92F7H         SYMBOL        s_upload_pending
  C:D2DAH         SYMBOL        _Upload_ValueIfChanged
  D:0088H         PUBLIC        TCON
  C:E82DH         SYMBOL        _Upload_BoolIfChanged
  C:E841H         SYMBOL        _Upload_EnumIfChanged
  C:E583H         SYMBOL        _Upload_ClampIndoorTemp
  C:E04BH         SYMBOL        _?ix1000
  C:E06FH         SYMBOL        _?ix1001
  C:E077H         SYMBOL        _?ix1002
  C:E07DH         SYMBOL        _?ix1003
  C:E013H         PUBLIC        upload_electricity_statistics
  C:E080H         SYMBOL        _?ix1004
  B:0025H.0       SYMBOL        s_timestamp_boot_done
  C:E724H         SYMBOL        _Upload_ModeToDp101
  C:B49BH         PUBLIC        upload_external_time_close
  C:E9E6H         PUBLIC        upload_timestamp_boot_once
  D:0098H         PUBLIC        SCON0
  X:92F8H         SYMBOL        s_report_force
  X:92F9H         SYMBOL        s_report_valid
  D:00C8H         PUBLIC        T2CON
  C:E69AH         SYMBOL        _Upload_WorkStateToDp
  C:C2DBH         PUBLIC        upload_check_status
  C:9699H         PUBLIC        upload_history_faults
  C:B3B9H         PUBLIC        upload_inside_time_close
  C:EA08H         PUBLIC        upload_request_report
  C:E65CH         SYMBOL        _Upload_DgusModeToDp116
  C:7BECH         PUBLIC        upload_external_time_open
  D:00D0H         PUBLIC        PSW
  D:00C0H         PUBLIC        IRCON
  -------         PROC          _UPLOAD_ULTOSTR
  X:947CH         SYMBOL        v
BL51 BANKED LINKER/LOCATER V6.22.2.0                                                  06/18/2026  10:05:40  PAGE 116


  X:9480H         SYMBOL        buf
  -------         DO            
  X:9483H         SYMBOL        rev
  X:948DH         SYMBOL        n
  X:948EH         SYMBOL        i
  -------         ENDDO         
  C:A796H         LINE#         14
  C:A7A7H         LINE#         15
  C:A7A7H         LINE#         17
  C:A7ACH         LINE#         20
  C:A7C4H         LINE#         21
  C:A7C4H         LINE#         22
  C:A7D4H         LINE#         23
  C:A7E6H         LINE#         24
  C:A7E9H         LINE#         25
  C:A7E9H         LINE#         26
  C:A80AH         LINE#         27
  C:A80AH         LINE#         28
  C:A831H         LINE#         29
  C:A84EH         LINE#         30
  C:A850H         LINE#         31
  C:A861H         LINE#         32
  C:A897H         LINE#         33
  C:A8B0H         LINE#         34
  C:A8B0H         LINE#         35
  -------         ENDPROC       _UPLOAD_ULTOSTR
  -------         PROC          L?0168
  -------         ENDPROC       L?0168
  -------         PROC          _UPLOAD_CLAMPINDOORTEMP
  D:0006H         SYMBOL        v
  C:E583H         LINE#         37
  C:E583H         LINE#         38
  C:E583H         LINE#         39
  C:E58CH         LINE#         40
  C:E58FH         LINE#         41
  C:E598H         LINE#         42
  C:E59BH         LINE#         43
  C:E59BH         LINE#         44
  -------         ENDPROC       _UPLOAD_CLAMPINDOORTEMP
  -------         PROC          _UPLOAD_DGUSMODETODP116
  D:0006H         SYMBOL        dgus
  C:E65CH         LINE#         46
  C:E65CH         LINE#         47
  C:E65CH         LINE#         48
  C:E66CH         LINE#         49
  C:E66CH         LINE#         50
  C:E66FH         LINE#         51
  C:E672H         LINE#         52
  C:E675H         LINE#         53
  C:E678H         LINE#         54
  -------         ENDPROC       _UPLOAD_DGUSMODETODP116
  -------         PROC          UPLOAD_PACKTIMERROOMBYTE
  -------         DO            
  X:8C3EH         SYMBOL        i
  X:8C3FH         SYMBOL        sel
  X:8C41H         SYMBOL        count
  X:8C42H         SYMBOL        single_room
BL51 BANKED LINKER/LOCATER V6.22.2.0                                                  06/18/2026  10:05:40  PAGE 117


  X:8C43H         SYMBOL        mask
  -------         ENDDO         
  C:C8E0H         LINE#         59
  C:C8E0H         LINE#         60
  C:C8E0H         LINE#         63
  C:C8E5H         LINE#         64
  C:C8E7H         LINE#         65
  C:C8E9H         LINE#         67
  C:C8FBH         LINE#         68
  C:C8FBH         LINE#         69
  C:C916H         LINE#         70
  C:C920H         LINE#         71
  C:C920H         LINE#         72
  C:C926H         LINE#         73
  C:C930H         LINE#         74
  C:C943H         LINE#         75
  C:C943H         LINE#         76
  C:C94BH         LINE#         77
  C:C953H         LINE#         78
  C:C957H         LINE#         79
  C:C95CH         LINE#         80
  -------         ENDPROC       UPLOAD_PACKTIMERROOMBYTE
  -------         PROC          UPLOAD_ELECTRICITY_STATISTICS
  -------         DO            
  X:94C2H         SYMBOL        buf
  D:0007H         SYMBOL        i
  X:9273H         SYMBOL        s_sent
  -------         ENDDO         
  C:E013H         LINE#         82
  C:E013H         LINE#         83
  C:E013H         LINE#         88
  C:E019H         LINE#         90
  C:E01BH         LINE#         91
  C:E027H         LINE#         92
  C:E036H         LINE#         93
  C:E04AH         LINE#         94
  -------         ENDPROC       UPLOAD_ELECTRICITY_STATISTICS
  -------         PROC          UPLOAD_TIMESTAMP_FROM_RTC
  -------         DO            
  X:94D2H         SYMBOL        ts_buf
  X:94DEH         SYMBOL        ts_local
  D:0004H         SYMBOL        ts_utc
  -------         ENDDO         
  C:D146H         LINE#         96
  C:D146H         LINE#         97
  C:D146H         LINE#         102
  C:D14FH         LINE#         103
  C:D16AH         LINE#         105
  C:D186H         LINE#         106
  C:D18FH         LINE#         107
  C:D1ABH         LINE#         108
  -------         ENDPROC       UPLOAD_TIMESTAMP_FROM_RTC
  -------         PROC          UPLOAD_TIMESTAMP_BOOT_ONCE
  C:E9E6H         LINE#         110
  C:E9E6H         LINE#         111
  C:E9E6H         LINE#         112
  C:E9E9H         LINE#         114
BL51 BANKED LINKER/LOCATER V6.22.2.0                                                  06/18/2026  10:05:40  PAGE 118


  C:E9EBH         LINE#         115
  C:E9EEH         LINE#         116
  -------         ENDPROC       UPLOAD_TIMESTAMP_BOOT_ONCE
  -------         PROC          UPLOAD_INDOOR_UNIT
  -------         DO            
  X:8C60H         SYMBOL        mode1
  X:8C62H         SYMBOL        i
  X:8C63H         SYMBOL        num
  X:9274H         SYMBOL        s_shadow
  B:0024H.2       SYMBOL        s_valid
  -------         ENDDO         
  C:7538H         LINE#         118
  C:7538H         LINE#         119
  C:7538H         LINE#         120
  C:753FH         LINE#         121
  C:7541H         LINE#         122
  C:7553H         LINE#         126
  C:7569H         LINE#         127
  C:7569H         LINE#         128
  C:757DH         LINE#         129
  C:7598H         LINE#         130
  C:75B0H         LINE#         131
  C:75D2H         LINE#         132
  C:75EBH         LINE#         133
  C:75F2H         LINE#         134
  C:7607H         LINE#         135
  C:7622H         LINE#         136
  C:762DH         LINE#         137
  C:7636H         LINE#         138
  C:763CH         LINE#         139
  C:7646H         LINE#         140
  C:764CH         LINE#         141
  C:7656H         LINE#         142
  C:765CH         LINE#         143
  C:7666H         LINE#         144
  C:766CH         LINE#         145
  C:7672H         LINE#         146
  C:768AH         LINE#         147
  C:76A5H         LINE#         148
  C:76BDH         LINE#         149
  C:76D8H         LINE#         150
  C:76ECH         LINE#         151
  C:76F5H         LINE#         152
  C:76F8H         LINE#         153
  C:76F8H         LINE#         154
  C:770DH         LINE#         155
  C:770DH         LINE#         156
  C:7728H         LINE#         157
  C:7728H         LINE#         158
  C:7730H         LINE#         159
  C:773BH         LINE#         161
  C:773BH         LINE#         162
  C:774DH         LINE#         163
  C:776EH         LINE#         164
  C:7770H         LINE#         165
  C:7784H         LINE#         166
  -------         ENDPROC       UPLOAD_INDOOR_UNIT
BL51 BANKED LINKER/LOCATER V6.22.2.0                                                  06/18/2026  10:05:40  PAGE 119


  -------         PROC          UPLOAD_INSIDE_TIME_OPEN
  -------         DO            
  X:8C33H         SYMBOL        num
  X:8C3BH         SYMBOL        mode1
  X:8C3DH         SYMBOL        i
  X:9298H         SYMBOL        s_shadow
  B:0024H.3       SYMBOL        s_valid
  -------         ENDDO         
  C:85C6H         LINE#         168
  C:85C6H         LINE#         169
  C:85C6H         LINE#         170
  C:85D9H         LINE#         171
  C:85E0H         LINE#         172
  C:85E2H         LINE#         176
  C:85FAH         LINE#         177
  C:8603H         LINE#         178
  C:861CH         LINE#         179
  C:8625H         LINE#         180
  C:863EH         LINE#         181
  C:8647H         LINE#         183
  C:865AH         LINE#         184
  C:865AH         LINE#         185
  C:8675H         LINE#         186
  C:867FH         LINE#         187
  C:8698H         LINE#         188
  C:86A0H         LINE#         189
  C:86B9H         LINE#         190
  C:86C2H         LINE#         191
  C:86DBH         LINE#         192
  C:86EBH         LINE#         193
  C:8704H         LINE#         194
  C:870EH         LINE#         195
  C:8716H         LINE#         196
  C:8719H         LINE#         197
  C:8719H         LINE#         198
  C:872EH         LINE#         199
  C:872EH         LINE#         200
  C:8749H         LINE#         201
  C:8749H         LINE#         202
  C:8751H         LINE#         203
  C:875CH         LINE#         205
  C:875CH         LINE#         206
  C:876EH         LINE#         207
  C:878FH         LINE#         208
  C:8791H         LINE#         209
  C:87A5H         LINE#         210
  -------         ENDPROC       UPLOAD_INSIDE_TIME_OPEN
  -------         PROC          UPLOAD_EXTERNAL_TIME_OPEN
  -------         DO            
  X:8C33H         SYMBOL        num
  X:8C39H         SYMBOL        mode1
  X:8C3BH         SYMBOL        i
  X:92A0H         SYMBOL        s_shadow
  B:0024H.4       SYMBOL        s_valid
  -------         ENDDO         
  C:7BECH         LINE#         212
  C:7BECH         LINE#         213
BL51 BANKED LINKER/LOCATER V6.22.2.0                                                  06/18/2026  10:05:40  PAGE 120


  C:7BECH         LINE#         214
  C:7BFFH         LINE#         215
  C:7C06H         LINE#         216
  C:7C08H         LINE#         220
  C:7C20H         LINE#         221
  C:7C29H         LINE#         222
  C:7C42H         LINE#         223
  C:7C4BH         LINE#         224
  C:7C64H         LINE#         225
  C:7C6DH         LINE#         227
  C:7C81H         LINE#         228
  C:7C81H         LINE#         229
  C:7C9CH         LINE#         230
  C:7CA8H         LINE#         231
  C:7CC2H         LINE#         232
  C:7CCAH         LINE#         233
  C:7CE3H         LINE#         234
  C:7CEFH         LINE#         235
  C:7CF5H         LINE#         236
  C:7D0EH         LINE#         237
  C:7D17H         LINE#         238
  C:7D30H         LINE#         239
  C:7D3BH         LINE#         240
  C:7D43H         LINE#         241
  C:7D49H         LINE#         242
  C:7D51H         LINE#         243
  C:7D57H         LINE#         244
  C:7D5CH         LINE#         245
  C:7D5FH         LINE#         246
  C:7D5FH         LINE#         247
  C:7D74H         LINE#         248
  C:7D74H         LINE#         249
  C:7D8FH         LINE#         250
  C:7D8FH         LINE#         251
  C:7D97H         LINE#         252
  C:7DA2H         LINE#         254
  C:7DA2H         LINE#         255
  C:7DB4H         LINE#         256
  C:7DD5H         LINE#         257
  C:7DD7H         LINE#         258
  C:7DEBH         LINE#         259
  -------         ENDPROC       UPLOAD_EXTERNAL_TIME_OPEN
  -------         PROC          UPLOAD_INSIDE_TIME_CLOSE
  -------         DO            
  X:8C33H         SYMBOL        mode1
  X:8C35H         SYMBOL        num
  D:0007H         SYMBOL        i
  X:92A6H         SYMBOL        s_shadow
  B:0024H.5       SYMBOL        s_valid
  -------         ENDDO         
  C:B3B9H         LINE#         261
  C:B3B9H         LINE#         262
  C:B3B9H         LINE#         263
  C:B3C0H         LINE#         264
  C:B3D2H         LINE#         269
  C:B3EBH         LINE#         270
  C:B3F2H         LINE#         271
BL51 BANKED LINKER/LOCATER V6.22.2.0                                                  06/18/2026  10:05:40  PAGE 121


  C:B40BH         LINE#         272
  C:B414H         LINE#         273
  C:B42DH         LINE#         274
  C:B436H         LINE#         275
  C:B45DH         LINE#         277
  C:B469H         LINE#         278
  C:B484H         LINE#         279
  C:B486H         LINE#         280
  C:B49AH         LINE#         281
  -------         ENDPROC       UPLOAD_INSIDE_TIME_CLOSE
  -------         PROC          UPLOAD_EXTERNAL_TIME_CLOSE
  -------         DO            
  X:8C33H         SYMBOL        mode1
  X:8C35H         SYMBOL        num
  D:0007H         SYMBOL        i
  X:92A9H         SYMBOL        s_shadow
  B:0024H.6       SYMBOL        s_valid
  -------         ENDDO         
  C:B49BH         LINE#         283
  C:B49BH         LINE#         284
  C:B49BH         LINE#         285
  C:B4A2H         LINE#         286
  C:B4B4H         LINE#         291
  C:B4CDH         LINE#         292
  C:B4D4H         LINE#         293
  C:B4EDH         LINE#         294
  C:B4F6H         LINE#         295
  C:B50FH         LINE#         296
  C:B518H         LINE#         297
  C:B53FH         LINE#         299
  C:B54BH         LINE#         300
  C:B566H         LINE#         301
  C:B568H         LINE#         302
  C:B57CH         LINE#         303
  -------         ENDPROC       UPLOAD_EXTERNAL_TIME_CLOSE
  -------         PROC          UPLOAD_CHECK_STATUS
  -------         DO            
  X:9350H         SYMBOL        buf
  X:939BH         SYMBOL        i
  X:92ACH         SYMBOL        s_shadow
  B:0024H.7       SYMBOL        s_valid
  -------         ENDDO         
  C:C2DBH         LINE#         305
  C:C2DBH         LINE#         306
  C:C2DBH         LINE#         312
  C:C2E6H         LINE#         313
  C:C2E9H         LINE#         314
  C:C2E9H         LINE#         315
  C:C2FEH         LINE#         316
  C:C2FEH         LINE#         317
  C:C319H         LINE#         318
  C:C319H         LINE#         319
  C:C321H         LINE#         320
  C:C32CH         LINE#         322
  C:C32CH         LINE#         323
  C:C33EH         LINE#         324
  C:C35FH         LINE#         325
BL51 BANKED LINKER/LOCATER V6.22.2.0                                                  06/18/2026  10:05:40  PAGE 122


  C:C361H         LINE#         326
  C:C375H         LINE#         327
  -------         ENDPROC       UPLOAD_CHECK_STATUS
  -------         PROC          UPLOAD_HISTORY_FAULTS
  -------         DO            
  X:8C48H         SYMBOL        buf
  X:8CC5H         SYMBOL        block
  D:0007H         SYMBOL        rec
  X:8CC6H         SYMBOL        idx
  -------         ENDDO         
  C:9699H         LINE#         329
  C:9699H         LINE#         330
  C:9699H         LINE#         334
  C:96AEH         LINE#         335
  C:96AEH         LINE#         336
  C:96BAH         LINE#         337
  C:96C9H         LINE#         338
  C:96D8H         LINE#         339
  C:96D8H         LINE#         340
  C:96E3H         LINE#         341
  C:9706H         LINE#         342
  C:9706H         LINE#         343
  C:971BH         LINE#         344
  C:973CH         LINE#         345
  C:9761H         LINE#         346
  C:9782H         LINE#         347
  C:97A3H         LINE#         348
  C:97A7H         LINE#         349
  C:97ADH         LINE#         350
  C:97BFH         LINE#         351
  C:97C7H         LINE#         352
  C:97D9H         LINE#         353
  C:97EAH         LINE#         354
  C:97F3H         LINE#         356
  C:97FEH         LINE#         357
  C:9807H         LINE#         358
  -------         ENDPROC       UPLOAD_HISTORY_FAULTS
  -------         PROC          UPLOAD_ALL_TIMERS
  C:E9A5H         LINE#         360
  C:E9A5H         LINE#         361
  C:E9A5H         LINE#         362
  C:E9A8H         LINE#         363
  C:E9ABH         LINE#         364
  C:E9AEH         LINE#         365
  -------         ENDPROC       UPLOAD_ALL_TIMERS
  -------         PROC          UPLOAD_REQUEST_REPORT
  C:EA08H         LINE#         372
  C:EA08H         LINE#         373
  C:EA08H         LINE#         374
  C:EA0EH         LINE#         375
  -------         ENDPROC       UPLOAD_REQUEST_REPORT
  -------         PROC          UPLOAD_REPORT_POLL
  C:E9B1H         LINE#         377
  C:E9B1H         LINE#         378
  C:E9B1H         LINE#         379
  C:E9B7H         LINE#         381
  C:E9B9H         LINE#         382
BL51 BANKED LINKER/LOCATER V6.22.2.0                                                  06/18/2026  10:05:40  PAGE 123


  C:E9BCH         LINE#         383
  -------         ENDPROC       UPLOAD_REPORT_POLL
  -------         PROC          _UPLOAD_MODETODP101
  D:0007H         SYMBOL        mode
  C:E724H         LINE#         385
  C:E724H         LINE#         386
  C:E724H         LINE#         387
  C:E730H         LINE#         388
  C:E730H         LINE#         389
  C:E733H         LINE#         390
  C:E736H         LINE#         391
  C:E739H         LINE#         392
  C:E73BH         LINE#         393
  C:E73BH         LINE#         394
  -------         ENDPROC       _UPLOAD_MODETODP101
  -------         PROC          _UPLOAD_WORKSTATETODP
  D:0007H         SYMBOL        mode
  C:E69AH         LINE#         396
  C:E69AH         LINE#         397
  C:E69AH         LINE#         398
  C:E6A9H         LINE#         399
  C:E6A9H         LINE#         400
  C:E6ACH         LINE#         401
  C:E6AFH         LINE#         402
  C:E6B2H         LINE#         403
  C:E6B5H         LINE#         404
  -------         ENDPROC       _UPLOAD_WORKSTATETODP
  -------         PROC          _UPLOAD_BOOLIFCHANGED
  D:0007H         SYMBOL        dpid
  D:0005H         SYMBOL        val
  D:0001H         SYMBOL        shadow
  C:E82DH         LINE#         409
  C:E82DH         LINE#         410
  C:E82DH         LINE#         411
  C:E839H         LINE#         413
  C:E83DH         LINE#         414
  C:E840H         LINE#         415
  -------         ENDPROC       _UPLOAD_BOOLIFCHANGED
  -------         PROC          _UPLOAD_ENUMIFCHANGED
  D:0007H         SYMBOL        dpid
  D:0005H         SYMBOL        val
  D:0001H         SYMBOL        shadow
  C:E841H         LINE#         417
  C:E841H         LINE#         418
  C:E841H         LINE#         419
  C:E84DH         LINE#         421
  C:E851H         LINE#         422
  C:E854H         LINE#         423
  -------         ENDPROC       _UPLOAD_ENUMIFCHANGED
  -------         PROC          _UPLOAD_VALUEIFCHANGED
  X:957CH         SYMBOL        dpid
  X:957DH         SYMBOL        val
  X:9581H         SYMBOL        shadow
  C:D2DAH         LINE#         425
  C:D2DFH         LINE#         426
  C:D2DFH         LINE#         427
  C:D307H         LINE#         429
BL51 BANKED LINKER/LOCATER V6.22.2.0                                                  06/18/2026  10:05:40  PAGE 124


  C:D321H         LINE#         430
  C:D33DH         LINE#         431
  -------         ENDPROC       _UPLOAD_VALUEIFCHANGED
  -------         PROC          UPLOAD_REPORT_FORCE_SYNC
  C:EA0FH         LINE#         433
  C:EA0FH         LINE#         434
  C:EA0FH         LINE#         435
  C:EA15H         LINE#         436
  -------         ENDPROC       UPLOAD_REPORT_FORCE_SYNC
  -------         ENDMOD        UPLOAD

  -------         MODULE        WIFIPRO
  C:0000H         SYMBOL        _ICE_DUMMY_
  D:0080H         PUBLIC        P0
  C:EA28H         PUBLIC        Wifi_Init
  D:00F8H         PUBLIC        RAMMODE
  D:00A8H         PUBLIC        IEN0
  D:00B8H         PUBLIC        IEN1
  D:0088H         PUBLIC        TCON
  D:0098H         PUBLIC        SCON0
  D:00C8H         PUBLIC        T2CON
  D:00D0H         PUBLIC        PSW
  D:00C0H         PUBLIC        IRCON
  -------         PROC          WIFI_INIT
  C:EA28H         LINE#         12
  C:EA28H         LINE#         13
  C:EA28H         LINE#         14
  C:EA2BH         LINE#         15
  -------         ENDPROC       WIFI_INIT
  -------         ENDMOD        WIFIPRO

  -------         MODULE        OTA
  C:0000H         SYMBOL        _ICE_DUMMY_
  D:0080H         PUBLIC        P0
  B:0025H.6       PUBLIC        OTAReloading
  B:0025H.7       PUBLIC        OTAStartReply
  D:00F8H         PUBLIC        RAMMODE
  X:953BH         PUBLIC        OTAStartSendTimes
  D:00A8H         PUBLIC        IEN0
  D:00B8H         PUBLIC        IEN1
  B:0026H.0       PUBLIC        TuyaOTAState
  C:E4CCH         PUBLIC        OTAinit
  X:953CH         PUBLIC        TuyaOTADisConnectCnt
  C:E63CH         PUBLIC        OTARecvPro
  D:0088H         PUBLIC        TCON
  X:953EH         PUBLIC        OTA_ModbusStep
  X:953FH         PUBLIC        OTAModbusRecvDelay
  X:9541H         PUBLIC        OTA_ModbusSendStep
  C:C9D9H         PUBLIC        OTADecodePro
  X:9542H         PUBLIC        OTAModbusRecvIndex
  D:0098H         PUBLIC        SCON0
  X:9544H         PUBLIC        OTAModbusRecvLenth
  X:9545H         PUBLIC        OTA_ModbusRecvStep
  C:E73CH         PUBLIC        OTA_ModbusPro
  D:00C8H         PUBLIC        T2CON
  C:5D4CH         PUBLIC        OTAEncodePro
  B:0026H.1       PUBLIC        OTAReply
BL51 BANKED LINKER/LOCATER V6.22.2.0                                                  06/18/2026  10:05:40  PAGE 125


  D:00D0H         PUBLIC        PSW
  D:00C0H         PUBLIC        IRCON
  -------         PROC          OTAINIT
  -------         DO            
  D:0006H         SYMBOL        i
  -------         ENDDO         
  C:E4CCH         LINE#         44
  C:E4CCH         LINE#         45
  C:E4CCH         LINE#         47
  C:E4CCH         LINE#         48
  C:E4CCH         LINE#         49
  C:E4DAH         LINE#         50
  C:E4DAH         LINE#         51
  C:E4DFH         LINE#         52
  C:E4E3H         LINE#         53
  C:E4E7H         LINE#         54
  C:E4E9H         LINE#         55
  C:E4EDH         LINE#         56
  C:E4F1H         LINE#         57
  -------         ENDPROC       OTAINIT
  -------         PROC          OTA_MODBUSPRO
  C:E73CH         LINE#         58
  C:E73CH         LINE#         59
  C:E73CH         LINE#         60
  C:E74AH         LINE#         61
  C:E74AH         LINE#         62
  C:E74AH         LINE#         63
  C:E74DH         LINE#         64
  C:E74DH         LINE#         65
  C:E74DH         LINE#         66
  C:E750H         LINE#         67
  C:E750H         LINE#         68
  C:E750H         LINE#         69
  C:E753H         LINE#         70
  C:E753H         LINE#         71
  C:E753H         LINE#         72
  -------         ENDPROC       OTA_MODBUSPRO
  -------         PROC          OTAENCODEPRO
  -------         DO            
  X:95C8H         SYMBOL        SendIndex
  X:95CAH         SYMBOL        Crc
  D:0006H         SYMBOL        i
  -------         ENDDO         
  C:5D4CH         LINE#         73
  C:5D4CH         LINE#         74
  C:5D4CH         LINE#         75
  C:5D59H         LINE#         76
  C:5D62H         LINE#         77
  C:5D62H         LINE#         78
  C:5D74H         LINE#         79
  C:5D74H         LINE#         80
  C:5D8DH         LINE#         81
  C:5DA6H         LINE#         82
  C:5DBFH         LINE#         83
  C:5DCFH         LINE#         84
  C:5DCFH         LINE#         85
  C:5DD4H         LINE#         86
BL51 BANKED LINKER/LOCATER V6.22.2.0                                                  06/18/2026  10:05:40  PAGE 126


  C:5DD6H         LINE#         87
  C:5DD9H         LINE#         88
  C:5DD9H         LINE#         89
  C:5DDFH         LINE#         90
  C:5DE1H         LINE#         92
  C:5DE1H         LINE#         93
  C:5DEAH         LINE#         94
  C:5DEAH         LINE#         95
  C:5DECH         LINE#         96
  C:5DF2H         LINE#         97
  C:5DF3H         LINE#         99
  C:5DF3H         LINE#         100
  C:5E03H         LINE#         101
  C:5E03H         LINE#         102
  C:5E03H         LINE#         103
  C:5E09H         LINE#         104
  C:5E22H         LINE#         105
  C:5E3BH         LINE#         106
  C:5E54H         LINE#         107
  C:5E6DH         LINE#         108
  C:5E85H         LINE#         109
  C:5E9DH         LINE#         110
  C:5EC8H         LINE#         111
  C:5EF5H         LINE#         112
  C:5F20H         LINE#         113
  C:5F40H         LINE#         114
  C:5F58H         LINE#         115
  C:5F83H         LINE#         116
  C:5F9CH         LINE#         117
  C:5FB5H         LINE#         118
  C:5FB8H         LINE#         119
  C:5FB8H         LINE#         120
  C:5FD1H         LINE#         121
  C:5FEAH         LINE#         122
  C:6015H         LINE#         123
  C:6035H         LINE#         124
  C:6038H         LINE#         125
  C:6038H         LINE#         126
  C:605CH         LINE#         127
  C:6069H         LINE#         128
  C:6069H         LINE#         129
  C:6069H         LINE#         130
  C:6088H         LINE#         131
  C:60A8H         LINE#         132
  C:60C2H         LINE#         133
  C:60D3H         LINE#         134
  C:60D9H         LINE#         135
  C:60D9H         LINE#         136
  C:60D9H         LINE#         137
  -------         ENDPROC       OTAENCODEPRO
  -------         PROC          OTARECVPRO
  C:E63CH         LINE#         138
  C:E63CH         LINE#         139
  C:E63CH         LINE#         140
  C:E648H         LINE#         141
  C:E648H         LINE#         142
  C:E64DH         LINE#         143
BL51 BANKED LINKER/LOCATER V6.22.2.0                                                  06/18/2026  10:05:40  PAGE 127


  C:E655H         LINE#         144
  C:E65BH         LINE#         145
  C:E65BH         LINE#         146
  -------         ENDPROC       OTARECVPRO
  -------         PROC          OTADECODEPRO
  -------         DO            
  D:0006H         SYMBOL        Crc
  -------         ENDDO         
  C:C9D9H         LINE#         147
  C:C9D9H         LINE#         148
  C:C9D9H         LINE#         149
  C:C9DBH         LINE#         150
  C:C9EFH         LINE#         151
  C:CA11H         LINE#         152
  C:CA11H         LINE#         153
  C:CA11H         LINE#         154
  C:CA13H         LINE#         156
  C:CA13H         LINE#         157
  C:CA46H         LINE#         158
  C:CA46H         LINE#         159
  C:CA48H         LINE#         160
  C:CA4AH         LINE#         161
  C:CA4AH         LINE#         162
  C:CA4FH         LINE#         163
  C:CA53H         LINE#         164
  -------         ENDPROC       OTADECODEPRO
  -------         ENDMOD        OTA

  -------         MODULE        MCU_API
  C:0000H         SYMBOL        _ICE_DUMMY_
  C:EA2EH         PUBLIC        mcu_get_reset_wifi_flag
  D:00F8H         PUBLIC        RAMMODE
  D:00A8H         PUBLIC        IEN0
  D:00B8H         PUBLIC        IEN1
  C:E782H         PUBLIC        _mcu_set_wifi_mode
  C:D51AH         PUBLIC        _mcu_dp_raw_update
  C:CD83H         PUBLIC        _hex_to_bcd
  C:BD19H         PUBLIC        _uart_receive_input
  C:EA34H         PUBLIC        mcu_get_wifimode_flag
  C:E430H         PUBLIC        wifi_protocol_init
  C:DDF4H         PUBLIC        _uart_receive_buff_input
  C:E799H         PUBLIC        mcu_get_wifi_work_state
  C:81E1H         PUBLIC        wifi_uart_service
  C:A2EEH         PUBLIC        _byte_to_int
  C:D3A1H         PUBLIC        _int_to_byte
  C:E9D2H         PUBLIC        mcu_start_wifitest
  D:0088H         PUBLIC        TCON
  C:9ADBH         PUBLIC        _my_memcpy
  C:D5D0H         PUBLIC        _my_memset
  C:E9BDH         PUBLIC        _mcu_get_dp_download_value
  C:E76BH         PUBLIC        mcu_reset_wifi
  C:D575H         PUBLIC        _mcu_dp_string_update
  C:9C42H         PUBLIC        _mcu_dp_fault_update
  C:CB45H         PUBLIC        _my_strlen
  D:0098H         PUBLIC        SCON0
  C:BE70H         PUBLIC        _mcu_dp_value_update
  C:CC2EH         PUBLIC        _my_strcmp
BL51 BANKED LINKER/LOCATER V6.22.2.0                                                  06/18/2026  10:05:40  PAGE 128


  D:00C8H         PUBLIC        T2CON
  C:E973H         PUBLIC        _mcu_get_dp_download_bool
  C:C64AH         PUBLIC        _my_strcpy
  C:DCA9H         PUBLIC        _mcu_dp_bool_update
  C:E980H         PUBLIC        _mcu_get_dp_download_enum
  D:00D0H         PUBLIC        PSW
  C:DEAFH         PUBLIC        _mcu_dp_enum_update
  D:00C0H         PUBLIC        IRCON
  -------         PROC          _HEX_TO_BCD
  D:0007H         SYMBOL        Value_H
  D:0005H         SYMBOL        Value_L
  -------         DO            
  D:0007H         SYMBOL        bcd_value
  -------         ENDDO         
  C:CD83H         LINE#         31
  C:CD83H         LINE#         32
  C:CD83H         LINE#         35
  C:CD8FH         LINE#         36
  C:CD95H         LINE#         37
  C:CDA1H         LINE#         38
  C:CDA7H         LINE#         39
  C:CDB3H         LINE#         40
  C:CDB7H         LINE#         42
  C:CDBAH         LINE#         44
  C:CDBEH         LINE#         45
  C:CDCAH         LINE#         46
  C:CDD0H         LINE#         47
  C:CDDCH         LINE#         48
  C:CDDEH         LINE#         49
  C:CDEAH         LINE#         50
  C:CDEEH         LINE#         52
  C:CDF3H         LINE#         54
  C:CDF3H         LINE#         55
  -------         ENDPROC       _HEX_TO_BCD
  -------         PROC          _MY_STRLEN
  X:8C46H         SYMBOL        str
  -------         DO            
  X:8C49H         SYMBOL        len
  -------         ENDDO         
  C:CB45H         LINE#         62
  C:CB50H         LINE#         63
  C:CB50H         LINE#         64
  C:CB58H         LINE#         65
  C:CB66H         LINE#         66
  C:CB6BH         LINE#         67
  C:CB6BH         LINE#         69
  C:CB8AH         LINE#         70
  C:CBA9H         LINE#         71
  C:CBABH         LINE#         73
  C:CBB9H         LINE#         74
  -------         ENDPROC       _MY_STRLEN
  -------         PROC          _MY_MEMSET
  X:9562H         SYMBOL        src
  D:0005H         SYMBOL        ch
  X:9566H         SYMBOL        count
  -------         DO            
  X:9568H         SYMBOL        tmp
BL51 BANKED LINKER/LOCATER V6.22.2.0                                                  06/18/2026  10:05:40  PAGE 129


  -------         ENDDO         
  C:D5D0H         LINE#         83
  C:D5DBH         LINE#         84
  C:D5DBH         LINE#         85
  C:D5E6H         LINE#         87
  C:D5F4H         LINE#         88
  C:D5F8H         LINE#         89
  C:D5F8H         LINE#         91
  C:D606H         LINE#         92
  C:D61AH         LINE#         93
  C:D61CH         LINE#         95
  C:D627H         LINE#         96
  -------         ENDPROC       _MY_MEMSET
  -------         PROC          _MY_MEMCPY
  X:8CD4H         SYMBOL        dest
  X:8CD7H         SYMBOL        src
  X:8CDAH         SYMBOL        count
  -------         DO            
  X:8CDCH         SYMBOL        pdest
  X:8CDFH         SYMBOL        psrc
  X:8CE2H         SYMBOL        i
  -------         ENDDO         
  C:9ADBH         LINE#         105
  C:9AE6H         LINE#         106
  C:9AE6H         LINE#         107
  C:9AF1H         LINE#         108
  C:9B06H         LINE#         111
  C:9B20H         LINE#         112
  C:9B27H         LINE#         113
  C:9B27H         LINE#         115
  C:9B83H         LINE#         116
  C:9BA3H         LINE#         117
  C:9BC9H         LINE#         118
  C:9BD9H         LINE#         119
  C:9BD9H         LINE#         120
  C:9BF8H         LINE#         121
  C:9C26H         LINE#         122
  C:9C36H         LINE#         123
  C:9C36H         LINE#         125
  C:9C41H         LINE#         126
  -------         ENDPROC       _MY_MEMCPY
  -------         PROC          _MY_STRCPY
  X:956BH         SYMBOL        dest
  X:956EH         SYMBOL        src
  -------         DO            
  X:9571H         SYMBOL        p
  -------         ENDDO         
  C:C64AH         LINE#         134
  C:C655H         LINE#         135
  C:C655H         LINE#         136
  C:C660H         LINE#         138
  C:C67AH         LINE#         139
  C:C681H         LINE#         140
  C:C681H         LINE#         143
  C:C691H         LINE#         144
  C:C6B7H         LINE#         145
  C:C6B9H         LINE#         146
BL51 BANKED LINKER/LOCATER V6.22.2.0                                                  06/18/2026  10:05:40  PAGE 130


  C:C6C8H         LINE#         147
  C:C6D3H         LINE#         148
  -------         ENDPROC       _MY_STRCPY
  -------         PROC          _MY_STRCMP
  X:9598H         SYMBOL        s1
  X:959BH         SYMBOL        s2
  C:CC2EH         LINE#         159
  C:CC39H         LINE#         160
  C:CC39H         LINE#         161
  C:CC5DH         LINE#         162
  C:CC67H         LINE#         163
  C:CC71H         LINE#         164
  C:CC73H         LINE#         165
  C:CCA0H         LINE#         166
  -------         ENDPROC       _MY_STRCMP
  -------         PROC          _INT_TO_BYTE
  X:95CCH         SYMBOL        number
  D:0001H         SYMBOL        value
  C:D3A1H         LINE#         174
  C:D3A7H         LINE#         175
  C:D3A7H         LINE#         176
  C:D3BEH         LINE#         177
  C:D3D8H         LINE#         178
  C:D3F2H         LINE#         179
  -------         ENDPROC       _INT_TO_BYTE
  -------         PROC          _BYTE_TO_INT
  X:8C53H         SYMBOL        value
  -------         DO            
  X:8C56H         SYMBOL        nubmer
  -------         ENDDO         
  C:A2EEH         LINE#         187
  C:A2F9H         LINE#         188
  C:A2F9H         LINE#         189
  C:A301H         LINE#         191
  C:A30FH         LINE#         192
  C:A328H         LINE#         193
  C:A367H         LINE#         194
  C:A380H         LINE#         195
  C:A3BFH         LINE#         196
  C:A3D8H         LINE#         197
  C:A417H         LINE#         199
  C:A425H         LINE#         200
  -------         ENDPROC       _BYTE_TO_INT
  -------         PROC          _MCU_DP_RAW_UPDATE
  D:0005H         SYMBOL        dpid
  X:8CC8H         SYMBOL        value
  X:8CCBH         SYMBOL        len
  -------         DO            
  D:0006H         SYMBOL        send_len
  -------         ENDDO         
  C:D51AH         LINE#         210
  C:D527H         LINE#         211
  C:D527H         LINE#         212
  C:D52AH         LINE#         214
  C:D532H         LINE#         215
  C:D534H         LINE#         217
  C:D537H         LINE#         218
BL51 BANKED LINKER/LOCATER V6.22.2.0                                                  06/18/2026  10:05:40  PAGE 131


  C:D53CH         LINE#         220
  C:D544H         LINE#         221
  C:D54CH         LINE#         223
  C:D567H         LINE#         225
  C:D572H         LINE#         227
  C:D574H         LINE#         228
  -------         ENDPROC       _MCU_DP_RAW_UPDATE
  -------         PROC          _MCU_DP_BOOL_UPDATE
  D:0004H         SYMBOL        dpid
  X:8C4FH         SYMBOL        value
  -------         DO            
  D:0006H         SYMBOL        send_len
  -------         ENDDO         
  C:DCA9H         LINE#         237
  C:DCB0H         LINE#         238
  C:DCB0H         LINE#         239
  C:DCB3H         LINE#         241
  C:DCBBH         LINE#         242
  C:DCBDH         LINE#         244
  C:DCC2H         LINE#         245
  C:DCC7H         LINE#         247
  C:DCCCH         LINE#         248
  C:DCD1H         LINE#         250
  C:DCD7H         LINE#         251
  C:DCD8H         LINE#         252
  C:DCDAH         LINE#         253
  C:DCDFH         LINE#         254
  C:DCDFH         LINE#         256
  C:DCEAH         LINE#         258
  C:DCECH         LINE#         259
  -------         ENDPROC       _MCU_DP_BOOL_UPDATE
  -------         PROC          _MCU_DP_VALUE_UPDATE
  D:0005H         SYMBOL        dpid
  X:8C52H         SYMBOL        value
  -------         DO            
  D:0006H         SYMBOL        send_len
  -------         ENDDO         
  C:BE70H         LINE#         268
  C:BE72H         LINE#         269
  C:BE72H         LINE#         270
  C:BE75H         LINE#         272
  C:BE7DH         LINE#         273
  C:BE7FH         LINE#         275
  C:BE82H         LINE#         276
  C:BE87H         LINE#         278
  C:BE8CH         LINE#         279
  C:BE91H         LINE#         281
  C:BEB1H         LINE#         282
  C:BED1H         LINE#         283
  C:BEF1H         LINE#         284
  C:BF09H         LINE#         286
  C:BF14H         LINE#         288
  C:BF16H         LINE#         289
  -------         ENDPROC       _MCU_DP_VALUE_UPDATE
  -------         PROC          _MCU_DP_STRING_UPDATE
  D:0005H         SYMBOL        dpid
  X:8C5DH         SYMBOL        value
BL51 BANKED LINKER/LOCATER V6.22.2.0                                                  06/18/2026  10:05:40  PAGE 132


  X:8C60H         SYMBOL        len
  -------         DO            
  D:0006H         SYMBOL        send_len
  -------         ENDDO         
  C:D575H         LINE#         299
  C:D582H         LINE#         300
  C:D582H         LINE#         301
  C:D585H         LINE#         303
  C:D58DH         LINE#         304
  C:D58FH         LINE#         306
  C:D592H         LINE#         307
  C:D597H         LINE#         309
  C:D59FH         LINE#         310
  C:D5A7H         LINE#         312
  C:D5C2H         LINE#         314
  C:D5CDH         LINE#         316
  C:D5CFH         LINE#         317
  -------         ENDPROC       _MCU_DP_STRING_UPDATE
  -------         PROC          _MCU_DP_ENUM_UPDATE
  D:0004H         SYMBOL        dpid
  X:8C4FH         SYMBOL        value
  -------         DO            
  D:0006H         SYMBOL        send_len
  -------         ENDDO         
  C:DEAFH         LINE#         326
  C:DEB6H         LINE#         327
  C:DEB6H         LINE#         328
  C:DEB9H         LINE#         330
  C:DEC1H         LINE#         331
  C:DEC3H         LINE#         333
  C:DEC8H         LINE#         334
  C:DECDH         LINE#         336
  C:DED2H         LINE#         337
  C:DED7H         LINE#         339
  C:DEDFH         LINE#         341
  C:DEEAH         LINE#         343
  C:DEECH         LINE#         344
  -------         ENDPROC       _MCU_DP_ENUM_UPDATE
  -------         PROC          _MCU_DP_FAULT_UPDATE
  D:0005H         SYMBOL        dpid
  X:958CH         SYMBOL        value
  -------         DO            
  X:9590H         SYMBOL        send_len
  -------         ENDDO         
  C:9C42H         LINE#         353
  C:9C44H         LINE#         354
  C:9C44H         LINE#         355
  C:9C4BH         LINE#         357
  C:9C53H         LINE#         358
  C:9C56H         LINE#         360
  C:9C69H         LINE#         361
  C:9C76H         LINE#         363
  C:9C83H         LINE#         365
  C:9C9EH         LINE#         366
  C:9CB3H         LINE#         367
  C:9CBBH         LINE#         368
  C:9CDCH         LINE#         369
BL51 BANKED LINKER/LOCATER V6.22.2.0                                                  06/18/2026  10:05:40  PAGE 133


  C:9CE3H         LINE#         370
  C:9CE3H         LINE#         371
  C:9CE3H         LINE#         372
  C:9CE5H         LINE#         373
  C:9CF7H         LINE#         374
  C:9D1FH         LINE#         375
  C:9D47H         LINE#         376
  C:9D6FH         LINE#         377
  C:9D8FH         LINE#         378
  C:9D8FH         LINE#         380
  C:9D9EH         LINE#         382
  C:9DA0H         LINE#         383
  -------         ENDPROC       _MCU_DP_FAULT_UPDATE
  -------         PROC          _MCU_GET_DP_DOWNLOAD_BOOL
  D:0001H         SYMBOL        value
  X:8C4CH         SYMBOL        len
  C:E973H         LINE#         577
  C:E97BH         LINE#         578
  C:E97BH         LINE#         579
  C:E97FH         LINE#         580
  -------         ENDPROC       _MCU_GET_DP_DOWNLOAD_BOOL
  -------         PROC          _MCU_GET_DP_DOWNLOAD_ENUM
  D:0001H         SYMBOL        value
  X:8C4AH         SYMBOL        len
  C:E980H         LINE#         589
  C:E988H         LINE#         590
  C:E988H         LINE#         591
  C:E98CH         LINE#         592
  -------         ENDPROC       _MCU_GET_DP_DOWNLOAD_ENUM
  -------         PROC          _MCU_GET_DP_DOWNLOAD_VALUE
  D:0001H         SYMBOL        value
  X:8C51H         SYMBOL        len
  C:E9BDH         LINE#         601
  C:E9C5H         LINE#         602
  C:E9C5H         LINE#         603
  -------         ENDPROC       _MCU_GET_DP_DOWNLOAD_VALUE
  -------         PROC          _UART_RECEIVE_INPUT
  X:8DF0H         SYMBOL        value
  C:BD19H         LINE#         612
  C:BD1EH         LINE#         613
  C:BD1EH         LINE#         616
  C:BD40H         LINE#         618
  C:BD8AH         LINE#         620
  C:BD8AH         LINE#         622
  C:BD9DH         LINE#         623
  C:BDABH         LINE#         624
  C:BDABH         LINE#         626
  C:BDC4H         LINE#         627
  C:BDC4H         LINE#         628
  -------         ENDPROC       _UART_RECEIVE_INPUT
  -------         PROC          _UART_RECEIVE_BUFF_INPUT
  X:95B7H         SYMBOL        value
  X:95BAH         SYMBOL        data_len
  -------         DO            
  D:0004H         SYMBOL        i
  -------         ENDDO         
  C:DDF4H         LINE#         637
BL51 BANKED LINKER/LOCATER V6.22.2.0                                                  06/18/2026  10:05:40  PAGE 134


  C:DE05H         LINE#         638
  C:DE05H         LINE#         641
  C:DE08H         LINE#         642
  C:DE15H         LINE#         643
  C:DE2BH         LINE#         644
  C:DE32H         LINE#         645
  -------         ENDPROC       _UART_RECEIVE_BUFF_INPUT
  -------         PROC          WIFI_UART_SERVICE
  -------         DO            
  X:95DCH         SYMBOL        rx_in
  X:8C22H         SYMBOL        offset
  X:8C24H         SYMBOL        rx_value_len
  -------         ENDDO         
  C:81E1H         LINE#         653
  C:81E1H         LINE#         654
  C:81E1H         LINE#         657
  C:81E8H         LINE#         658
  C:81ECH         LINE#         660
  C:8208H         LINE#         661
  C:8223H         LINE#         662
  C:8225H         LINE#         664
  C:8237H         LINE#         667
  C:8258H         LINE#         668
  C:8267H         LINE#         669
  C:8275H         LINE#         670
  C:8277H         LINE#         671
  C:8277H         LINE#         673
  C:828DH         LINE#         674
  C:829BH         LINE#         675
  C:829DH         LINE#         676
  C:829DH         LINE#         678
  C:82AAH         LINE#         679
  C:82B0H         LINE#         680
  C:82B3H         LINE#         681
  C:82B3H         LINE#         683
  C:82CCH         LINE#         684
  C:82E9H         LINE#         685
  C:82F6H         LINE#         686
  C:82FCH         LINE#         687
  C:82FEH         LINE#         688
  C:82FEH         LINE#         690
  C:831AH         LINE#         691
  C:831AH         LINE#         692
  C:831AH         LINE#         695
  C:8360H         LINE#         698
  C:836EH         LINE#         699
  C:8371H         LINE#         700
  C:8371H         LINE#         702
  C:8374H         LINE#         703
  C:8388H         LINE#         704
  C:838BH         LINE#         706
  C:83A4H         LINE#         707
  C:83ACH         LINE#         708
  C:83D8H         LINE#         709
  C:83D8H         LINE#         710
  -------         ENDPROC       WIFI_UART_SERVICE
  -------         PROC          WIFI_PROTOCOL_INIT
BL51 BANKED LINKER/LOCATER V6.22.2.0                                                  06/18/2026  10:05:40  PAGE 135


  C:E430H         LINE#         718
  C:E430H         LINE#         719
  C:E430H         LINE#         721
  C:E43EH         LINE#         722
  C:E44CH         LINE#         724
  C:E451H         LINE#         727
  C:E457H         LINE#         729
  -------         ENDPROC       WIFI_PROTOCOL_INIT
  -------         PROC          MCU_GET_RESET_WIFI_FLAG
  C:EA2EH         LINE#         743
  C:EA2EH         LINE#         744
  C:EA2EH         LINE#         745
  C:EA33H         LINE#         746
  -------         ENDPROC       MCU_GET_RESET_WIFI_FLAG
  -------         PROC          MCU_RESET_WIFI
  C:E76BH         LINE#         755
  C:E76BH         LINE#         756
  C:E76BH         LINE#         757
  C:E770H         LINE#         759
  C:E779H         LINE#         760
  -------         ENDPROC       MCU_RESET_WIFI
  -------         PROC          MCU_GET_WIFIMODE_FLAG
  C:EA34H         LINE#         772
  C:EA34H         LINE#         773
  C:EA34H         LINE#         774
  C:EA39H         LINE#         775
  -------         ENDPROC       MCU_GET_WIFIMODE_FLAG
  -------         PROC          _MCU_SET_WIFI_MODE
  D:0005H         SYMBOL        mode
  -------         DO            
  D:0007H         SYMBOL        length
  -------         ENDDO         
  C:E782H         LINE#         787
  C:E784H         LINE#         788
  C:E784H         LINE#         789
  C:E786H         LINE#         791
  C:E78AH         LINE#         793
  C:E78EH         LINE#         795
  -------         ENDPROC       _MCU_SET_WIFI_MODE
  -------         PROC          MCU_GET_WIFI_WORK_STATE
  -------         DO            
  X:95DEH         SYMBOL        s_last
  -------         ENDDO         
  C:E799H         LINE#         811
  C:E799H         LINE#         812
  C:E799H         LINE#         818
  C:E7AAH         LINE#         820
  C:E7AFH         LINE#         821
  -------         ENDPROC       MCU_GET_WIFI_WORK_STATE
  -------         PROC          MCU_START_WIFITEST
  C:E9D2H         LINE#         857
  C:E9D2H         LINE#         858
  C:E9D2H         LINE#         859
  -------         ENDPROC       MCU_START_WIFITEST
  -------         ENDMOD        MCU_API

  -------         MODULE        PROTOCOL
BL51 BANKED LINKER/LOCATER V6.22.2.0                                                  06/18/2026  10:05:40  PAGE 136


  C:0000H         SYMBOL        _ICE_DUMMY_
  D:0080H         PUBLIC        P0
  D:00B0H         PUBLIC        P3
  C:E88EH         PUBLIC        _upgrade_package_choose
  C:DDB3H         SYMBOL        _dp_download_temp_unit_convert_handle
  D:00F8H         PUBLIC        RAMMODE
  D:00A8H         PUBLIC        IEN0
  D:00B8H         PUBLIC        IEN1
  C:C1A1H         PUBLIC        _mcu_firm_update_handle
  C:6E1CH         PUBLIC        _timestamp_to_ymdhms
  X:9126H         PUBLIC        OTAdataindex
  C:EA40H         PUBLIC        get_download_cmd_total
  C:8984H         SYMBOL        _dp_download_timestamp_handle
  C:5903H         PUBLIC        all_data_update
  X:9226H         SYMBOL        mdays
  C:E38FH         SYMBOL        _mode_map_to_dgus
  C:BF17H         SYMBOL        _dp_download_temp_set_handle
  C:EA3DH         PUBLIC        _uart_transmit_output
  C:E8D8H         PUBLIC        _file_download_handle
  X:9232H         PUBLIC        SendCnt
  D:0088H         PUBLIC        TCON
  C:B726H         SYMBOL        _dp_download_external_time_close_handle
  C:E0F0H         SYMBOL        _dp_download_defrost_handle
  C:DD62H         SYMBOL        _?ix1000
  C:DD64H         SYMBOL        _?ix1001
  C:DD6AH         SYMBOL        _?ix1002
  C:DD6CH         SYMBOL        _?ix1003
  B:0026H.3       PUBLIC        OTADataUpdate
  C:B655H         SYMBOL        _dp_download_inside_time_close_handle
  C:E6F2H         SYMBOL        _dp117_mode_to_dgus
  C:87A6H         SYMBOL        _dp_download_external_time_open_handle
  C:DEEDH         SYMBOL        _dp_download_child_lock_handle
  C:E9EFH         PUBLIC        _wifi_test_result
  C:B0F6H         SYMBOL        _dp_download_switch_handle
  X:9233H         PUBLIC        PackageNum
  C:93A1H         PUBLIC        _dp_download_handle
  D:0098H         PUBLIC        SCON0
  D:00C8H         PUBLIC        T2CON
  C:60DAH         SYMBOL        _dp_download_inside_time_open_handle
  C:B57DH         SYMBOL        _dp_download_mode_handle
  C:DFDAH         SYMBOL        _dp_download_relay_status_handle
  C:E559H         SYMBOL        _dp_download_history_fault_empty_handle
  X:9237H         PUBLIC        download_cmd
  C:E28FH         SYMBOL        _is_leap_year
  C:6BB1H         SYMBOL        _dp_download_indoor_unit_handle
  C:E8A1H         PUBLIC        _file_download_package_choose
  D:00D0H         PUBLIC        PSW
  D:00C0H         PUBLIC        IRCON
  -------         PROC          _UART_TRANSMIT_OUTPUT
  D:0007H         SYMBOL        value
  C:EA3DH         LINE#         136
  C:EA3DH         LINE#         137
  C:EA3DH         LINE#         139
  -------         ENDPROC       _UART_TRANSMIT_OUTPUT
  -------         PROC          ALL_DATA_UPDATE
  -------         DO            
  X:8C39H         SYMBOL        update_data
BL51 BANKED LINKER/LOCATER V6.22.2.0                                                  06/18/2026  10:05:40  PAGE 137


  D:0007H         SYMBOL        mode
  X:8C3BH         SYMBOL        set_temp32
  X:8C3FH         SYMBOL        set_hotwater_temp32
  X:8C43H         SYMBOL        inflow_temp32
  X:8C47H         SYMBOL        error_code
  X:8C4BH         SYMBOL        dataupdate_floattemp
  -------         ENDDO         
  C:5903H         LINE#         172
  C:5903H         LINE#         173
  C:5903H         LINE#         179
  C:5916H         LINE#         180
  C:5918H         LINE#         181
  C:5922H         LINE#         182
  C:592CH         LINE#         183
  C:5936H         LINE#         184
  C:5940H         LINE#         185
  C:594AH         LINE#         186
  C:5963H         LINE#         187
  C:596DH         LINE#         188
  C:5986H         LINE#         189
  C:598AH         LINE#         190
  C:5993H         LINE#         191
  C:5993H         LINE#         192
  C:5993H         LINE#         193
  C:5993H         LINE#         194
  C:5995H         LINE#         195
  C:5995H         LINE#         196
  C:599BH         LINE#         197
  C:599DH         LINE#         198
  C:599DH         LINE#         199
  C:59A3H         LINE#         200
  C:59A5H         LINE#         201
  C:59AAH         LINE#         203
  C:59AAH         LINE#         204
  C:59AAH         LINE#         206
  C:59B4H         LINE#         207
  C:59CDH         LINE#         208
  C:59D7H         LINE#         209
  C:59F0H         LINE#         210
  C:59FDH         LINE#         211
  C:5A1AH         LINE#         212
  C:5A33H         LINE#         213
  C:5A4CH         LINE#         214
  C:5A56H         LINE#         215
  C:5A6FH         LINE#         216
  C:5A79H         LINE#         217
  C:5A92H         LINE#         218
  C:5A9FH         LINE#         219
  C:5ABCH         LINE#         220
  C:5AD5H         LINE#         221
  C:5AEDH         LINE#         222
  C:5AF1H         LINE#         223
  C:5B01H         LINE#         224
  C:5B01H         LINE#         225
  C:5B01H         LINE#         226
  C:5B01H         LINE#         227
  C:5B03H         LINE#         228
BL51 BANKED LINKER/LOCATER V6.22.2.0                                                  06/18/2026  10:05:40  PAGE 138


  C:5B03H         LINE#         229
  C:5B09H         LINE#         230
  C:5B0BH         LINE#         231
  C:5B0BH         LINE#         232
  C:5B11H         LINE#         233
  C:5B13H         LINE#         234
  C:5B13H         LINE#         235
  C:5B19H         LINE#         236
  C:5B1BH         LINE#         237
  C:5B1BH         LINE#         238
  C:5B20H         LINE#         239
  C:5B22H         LINE#         240
  C:5B22H         LINE#         241
  C:5B28H         LINE#         242
  C:5B28H         LINE#         243
  C:5B28H         LINE#         244
  C:5B32H         LINE#         245
  C:5B4BH         LINE#         246
  C:5B58H         LINE#         247
  C:5B75H         LINE#         248
  C:5B8EH         LINE#         249
  C:5BA7H         LINE#         250
  C:5BB4H         LINE#         251
  C:5BD1H         LINE#         252
  C:5BEAH         LINE#         253
  C:5C03H         LINE#         254
  C:5C0DH         LINE#         255
  C:5C26H         LINE#         256
  C:5C3AH         LINE#         257
  C:5C53H         LINE#         258
  C:5C60H         LINE#         259
  C:5C7DH         LINE#         260
  C:5C96H         LINE#         261
  C:5CAFH         LINE#         262
  C:5CC3H         LINE#         263
  C:5CDCH         LINE#         264
  C:5CE9H         LINE#         265
  C:5D06H         LINE#         266
  C:5D1FH         LINE#         267
  C:5D38H         LINE#         268
  -------         ENDPROC       ALL_DATA_UPDATE
  -------         PROC          _DP_DOWNLOAD_SWITCH_HANDLE
  D:0001H         SYMBOL        value
  D:0004H         SYMBOL        length
  -------         DO            
  D:0007H         SYMBOL        ret
  X:8C47H         SYMBOL        switch_1
  X:8C48H         SYMBOL        control_mode
  X:8C4AH         SYMBOL        external_switch
  -------         ENDDO         
  C:B0F6H         LINE#         286
  C:B0F6H         LINE#         287
  C:B0F6H         LINE#         291
  C:B0FDH         LINE#         292
  C:B105H         LINE#         293
  C:B109H         LINE#         294
  C:B121H         LINE#         295
BL51 BANKED LINKER/LOCATER V6.22.2.0                                                  06/18/2026  10:05:40  PAGE 139


  C:B12BH         LINE#         296
  C:B12BH         LINE#         297
  C:B132H         LINE#         298
  C:B14AH         LINE#         299
  C:B14AH         LINE#         300
  C:B152H         LINE#         301
  C:B15BH         LINE#         302
  C:B15DH         LINE#         303
  C:B15DH         LINE#         304
  C:B164H         LINE#         305
  C:B17CH         LINE#         306
  C:B183H         LINE#         307
  C:B19BH         LINE#         308
  C:B19BH         LINE#         309
  C:B19DH         LINE#         310
  C:B1A0H         LINE#         311
  C:B1B9H         LINE#         312
  C:B1D2H         LINE#         314
  C:B1DCH         LINE#         315
  C:B1E1H         LINE#         316
  C:B1E4H         LINE#         318
  C:B1E6H         LINE#         319
  -------         ENDPROC       _DP_DOWNLOAD_SWITCH_HANDLE
  -------         PROC          _DP_DOWNLOAD_MODE_HANDLE
  D:0001H         SYMBOL        value
  D:0004H         SYMBOL        length
  -------         DO            
  D:0007H         SYMBOL        ret
  X:8C47H         SYMBOL        mode
  X:8C48H         SYMBOL        control_mode
  -------         ENDDO         
  C:B57DH         LINE#         328
  C:B57DH         LINE#         329
  C:B57DH         LINE#         334
  C:B585H         LINE#         335
  C:B595H         LINE#         336
  C:B595H         LINE#         337
  C:B59DH         LINE#         338
  C:B59EH         LINE#         339
  C:B59EH         LINE#         340
  C:B59EH         LINE#         341
  C:B5A0H         LINE#         343
  C:B5A0H         LINE#         344
  C:B5A9H         LINE#         345
  C:B5ABH         LINE#         346
  C:B5ABH         LINE#         347
  C:B5ABH         LINE#         348
  C:B5ADH         LINE#         350
  C:B5ADH         LINE#         351
  C:B5B6H         LINE#         352
  C:B5CFH         LINE#         353
  C:B5D7H         LINE#         354
  C:B5E8H         LINE#         355
  C:B5EAH         LINE#         357
  C:B5EAH         LINE#         358
  C:B5F1H         LINE#         359
  C:B609H         LINE#         360
BL51 BANKED LINKER/LOCATER V6.22.2.0                                                  06/18/2026  10:05:40  PAGE 140


  C:B622H         LINE#         361
  C:B622H         LINE#         363
  C:B622H         LINE#         365
  C:B622H         LINE#         366
  C:B622H         LINE#         367
  C:B624H         LINE#         368
  C:B627H         LINE#         369
  C:B640H         LINE#         372
  C:B64AH         LINE#         373
  C:B64FH         LINE#         374
  C:B652H         LINE#         376
  C:B654H         LINE#         377
  -------         ENDPROC       _DP_DOWNLOAD_MODE_HANDLE
  -------         PROC          _DP_DOWNLOAD_CHILD_LOCK_HANDLE
  D:0001H         SYMBOL        value
  D:0004H         SYMBOL        length
  -------         DO            
  D:0007H         SYMBOL        ret
  X:8C47H         SYMBOL        child_lock
  -------         ENDDO         
  C:DEEDH         LINE#         386
  C:DEEDH         LINE#         387
  C:DEEDH         LINE#         393
  C:DEF5H         LINE#         394
  C:DEF8H         LINE#         396
  C:DEF8H         LINE#         397
  C:DEFDH         LINE#         399
  C:DEFDH         LINE#         401
  C:DF16H         LINE#         403
  C:DF20H         LINE#         404
  C:DF25H         LINE#         405
  C:DF28H         LINE#         407
  C:DF2AH         LINE#         408
  -------         ENDPROC       _DP_DOWNLOAD_CHILD_LOCK_HANDLE
  -------         PROC          _DP_DOWNLOAD_TEMP_SET_HANDLE
  D:0001H         SYMBOL        value
  D:0004H         SYMBOL        length
  -------         DO            
  D:0007H         SYMBOL        ret
  X:8C47H         SYMBOL        temp_set
  X:8C4BH         SYMBOL        temp_set1
  X:8C4FH         SYMBOL        unit
  -------         ENDDO         
  C:BF17H         LINE#         417
  C:BF17H         LINE#         418
  C:BF17H         LINE#         423
  C:BF20H         LINE#         428
  C:BF39H         LINE#         429
  C:BF52H         LINE#         430
  C:BF6BH         LINE#         431
  C:BF86H         LINE#         432
  C:BF93H         LINE#         433
  C:BF95H         LINE#         434
  C:BF98H         LINE#         436
  C:BFB1H         LINE#         437
  C:BFB6H         LINE#         438
  C:BFB9H         LINE#         440
BL51 BANKED LINKER/LOCATER V6.22.2.0                                                  06/18/2026  10:05:40  PAGE 141


  C:BFBBH         LINE#         441
  -------         ENDPROC       _DP_DOWNLOAD_TEMP_SET_HANDLE
  -------         PROC          _DP_DOWNLOAD_TEMP_UNIT_CONVERT_HANDLE
  D:0001H         SYMBOL        value
  D:0004H         SYMBOL        length
  -------         DO            
  D:0007H         SYMBOL        ret
  X:8C47H         SYMBOL        temp_unit_convert
  -------         ENDDO         
  C:DDB3H         LINE#         450
  C:DDB3H         LINE#         451
  C:DDB3H         LINE#         456
  C:DDBBH         LINE#         457
  C:DDBBH         LINE#         458
  C:DDBBH         LINE#         459
  C:DDBBH         LINE#         461
  C:DDBBH         LINE#         462
  C:DDBBH         LINE#         464
  C:DDBBH         LINE#         466
  C:DDBBH         LINE#         467
  C:DDBBH         LINE#         468
  C:DDD4H         LINE#         469
  C:DDD7H         LINE#         470
  C:DDDCH         LINE#         471
  C:DDDFH         LINE#         473
  C:DDE9H         LINE#         474
  C:DDEEH         LINE#         475
  C:DDF1H         LINE#         477
  C:DDF3H         LINE#         478
  -------         ENDPROC       _DP_DOWNLOAD_TEMP_UNIT_CONVERT_HANDLE
  -------         PROC          _DP_DOWNLOAD_DEFROST_HANDLE
  D:0001H         SYMBOL        value
  D:0004H         SYMBOL        length
  -------         DO            
  D:0007H         SYMBOL        ret
  X:8C47H         SYMBOL        defrost
  -------         ENDDO         
  C:E0F0H         LINE#         487
  C:E0F0H         LINE#         488
  C:E0F0H         LINE#         494
  C:E0F8H         LINE#         495
  C:E111H         LINE#         497
  C:E11BH         LINE#         498
  C:E120H         LINE#         499
  C:E123H         LINE#         501
  C:E125H         LINE#         502
  -------         ENDPROC       _DP_DOWNLOAD_DEFROST_HANDLE
  -------         PROC          _DP_DOWNLOAD_RELAY_STATUS_HANDLE
  D:0001H         SYMBOL        value
  D:0004H         SYMBOL        length
  -------         DO            
  D:0007H         SYMBOL        ret
  X:8C47H         SYMBOL        relay_status
  -------         ENDDO         
  C:DFDAH         LINE#         511
  C:DFDAH         LINE#         512
  C:DFDAH         LINE#         517
BL51 BANKED LINKER/LOCATER V6.22.2.0                                                  06/18/2026  10:05:40  PAGE 142


  C:DFE2H         LINE#         518
  C:DFE2H         LINE#         519
  C:DFE2H         LINE#         520
  C:DFE2H         LINE#         522
  C:DFE2H         LINE#         523
  C:DFE2H         LINE#         525
  C:DFE2H         LINE#         527
  C:DFE2H         LINE#         528
  C:DFE2H         LINE#         529
  C:DFFBH         LINE#         530
  C:DFFEH         LINE#         532
  C:E008H         LINE#         533
  C:E00DH         LINE#         534
  C:E010H         LINE#         536
  C:E012H         LINE#         537
  -------         ENDPROC       _DP_DOWNLOAD_RELAY_STATUS_HANDLE
  -------         PROC          L?0205
  -------         ENDPROC       L?0205
  -------         PROC          _IS_LEAP_YEAR
  D:0002H         SYMBOL        year
  C:E28FH         LINE#         555
  C:E293H         LINE#         556
  C:E293H         LINE#         557
  C:E2B6H         LINE#         559
  -------         ENDPROC       _IS_LEAP_YEAR
  -------         PROC          _TIMESTAMP_TO_YMDHMS
  D:0004H         SYMBOL        timestamp
  X:8C5CH         SYMBOL        dt
  -------         DO            
  X:8C5FH         SYMBOL        sec
  X:8C63H         SYMBOL        days
  X:8C67H         SYMBOL        rem
  X:8C6BH         SYMBOL        m
  X:8C6CH         SYMBOL        leap
  X:8C6DH         SYMBOL        full_year
  -------         DO            
  X:8C6FH         SYMBOL        ydays
  X:8C6FH         SYMBOL        dim
  -------         ENDDO         
  -------         DO            
  X:8C6FH         SYMBOL        dim
  -------         ENDDO         
  -------         ENDDO         
  C:6E1CH         LINE#         566
  C:6E27H         LINE#         567
  C:6E27H         LINE#         568
  C:6E2BH         LINE#         574
  C:6E4AH         LINE#         575
  C:6E67H         LINE#         576
  C:6E8EH         LINE#         579
  C:6EB8H         LINE#         580
  C:6EF3H         LINE#         581
  C:6F1EH         LINE#         584
  C:6F28H         LINE#         585
  C:6F28H         LINE#         586
  C:6F3EH         LINE#         587
  C:6F55H         LINE#         588
BL51 BANKED LINKER/LOCATER V6.22.2.0                                                  06/18/2026  10:05:40  PAGE 143


  C:6F55H         LINE#         589
  C:6F89H         LINE#         590
  C:6F97H         LINE#         591
  C:6F99H         LINE#         593
  C:6FB0H         LINE#         595
  C:6FB8H         LINE#         596
  C:6FCAH         LINE#         598
  C:6FE0H         LINE#         599
  C:6FEFH         LINE#         600
  C:6FFAH         LINE#         601
  C:7000H         LINE#         603
  C:701DH         LINE#         604
  C:701DH         LINE#         606
  C:7049H         LINE#         607
  C:705CH         LINE#         608
  C:7065H         LINE#         610
  C:7078H         LINE#         611
  -------         ENDPROC       _TIMESTAMP_TO_YMDHMS
  -------         PROC          _DP_DOWNLOAD_TIMESTAMP_HANDLE
  X:8C47H         SYMBOL        value
  X:8C4AH         SYMBOL        length
  -------         DO            
  D:0007H         SYMBOL        ret
  X:8C4CH         SYMBOL        RTCC2W_write
  X:8C52H         SYMBOL        rtc_parm
  X:8C54H         SYMBOL        dt
  D:0004H         SYMBOL        ts
  X:8C5AH         SYMBOL        year
  -------         ENDDO         
  C:8984H         LINE#         614
  C:8995H         LINE#         615
  C:8995H         LINE#         618
  C:89A8H         LINE#         619
  C:89BBH         LINE#         620
  C:89CEH         LINE#         623
  C:89E9H         LINE#         624
  C:89F7H         LINE#         626
  C:8A00H         LINE#         627
  C:8A5BH         LINE#         628
  C:8A6DH         LINE#         629
  C:8A98H         LINE#         630
  C:8AC7H         LINE#         632
  C:8AD9H         LINE#         633
  C:8AEBH         LINE#         634
  C:8AF6H         LINE#         635
  C:8B0FH         LINE#         637
  C:8B15H         LINE#         638
  C:8B19H         LINE#         639
  C:8B32H         LINE#         642
  C:8B4FH         LINE#         643
  C:8B54H         LINE#         644
  C:8B57H         LINE#         646
  C:8B59H         LINE#         647
  -------         ENDPROC       _DP_DOWNLOAD_TIMESTAMP_HANDLE
  -------         PROC          _MODE_MAP_TO_DGUS
  D:0007H         SYMBOL        cloud_mode
  C:E38FH         LINE#         656
BL51 BANKED LINKER/LOCATER V6.22.2.0                                                  06/18/2026  10:05:40  PAGE 144


  C:E38FH         LINE#         657
  C:E38FH         LINE#         658
  C:E3A0H         LINE#         659
  C:E3A5H         LINE#         660
  C:E3A9H         LINE#         661
  C:E3AEH         LINE#         662
  C:E3B3H         LINE#         663
  C:E3B3H         LINE#         664
  C:E3B7H         LINE#         665
  C:E3B7H         LINE#         666
  -------         ENDPROC       _MODE_MAP_TO_DGUS
  -------         PROC          _DP_DOWNLOAD_INDOOR_UNIT_HANDLE
  X:8C47H         SYMBOL        value
  X:8C4AH         SYMBOL        length
  -------         DO            
  X:8C4CH         SYMBOL        offset
  X:8C4DH         SYMBOL        idx
  X:8C4EH         SYMBOL        unit_cnt
  D:0004H         SYMBOL        unit_id
  X:8C4FH         SYMBOL        power
  X:8C51H         SYMBOL        set_temp
  X:8C53H         SYMBOL        mode
  X:8C55H         SYMBOL        dgus_mode
  X:8C57H         SYMBOL        fan_speed
  X:8C59H         SYMBOL        room_temp
  C:6E02H         SYMBOL        next
  -------         DO            
  X:8C5BH         SYMBOL        p
  -------         DO            
  X:8C5EH         SYMBOL        set_f
  X:8C5EH         SYMBOL        room_f
  -------         ENDDO         
  -------         DO            
  X:8C5EH         SYMBOL        room_f
  -------         ENDDO         
  -------         ENDDO         
  -------         ENDDO         
  C:6BB1H         LINE#         667
  C:6BC2H         LINE#         668
  C:6BC2H         LINE#         669
  C:6BC5H         LINE#         671
  C:6BC9H         LINE#         679
  C:6BE3H         LINE#         680
  C:6BE3H         LINE#         681
  C:6C06H         LINE#         683
  C:6C0CH         LINE#         684
  C:6C1BH         LINE#         685
  C:6C2AH         LINE#         686
  C:6C39H         LINE#         687
  C:6C48H         LINE#         688
  C:6C57H         LINE#         690
  C:6C6FH         LINE#         691
  C:6C80H         LINE#         692
  C:6C9FH         LINE#         693
  C:6CB0H         LINE#         694
  C:6CC1H         LINE#         696
  C:6CD0H         LINE#         697
BL51 BANKED LINKER/LOCATER V6.22.2.0                                                  06/18/2026  10:05:40  PAGE 145


  C:6CD9H         LINE#         698
  C:6CDDH         LINE#         700
  C:6CF7H         LINE#         701
  C:6D15H         LINE#         702
  C:6D15H         LINE#         703
  C:6D2AH         LINE#         704
  C:6D48H         LINE#         705
  C:6D48H         LINE#         706
  C:6D66H         LINE#         707
  C:6D84H         LINE#         708
  C:6DA7H         LINE#         709
  C:6DA7H         LINE#         710
  C:6DBCH         LINE#         711
  C:6DDFH         LINE#         712
  C:6DDFH         LINE#         713
  C:6E02H         LINE#         715
  C:6E02H         LINE#         716
  C:6E09H         LINE#         717
  C:6E0CH         LINE#         719
  C:6E0FH         LINE#         720
  C:6E16H         LINE#         721
  C:6E19H         LINE#         722
  C:6E1BH         LINE#         723
  -------         ENDPROC       _DP_DOWNLOAD_INDOOR_UNIT_HANDLE
  -------         PROC          _DP_DOWNLOAD_HISTORY_FAULT_EMPTY_HANDLE
  D:0001H         SYMBOL        value
  D:0004H         SYMBOL        length
  -------         DO            
  D:0007H         SYMBOL        ret
  X:8C47H         SYMBOL        history_fault_empty
  -------         ENDDO         
  C:E559H         LINE#         732
  C:E559H         LINE#         733
  C:E559H         LINE#         739
  C:E561H         LINE#         740
  C:E563H         LINE#         742
  C:E563H         LINE#         743
  C:E566H         LINE#         745
  C:E566H         LINE#         748
  C:E570H         LINE#         749
  C:E575H         LINE#         750
  C:E578H         LINE#         752
  C:E57AH         LINE#         753
  -------         ENDPROC       _DP_DOWNLOAD_HISTORY_FAULT_EMPTY_HANDLE
  -------         PROC          _DP_DOWNLOAD_INSIDE_TIME_OPEN_HANDLE
  X:8C47H         SYMBOL        value
  X:8C4AH         SYMBOL        length
  -------         DO            
  D:0007H         SYMBOL        ret
  X:8C4CH         SYMBOL        i
  X:8C4DH         SYMBOL        week_mask
  X:8C4EH         SYMBOL        switch1
  X:8C50H         SYMBOL        hour
  X:8C52H         SYMBOL        minute
  X:8C54H         SYMBOL        week
  X:8C56H         SYMBOL        temp
  D:0006H         SYMBOL        temp_mode
BL51 BANKED LINKER/LOCATER V6.22.2.0                                                  06/18/2026  10:05:40  PAGE 146


  X:8C58H         SYMBOL        dgus_mode
  X:8C5AH         SYMBOL        fan_speed
  X:8C5CH         SYMBOL        room
  X:8C5EH         SYMBOL        set_val
  X:8C60H         SYMBOL        room1
  X:8C62H         SYMBOL        p
  -------         DO            
  X:8C65H         SYMBOL        temp_f
  -------         ENDDO         
  -------         ENDDO         
  C:60DAH         LINE#         762
  C:60EBH         LINE#         763
  C:60EBH         LINE#         769
  C:60F6H         LINE#         771
  C:60FCH         LINE#         772
  C:60FFH         LINE#         773
  C:60FFH         LINE#         774
  C:6116H         LINE#         777
  C:612FH         LINE#         780
  C:6149H         LINE#         781
  C:6162H         LINE#         784
  C:617CH         LINE#         785
  C:6195H         LINE#         789
  C:619AH         LINE#         790
  C:61B4H         LINE#         793
  C:61C7H         LINE#         795
  C:61DDH         LINE#         796
  C:61E5H         LINE#         797
  C:6203H         LINE#         798
  C:6203H         LINE#         799
  C:620BH         LINE#         802
  C:6225H         LINE#         803
  C:623EH         LINE#         804
  C:623EH         LINE#         805
  C:6253H         LINE#         806
  C:626CH         LINE#         807
  C:626CH         LINE#         810
  C:6280H         LINE#         811
  C:6293H         LINE#         812
  C:6295H         LINE#         813
  C:629EH         LINE#         814
  C:62A9H         LINE#         815
  C:62B3H         LINE#         816
  C:62BEH         LINE#         817
  C:62C7H         LINE#         818
  C:62C7H         LINE#         819
  C:62E0H         LINE#         822
  C:62FAH         LINE#         823
  C:6313H         LINE#         826
  C:632DH         LINE#         827
  C:6340H         LINE#         828
  C:635DH         LINE#         829
  C:6365H         LINE#         830
  C:6383H         LINE#         831
  C:6383H         LINE#         832
  C:638BH         LINE#         835
  C:6392H         LINE#         836
BL51 BANKED LINKER/LOCATER V6.22.2.0                                                  06/18/2026  10:05:40  PAGE 147


  C:6395H         LINE#         839
  C:63B2H         LINE#         840
  C:63B7H         LINE#         841
  C:63BAH         LINE#         843
  C:63BCH         LINE#         844
  -------         ENDPROC       _DP_DOWNLOAD_INSIDE_TIME_OPEN_HANDLE
  -------         PROC          _DP117_MODE_TO_DGUS
  D:0007H         SYMBOL        dp_mode
  C:E6F2H         LINE#         853
  C:E6F2H         LINE#         854
  C:E6F2H         LINE#         855
  C:E6FEH         LINE#         856
  C:E6FEH         LINE#         857
  C:E703H         LINE#         858
  C:E703H         LINE#         859
  C:E708H         LINE#         860
  C:E70BH         LINE#         861
  C:E70BH         LINE#         862
  -------         ENDPROC       _DP117_MODE_TO_DGUS
  -------         PROC          _DP_DOWNLOAD_EXTERNAL_TIME_OPEN_HANDLE
  X:8C47H         SYMBOL        value
  X:8C4AH         SYMBOL        length
  -------         DO            
  D:0007H         SYMBOL        ret
  X:8C4CH         SYMBOL        i
  X:8C4DH         SYMBOL        p
  X:8C50H         SYMBOL        switch1
  X:8C52H         SYMBOL        hour
  X:8C54H         SYMBOL        min
  D:0006H         SYMBOL        mode
  X:8C56H         SYMBOL        week
  X:8C58H         SYMBOL        temp
  X:8C5AH         SYMBOL        set_val
  X:8C5CH         SYMBOL        dgus_mode
  -------         DO            
  X:8C5EH         SYMBOL        temp_f
  -------         ENDDO         
  -------         ENDDO         
  C:87A6H         LINE#         864
  C:87B9H         LINE#         865
  C:87B9H         LINE#         869
  C:87C4H         LINE#         872
  C:87D0H         LINE#         873
  C:87E9H         LINE#         876
  C:8803H         LINE#         877
  C:881CH         LINE#         880
  C:8836H         LINE#         881
  C:884FH         LINE#         886
  C:8869H         LINE#         887
  C:887CH         LINE#         889
  C:8892H         LINE#         890
  C:889AH         LINE#         891
  C:88B8H         LINE#         892
  C:88B8H         LINE#         893
  C:88C0H         LINE#         896
  C:88DAH         LINE#         897
  C:88F3H         LINE#         898
BL51 BANKED LINKER/LOCATER V6.22.2.0                                                  06/18/2026  10:05:40  PAGE 148


  C:88F3H         LINE#         899
  C:8908H         LINE#         900
  C:8921H         LINE#         901
  C:8921H         LINE#         903
  C:8935H         LINE#         904
  C:8940H         LINE#         905
  C:8959H         LINE#         906
  C:895CH         LINE#         909
  C:8979H         LINE#         910
  C:897EH         LINE#         911
  C:8981H         LINE#         913
  C:8983H         LINE#         914
  -------         ENDPROC       _DP_DOWNLOAD_EXTERNAL_TIME_OPEN_HANDLE
  -------         PROC          _DP_DOWNLOAD_INSIDE_TIME_CLOSE_HANDLE
  X:8C47H         SYMBOL        value
  X:8C4AH         SYMBOL        length
  -------         DO            
  D:0007H         SYMBOL        ret
  X:8C4CH         SYMBOL        p
  X:8C4FH         SYMBOL        switch1
  X:8C51H         SYMBOL        hour
  X:8C53H         SYMBOL        min
  -------         ENDDO         
  C:B655H         LINE#         923
  C:B668H         LINE#         924
  C:B668H         LINE#         927
  C:B673H         LINE#         931
  C:B67FH         LINE#         932
  C:B698H         LINE#         935
  C:B6B2H         LINE#         936
  C:B6CBH         LINE#         939
  C:B6E5H         LINE#         940
  C:B6FEH         LINE#         942
  C:B71BH         LINE#         943
  C:B720H         LINE#         944
  C:B723H         LINE#         946
  C:B725H         LINE#         947
  -------         ENDPROC       _DP_DOWNLOAD_INSIDE_TIME_CLOSE_HANDLE
  -------         PROC          _DP_DOWNLOAD_EXTERNAL_TIME_CLOSE_HANDLE
  X:8C47H         SYMBOL        value
  X:8C4AH         SYMBOL        length
  -------         DO            
  D:0007H         SYMBOL        ret
  X:8C4CH         SYMBOL        p
  X:8C4FH         SYMBOL        switch1
  X:8C51H         SYMBOL        hour
  X:8C53H         SYMBOL        min
  -------         ENDDO         
  C:B726H         LINE#         956
  C:B739H         LINE#         957
  C:B739H         LINE#         960
  C:B744H         LINE#         963
  C:B750H         LINE#         964
  C:B769H         LINE#         967
  C:B783H         LINE#         968
  C:B79CH         LINE#         971
  C:B7B6H         LINE#         972
BL51 BANKED LINKER/LOCATER V6.22.2.0                                                  06/18/2026  10:05:40  PAGE 149


  C:B7CFH         LINE#         975
  C:B7ECH         LINE#         976
  C:B7F1H         LINE#         977
  C:B7F4H         LINE#         979
  C:B7F6H         LINE#         980
  -------         ENDPROC       _DP_DOWNLOAD_EXTERNAL_TIME_CLOSE_HANDLE
  -------         PROC          _DP_DOWNLOAD_HANDLE
  D:0007H         SYMBOL        dpid
  X:8C41H         SYMBOL        value
  X:8C44H         SYMBOL        length
  -------         DO            
  X:8C46H         SYMBOL        ret
  -------         ENDDO         
  C:93A1H         LINE#         999
  C:93ACH         LINE#         1000
  C:93ACH         LINE#         1007
  C:93DEH         LINE#         1008
  C:93DEH         LINE#         1010
  C:93F2H         LINE#         1011
  C:93F5H         LINE#         1012
  C:93F5H         LINE#         1014
  C:9409H         LINE#         1015
  C:940CH         LINE#         1016
  C:940CH         LINE#         1018
  C:9420H         LINE#         1019
  C:9423H         LINE#         1020
  C:9423H         LINE#         1022
  C:9437H         LINE#         1023
  C:943AH         LINE#         1024
  C:943AH         LINE#         1026
  C:944EH         LINE#         1027
  C:9451H         LINE#         1028
  C:9451H         LINE#         1030
  C:9465H         LINE#         1031
  C:9468H         LINE#         1032
  C:9468H         LINE#         1034
  C:947CH         LINE#         1035
  C:947FH         LINE#         1036
  C:947FH         LINE#         1038
  C:9493H         LINE#         1039
  C:9496H         LINE#         1040
  C:9496H         LINE#         1042
  C:94AAH         LINE#         1043
  C:94ACH         LINE#         1044
  C:94ACH         LINE#         1046
  C:94C0H         LINE#         1047
  C:94C2H         LINE#         1048
  C:94C2H         LINE#         1050
  C:94D6H         LINE#         1051
  C:94D8H         LINE#         1052
  C:94D8H         LINE#         1054
  C:94ECH         LINE#         1055
  C:94EEH         LINE#         1056
  C:94EEH         LINE#         1058
  C:9502H         LINE#         1059
  C:9504H         LINE#         1060
  C:9504H         LINE#         1062
BL51 BANKED LINKER/LOCATER V6.22.2.0                                                  06/18/2026  10:05:40  PAGE 150


  C:951DH         LINE#         1063
  C:951DH         LINE#         1066
  C:951DH         LINE#         1067
  C:951DH         LINE#         1068
  C:951DH         LINE#         1069
  C:9522H         LINE#         1070
  -------         ENDPROC       _DP_DOWNLOAD_HANDLE
  -------         PROC          GET_DOWNLOAD_CMD_TOTAL
  C:EA40H         LINE#         1078
  C:EA40H         LINE#         1079
  C:EA40H         LINE#         1080
  C:EA42H         LINE#         1081
  -------         ENDPROC       GET_DOWNLOAD_CMD_TOTAL
  -------         PROC          _UPGRADE_PACKAGE_CHOOSE
  D:0005H         SYMBOL        package_sz
  -------         DO            
  D:0006H         SYMBOL        send_len
  -------         ENDDO         
  C:E88EH         LINE#         1099
  C:E890H         LINE#         1100
  C:E890H         LINE#         1102
  C:E893H         LINE#         1103
  C:E896H         LINE#         1104
  -------         ENDPROC       _UPGRADE_PACKAGE_CHOOSE
  -------         PROC          _MCU_FIRM_UPDATE_HANDLE
  X:8C39H         SYMBOL        value
  X:8C3CH         SYMBOL        position
  X:8C40H         SYMBOL        length
  -------         DO            
  D:0006H         SYMBOL        i
  X:9122H         SYMBOL        Oldposittion
  -------         ENDDO         
  C:C1A1H         LINE#         1118
  C:C1B0H         LINE#         1119
  C:C1B0H         LINE#         1123
  C:C1BDH         LINE#         1126
  C:C1BDH         LINE#         1128
  C:C1D6H         LINE#         1129
  C:C1D9H         LINE#         1130
  C:C1D9H         LINE#         1131
  C:C1F8H         LINE#         1132
  C:C205H         LINE#         1133
  C:C227H         LINE#         1134
  C:C227H         LINE#         1135
  C:C23BH         LINE#         1136
  C:C23DH         LINE#         1137
  C:C23DH         LINE#         1138
  C:C23DH         LINE#         1140
  C:C23FH         LINE#         1141
  -------         ENDPROC       _MCU_FIRM_UPDATE_HANDLE
  -------         PROC          _WIFI_TEST_RESULT
  X:8C39H         SYMBOL        result
  X:8C3AH         SYMBOL        rssi
  C:E9EFH         LINE#         1211
  C:E9F7H         LINE#         1212
  C:E9F7H         LINE#         1214
  C:E9F7H         LINE#         1216
BL51 BANKED LINKER/LOCATER V6.22.2.0                                                  06/18/2026  10:05:40  PAGE 151


  C:E9F7H         LINE#         1218
  C:E9F7H         LINE#         1220
  C:E9F7H         LINE#         1221
  C:E9F7H         LINE#         1224
  C:E9F7H         LINE#         1225
  -------         ENDPROC       _WIFI_TEST_RESULT
  -------         PROC          _FILE_DOWNLOAD_PACKAGE_CHOOSE
  D:0005H         SYMBOL        package_sz
  -------         DO            
  D:0006H         SYMBOL        send_len
  -------         ENDDO         
  C:E8A1H         LINE#         1579
  C:E8A3H         LINE#         1580
  C:E8A3H         LINE#         1582
  C:E8A6H         LINE#         1583
  C:E8A9H         LINE#         1584
  -------         ENDPROC       _FILE_DOWNLOAD_PACKAGE_CHOOSE
  -------         PROC          _FILE_DOWNLOAD_HANDLE
  X:8C39H         SYMBOL        value
  X:8C3CH         SYMBOL        position
  X:8C40H         SYMBOL        length
  C:E8D8H         LINE#         1597
  C:E8E7H         LINE#         1598
  C:E8E7H         LINE#         1600
  C:E8E7H         LINE#         1603
  C:E8E7H         LINE#         1606
  C:E8E7H         LINE#         1608
  C:E8E9H         LINE#         1609
  -------         ENDPROC       _FILE_DOWNLOAD_HANDLE
  -------         ENDMOD        PROTOCOL

  -------         MODULE        SYSTEM
  C:0000H         SYMBOL        _ICE_DUMMY_
  C:E2B7H         SYMBOL        _get_dowmload_dpid_index
  D:0080H         PUBLIC        P0
  C:E9DCH         SYMBOL        get_mcu_wifi_mode
  C:E47FH         SYMBOL        heat_beat_check
  X:8776H         PUBLIC        set_wifimode_flag
  D:00F8H         PUBLIC        RAMMODE
  D:00A8H         PUBLIC        IEN0
  D:00B8H         PUBLIC        IEN1
  C:E2E6H         PUBLIC        _set_wifi_uart_byte
  C:E15BH         PUBLIC        with_data_rxbuff
  X:8777H         PUBLIC        stop_update_flag
  C:D33EH         PUBLIC        take_byte_rxbuff
  X:8778H         PUBLIC        wifi_data_process_buf
  D:0088H         PUBLIC        TCON
  X:88ABH         PUBLIC        reset_wifi_flag
  X:88ACH         PUBLIC        wifi_uart_rx_buf
  X:89DFH         PUBLIC        wifi_uart_tx_buf
  X:8A16H         PUBLIC        rx_buf_in
  C:DF97H         SYMBOL        _?ix1000
  X:8A19H         PUBLIC        rx_buf_out
  C:CFAAH         PUBLIC        _wifi_uart_write_frame
  C:D9F2H         PUBLIC        _get_check_sum
  C:D77AH         SYMBOL        _wifi_uart_write_data
  X:8A1CH         PUBLIC        wifi_work_state
BL51 BANKED LINKER/LOCATER V6.22.2.0                                                  06/18/2026  10:05:40  PAGE 152


  C:CF47H         PUBLIC        _set_wifi_uart_buffer
  D:0098H         PUBLIC        SCON0
  D:00C8H         PUBLIC        T2CON
  C:4CD9H         PUBLIC        _data_handle
  C:C6D4H         SYMBOL        _data_point_handle
  D:00D0H         PUBLIC        PSW
  C:A675H         SYMBOL        product_info_update
  D:00C0H         PUBLIC        IRCON
  -------         PROC          _SET_WIFI_UART_BYTE
  X:8CCDH         SYMBOL        dest
  D:0005H         SYMBOL        byte
  -------         DO            
  D:0001H         SYMBOL        obj
  -------         ENDDO         
  C:E2E6H         LINE#         35
  C:E2EEH         LINE#         36
  C:E2EEH         LINE#         37
  C:E2F7H         LINE#         39
  C:E2FBH         LINE#         40
  C:E309H         LINE#         42
  C:E311H         LINE#         43
  -------         ENDPROC       _SET_WIFI_UART_BYTE
  -------         PROC          L?0089
  -------         ENDPROC       L?0089
  -------         PROC          _SET_WIFI_UART_BUFFER
  X:8CCDH         SYMBOL        dest
  X:8CCFH         SYMBOL        src
  X:8CD2H         SYMBOL        len
  -------         DO            
  D:0001H         SYMBOL        obj
  -------         ENDDO         
  C:CF47H         LINE#         52
  C:CF5AH         LINE#         53
  C:CF5AH         LINE#         54
  C:CF63H         LINE#         56
  C:CF90H         LINE#         58
  C:CFA4H         LINE#         59
  C:CFA9H         LINE#         60
  -------         ENDPROC       _SET_WIFI_UART_BUFFER
  -------         PROC          _GET_CHECK_SUM
  X:8CCFH         SYMBOL        pack
  X:8CD2H         SYMBOL        pack_len
  -------         DO            
  D:0006H         SYMBOL        i
  X:8CD4H         SYMBOL        check_sum
  -------         ENDDO         
  C:D9F2H         LINE#         68
  C:DA03H         LINE#         69
  C:DA03H         LINE#         71
  C:DA06H         LINE#         73
  C:DA15H         LINE#         74
  C:DA2FH         LINE#         75
  C:DA36H         LINE#         77
  C:DA3BH         LINE#         78
  -------         ENDPROC       _GET_CHECK_SUM
  -------         PROC          _WIFI_UART_WRITE_DATA
  X:8CCFH         SYMBOL        in
BL51 BANKED LINKER/LOCATER V6.22.2.0                                                  06/18/2026  10:05:40  PAGE 153


  X:8CD2H         SYMBOL        len
  C:D77AH         LINE#         86
  C:D78BH         LINE#         87
  C:D78BH         LINE#         88
  C:D7A1H         LINE#         90
  C:D7A1H         LINE#         92
  C:D7AFH         LINE#         93
  C:D7C1H         LINE#         94
  C:D7CBH         LINE#         95
  C:D7CDH         LINE#         96
  -------         ENDPROC       _WIFI_UART_WRITE_DATA
  -------         PROC          _WIFI_UART_WRITE_FRAME
  D:0007H         SYMBOL        fr_type
  D:0005H         SYMBOL        fr_ver
  X:8CCDH         SYMBOL        len
  -------         DO            
  D:0006H         SYMBOL        check_sum
  -------         ENDDO         
  C:CFAAH         LINE#         105
  C:CFB2H         LINE#         106
  C:CFB2H         LINE#         107
  C:CFB2H         LINE#         109
  C:CFB8H         LINE#         110
  C:CFBCH         LINE#         111
  C:CFBFH         LINE#         112
  C:CFC2H         LINE#         113
  C:CFCFH         LINE#         114
  C:CFD2H         LINE#         116
  C:CFE0H         LINE#         117
  C:CFF7H         LINE#         118
  C:D00AH         LINE#         120
  -------         ENDPROC       _WIFI_UART_WRITE_FRAME
  -------         PROC          HEAT_BEAT_CHECK
  -------         DO            
  D:0007H         SYMBOL        length
  X:876BH         SYMBOL        mcu_reset_state
  -------         ENDDO         
  C:E47FH         LINE#         128
  C:E47FH         LINE#         129
  C:E47FH         LINE#         130
  C:E481H         LINE#         133
  C:E487H         LINE#         134
  C:E48CH         LINE#         135
  C:E492H         LINE#         136
  C:E494H         LINE#         137
  C:E49BH         LINE#         138
  C:E49BH         LINE#         140
  -------         ENDPROC       HEAT_BEAT_CHECK
  -------         PROC          PRODUCT_INFO_UPDATE
  -------         DO            
  X:8C39H         SYMBOL        length
  X:8C3AH         SYMBOL        str
  X:8C44H         SYMBOL        reset_flag
  -------         ENDDO         
  C:A675H         LINE#         148
  C:A675H         LINE#         149
  C:A675H         LINE#         150
BL51 BANKED LINKER/LOCATER V6.22.2.0                                                  06/18/2026  10:05:40  PAGE 154


  C:A67AH         LINE#         151
  C:A68CH         LINE#         153
  C:A694H         LINE#         154
  C:A6B1H         LINE#         155
  C:A6CEH         LINE#         156
  C:A6F4H         LINE#         157
  C:A71AH         LINE#         158
  C:A740H         LINE#         159
  C:A766H         LINE#         177
  C:A78CH         LINE#         181
  -------         ENDPROC       PRODUCT_INFO_UPDATE
  -------         PROC          GET_MCU_WIFI_MODE
  -------         DO            
  D:0007H         SYMBOL        length
  -------         ENDDO         
  C:E9DCH         LINE#         190
  C:E9DCH         LINE#         191
  C:E9DCH         LINE#         192
  C:E9DDH         LINE#         201
  -------         ENDPROC       GET_MCU_WIFI_MODE
  -------         PROC          _GET_DOWMLOAD_DPID_INDEX
  X:8C40H         SYMBOL        dpid
  -------         DO            
  D:0006H         SYMBOL        index
  D:0007H         SYMBOL        total
  -------         ENDDO         
  C:E2B7H         LINE#         209
  C:E2BCH         LINE#         210
  C:E2BCH         LINE#         212
  C:E2BFH         LINE#         214
  C:E2C6H         LINE#         215
  C:E2E0H         LINE#         216
  C:E2E0H         LINE#         217
  C:E2E0H         LINE#         218
  C:E2E3H         LINE#         220
  C:E2E5H         LINE#         221
  -------         ENDPROC       _GET_DOWMLOAD_DPID_INDEX
  -------         PROC          _DATA_POINT_HANDLE
  X:8C39H         SYMBOL        value
  -------         DO            
  X:8C3CH         SYMBOL        dp_id
  D:0007H         SYMBOL        index
  X:8C3DH         SYMBOL        dp_type
  D:0007H         SYMBOL        ret
  X:8C3EH         SYMBOL        dp_len
  -------         ENDDO         
  C:C6D4H         LINE#         229
  C:C6DFH         LINE#         230
  C:C6DFH         LINE#         236
  C:C6E7H         LINE#         237
  C:C6F1H         LINE#         238
  C:C6FEH         LINE#         239
  C:C712H         LINE#         241
  C:C717H         LINE#         243
  C:C72FH         LINE#         245
  C:C732H         LINE#         246
  C:C732H         LINE#         247
BL51 BANKED LINKER/LOCATER V6.22.2.0                                                  06/18/2026  10:05:40  PAGE 155


  C:C759H         LINE#         248
  C:C759H         LINE#         250
  C:C759H         LINE#         251
  -------         ENDPROC       _DATA_POINT_HANDLE
  -------         PROC          _DATA_HANDLE
  X:8C26H         SYMBOL        offset
  -------         DO            
  X:8C28H         SYMBOL        firmware_addr
  X:876CH         SYMBOL        firm_size
  X:876EH         SYMBOL        firm_length
  X:8772H         SYMBOL        firm_update_flag
  X:8C2BH         SYMBOL        dp_len
  D:0007H         SYMBOL        firm_flag
  X:8C2FH         SYMBOL        ret
  X:8C30H         SYMBOL        i
  X:8C32H         SYMBOL        total_len
  D:0007H         SYMBOL        cmd_type
  D:0005H         SYMBOL        result
  D:0006H         SYMBOL        rssi
  X:8C34H         SYMBOL        file_data_addr
  X:8773H         SYMBOL        file_package_size
  X:8775H         SYMBOL        file_download_flag
  X:8C37H         SYMBOL        file_download_size
  -------         ENDDO         
  C:4CD9H         LINE#         397
  C:4CE1H         LINE#         398
  C:4CE1H         LINE#         400
  C:4CE8H         LINE#         412
  C:4CFAH         LINE#         424
  C:4D03H         LINE#         427
  C:4D07H         LINE#         430
  C:4D53H         LINE#         431
  C:4D53H         LINE#         432
  C:4D53H         LINE#         433
  C:4D56H         LINE#         434
  C:4D56H         LINE#         436
  C:4D56H         LINE#         437
  C:4D59H         LINE#         438
  C:4D59H         LINE#         440
  C:4D59H         LINE#         441
  C:4D5CH         LINE#         442
  C:4D5CH         LINE#         445
  C:4D5CH         LINE#         446
  C:4D71H         LINE#         447
  C:4D78H         LINE#         454
  C:4D7BH         LINE#         456
  C:4D7BH         LINE#         457
  C:4D7EH         LINE#         458
  C:4D80H         LINE#         460
  C:4D80H         LINE#         461
  C:4D86H         LINE#         462
  C:4D87H         LINE#         465
  C:4D87H         LINE#         466
  C:4DB0H         LINE#         468
  C:4DD0H         LINE#         469
  C:4DF3H         LINE#         470
  C:4E37H         LINE#         472
BL51 BANKED LINKER/LOCATER V6.22.2.0                                                  06/18/2026  10:05:40  PAGE 156


  C:4E5BH         LINE#         474
  C:4E5BH         LINE#         476
  C:4E5BH         LINE#         478
  C:4E5BH         LINE#         480
  C:4E76H         LINE#         481
  C:4E79H         LINE#         482
  C:4E79H         LINE#         484
  C:4E79H         LINE#         485
  C:4E7CH         LINE#         486
  C:4E7CH         LINE#         489
  C:4E7CH         LINE#         491
  C:4E7DH         LINE#         492
  C:4E81H         LINE#         493
  C:4E85H         LINE#         494
  C:4E8DH         LINE#         495
  C:4E92H         LINE#         496
  C:4E9AH         LINE#         497
  C:4EA3H         LINE#         498
  C:4EA3H         LINE#         500
  C:4EBFH         LINE#         501
  C:4ED8H         LINE#         502
  C:4F07H         LINE#         503
  C:4F20H         LINE#         504
  C:4F4FH         LINE#         505
  C:4F68H         LINE#         506
  C:4F97H         LINE#         516
  C:4F9CH         LINE#         517
  C:4FA2H         LINE#         518
  C:4FA3H         LINE#         520
  C:4FA3H         LINE#         521
  C:4FAEH         LINE#         523
  C:4FB3H         LINE#         525
  C:4FDCH         LINE#         527
  C:4FF8H         LINE#         528
  C:5011H         LINE#         529
  C:5040H         LINE#         530
  C:5059H         LINE#         531
  C:5088H         LINE#         532
  C:50A1H         LINE#         533
  C:50D0H         LINE#         535
  C:50E0H         LINE#         536
  C:50F5H         LINE#         540
  C:5123H         LINE#         542
  C:5149H         LINE#         544
  C:514EH         LINE#         545
  C:516BH         LINE#         546
  C:51A0H         LINE#         547
  C:51A2H         LINE#         548
  C:51A7H         LINE#         549
  C:51ABH         LINE#         550
  C:51ABH         LINE#         553
  C:51B3H         LINE#         554
  C:51BCH         LINE#         556
  C:51BCH         LINE#         558
  C:51C1H         LINE#         559
  C:51C1H         LINE#         560
  C:51C2H         LINE#         576
BL51 BANKED LINKER/LOCATER V6.22.2.0                                                  06/18/2026  10:05:40  PAGE 157


  C:51C2H         LINE#         577
  C:51D5H         LINE#         578
  C:51E1H         LINE#         579
  C:51E7H         LINE#         580
  C:51E7H         LINE#         648
  C:51E7H         LINE#         650
  C:51E7H         LINE#         651
  C:51F0H         LINE#         652
  C:51F0H         LINE#         653
  C:51F0H         LINE#         654
  C:51F0H         LINE#         655
  C:51F0H         LINE#         656
  C:51F0H         LINE#         658
  C:520BH         LINE#         659
  C:5225H         LINE#         660
  C:5246H         LINE#         661
  C:5260H         LINE#         663
  C:5265H         LINE#         664
  C:526BH         LINE#         665
  C:526CH         LINE#         667
  C:526CH         LINE#         668
  C:5277H         LINE#         669
  C:52A0H         LINE#         671
  C:52BCH         LINE#         672
  C:52D5H         LINE#         673
  C:5304H         LINE#         674
  C:531DH         LINE#         675
  C:534CH         LINE#         676
  C:5365H         LINE#         677
  C:5394H         LINE#         679
  C:53A4H         LINE#         680
  C:53B9H         LINE#         682
  C:53E4H         LINE#         684
  C:540CH         LINE#         685
  C:5411H         LINE#         686
  C:5413H         LINE#         687
  C:542EH         LINE#         688
  C:5463H         LINE#         689
  C:5465H         LINE#         690
  C:546AH         LINE#         691
  C:546EH         LINE#         692
  C:546EH         LINE#         694
  C:5476H         LINE#         695
  C:547FH         LINE#         696
  C:547FH         LINE#         697
  C:547FH         LINE#         698
  C:547FH         LINE#         744
  C:547FH         LINE#         745
  C:547FH         LINE#         746
  -------         ENDPROC       _DATA_HANDLE
  -------         PROC          WITH_DATA_RXBUFF
  C:E15BH         LINE#         753
  C:E15BH         LINE#         754
  C:E15BH         LINE#         755
  C:E18AH         LINE#         756
  C:E18DH         LINE#         758
  C:E18FH         LINE#         759
BL51 BANKED LINKER/LOCATER V6.22.2.0                                                  06/18/2026  10:05:40  PAGE 158


  -------         ENDPROC       WITH_DATA_RXBUFF
  -------         PROC          TAKE_BYTE_RXBUFF
  -------         DO            
  D:0007H         SYMBOL        value
  -------         ENDDO         
  C:D33EH         LINE#         766
  C:D33EH         LINE#         767
  C:D33EH         LINE#         770
  C:D36BH         LINE#         772
  C:D37EH         LINE#         774
  C:D38CH         LINE#         775
  C:D38CH         LINE#         777
  C:D3A0H         LINE#         778
  C:D3A0H         LINE#         780
  C:D3A0H         LINE#         781
  -------         ENDPROC       TAKE_BYTE_RXBUFF
  -------         ENDMOD        SYSTEM

  -------         MODULE        ?C?FPDIV
  C:371EH         PUBLIC        ?C?FPDIV
  -------         ENDMOD        ?C?FPDIV

  -------         MODULE        ?C?FPCMP
  C:37BDH         PUBLIC        ?C?FPCMP
  C:37BBH         PUBLIC        ?C?FPCMP3
  -------         ENDMOD        ?C?FPCMP

  -------         MODULE        ?C?FCAST
  C:383EH         PUBLIC        ?C?FCASTC
  C:3839H         PUBLIC        ?C?FCASTI
  C:3834H         PUBLIC        ?C?FCASTL
  -------         ENDMOD        ?C?FCAST

  -------         MODULE        ?C?CASTF
  C:3872H         PUBLIC        ?C?CASTF
  -------         ENDMOD        ?C?CASTF

  -------         MODULE        PRINTF
  X:8C71H         PUBLIC        ?_PRINTF?BYTE
  X:8C71H         PUBLIC        ?_SPRINTF?BYTE
  C:54EBH         PUBLIC        _PRINTF
  C:54E5H         PUBLIC        _SPRINTF
  -------         ENDMOD        PRINTF

  -------         MODULE        ?C?FPROUND
  C:38F3H         PUBLIC        ?C?FPROUND
  -------         ENDMOD        ?C?FPROUND

  -------         MODULE        ?C?FPCONVERT
  C:3930H         PUBLIC        ?C?FPCONVERT
  -------         ENDMOD        ?C?FPCONVERT

  -------         MODULE        ?C?FPADD
  C:3A3CH         PUBLIC        ?C?FPADD
  C:3A38H         PUBLIC        ?C?FPSUB
  -------         ENDMOD        ?C?FPADD

BL51 BANKED LINKER/LOCATER V6.22.2.0                                                  06/18/2026  10:05:40  PAGE 159


  -------         MODULE        ?C?FPMUL
  C:3B2DH         PUBLIC        ?C?FPMUL
  -------         ENDMOD        ?C?FPMUL

  -------         MODULE        ?C?FTNPWR
  C:3C63H         PUBLIC        ?C?FTNPWR
  -------         ENDMOD        ?C?FTNPWR

  -------         MODULE        ?C?COPY
  C:3D73H         PUBLIC        ?C?COPY
  -------         ENDMOD        ?C?COPY

  -------         MODULE        ?C?CLDPTR
  C:3D99H         PUBLIC        ?C?CLDPTR
  -------         ENDMOD        ?C?CLDPTR

  -------         MODULE        ?C?CLDOPTR
  C:3DB2H         PUBLIC        ?C?CLDOPTR
  -------         ENDMOD        ?C?CLDOPTR

  -------         MODULE        ?C?CILDOPTR
  C:3DDFH         PUBLIC        ?C?CILDOPTR
  -------         ENDMOD        ?C?CILDOPTR

  -------         MODULE        ?C?CSTPTR
  C:3E12H         PUBLIC        ?C?CSTPTR
  -------         ENDMOD        ?C?CSTPTR

  -------         MODULE        ?C?CSTOPTR
  C:3E24H         PUBLIC        ?C?CSTOPTR
  -------         ENDMOD        ?C?CSTOPTR

  -------         MODULE        ?C?IMUL
  C:3E46H         PUBLIC        ?C?IMUL
  -------         ENDMOD        ?C?IMUL

  -------         MODULE        ?C?UIDIV
  C:3E58H         PUBLIC        ?C?UIDIV
  -------         ENDMOD        ?C?UIDIV

  -------         MODULE        ?C?SIDIV
  C:3EADH         PUBLIC        ?C?SIDIV
  -------         ENDMOD        ?C?SIDIV

  -------         MODULE        ?C?IILDX
  C:3EE3H         PUBLIC        ?C?IILDX
  -------         ENDMOD        ?C?IILDX

  -------         MODULE        ?C?ILDIX
  C:3EF9H         PUBLIC        ?C?ILDIX
  -------         ENDMOD        ?C?ILDIX

  -------         MODULE        ?C?ILDIPTR
  C:3F0FH         PUBLIC        ?C?ILDIPTR
  -------         ENDMOD        ?C?ILDIPTR

  -------         MODULE        ?C?ILDOPTR
BL51 BANKED LINKER/LOCATER V6.22.2.0                                                  06/18/2026  10:05:40  PAGE 160


  C:3F44H         PUBLIC        ?C?ILDOPTR
  -------         ENDMOD        ?C?ILDOPTR

  -------         MODULE        ?C?ISTPTR
  C:3F7CH         PUBLIC        ?C?ISTPTR
  -------         ENDMOD        ?C?ISTPTR

  -------         MODULE        ?C?ISTOPTR
  C:3F9BH         PUBLIC        ?C?ISTOPTR
  -------         ENDMOD        ?C?ISTOPTR

  -------         MODULE        ?C?LMUL
  C:3FC8H         PUBLIC        ?C?LMUL
  -------         ENDMOD        ?C?LMUL

  -------         MODULE        ?C?ULDIV
  C:4053H         PUBLIC        ?C?ULDIV
  -------         ENDMOD        ?C?ULDIV

  -------         MODULE        ?C?LNEG
  C:40E5H         PUBLIC        ?C?LNEG
  -------         ENDMOD        ?C?LNEG

  -------         MODULE        ?C?SLCMP
  C:40F3H         PUBLIC        ?C?SLCMP
  -------         ENDMOD        ?C?SLCMP

  -------         MODULE        ?C?ULCMP
  C:4109H         PUBLIC        ?C?ULCMP
  -------         ENDMOD        ?C?ULCMP

  -------         MODULE        ?C?ULSHR
  C:411AH         PUBLIC        ?C?ULSHR
  -------         ENDMOD        ?C?ULSHR

  -------         MODULE        ?C?LSHL
  C:412DH         PUBLIC        ?C?LSHL
  -------         ENDMOD        ?C?LSHL

  -------         MODULE        ?C?LLDPTR
  C:4140H         PUBLIC        ?C?LLDPTR
  -------         ENDMOD        ?C?LLDPTR

  -------         MODULE        ?C?LSTPTR
  C:4160H         PUBLIC        ?C?LSTPTR
  -------         ENDMOD        ?C?LSTPTR

  -------         MODULE        ?C?LSTXDATA
  C:417AH         PUBLIC        ?C?LSTXDATA
  -------         ENDMOD        ?C?LSTXDATA

  -------         MODULE        ?C?LSTKXDATA
  C:4186H         PUBLIC        ?C?LSTKXDATA
  -------         ENDMOD        ?C?LSTKXDATA

  -------         MODULE        ?C?OFFXADD
  C:41B7H         PUBLIC        ?C?OFFXADD
BL51 BANKED LINKER/LOCATER V6.22.2.0                                                  06/18/2026  10:05:40  PAGE 161


  -------         ENDMOD        ?C?OFFXADD

  -------         MODULE        ?C?PLDIXDATA
  C:41C3H         PUBLIC        ?C?PLDIXDATA
  -------         ENDMOD        ?C?PLDIXDATA

  -------         MODULE        ?C?PSTXDATA
  C:41DAH         PUBLIC        ?C?PSTXDATA
  -------         ENDMOD        ?C?PSTXDATA

  -------         MODULE        ?C?CCASE
  C:41E3H         PUBLIC        ?C?CCASE
  -------         ENDMOD        ?C?CCASE

  -------         MODULE        ?C?ICASE
  C:4209H         PUBLIC        ?C?ICASE
  -------         ENDMOD        ?C?ICASE

  -------         MODULE        ?C?LIMUL
  C:4236H         PUBLIC        ?C?LIMUL
  -------         ENDMOD        ?C?LIMUL

  -------         MODULE        STRTOUL
  X:8C5CH         PUBLIC        ?_strtoul?BYTE
  C:72E6H         PUBLIC        _strtoul
  -------         ENDMOD        STRTOUL

  -------         MODULE        ?C?LLDIDATA
  C:4263H         PUBLIC        ?C?LLDIDATA
  -------         ENDMOD        ?C?LLDIDATA

  -------         MODULE        ?C?LLDXDATA
  C:426FH         PUBLIC        ?C?LLDXDATA
  -------         ENDMOD        ?C?LLDXDATA

  -------         MODULE        ?C?LLDPDATA
  C:427BH         PUBLIC        ?C?LLDPDATA
  -------         ENDMOD        ?C?LLDPDATA

  -------         MODULE        ?C?LLDCODE
  C:4287H         PUBLIC        ?C?LLDCODE
  -------         ENDMOD        ?C?LLDCODE

  -------         MODULE        ?C?LSTIDATA
  C:4297H         PUBLIC        ?C?LSTIDATA
  -------         ENDMOD        ?C?LSTIDATA

  -------         MODULE        ?C?LSTPDATA
  C:42A3H         PUBLIC        ?C?LSTPDATA
  -------         ENDMOD        ?C?LSTPDATA

  -------         MODULE        ?C?PSTPTR
  C:42AFH         PUBLIC        ?C?PSTPTR
  -------         ENDMOD        ?C?PSTPTR

  -------         MODULE        ?C?PSTIDATA
  C:42FEH         PUBLIC        ?C?PSTIDATA
BL51 BANKED LINKER/LOCATER V6.22.2.0                                                  06/18/2026  10:05:40  PAGE 162


  -------         ENDMOD        ?C?PSTIDATA

  -------         MODULE        ?C?PSTPDATA
  C:4307H         PUBLIC        ?C?PSTPDATA
  -------         ENDMOD        ?C?PSTPDATA

*** WARNING L16: UNCALLED SEGMENT, IGNORED FOR OVERLAY PROCESS
    SEGMENT: ?PR?MODBUSCHANELCONTROL?MAIN

*** WARNING L16: UNCALLED SEGMENT, IGNORED FOR OVERLAY PROCESS
    SEGMENT: ?PR?_DGUS_WAITEN?SYS

*** WARNING L16: UNCALLED SEGMENT, IGNORED FOR OVERLAY PROCESS
    SEGMENT: ?PR?_MEMORY_WRITETIMERSLOT?SYS

*** WARNING L16: UNCALLED SEGMENT, IGNORED FOR OVERLAY PROCESS
    SEGMENT: ?PR?_MEMORY_READTIMERSLOT?SYS

*** WARNING L16: UNCALLED SEGMENT, IGNORED FOR OVERLAY PROCESS
    SEGMENT: ?PR?SAVE_DATA_HANDLER?SYS

*** WARNING L16: UNCALLED SEGMENT, IGNORED FOR OVERLAY PROCESS
    SEGMENT: ?PR?_DELAYUS?SYS

*** WARNING L16: UNCALLED SEGMENT, IGNORED FOR OVERLAY PROCESS
    SEGMENT: ?PR?_DELAYMS?SYS

*** WARNING L16: UNCALLED SEGMENT, IGNORED FOR OVERLAY PROCESS
    SEGMENT: ?PR?TIMERRUNNING?CONTROL

*** WARNING L16: UNCALLED SEGMENT, IGNORED FOR OVERLAY PROCESS
    SEGMENT: ?PR?HOMEPAGE_ICON?CONTROL

*** WARNING L16: UNCALLED SEGMENT, IGNORED FOR OVERLAY PROCESS
    SEGMENT: ?PR?OTARELOAD_DELAYPAGE?CONTROL

*** WARNING L16: UNCALLED SEGMENT, IGNORED FOR OVERLAY PROCESS
    SEGMENT: ?PR?SCREENSAVER_PRO?CONTROL

*** WARNING L16: UNCALLED SEGMENT, IGNORED FOR OVERLAY PROCESS
    SEGMENT: ?PR?_MODBUS_ISFAULTACTIVE?MODBUS

*** WARNING L16: UNCALLED SEGMENT, IGNORED FOR OVERLAY PROCESS
    SEGMENT: ?PR?RTCUPDATE?RTC

*** WARNING L16: UNCALLED SEGMENT, IGNORED FOR OVERLAY PROCESS
    SEGMENT: ?PR?_ERRORHISTORY_FLASHREAD?ERRORHISTORY

*** WARNING L16: UNCALLED SEGMENT, IGNORED FOR OVERLAY PROCESS
    SEGMENT: ?PR?ERRORHISTORY_INIT?ERRORHISTORY

*** WARNING L16: UNCALLED SEGMENT, IGNORED FOR OVERLAY PROCESS
    SEGMENT: ?PR?DECODEERRORHISTORY?ERRORHISTORY

*** WARNING L16: UNCALLED SEGMENT, IGNORED FOR OVERLAY PROCESS
    SEGMENT: ?PR?UPLOAD_ELECTRICITY_STATISTICS?UPLOAD

BL51 BANKED LINKER/LOCATER V6.22.2.0                                                  06/18/2026  10:05:40  PAGE 163


*** WARNING L16: UNCALLED SEGMENT, IGNORED FOR OVERLAY PROCESS
    SEGMENT: ?PR?UPLOAD_TIMESTAMP_BOOT_ONCE?UPLOAD

*** WARNING L16: UNCALLED SEGMENT, IGNORED FOR OVERLAY PROCESS
    SEGMENT: ?PR?UPLOAD_ALL_TIMERS?UPLOAD

*** WARNING L16: UNCALLED SEGMENT, IGNORED FOR OVERLAY PROCESS
    SEGMENT: ?PR?UPLOAD_REPORT_POLL?UPLOAD

*** WARNING L16: UNCALLED SEGMENT, IGNORED FOR OVERLAY PROCESS
    SEGMENT: ?PR?_UPLOAD_MODETODP101?UPLOAD

*** WARNING L16: UNCALLED SEGMENT, IGNORED FOR OVERLAY PROCESS
    SEGMENT: ?PR?_UPLOAD_WORKSTATETODP?UPLOAD

*** WARNING L16: UNCALLED SEGMENT, IGNORED FOR OVERLAY PROCESS
    SEGMENT: ?PR?_UPLOAD_BOOLIFCHANGED?UPLOAD

*** WARNING L16: UNCALLED SEGMENT, IGNORED FOR OVERLAY PROCESS
    SEGMENT: ?PR?_UPLOAD_ENUMIFCHANGED?UPLOAD

*** WARNING L16: UNCALLED SEGMENT, IGNORED FOR OVERLAY PROCESS
    SEGMENT: ?PR?_UPLOAD_VALUEIFCHANGED?UPLOAD

*** WARNING L16: UNCALLED SEGMENT, IGNORED FOR OVERLAY PROCESS
    SEGMENT: ?PR?UPLOAD_REPORT_FORCE_SYNC?UPLOAD

*** WARNING L16: UNCALLED SEGMENT, IGNORED FOR OVERLAY PROCESS
    SEGMENT: ?PR?_HEX_TO_BCD?MCU_API

*** WARNING L16: UNCALLED SEGMENT, IGNORED FOR OVERLAY PROCESS
    SEGMENT: ?PR?_MY_MEMSET?MCU_API

*** WARNING L16: UNCALLED SEGMENT, IGNORED FOR OVERLAY PROCESS
    SEGMENT: ?PR?_MY_STRCPY?MCU_API

*** WARNING L16: UNCALLED SEGMENT, IGNORED FOR OVERLAY PROCESS
    SEGMENT: ?PR?_MY_STRCMP?MCU_API

*** WARNING L16: UNCALLED SEGMENT, IGNORED FOR OVERLAY PROCESS
    SEGMENT: ?PR?_INT_TO_BYTE?MCU_API

*** WARNING L16: UNCALLED SEGMENT, IGNORED FOR OVERLAY PROCESS
    SEGMENT: ?PR?_MCU_DP_FAULT_UPDATE?MCU_API

*** WARNING L16: UNCALLED SEGMENT, IGNORED FOR OVERLAY PROCESS
    SEGMENT: ?PR?_UART_RECEIVE_BUFF_INPUT?MCU_API

*** WARNING L16: UNCALLED SEGMENT, IGNORED FOR OVERLAY PROCESS
    SEGMENT: ?PR?MCU_GET_WIFIMODE_FLAG?MCU_API

*** WARNING L16: UNCALLED SEGMENT, IGNORED FOR OVERLAY PROCESS
    SEGMENT: ?PR?_MCU_SET_WIFI_MODE?MCU_API

*** WARNING L16: UNCALLED SEGMENT, IGNORED FOR OVERLAY PROCESS
    SEGMENT: ?PR?MCU_START_WIFITEST?MCU_API

BL51 BANKED LINKER/LOCATER V6.22.2.0                                                  06/18/2026  10:05:40  PAGE 164


*** WARNING L1: UNRESOLVED EXTERNAL SYMBOL
    SYMBOL:  UPLOAD_REPORT_CHANGED
    MODULE:  .\obj\upload.obj (UPLOAD)

*** WARNING L2: REFERENCE MADE TO UNRESOLVED EXTERNAL
    SYMBOL:  UPLOAD_REPORT_CHANGED
    MODULE:  .\obj\upload.obj (UPLOAD)
    ADDRESS: E9BAH

*** WARNING L1: UNRESOLVED EXTERNAL SYMBOL
    SYMBOL:  OTALENGTH
    MODULE:  .\obj\OTA.obj (OTA)

*** WARNING L2: REFERENCE MADE TO UNRESOLVED EXTERNAL
    SYMBOL:  OTALENGTH
    MODULE:  .\obj\OTA.obj (OTA)
    ADDRESS: 5E9EH

*** WARNING L2: REFERENCE MADE TO UNRESOLVED EXTERNAL
    SYMBOL:  OTALENGTH
    MODULE:  .\obj\OTA.obj (OTA)
    ADDRESS: 5EC9H

*** WARNING L2: REFERENCE MADE TO UNRESOLVED EXTERNAL
    SYMBOL:  OTALENGTH
    MODULE:  .\obj\OTA.obj (OTA)
    ADDRESS: 5EF6H

*** WARNING L2: REFERENCE MADE TO UNRESOLVED EXTERNAL
    SYMBOL:  OTALENGTH
    MODULE:  .\obj\OTA.obj (OTA)
    ADDRESS: 5F21H

*** WARNING L2: REFERENCE MADE TO UNRESOLVED EXTERNAL
    SYMBOL:  OTALENGTH
    MODULE:  .\obj\OTA.obj (OTA)
    ADDRESS: 5F59H

Program Size: data=22.4 xdata=5612 code=59748
LINK/LOCATE RUN COMPLETE.  44 WARNING(S),  0 ERROR(S)
