BL51 BANKED LINKER/LOCATER V6.22.2.0                                                    06/18/2026  09:22:45  PAGE 1


BL51 BANKED LINKER/LOCATER V6.22.2.0, INVOKED BY:
D:\KEIL_V5\C51\C51\BIN\BL51.EXE .\obj\STARTUP_M5.obj, .\obj\main.obj, .\obj\sys.obj, .\obj\control.obj, .\obj\uart.obj, 
>> .\obj\modbus.obj, .\obj\rtc.obj, .\obj\ErrorHistory.obj, .\obj\upload.obj, .\obj\Wifipro.obj, .\obj\OTA.obj, .\obj\mc
>> u_api.obj, .\obj\protocol.obj, .\obj\system.obj TO .\obj\T5L51 PRINT (.\Listings\T5L51.m51) RAMSIZE (256) CODE (0X010
>> 0-0XFFFF) XDATA (0X8000-0XFFFF)


MEMORY MODEL: LARGE WITH FLOATING POINT ARITHMETIC


INPUT MODULES INCLUDED:
  .\obj\STARTUP_M5.obj (?C_STARTUP)
  .\obj\main.obj (MAIN)
  .\obj\sys.obj (SYS)
  .\obj\control.obj (CONTROL)
  .\obj\uart.obj (UART)
  .\obj\modbus.obj (MODBUS)
  .\obj\rtc.obj (RTC)
  .\obj\ErrorHistory.obj (ERRORHISTORY)
  .\obj\upload.obj (UPLOAD)
  .\obj\Wifipro.obj (WIFIPRO)
  .\obj\OTA.obj (OTA)
  .\obj\mcu_api.obj (MCU_API)
  .\obj\protocol.obj (PROTOCOL)
  .\obj\system.obj (SYSTEM)
  D:\KEIL_V5\C51\C51\LIB\C51FPL.LIB (?C?FPMUL)
  D:\KEIL_V5\C51\C51\LIB\C51FPL.LIB (?C?FPDIV)
  D:\KEIL_V5\C51\C51\LIB\C51FPL.LIB (?C?FPCMP)
  D:\KEIL_V5\C51\C51\LIB\C51FPL.LIB (?C?FCAST)
  D:\KEIL_V5\C51\C51\LIB\C51FPL.LIB (?C?CASTF)
  D:\KEIL_V5\C51\C51\LIB\C51FPL.LIB (PRINTF)
  D:\KEIL_V5\C51\C51\LIB\C51FPL.LIB (?C?FPGETOPN)
  D:\KEIL_V5\C51\C51\LIB\C51FPL.LIB (?C?FPROUND)
  D:\KEIL_V5\C51\C51\LIB\C51FPL.LIB (?C?FPCONVERT)
  D:\KEIL_V5\C51\C51\LIB\C51FPL.LIB (?C?FPADD)
  D:\KEIL_V5\C51\C51\LIB\C51FPL.LIB (?C?FTNPWR)
  D:\KEIL_V5\C51\C51\LIB\C51L.LIB (?C_INIT)
  D:\KEIL_V5\C51\C51\LIB\C51L.LIB (?C?COPY)
  D:\KEIL_V5\C51\C51\LIB\C51L.LIB (?C?CLDPTR)
  D:\KEIL_V5\C51\C51\LIB\C51L.LIB (?C?CLDOPTR)
  D:\KEIL_V5\C51\C51\LIB\C51L.LIB (?C?CILDOPTR)
  D:\KEIL_V5\C51\C51\LIB\C51L.LIB (?C?CSTPTR)
  D:\KEIL_V5\C51\C51\LIB\C51L.LIB (?C?CSTOPTR)
  D:\KEIL_V5\C51\C51\LIB\C51L.LIB (?C?IMUL)
  D:\KEIL_V5\C51\C51\LIB\C51L.LIB (?C?UIDIV)
  D:\KEIL_V5\C51\C51\LIB\C51L.LIB (?C?SIDIV)
  D:\KEIL_V5\C51\C51\LIB\C51L.LIB (?C?IILDX)
  D:\KEIL_V5\C51\C51\LIB\C51L.LIB (?C?ILDIX)
  D:\KEIL_V5\C51\C51\LIB\C51L.LIB (?C?ILDIPTR)
  D:\KEIL_V5\C51\C51\LIB\C51L.LIB (?C?ILDOPTR)
  D:\KEIL_V5\C51\C51\LIB\C51L.LIB (?C?ISTPTR)
  D:\KEIL_V5\C51\C51\LIB\C51L.LIB (?C?ISTOPTR)
  D:\KEIL_V5\C51\C51\LIB\C51L.LIB (?C?LMUL)
  D:\KEIL_V5\C51\C51\LIB\C51L.LIB (?C?ULDIV)
  D:\KEIL_V5\C51\C51\LIB\C51L.LIB (?C?LNEG)
  D:\KEIL_V5\C51\C51\LIB\C51L.LIB (?C?SLCMP)
  D:\KEIL_V5\C51\C51\LIB\C51L.LIB (?C?ULCMP)
  D:\KEIL_V5\C51\C51\LIB\C51L.LIB (?C?ULSHR)
BL51 BANKED LINKER/LOCATER V6.22.2.0                                                  06/18/2026  09:22:45  PAGE 2


  D:\KEIL_V5\C51\C51\LIB\C51L.LIB (?C?LSHL)
  D:\KEIL_V5\C51\C51\LIB\C51L.LIB (?C?LLDPTR)
  D:\KEIL_V5\C51\C51\LIB\C51L.LIB (?C?LSTPTR)
  D:\KEIL_V5\C51\C51\LIB\C51L.LIB (?C?LSTXDATA)
  D:\KEIL_V5\C51\C51\LIB\C51L.LIB (?C?LSTKXDATA)
  D:\KEIL_V5\C51\C51\LIB\C51L.LIB (?C?OFFXADD)
  D:\KEIL_V5\C51\C51\LIB\C51L.LIB (?C?PLDIXDATA)
  D:\KEIL_V5\C51\C51\LIB\C51L.LIB (?C?PSTXDATA)
  D:\KEIL_V5\C51\C51\LIB\C51L.LIB (?C?CCASE)
  D:\KEIL_V5\C51\C51\LIB\C51L.LIB (?C?ICASE)
  D:\KEIL_V5\C51\C51\LIB\C51L.LIB (?C?LIMUL)
  D:\KEIL_V5\C51\C51\LIB\C51L.LIB (STRTOUL)
  D:\KEIL_V5\C51\C51\LIB\C51L.LIB (?C?LLDIDATA)
  D:\KEIL_V5\C51\C51\LIB\C51L.LIB (?C?LLDXDATA)
  D:\KEIL_V5\C51\C51\LIB\C51L.LIB (?C?LLDPDATA)
  D:\KEIL_V5\C51\C51\LIB\C51L.LIB (?C?LLDCODE)
  D:\KEIL_V5\C51\C51\LIB\C51L.LIB (?C?LSTIDATA)
  D:\KEIL_V5\C51\C51\LIB\C51L.LIB (?C?LSTPDATA)
  D:\KEIL_V5\C51\C51\LIB\C51L.LIB (?C?PSTPTR)
  D:\KEIL_V5\C51\C51\LIB\C51L.LIB (?C?PSTIDATA)
  D:\KEIL_V5\C51\C51\LIB\C51L.LIB (?C?PSTPDATA)


LINK MAP OF MODULE:  .\obj\T5L51 (?C_STARTUP)


            TYPE    BASE      LENGTH    RELOCATION   SEGMENT NAME
            -----------------------------------------------------

            * * * * * * *   D A T A   M E M O R Y   * * * * * * *
            REG     0000H     0008H     ABSOLUTE     "REG BANK 0"
            DATA    0008H     0005H     UNIT         _DATA_GROUP_
            DATA    000DH     0002H     UNIT         ?DT?SYS
                    000FH     0011H                  *** GAP ***
            BIT     0020H.0   0003H.1   UNIT         ?BI?MODBUS
            BIT     0023H.1   0001H.1   UNIT         _BIT_GROUP_
            BIT     0024H.2   0000H.7   UNIT         ?BI?UPLOAD
            BIT     0025H.1   0000H.5   UNIT         ?BI?CONTROL
            BIT     0025H.6   0000H.4   UNIT         ?BI?OTA
            BIT     0026H.2   0000H.1   UNIT         ?BI?MAIN
            BIT     0026H.3   0000H.1   UNIT         ?BI?PROTOCOL
                    0026H.4   0000H.4                *** GAP ***
            IDATA   0027H     0001H     UNIT         ?STACK

            * * * * * * *  X D A T A   M E M O R Y  * * * * * * *
                    0000H     8000H                  *** GAP ***
            XDATA   8000H     046AH     UNIT         ?XD?MODBUS
            XDATA   846AH     0301H     UNIT         ?XD?SYS
            XDATA   876BH     02B2H     UNIT         ?XD?SYSTEM
            XDATA   8A1DH     0205H     UNIT         ?XD?ERRORHISTORY
            XDATA   8C22H     01D3H     UNIT         _XDATA_GROUP_
            XDATA   8DF5H     0199H     UNIT         ?XD?UART
            XDATA   8F8EH     0151H     UNIT         ?XD?PROTOCOL
            XDATA   90DFH     00B6H     UNIT         ?XD?UPLOAD
            XDATA   9195H     0056H     UNIT         ?XD?CONTROL
            XDATA   91EBH     004CH     UNIT         ?XD?UPLOAD_CHECK_STATUS?UPLOAD
            XDATA   9237H     003CH     UNIT         ?XD?MODBUS_ANALYSIS_DATA1?MODBUS
BL51 BANKED LINKER/LOCATER V6.22.2.0                                                  06/18/2026  09:22:45  PAGE 3


            XDATA   9273H     001BH     UNIT         ?XD?RTC
            XDATA   928EH     0015H     UNIT         ?XD?MODBUS_SALVE_HANDLER1?MODBUS
            XDATA   92A3H     0013H     UNIT         ?XD?_UPLOAD_ULTOSTR?UPLOAD
            XDATA   92B6H     0012H     UNIT         ?XD?CHECK_RTC_SET?RTC
            XDATA   92C8H     0011H     UNIT         ?XD?RDTIME?RTC
            XDATA   92D9H     0010H     UNIT         ?XD?_MODBUS_WRITEFLOATTEMPPAIR?MODBUS
            XDATA   92E9H     0010H     UNIT         ?XD?UPLOAD_ELECTRICITY_STATISTICS?UPLOAD
            XDATA   92F9H     0010H     UNIT         ?XD?UPLOAD_TIMESTAMP_FROM_RTC?UPLOAD
            XDATA   9309H     000EH     UNIT         ?XD?DEFROST_CHECKEXIT?CONTROL
            XDATA   9317H     000EH     UNIT         ?XD?_READTIMERTEMPC?CONTROL
            XDATA   9325H     000DH     UNIT         ?XD?_MODBUS_PACKCHECKSTATUSBLOCK?MODBUS
            XDATA   9332H     000DH     UNIT         ?XD?_ERRORHISTORY_READTIME?ERRORHISTORY
            XDATA   933FH     000DH     UNIT         ?XD?UPLOAD_REPORT_CHANGED?UPLOAD
            XDATA   934CH     000CH     UNIT         ?XD?SCREENSAVER_PRO?CONTROL
            XDATA   9358H     000BH     UNIT         ?XD?TIMER_APPLYINDOORON?CONTROL
            XDATA   9363H     000BH     UNIT         ?XD?OTA
            XDATA   936EH     0009H     UNIT         ?XD?_CALCULATEMODBUSCRC?MODBUS
            XDATA   9377H     0009H     UNIT         ?XD?_UPDATEERRORHISTORY?ERRORHISTORY
            XDATA   9380H     0009H     UNIT         ?XD?_MY_MEMSET?MCU_API
            XDATA   9389H     0009H     UNIT         ?XD?_MY_STRCPY?MCU_API
            XDATA   9392H     0008H     UNIT         ?XD?_GETTIMEDIFF?RTC
            XDATA   939AH     0008H     UNIT         ?XD?_UPLOAD_VALUEIFCHANGED?UPLOAD
            XDATA   93A2H     0007H     UNIT         ?XD?TIMERRUNNING?CONTROL
            XDATA   93A9H     0007H     UNIT         ?XD?_MCU_DP_FAULT_UPDATE?MCU_API
            XDATA   93B0H     0006H     UNIT         ?XD?RTCUPDATE?RTC
            XDATA   93B6H     0006H     UNIT         ?XD?_MY_STRCMP?MCU_API
            XDATA   93BCH     0005H     UNIT         ?XD?_TIMER_ISWEEKDAYMATCH?CONTROL
            XDATA   93C1H     0005H     UNIT         ?XD?TIMER_APPLYINDOOROFF?CONTROL
            XDATA   93C6H     0005H     UNIT         ?XD?_MODBUS_APPENDMODESETTEMPREG?MODBUS
            XDATA   93CBH     0005H     UNIT         ?XD?_RTC_CONFIG?RTC
            XDATA   93D0H     0005H     UNIT         ?XD?_RTC_GET_WEEK?RTC
            XDATA   93D5H     0005H     UNIT         ?XD?_UART_RECEIVE_BUFF_INPUT?MCU_API
            XDATA   93DAH     0004H     UNIT         ?XD?_DGUS_WAITEN?SYS
            XDATA   93DEH     0004H     UNIT         ?XD?HOMEPAGE_ICON?CONTROL
            XDATA   93E2H     0004H     UNIT         ?XD?_MODBUS_SAVEINDOORSENTREGS?MODBUS
            XDATA   93E6H     0004H     UNIT         ?XD?OTAENCODEPRO?OTA
            XDATA   93EAH     0004H     UNIT         ?XD?_INT_TO_BYTE?MCU_API
            XDATA   93EEH     0003H     UNIT         ?XD?_UART5_SENDSTR?UART
            XDATA   93F1H     0003H     UNIT         ?XD?_MODBUS_SAVEGROUPSENTREGS?MODBUS
            XDATA   93F4H     0003H     UNIT         ?XD?_MODBUS_GETCHECKSTATUS?MODBUS
            XDATA   93F7H     0003H     UNIT         ?XD?_GETMODBUSREG?MODBUS
            XDATA   93FAH     0003H     UNIT         ?XD?MCU_API
            XDATA   93FDH     0002H     UNIT         ?XD?MAIN
            XDATA   93FFH     0002H     UNIT         ?XD?SAVE_DATA_HANDLER?SYS
            XDATA   9401H     0002H     UNIT         ?XD?SYNCTIMERFROMVP?CONTROL
            XDATA   9403H     0002H     UNIT         ?XD?_MODBUS_APPENDU16?MODBUS
            XDATA   9405H     0002H     UNIT         ?XD?_MODBUS_REPORTFAULTCODE?MODBUS
            XDATA   9407H     0001H     UNIT         ?XD?_MODBUS_ISFAULTACTIVE?MODBUS
            XDATA   9408H     0001H     UNIT         ?XD?DECODEERRORHISTORY?ERRORHISTORY

            * * * * * * *   C O D E   M E M O R Y   * * * * * * *
            CODE    0000H     0003H     ABSOLUTE     
                    0003H     0008H                  *** GAP ***
            CODE    000BH     0003H     ABSOLUTE     
                    000EH     000DH                  *** GAP ***
            CODE    001BH     0003H     ABSOLUTE     
                    001EH     0005H                  *** GAP ***
BL51 BANKED LINKER/LOCATER V6.22.2.0                                                  06/18/2026  09:22:45  PAGE 4


            CODE    0023H     0003H     ABSOLUTE     
                    0026H     0005H                  *** GAP ***
            CODE    002BH     0003H     ABSOLUTE     
                    002EH     0035H                  *** GAP ***
            CODE    0063H     0003H     ABSOLUTE     
                    0066H     0005H                  *** GAP ***
            CODE    006BH     0003H     ABSOLUTE     
                    006EH     008AH                  *** GAP ***
            CODE    00F8H     0008H     ABSOLUTE     
            CODE    0100H     196AH     UNIT         ?PR?CONTROL_FUNCTION1?CONTROL
            CODE    1A6AH     0F3AH     UNIT         ?PR?MODBUS_ANALYSIS_DATA1?MODBUS
            CODE    29A4H     0D77H     UNIT         ?PR?MODBUS_SALVE_HANDLER1?MODBUS
            CODE    371BH     0BF5H     UNIT         ?C?LIB_CODE
            CODE    4310H     09C9H     UNIT         ?C_INITSEG
            CODE    4CD9H     07A7H     UNIT         ?PR?_DATA_HANDLE?SYSTEM
            CODE    5480H     0534H     UNIT         ?PR?UPLOAD_REPORT_CHANGED?UPLOAD
            CODE    59B4H     0483H     UNIT         ?PR?PRINTF?PRINTF
            CODE    5E37H     0449H     UNIT         ?PR?ALL_DATA_UPDATE?PROTOCOL
            CODE    6280H     038EH     UNIT         ?PR?OTAENCODEPRO?OTA
            CODE    660EH     02E3H     UNIT         ?PR?_DP_DOWNLOAD_INSIDE_TIME_OPEN_HANDLE?PROTOCOL
            CODE    68F1H     02B3H     UNIT         ?PR?_TEMP_LIMIT?CONTROL
            CODE    6BA4H     02ADH     UNIT         ?PR?TEMPUNIT_REFRESHALL?CONTROL
            CODE    6E51H     0294H     UNIT         ?PR?TIMERRUNNING?CONTROL
            CODE    70E5H     026BH     UNIT         ?PR?_DP_DOWNLOAD_INDOOR_UNIT_HANDLE?PROTOCOL
            CODE    7350H     026AH     UNIT         ?PR?_TIMESTAMP_TO_YMDHMS?PROTOCOL
            CODE    75BAH     0260H     UNIT         ?PR?_ERRORHISTORY_FLASHREAD?ERRORHISTORY
            CODE    781AH     0252H     UNIT         ?PR?_STRTOUL?STRTOUL
            CODE    7A6CH     024DH     UNIT         ?PR?UPLOAD_INDOOR_UNIT?UPLOAD
            CODE    7CB9H     023CH     UNIT         ?PR?_ERRORHISTORY_PACKREC?ERRORHISTORY
            CODE    7EF5H     022BH     UNIT         ?PR?SYNCTIMERFROMVP?CONTROL
            CODE    8120H     0200H     UNIT         ?PR?UPLOAD_EXTERNAL_TIME_OPEN?UPLOAD
            CODE    8320H     01FBH     UNIT         ?PR?_MODBUS_APPLYINDOORTIMERVPTOUNITS?MODBUS
            CODE    851BH     01FAH     UNIT         ?PR?_MODBUS_FILLINDOORUNITREGS?MODBUS
            CODE    8715H     01F9H     UNIT         ?PR?_READ_DGUS_VP?SYS
            CODE    890EH     01F8H     UNIT         ?PR?WIFI_UART_SERVICE?MCU_API
            CODE    8B06H     01F0H     UNIT         ?PR?READ_MEMORY?SYS
            CODE    8CF6H     01E0H     UNIT         ?PR?UPLOAD_INSIDE_TIME_OPEN?UPLOAD
            CODE    8ED6H     01DEH     UNIT         ?PR?_DP_DOWNLOAD_EXTERNAL_TIME_OPEN_HANDLE?PROTOCOL
            CODE    90B4H     01D6H     UNIT         ?PR?_DP_DOWNLOAD_TIMESTAMP_HANDLE?PROTOCOL
            CODE    928AH     01BEH     UNIT         ?PR?_WRITE_DGUS_VP?SYS
            CODE    9448H     01BEH     UNIT         ?PR?RDTIME?RTC
            CODE    9606H     01ABH     UNIT         ?PR?RTC_GETUNIXLOCAL?RTC
            CODE    97B1H     0197H     UNIT         ?PR?_ERRORHISTORY_UNPACKRECLEGACY?ERRORHISTORY
            CODE    9948H     0193H     UNIT         ?PR?_ERRORHISTORY_UNPACKREC?ERRORHISTORY
            CODE    9ADBH     0182H     UNIT         ?PR?_DP_DOWNLOAD_HANDLE?PROTOCOL
            CODE    9C5DH     0176H     UNIT         ?PR?DEFROST_CHECKEXIT?CONTROL
            CODE    9DD3H     016FH     UNIT         ?PR?UPLOAD_HISTORY_FAULTS?UPLOAD
            CODE    9F42H     016DH     UNIT         ?PR?READ_MEMORY_ERROR?SYS
            CODE    A0AFH     016CH     UNIT         ?PR?MODBUS_REFRESHCHECKPARAMDISPLAY?MODBUS
            CODE    A21BH     0167H     UNIT         ?PR?CHECK_RTC_SET?RTC
            CODE    A382H     0167H     UNIT         ?PR?_MY_MEMCPY?MCU_API
            CODE    A4E9H     0165H     UNIT         ?PR?WRITE_MEMORY?SYS
            CODE    A64EH     015FH     UNIT         ?PR?_MCU_DP_FAULT_UPDATE?MCU_API
            CODE    A7ADH     015EH     UNIT         ?PR?_UPDATEERRORHISTORY?ERRORHISTORY
            CODE    A90BH     015CH     UNIT         ?PR?HOMEPAGE_ICON?CONTROL
            CODE    AA67H     0153H     UNIT         ?PR?SCREENSAVER_PRO?CONTROL
            CODE    ABBAH     0148H     UNIT         ?PR?_FLASHCHECKSUMCALCULATE?SYS
BL51 BANKED LINKER/LOCATER V6.22.2.0                                                  06/18/2026  09:22:45  PAGE 5


            CODE    AD02H     0138H     UNIT         ?PR?_BYTE_TO_INT?MCU_API
            CODE    AE3AH     0129H     UNIT         ?PR?READY4WRITERTC?CONTROL
            CODE    AF63H     0126H     UNIT         ?PR?TIMER_APPLYINDOORON?CONTROL
            CODE    B089H     0121H     UNIT         ?PR?PRODUCT_INFO_UPDATE?SYSTEM
            CODE    B1AAH     011BH     UNIT         ?PR?_UPLOAD_ULTOSTR?UPLOAD
            CODE    B2C5H     0113H     UNIT         ?PR?RTCDISPLAY4CHANGE?CONTROL
            CODE    B3D8H     010FH     UNIT         ?PR?_ERRORHISTORY_READTIME?ERRORHISTORY
            CODE    B4E7H     010EH     UNIT         ?PR?PREFILLSETTEMPEDITPAGE?CONTROL
            CODE    B5F5H     010CH     UNIT         ?PR?T0_ISR_PC?SYS
            CODE    B701H     0106H     UNIT         ?PR?HOMEPAGE_SYNCINDOORDISPLAY?CONTROL
            CODE    B807H     0106H     UNIT         ?PR?_MODBUS_FILLGROUPCONTROLREGS?MODBUS
            CODE    B90DH     0102H     UNIT         ?PR?ERRORHISTORYDISPLAY?ERRORHISTORY
            CODE    BA0FH     00FBH     UNIT         ?PR?_HOMEPAGE_UPDATEMODEANIMATION?CONTROL
            CODE    BB0AH     00F1H     UNIT         ?PR?_DP_DOWNLOAD_SWITCH_HANDLE?PROTOCOL
            CODE    BBFBH     00EEH     UNIT         ?PR?_KEYADJUSTSETTEMPFORMODE?CONTROL
            CODE    BCE9H     00E4H     UNIT         ?PR?_RTC_CONFIG?RTC
            CODE    BDCDH     00E2H     UNIT         ?PR?UPLOAD_INSIDE_TIME_CLOSE?UPLOAD
            CODE    BEAFH     00E2H     UNIT         ?PR?UPLOAD_EXTERNAL_TIME_CLOSE?UPLOAD
            CODE    BF91H     00D8H     UNIT         ?PR?_DP_DOWNLOAD_MODE_HANDLE?PROTOCOL
            CODE    C069H     00D1H     UNIT         ?PR?_DP_DOWNLOAD_INSIDE_TIME_CLOSE_HANDLE?PROTOCOL
            CODE    C13AH     00D1H     UNIT         ?PR?_DP_DOWNLOAD_EXTERNAL_TIME_CLOSE_HANDLE?PROTOCOL
            CODE    C20BH     00C8H     UNIT         ?PR?UART5_RX_ISR_PC?UART
            CODE    C2D3H     00C7H     UNIT         ?PR?_TEMPUNITTRANS?CONTROL
            CODE    C39AH     00C5H     UNIT         ?PR?_MEMORY_WRITETIMERSLOT?SYS
            CODE    C45FH     00C3H     UNIT         ?PR?INIT_RTC?RTC
            CODE    C522H     00B9H     UNIT         ?PR?_CALCULATEMODBUSCRC?MODBUS
            CODE    C5DBH     00ACH     UNIT         ?PR?_TIMER_ISWEEKDAYMATCH?CONTROL
            CODE    C687H     00ACH     UNIT         ?PR?_MODBUS_PACKCHECKSTATUSBLOCK?MODBUS
            CODE    C733H     00ACH     UNIT         ?PR?_UART_RECEIVE_INPUT?MCU_API
            CODE    C7DFH     00ABH     UNIT         ?PR?_ERRORHISTORY_FLASHWRITE?ERRORHISTORY
            CODE    C88AH     00A7H     UNIT         ?PR?_MCU_DP_VALUE_UPDATE?MCU_API
            CODE    C931H     00A6H     UNIT         ?PR?_MEMORY_READTIMERSLOT?SYS
            CODE    C9D7H     00A5H     UNIT         ?PR?_DP_DOWNLOAD_TEMP_SET_HANDLE?PROTOCOL
            CODE    CA7CH     00A4H     UNIT         ?PR?RTCUPDATE?RTC
            CODE    CB20H     00A1H     UNIT         ?C_C51STARTUP
            CODE    CBC1H     009FH     UNIT         ?PR?_MCU_FIRM_UPDATE_HANDLE?PROTOCOL
            CODE    CC60H     009BH     UNIT         ?PR?_SYNCSETTEMPCACHESFROMC?CONTROL
            CODE    CCFBH     009BH     UNIT         ?PR?UPLOAD_CHECK_STATUS?UPLOAD
            CODE    CD96H     0095H     UNIT         ?PR?UART2_ISR_PC?UART
            CODE    CE2BH     0094H     UNIT         ?PR?_RTC_GET_WEEK?RTC
            CODE    CEBFH     0091H     UNIT         ?PR?_RTC_WRITEDISPLAYTIME?RTC
            CODE    CF50H     0091H     UNIT         ?PR?_RTC_WRITEEDITTIME?RTC
            CODE    CFE1H     008AH     UNIT         ?PR?ERRORHISTORY_TRYMIGRATEFLASH?ERRORHISTORY
            CODE    D06BH     008AH     UNIT         ?PR?_MY_STRCPY?MCU_API
            CODE    D0F5H     0086H     UNIT         ?PR?_DATA_POINT_HANDLE?SYSTEM
            CODE    D17BH     0083H     UNIT         ?PR?_READTIMERTEMPC?CONTROL
            CODE    D1FEH     0083H     UNIT         ?PR?_MODBUS_APPENDMODESETTEMPREG?MODBUS
            CODE    D281H     0080H     UNIT         ?PR?_MODBUS_INDOORREGSCHANGED?MODBUS
            CODE    D301H     007DH     UNIT         ?PR?UPLOAD_PACKTIMERROOMBYTE?UPLOAD
            CODE    D37EH     007CH     UNIT         ?PR?MODBUSCHANELCONTROL?MAIN
            CODE    D3FAH     007BH     UNIT         ?PR?OTADECODEPRO?OTA
            CODE    D475H     0079H     UNIT         ?PR?_GETTIMEDIFF?RTC
            CODE    D4EEH     0078H     UNIT         ?PR?TIMER_APPLYINDOOROFF?CONTROL
            CODE    D566H     0075H     UNIT         ?PR?_MY_STRLEN?MCU_API
            CODE    D5DBH     0074H     UNIT         ?PR?_SYNCINDOORROOMTEMPVPPAIR?CONTROL
            CODE    D64FH     0074H     UNIT         ?PR?_UART2SENDDATA?UART
            CODE    D6C3H     0073H     UNIT         ?PR?_MY_STRCMP?MCU_API
BL51 BANKED LINKER/LOCATER V6.22.2.0                                                  06/18/2026  09:22:45  PAGE 6


            CODE    D736H     0071H     UNIT         ?PR?_UART5_SENDSTR?UART
            CODE    D7A7H     0071H     UNIT         ?PR?UART5_TX_ISR_PC?UART
            CODE    D818H     0071H     UNIT         ?PR?_HEX_TO_BCD?MCU_API
            CODE    D889H     0070H     UNIT         ?PR?_MODBUS_WRITEFLOATTEMPPAIR?MODBUS
            CODE    D8F9H     006DH     UNIT         ?PR?TEMPUNIT_REFRESHACTIVESETFROMMODE?CONTROL
            CODE    D966H     006DH     UNIT         ?PR?_ERRORHISTORY_CONVERTLEGACYRAWREC?ERRORHISTORY
            CODE    D9D3H     006CH     UNIT         ?PR?_SET_WIFI_UART_BUFFER?SYSTEM
            CODE    DA3FH     0069H     UNIT         ?PR?_WIFI_UART_WRITE_FRAME?SYSTEM
            CODE    DAA8H     0067H     UNIT         ?PR?INIT_CPU?SYS
            CODE    DB0FH     0066H     UNIT         ?PR?_SYNCINDOORSETTEMPVPPAIR?CONTROL
            CODE    DB75H     0066H     UNIT         ?PR?_MODBUS_GROUPREGSCHANGED?MODBUS
            CODE    DBDBH     0066H     UNIT         ?PR?UPLOAD_TIMESTAMP_FROM_RTC?UPLOAD
            CODE    DC41H     0065H     UNIT         ?PR?GETVALUE0F00?CONTROL
            CODE    DCA6H     0065H     UNIT         ?PR?_MODBUS_SAVEINDOORSENTREGS?MODBUS
            CODE    DD0BH     0064H     UNIT         ?PR?_SETTEMPINTVPBYMODE?CONTROL
            CODE    DD6FH     0064H     UNIT         ?PR?_UPLOAD_VALUEIFCHANGED?UPLOAD
            CODE    DDD3H     0063H     UNIT         ?PR?TAKE_BYTE_RXBUFF?SYSTEM
            CODE    DE36H     0060H     UNIT         ?PR?_INT_TO_BYTE?MCU_API
            CODE    DE96H     005FH     UNIT         ?PR?_SYNCTIMERTEMPVPPAIR?CONTROL
            CODE    DEF5H     005EH     UNIT         ?PR?MAIN?MAIN
            CODE    DF53H     005CH     UNIT         ?PR?_TEMPUNIT_REFRESHFLOATPAIR?CONTROL
            CODE    DFAFH     005BH     UNIT         ?PR?_MCU_DP_RAW_UPDATE?MCU_API
            CODE    E00AH     005BH     UNIT         ?PR?_MCU_DP_STRING_UPDATE?MCU_API
            CODE    E065H     0059H     UNIT         ?PR?SCREENTIMEOUT_SET?SYS
            CODE    E0BEH     0058H     UNIT         ?PR?_MY_MEMSET?MCU_API
            CODE    E116H     0055H     UNIT         ?PR?T1_ISR_PC?SYS
            CODE    E16BH     0055H     UNIT         ?CO?CONTROL
            CODE    E1C0H     0054H     UNIT         ?PR?_MODBUS_ISFAULTACTIVE?MODBUS
            CODE    E214H     0054H     UNIT         ?PR?DECODEERRORHISTORY?ERRORHISTORY
            CODE    E268H     0054H     UNIT         ?PR?_WIFI_UART_WRITE_DATA?SYSTEM
            CODE    E2BCH     0052H     UNIT         ?CO?SYS
            CODE    E30EH     0051H     UNIT         ?PR?_MODBUS_TRIGGERINDOORUNITWRITE?MODBUS
            CODE    E35FH     0050H     UNIT         ?PR?ERRORHISTORY_SANITIZE?ERRORHISTORY
            CODE    E3AFH     004EH     UNIT         ?PR?SAVE_DATA_HANDLER?SYS
            CODE    E3FDH     004CH     UNIT         ?PR?_MODBUS_SAVEGROUPSENTREGS?MODBUS
            CODE    E449H     004CH     UNIT         ?PR?_GETMODBUSREG?MODBUS
            CODE    E495H     004BH     UNIT         ?PR?_PAGE_CHANGE_HANDLER?SYS
            CODE    E4E0H     004BH     UNIT         ?PR?_MODBUS_APPENDU16?MODBUS
            CODE    E52BH     004AH     UNIT         ?PR?_GET_CHECK_SUM?SYSTEM
            CODE    E575H     0049H     UNIT         ?PR?_MODBUS_GETCHECKSTATUS?MODBUS
            CODE    E5BEH     0045H     UNIT         ?PR?_DGUS_WAITEN?SYS
            CODE    E603H     0045H     UNIT         ?PR?_SETTEMPFLOATWRITEC?CONTROL
            CODE    E648H     0045H     UNIT         ?PR?MODBUS_STARTMANUALDEFROST?MODBUS
            CODE    E68DH     0044H     UNIT         ?PR?HOMEPAGE?CONTROL
            CODE    E6D1H     0044H     UNIT         ?PR?ERRORHISTORY_FLASHCOMMITNOW?ERRORHISTORY
            CODE    E715H     0044H     UNIT         ?PR?CLEARERRORHISTORY?ERRORHISTORY
            CODE    E759H     0044H     UNIT         ?PR?_MCU_DP_BOOL_UPDATE?MCU_API
            CODE    E79DH     0043H     UNIT         ?PR?WIFI_RESTING_PRO?CONTROL
            CODE    E7E0H     0042H     UNIT         ?CO?PROTOCOL
            CODE    E822H     0041H     UNIT         ?PR?_DP_DOWNLOAD_TEMP_UNIT_CONVERT_HANDLE?PROTOCOL
            CODE    E863H     0040H     UNIT         ?PR?SYSTEM_PARM_INIT?SYS
            CODE    E8A3H     003FH     UNIT         ?PR?READY_TO_SAVE?SYS
            CODE    E8E2H     003FH     UNIT         ?PR?_UART_RECEIVE_BUFF_INPUT?MCU_API
            CODE    E921H     003EH     UNIT         ?PR?READ_NOR_FLASH?SYS
            CODE    E95FH     003EH     UNIT         ?PR?WRITE_NOR_FLASH?SYS
            CODE    E99DH     003EH     UNIT         ?PR?_MODBUS_ENCODEINDOORRUNMODE?MODBUS
            CODE    E9DBH     003EH     UNIT         ?PR?_RTCI2CBW?RTC
BL51 BANKED LINKER/LOCATER V6.22.2.0                                                  06/18/2026  09:22:45  PAGE 7


            CODE    EA19H     003EH     UNIT         ?PR?_MCU_DP_ENUM_UPDATE?MCU_API
            CODE    EA57H     003EH     UNIT         ?PR?_DP_DOWNLOAD_CHILD_LOCK_HANDLE?PROTOCOL
            CODE    EA95H     003BH     UNIT         ?PR?MODBUS_STARTNEXTTIMERWRITE?MODBUS
            CODE    EAD0H     003BH     UNIT         ?CO?SYSTEM
            CODE    EB0BH     0039H     UNIT         ?PR?_DP_DOWNLOAD_RELAY_STATUS_HANDLE?PROTOCOL
            CODE    EB44H     0038H     UNIT         ?PR?UPLOAD_ELECTRICITY_STATISTICS?UPLOAD
            CODE    EB7CH     0038H     UNIT         ?CO?UPLOAD
            CODE    EBB4H     0037H     UNIT         ?PR?_MODBUS_REPORTFAULTCODE?MODBUS
            CODE    EBEBH     0036H     UNIT         ?PR?UNITCHANGEPRO?CONTROL
            CODE    EC21H     0036H     UNIT         ?PR?_DP_DOWNLOAD_DEFROST_HANDLE?PROTOCOL
            CODE    EC57H     0035H     UNIT         ?PR?_RTC_DAYS_IN_MONTH?RTC
            CODE    EC8CH     0035H     UNIT         ?PR?WITH_DATA_RXBUFF?SYSTEM
            CODE    ECC1H     0033H     UNIT         ?PR?_ERRORHISTORY_PAGECHANGE?ERRORHISTORY
            CODE    ECF4H     0032H     UNIT         ?PR?_DELAY_US?RTC
            CODE    ED26H     0032H     UNIT         ?PR?RTCI2CBR?RTC
            CODE    ED58H     0030H     UNIT         ?PR?_SETTEMPINTREAD?CONTROL
            CODE    ED88H     0030H     UNIT         ?PR?_SETTEMPINTWRITE?CONTROL
            CODE    EDB8H     0030H     UNIT         ?PR?_IS_LEAP_YEAR?PROTOCOL
            CODE    EDE8H     002FH     UNIT         ?PR?_GET_DOWMLOAD_DPID_INDEX?SYSTEM
            CODE    EE17H     002EH     UNIT         ?PR?_LANGUAGE_CHANGE?SYS
            CODE    EE45H     002CH     UNIT         ?PR?_SET_WIFI_UART_BYTE?SYSTEM
            CODE    EE71H     002BH     UNIT         ?PR?_ERRORHISTORY_ISVALIDCODE?ERRORHISTORY
            CODE    EE9CH     0029H     UNIT         ?PR?_MODBUS_ENCODEINDOORFAN?MODBUS
            CODE    EEC5H     0029H     UNIT         ?PR?RTCCACK?RTC
            CODE    EEEEH     0029H     UNIT         ?PR?_MODE_MAP_TO_DGUS?PROTOCOL
            CODE    EF17H     0028H     UNIT         ?PR?OTARELOAD_DELAYPAGE?CONTROL
            CODE    EF3FH     0028H     UNIT         ?PR?_RTC_IS_LEAP?RTC
            CODE    EF67H     0028H     UNIT         ?PR?WIFI_PROTOCOL_INIT?MCU_API
            CODE    EF8FH     0027H     UNIT         ?PR?_MODBUS_QUEUEINDOORTIMERWRITE?MODBUS
            CODE    EFB6H     0027H     UNIT         ?PR?HEAT_BEAT_CHECK?SYSTEM
            CODE    EFDDH     0026H     UNIT         ?PR?_ISITHOMEPAGE?CONTROL
            CODE    F003H     0026H     UNIT         ?PR?OTAINIT?OTA
            CODE    F029H     0023H     UNIT         ?PR?UI_OPENPAGE?MAIN
            CODE    F04CH     0022H     UNIT         ?PR?GETPAGEID?CONTROL
            CODE    F06EH     0022H     UNIT         ?PR?ERRORHISTORY_GETCOUNT?ERRORHISTORY
            CODE    F090H     0022H     UNIT         ?PR?_DP_DOWNLOAD_HISTORY_FAULT_EMPTY_HANDLE?PROTOCOL
            CODE    F0B2H     0021H     UNIT         ?PR?_UPLOAD_CLAMPINDOORTEMP?UPLOAD
            CODE    F0D3H     0020H     UNIT         ?PR?_BRIGHTNESS_HANDLER?SYS
            CODE    F0F3H     0020H     UNIT         ?PR?_DELAYUS?SYS
            CODE    F113H     0020H     UNIT         ?PR?_DELAYMS?SYS
            CODE    F133H     0020H     UNIT         ?PR?_SETMODEPROCESS?CONTROL
            CODE    F153H     0020H     UNIT         ?PR?_PUTCHAR?UART
            CODE    F173H     0020H     UNIT         ?PR?OTARECVPRO?OTA
            CODE    F193H     001FH     UNIT         ?PR?_UPLOAD_DGUSMODETODP116?UPLOAD
            CODE    F1B2H     001FH     UNIT         ?CO?MCU_API
            CODE    F1D1H     001EH     UNIT         ?PR?_UPLOAD_WORKSTATETODP?UPLOAD
            CODE    F1EFH     001DH     UNIT         ?PR?MODBUS_TRIGGERGROUPCONTROLWRITE?MODBUS
            CODE    F20CH     001BH     UNIT         ?PR?_UPLOAD_BOOLIFCHANGED?UPLOAD
            CODE    F227H     001AH     UNIT         ?PR?_DP117_MODE_TO_DGUS?PROTOCOL
            CODE    F241H     0018H     UNIT         ?PR?RTCI2CSTART?RTC
            CODE    F259H     0018H     UNIT         ?PR?_UPLOAD_MODETODP101?UPLOAD
            CODE    F271H     0018H     UNIT         ?PR?OTA_MODBUSPRO?OTA
            CODE    F289H     0017H     UNIT         ?PR?RTCI2CSTOP?RTC
            CODE    F2A0H     0017H     UNIT         ?PR?_UPLOAD_ENUMIFCHANGED?UPLOAD
            CODE    F2B7H     0017H     UNIT         ?PR?MCU_RESET_WIFI?MCU_API
            CODE    F2CEH     0017H     UNIT         ?PR?_MCU_SET_WIFI_MODE?MCU_API
            CODE    F2E5H     0017H     UNIT         ?PR?MCU_GET_WIFI_WORK_STATE?MCU_API
BL51 BANKED LINKER/LOCATER V6.22.2.0                                                  06/18/2026  09:22:45  PAGE 8


            CODE    F2FCH     0016H     UNIT         ?PR?T2_INIT?SYS
            CODE    F312H     0016H     UNIT         ?PR?UART2_INIT?UART
            CODE    F328H     0016H     UNIT         ?PR?_MODBUS_PACKCHECKSTATUSBYTE?MODBUS
            CODE    F33EH     0015H     UNIT         ?PR?UART5_INIT?UART
            CODE    F353H     0014H     UNIT         ?PR?_MODBUS_TRIGGERDEFROSTPARAMWRITE?MODBUS
            CODE    F367H     0013H     UNIT         ?PR?T2_ISR_PC?SYS
            CODE    F37AH     0013H     UNIT         ?PR?_BCD?RTC
            CODE    F38DH     0013H     UNIT         ?PR?_ERRORHISTORY_CLAMPBYTE?ERRORHISTORY
            CODE    F3A0H     0013H     UNIT         ?PR?_UPGRADE_PACKAGE_CHOOSE?PROTOCOL
            CODE    F3B3H     0013H     UNIT         ?PR?_FILE_DOWNLOAD_PACKAGE_CHOOSE?PROTOCOL
            CODE    F3C6H     0012H     UNIT         ?PR?UART4_INIT?UART
            CODE    F3D8H     0012H     UNIT         ?PR?RTCMACK?RTC
            CODE    F3EAH     0012H     UNIT         ?PR?_FILE_DOWNLOAD_HANDLE?PROTOCOL
            CODE    F3FCH     0010H     UNIT         ?PR?T0_INIT?SYS
            CODE    F40CH     0010H     UNIT         ?PR?T1_INIT?SYS
            CODE    F41CH     0010H     UNIT         ?PR?RTCMNAK?RTC
            CODE    F42CH     0010H     UNIT         ?CO?RTC
            CODE    F43CH     0010H     UNIT         ?PR?ERRORHISTORY_GETMAXPAGE?ERRORHISTORY
            CODE    F44CH     000FH     UNIT         ?PR?_DELAY_MS?SYS
            CODE    F45BH     000FH     UNIT         ?PR?GETSYSTICKTIME?RTC
            CODE    F46AH     000EH     UNIT         ?PR?ERRORHISTORY_INIT?ERRORHISTORY
            CODE    F478H     000DH     UNIT         ?PR?_RTC_MONTHFROMDISPLAYVP?RTC
            CODE    F485H     000DH     UNIT         ?PR?_MCU_GET_DP_DOWNLOAD_BOOL?MCU_API
            CODE    F492H     000DH     UNIT         ?PR?_MCU_GET_DP_DOWNLOAD_ENUM?MCU_API
            CODE    F49FH     000CH     UNIT         ?CO?ERRORHISTORY
            CODE    F4ABH     000CH     UNIT         ?PR?UPLOAD_ALL_TIMERS?UPLOAD
            CODE    F4B7H     000CH     UNIT         ?PR?UPLOAD_REPORT_POLL?UPLOAD
            CODE    F4C3H     000BH     UNIT         ?PR?_MCU_GET_DP_DOWNLOAD_VALUE?MCU_API
            CODE    F4CEH     000BH     UNIT         ?PR?_UART_TRANSMIT_OUTPUT?PROTOCOL
            CODE    F4D9H     000AH     UNIT         ?PR?PORT_INIT?SYS
            CODE    F4E3H     000AH     UNIT         ?PR?MCU_START_WIFITEST?MCU_API
            CODE    F4EDH     000AH     UNIT         ?PR?GET_MCU_WIFI_MODE?SYSTEM
            CODE    F4F7H     0009H     UNIT         ?PR?UPLOAD_TIMESTAMP_BOOT_ONCE?UPLOAD
            CODE    F500H     0009H     UNIT         ?PR?_WIFI_TEST_RESULT?PROTOCOL
            CODE    F509H     0008H     UNIT         ?CO?MODBUS
            CODE    F511H     0008H     UNIT         ?PR?ERRORHISTORY_FLASHVPADDR?ERRORHISTORY
            CODE    F519H     0007H     UNIT         ?PR?UART2_RXENABLE?UART
            CODE    F520H     0007H     UNIT         ?PR?UPLOAD_REQUEST_REPORT?UPLOAD
            CODE    F527H     0007H     UNIT         ?PR?UPLOAD_REPORT_FORCE_SYNC?UPLOAD
            CODE    F52EH     0006H     UNIT         ?PR?RTC_GET_WEEKDAY?RTC
            CODE    F534H     0006H     UNIT         ?PR?ERRORHISTORY_RESETPAGE?ERRORHISTORY
            CODE    F53AH     0006H     UNIT         ?PR?WIFI_INIT?WIFIPRO
            CODE    F540H     0006H     UNIT         ?PR?MCU_GET_RESET_WIFI_FLAG?MCU_API
            CODE    F546H     0006H     UNIT         ?PR?MCU_GET_WIFIMODE_FLAG?MCU_API
            CODE    F54CH     0003H     UNIT         ?PR?MODBUS_INIT?MODBUS
            CODE    F54FH     0003H     UNIT         ?PR?GET_DOWNLOAD_CMD_TOTAL?PROTOCOL
            CODE    F552H     0001H     UNIT         ?PR?_UWOERRORCODEPROCESS?ERRORHISTORY



OVERLAY MAP OF MODULE:   .\obj\T5L51 (?C_STARTUP)


SEGMENT                                             BIT_GROUP          DATA_GROUP          XDATA_GROUP
  +--> CALLED SEGMENT                            START    LENGTH     START    LENGTH     START    LENGTH
--------------------------------------------------------------------------------------------------------
?C_C51STARTUP                                    -----    -----      -----    -----      -----    -----
BL51 BANKED LINKER/LOCATER V6.22.2.0                                                  06/18/2026  09:22:45  PAGE 9


  +--> ?PR?MAIN?MAIN
  +--> ?C_INITSEG

?PR?MAIN?MAIN                                    -----    -----      -----    -----      -----    -----
  +--> ?PR?INIT_CPU?SYS
  +--> ?PR?PORT_INIT?SYS
  +--> ?PR?T0_INIT?SYS
  +--> ?PR?T1_INIT?SYS
  +--> ?PR?T2_INIT?SYS
  +--> ?PR?MODBUS_INIT?MODBUS
  +--> ?PR?UART4_INIT?UART
  +--> ?PR?WIFI_INIT?WIFIPRO
  +--> ?PR?INIT_RTC?RTC
  +--> ?PR?SYSTEM_PARM_INIT?SYS
  +--> ?PR?WIFI_UART_SERVICE?MCU_API
  +--> ?PR?CONTROL_FUNCTION1?CONTROL
  +--> ?PR?MCU_GET_WIFI_WORK_STATE?MCU_API
  +--> ?PR?UI_OPENPAGE?MAIN
  +--> ?PR?WIFI_RESTING_PRO?CONTROL

?PR?MODBUS_INIT?MODBUS                           -----    -----      -----    -----      -----    -----
  +--> ?PR?UART5_INIT?UART

?PR?WIFI_INIT?WIFIPRO                            -----    -----      -----    -----      -----    -----
  +--> ?PR?UART2_INIT?UART
  +--> ?PR?WIFI_PROTOCOL_INIT?MCU_API

?PR?INIT_RTC?RTC                                 -----    -----      -----    -----      8C22H    0002H
  +--> ?PR?RTCI2CSTART?RTC
  +--> ?PR?_RTCI2CBW?RTC
  +--> ?PR?RTCI2CSTOP?RTC
  +--> ?PR?RTCI2CBR?RTC
  +--> ?PR?RTCMACK?RTC
  +--> ?PR?RTCMNAK?RTC

?PR?RTCI2CSTART?RTC                              -----    -----      -----    -----      -----    -----
  +--> ?PR?_DELAY_US?RTC

?PR?_DELAY_US?RTC                                -----    -----      0008H    0004H      -----    -----

?PR?_RTCI2CBW?RTC                                -----    -----      -----    -----      -----    -----
  +--> ?PR?_DELAY_US?RTC
  +--> ?PR?RTCCACK?RTC

?PR?RTCCACK?RTC                                  -----    -----      -----    -----      -----    -----
  +--> ?PR?_DELAY_US?RTC

?PR?RTCI2CSTOP?RTC                               -----    -----      -----    -----      -----    -----
  +--> ?PR?_DELAY_US?RTC

?PR?RTCI2CBR?RTC                                 -----    -----      -----    -----      -----    -----
  +--> ?PR?_DELAY_US?RTC

?PR?RTCMACK?RTC                                  -----    -----      -----    -----      -----    -----
  +--> ?PR?_DELAY_US?RTC

?PR?RTCMNAK?RTC                                  -----    -----      -----    -----      -----    -----
BL51 BANKED LINKER/LOCATER V6.22.2.0                                                  06/18/2026  09:22:45  PAGE 10


  +--> ?PR?_DELAY_US?RTC

?PR?SYSTEM_PARM_INIT?SYS                         -----    -----      -----    -----      8C22H    0002H
  +--> ?PR?READ_NOR_FLASH?SYS
  +--> ?PR?_DELAY_MS?SYS
  +--> ?PR?_READ_DGUS_VP?SYS
  +--> ?PR?_FLASHCHECKSUMCALCULATE?SYS
  +--> ?PR?READ_MEMORY_ERROR?SYS
  +--> ?PR?READ_MEMORY?SYS

?PR?READ_NOR_FLASH?SYS                           -----    -----      -----    -----      -----    -----
  +--> ?CO?SYS
  +--> ?PR?_WRITE_DGUS_VP?SYS
  +--> ?PR?_DELAY_MS?SYS
  +--> ?PR?_READ_DGUS_VP?SYS

?PR?_WRITE_DGUS_VP?SYS                           -----    -----      -----    -----      8DE5H    000FH

?PR?_READ_DGUS_VP?SYS                            -----    -----      -----    -----      8DC3H    0015H

?PR?_FLASHCHECKSUMCALCULATE?SYS                  -----    -----      -----    -----      8C4EH    002AH
  +--> ?CO?SYS
  +--> ?PR?_READ_DGUS_VP?SYS

?PR?READ_MEMORY_ERROR?SYS                        -----    -----      -----    -----      8C24H    0002H
  +--> ?PR?_WRITE_DGUS_VP?SYS
  +--> ?PR?_LANGUAGE_CHANGE?SYS
  +--> ?PR?_BRIGHTNESS_HANDLER?SYS
  +--> ?PR?SCREENTIMEOUT_SET?SYS

?PR?_LANGUAGE_CHANGE?SYS                         -----    -----      -----    -----      8C33H    0004H
  +--> ?PR?_WRITE_DGUS_VP?SYS

?PR?_BRIGHTNESS_HANDLER?SYS                      -----    -----      -----    -----      8C33H    0002H
  +--> ?PR?_WRITE_DGUS_VP?SYS

?PR?SCREENTIMEOUT_SET?SYS                        0023H.1  0000H.1    -----    -----      8C33H    0004H
  +--> ?PR?_READ_DGUS_VP?SYS
  +--> ?PR?_WRITE_DGUS_VP?SYS

?PR?READ_MEMORY?SYS                              -----    -----      -----    -----      8C24H    0006H
  +--> ?PR?_READ_DGUS_VP?SYS
  +--> ?PR?_WRITE_DGUS_VP?SYS
  +--> ?PR?_HOMEPAGE_UPDATEMODEANIMATION?CON...
  +--> ?PR?_BRIGHTNESS_HANDLER?SYS
  +--> ?PR?_LANGUAGE_CHANGE?SYS
  +--> ?PR?_MEMORY_READTIMERSLOT?SYS
  +--> ?PR?SCREENTIMEOUT_SET?SYS
  +--> ?PR?_ERRORHISTORY_FLASHREAD?ERRORHISTORY
  +--> ?PR?ERRORHISTORY_SANITIZE?ERRORHISTORY

?PR?_HOMEPAGE_UPDATEMODEANIMATION?CON...         -----    -----      -----    -----      8C64H    0006H
  +--> ?PR?_WRITE_DGUS_VP?SYS

?PR?_MEMORY_READTIMERSLOT?SYS                    -----    -----      -----    -----      8C2AH    003AH
  +--> ?PR?_READ_DGUS_VP?SYS
  +--> ?PR?_WRITE_DGUS_VP?SYS
BL51 BANKED LINKER/LOCATER V6.22.2.0                                                  06/18/2026  09:22:45  PAGE 11



?PR?_ERRORHISTORY_FLASHREAD?ERRORHISTORY         -----    -----      -----    -----      8C2AH    0199H
  +--> ?PR?_READ_DGUS_VP?SYS
  +--> ?PR?_ERRORHISTORY_UNPACKREC?ERRORHISTORY
  +--> ?PR?_ERRORHISTORY_UNPACKRECLEGACY?ERR...
  +--> ?PR?_ERRORHISTORY_CONVERTLEGACYRAWREC...
  +--> ?PR?_ERRORHISTORY_ISVALIDCODE?ERRORHI...

?PR?_ERRORHISTORY_UNPACKREC?ERRORHISTORY         -----    -----      -----    -----      8DC3H    000AH

?PR?_ERRORHISTORY_UNPACKRECLEGACY?ERR...         -----    -----      -----    -----      8DC3H    000CH

?PR?_ERRORHISTORY_CONVERTLEGACYRAWREC...         -----    -----      -----    -----      8DC3H    0001H
  +--> ?PR?_ERRORHISTORY_ISVALIDCODE?ERRORHI...

?PR?ERRORHISTORY_SANITIZE?ERRORHISTORY           -----    -----      -----    -----      -----    -----
  +--> ?PR?_ERRORHISTORY_ISVALIDCODE?ERRORHI...

?PR?WIFI_UART_SERVICE?MCU_API                    -----    -----      -----    -----      8C22H    0004H
  +--> ?PR?WITH_DATA_RXBUFF?SYSTEM
  +--> ?PR?TAKE_BYTE_RXBUFF?SYSTEM
  +--> ?PR?_GET_CHECK_SUM?SYSTEM
  +--> ?PR?_DATA_HANDLE?SYSTEM
  +--> ?PR?_MY_MEMCPY?MCU_API

?PR?_GET_CHECK_SUM?SYSTEM                        -----    -----      -----    -----      8CCFH    0006H

?PR?_DATA_HANDLE?SYSTEM                          -----    -----      -----    -----      8C26H    0013H
  +--> ?PR?HEAT_BEAT_CHECK?SYSTEM
  +--> ?PR?PRODUCT_INFO_UPDATE?SYSTEM
  +--> ?PR?GET_MCU_WIFI_MODE?SYSTEM
  +--> ?PR?_DATA_POINT_HANDLE?SYSTEM
  +--> ?PR?ALL_DATA_UPDATE?PROTOCOL
  +--> ?PR?_UPGRADE_PACKAGE_CHOOSE?PROTOCOL
  +--> ?PR?_MCU_FIRM_UPDATE_HANDLE?PROTOCOL
  +--> ?PR?_WIFI_UART_WRITE_FRAME?SYSTEM
  +--> ?PR?_WIFI_TEST_RESULT?PROTOCOL
  +--> ?PR?_FILE_DOWNLOAD_PACKAGE_CHOOSE?PRO...
  +--> ?PR?_FILE_DOWNLOAD_HANDLE?PROTOCOL

?PR?HEAT_BEAT_CHECK?SYSTEM                       -----    -----      -----    -----      -----    -----
  +--> ?PR?_SET_WIFI_UART_BYTE?SYSTEM
  +--> ?PR?_WIFI_UART_WRITE_FRAME?SYSTEM

?PR?_SET_WIFI_UART_BYTE?SYSTEM                   -----    -----      -----    -----      8CCDH    0002H

?PR?_WIFI_UART_WRITE_FRAME?SYSTEM                -----    -----      -----    -----      8CCDH    0002H
  +--> ?PR?_GET_CHECK_SUM?SYSTEM
  +--> ?PR?_WIFI_UART_WRITE_DATA?SYSTEM

?PR?_WIFI_UART_WRITE_DATA?SYSTEM                 -----    -----      -----    -----      8CCFH    0005H
  +--> ?PR?_UART_TRANSMIT_OUTPUT?PROTOCOL

?PR?_UART_TRANSMIT_OUTPUT?PROTOCOL               -----    -----      -----    -----      -----    -----
  +--> ?PR?_UART2SENDDATA?UART

?PR?_UART2SENDDATA?UART                          -----    -----      -----    -----      8CD4H    0003H
BL51 BANKED LINKER/LOCATER V6.22.2.0                                                  06/18/2026  09:22:45  PAGE 12



?PR?PRODUCT_INFO_UPDATE?SYSTEM                   -----    -----      -----    -----      8C39H    000DH
  +--> ?CO?SYSTEM
  +--> ?PR?_MY_STRLEN?MCU_API
  +--> ?PR?_SET_WIFI_UART_BUFFER?SYSTEM
  +--> ?PR?_WIFI_UART_WRITE_FRAME?SYSTEM

?PR?_MY_STRLEN?MCU_API                           -----    -----      -----    -----      8C46H    0007H

?PR?_SET_WIFI_UART_BUFFER?SYSTEM                 -----    -----      -----    -----      8CCDH    0007H
  +--> ?PR?_MY_MEMCPY?MCU_API

?PR?_MY_MEMCPY?MCU_API                           -----    -----      -----    -----      8CD4H    0010H

?PR?GET_MCU_WIFI_MODE?SYSTEM                     -----    -----      -----    -----      -----    -----
  +--> ?PR?_WIFI_UART_WRITE_FRAME?SYSTEM

?PR?_DATA_POINT_HANDLE?SYSTEM                    -----    -----      -----    -----      8C39H    0007H
  +--> ?PR?_GET_DOWMLOAD_DPID_INDEX?SYSTEM
  +--> ?PR?_DP_DOWNLOAD_HANDLE?PROTOCOL

?PR?_GET_DOWMLOAD_DPID_INDEX?SYSTEM              -----    -----      -----    -----      8C40H    0001H
  +--> ?PR?GET_DOWNLOAD_CMD_TOTAL?PROTOCOL

?PR?_DP_DOWNLOAD_HANDLE?PROTOCOL                 -----    -----      -----    -----      8C40H    0007H
  +--> ?PR?_DP_DOWNLOAD_SWITCH_HANDLE?PROTOCOL
  +--> ?PR?_DP_DOWNLOAD_MODE_HANDLE?PROTOCOL
  +--> ?PR?_DP_DOWNLOAD_CHILD_LOCK_HANDLE?PR...
  +--> ?PR?_DP_DOWNLOAD_TEMP_SET_HANDLE?PROT...
  +--> ?PR?_DP_DOWNLOAD_TEMP_UNIT_CONVERT_HA...
  +--> ?PR?_DP_DOWNLOAD_DEFROST_HANDLE?PROTOCOL
  +--> ?PR?_DP_DOWNLOAD_RELAY_STATUS_HANDLE?...
  +--> ?PR?_DP_DOWNLOAD_TIMESTAMP_HANDLE?PRO...
  +--> ?PR?_DP_DOWNLOAD_INDOOR_UNIT_HANDLE?P...
  +--> ?PR?_DP_DOWNLOAD_HISTORY_FAULT_EMPTY_...
  +--> ?PR?_DP_DOWNLOAD_INSIDE_TIME_OPEN_HAN...
  +--> ?PR?_DP_DOWNLOAD_EXTERNAL_TIME_OPEN_H...
  +--> ?PR?_DP_DOWNLOAD_INSIDE_TIME_CLOSE_HA...
  +--> ?PR?_DP_DOWNLOAD_EXTERNAL_TIME_CLOSE_...

?PR?_DP_DOWNLOAD_SWITCH_HANDLE?PROTOCOL          -----    -----      -----    -----      8C47H    0005H
  +--> ?PR?_MCU_GET_DP_DOWNLOAD_BOOL?MCU_API
  +--> ?PR?_READ_DGUS_VP?SYS
  +--> ?PR?_WRITE_DGUS_VP?SYS
  +--> ?PR?_MCU_DP_BOOL_UPDATE?MCU_API

?PR?_MCU_GET_DP_DOWNLOAD_BOOL?MCU_API            -----    -----      -----    -----      8C4CH    0002H

?PR?_MCU_DP_BOOL_UPDATE?MCU_API                  -----    -----      -----    -----      8C4FH    0001H
  +--> ?PR?_SET_WIFI_UART_BYTE?SYSTEM
  +--> ?PR?_WIFI_UART_WRITE_FRAME?SYSTEM

?PR?_DP_DOWNLOAD_MODE_HANDLE?PROTOCOL            -----    -----      -----    -----      8C47H    0003H
  +--> ?PR?_MCU_GET_DP_DOWNLOAD_ENUM?MCU_API
  +--> ?PR?_WRITE_DGUS_VP?SYS
  +--> ?PR?_READ_DGUS_VP?SYS
  +--> ?PR?_MCU_DP_ENUM_UPDATE?MCU_API
BL51 BANKED LINKER/LOCATER V6.22.2.0                                                  06/18/2026  09:22:45  PAGE 13



?PR?_MCU_GET_DP_DOWNLOAD_ENUM?MCU_API            -----    -----      -----    -----      8C4AH    0002H

?PR?_MCU_DP_ENUM_UPDATE?MCU_API                  -----    -----      -----    -----      8C4FH    0001H
  +--> ?PR?_SET_WIFI_UART_BYTE?SYSTEM
  +--> ?PR?_WIFI_UART_WRITE_FRAME?SYSTEM

?PR?_DP_DOWNLOAD_CHILD_LOCK_HANDLE?PR...         -----    -----      -----    -----      8C47H    0001H
  +--> ?PR?_MCU_GET_DP_DOWNLOAD_BOOL?MCU_API
  +--> ?PR?HOMEPAGE?CONTROL
  +--> ?PR?_WRITE_DGUS_VP?SYS
  +--> ?PR?_MCU_DP_BOOL_UPDATE?MCU_API

?PR?HOMEPAGE?CONTROL                             0023H.1  0000H.1    -----    -----      8C48H    0002H
  +--> ?PR?GETPAGEID?CONTROL
  +--> ?PR?_ISITHOMEPAGE?CONTROL
  +--> ?PR?_READ_DGUS_VP?SYS
  +--> ?PR?_PAGE_CHANGE_HANDLER?SYS
  +--> ?PR?HOMEPAGE_SYNCINDOORDISPLAY?CONTROL

?PR?GETPAGEID?CONTROL                            -----    -----      -----    -----      8C4AH    0002H
  +--> ?PR?_READ_DGUS_VP?SYS

?PR?_ISITHOMEPAGE?CONTROL                        0023H.2  0000H.1    -----    -----      -----    -----

?PR?_PAGE_CHANGE_HANDLER?SYS                     -----    -----      -----    -----      -----    -----
  +--> ?PR?_WRITE_DGUS_VP?SYS
  +--> ?PR?_DELAY_MS?SYS
  +--> ?PR?_READ_DGUS_VP?SYS

?PR?HOMEPAGE_SYNCINDOORDISPLAY?CONTROL           -----    -----      -----    -----      8C60H    0004H
  +--> ?PR?_READ_DGUS_VP?SYS
  +--> ?PR?_WRITE_DGUS_VP?SYS
  +--> ?PR?_HOMEPAGE_UPDATEMODEANIMATION?CON...

?PR?_DP_DOWNLOAD_TEMP_SET_HANDLE?PROT...         -----    -----      -----    -----      8C47H    000AH
  +--> ?PR?_MCU_GET_DP_DOWNLOAD_VALUE?MCU_API
  +--> ?PR?_WRITE_DGUS_VP?SYS
  +--> ?PR?_READ_DGUS_VP?SYS
  +--> ?PR?_SETTEMPINTWRITE?CONTROL
  +--> ?PR?_SYNCSETTEMPCACHESFROMC?CONTROL
  +--> ?PR?READY_TO_SAVE?SYS
  +--> ?PR?_MCU_DP_VALUE_UPDATE?MCU_API

?PR?_MCU_GET_DP_DOWNLOAD_VALUE?MCU_API           -----    -----      -----    -----      8C51H    0002H
  +--> ?PR?_BYTE_TO_INT?MCU_API

?PR?_BYTE_TO_INT?MCU_API                         -----    -----      -----    -----      8C53H    0007H

?PR?_SETTEMPINTWRITE?CONTROL                     -----    -----      -----    -----      8C5BH    0002H
  +--> ?PR?_SETTEMPINTVPBYMODE?CONTROL
  +--> ?PR?_WRITE_DGUS_VP?SYS

?PR?_SETTEMPINTVPBYMODE?CONTROL                  -----    -----      -----    -----      8C5DH    0001H

?PR?_SYNCSETTEMPCACHESFROMC?CONTROL              -----    -----      -----    -----      8C55H    0006H
  +--> ?PR?_TEMPUNITTRANS?CONTROL
BL51 BANKED LINKER/LOCATER V6.22.2.0                                                  06/18/2026  09:22:45  PAGE 14


  +--> ?PR?_WRITE_DGUS_VP?SYS
  +--> ?PR?_READ_DGUS_VP?SYS
  +--> ?PR?_SETTEMPINTWRITE?CONTROL

?PR?_TEMPUNITTRANS?CONTROL                       -----    -----      -----    -----      8C67H    0003H

?PR?READY_TO_SAVE?SYS                            -----    -----      -----    -----      8C67H    0002H
  +--> ?PR?_READ_DGUS_VP?SYS

?PR?_MCU_DP_VALUE_UPDATE?MCU_API                 -----    -----      -----    -----      8C51H    0005H
  +--> ?PR?_SET_WIFI_UART_BYTE?SYSTEM
  +--> ?PR?_WIFI_UART_WRITE_FRAME?SYSTEM

?PR?_DP_DOWNLOAD_TEMP_UNIT_CONVERT_HA...         -----    -----      -----    -----      8C47H    0001H
  +--> ?PR?_MCU_GET_DP_DOWNLOAD_ENUM?MCU_API
  +--> ?PR?_WRITE_DGUS_VP?SYS
  +--> ?PR?UNITCHANGEPRO?CONTROL
  +--> ?PR?HOMEPAGE?CONTROL
  +--> ?PR?READY_TO_SAVE?SYS
  +--> ?PR?_MCU_DP_ENUM_UPDATE?MCU_API

?PR?UNITCHANGEPRO?CONTROL                        -----    -----      -----    -----      8C48H    0002H
  +--> ?PR?_READ_DGUS_VP?SYS
  +--> ?PR?_MCU_DP_ENUM_UPDATE?MCU_API
  +--> ?PR?TEMPUNIT_REFRESHALL?CONTROL

?PR?TEMPUNIT_REFRESHALL?CONTROL                  -----    -----      -----    -----      8C4AH    0007H
  +--> ?PR?_READ_DGUS_VP?SYS
  +--> ?PR?_TEMPUNITTRANS?CONTROL
  +--> ?PR?_SYNCSETTEMPCACHESFROMC?CONTROL
  +--> ?PR?_WRITE_DGUS_VP?SYS
  +--> ?PR?TEMPUNIT_REFRESHACTIVESETFROMMODE...
  +--> ?PR?_TEMPUNIT_REFRESHFLOATPAIR?CONTROL
  +--> ?PR?_SETTEMPINTREAD?CONTROL
  +--> ?PR?_SETTEMPINTWRITE?CONTROL
  +--> ?PR?_SYNCINDOORSETTEMPVPPAIR?CONTROL
  +--> ?PR?_SYNCINDOORROOMTEMPVPPAIR?CONTROL
  +--> ?PR?_SYNCTIMERTEMPVPPAIR?CONTROL
  +--> ?PR?MODBUS_REFRESHCHECKPARAMDISPLAY?M...

?PR?TEMPUNIT_REFRESHACTIVESETFROMMODE...         -----    -----      -----    -----      8C51H    0004H
  +--> ?PR?_READ_DGUS_VP?SYS
  +--> ?PR?_SETTEMPINTREAD?CONTROL
  +--> ?PR?_TEMPUNITTRANS?CONTROL
  +--> ?PR?_SYNCSETTEMPCACHESFROMC?CONTROL

?PR?_SETTEMPINTREAD?CONTROL                      -----    -----      -----    -----      8C55H    0002H
  +--> ?PR?_SETTEMPINTVPBYMODE?CONTROL
  +--> ?PR?_READ_DGUS_VP?SYS

?PR?_TEMPUNIT_REFRESHFLOATPAIR?CONTROL           -----    -----      -----    -----      8C51H    0010H
  +--> ?PR?_READ_DGUS_VP?SYS
  +--> ?PR?_TEMPUNITTRANS?CONTROL
  +--> ?PR?_WRITE_DGUS_VP?SYS

?PR?_SYNCINDOORSETTEMPVPPAIR?CONTROL             -----    -----      -----    -----      8C51H    0005H
  +--> ?PR?_TEMPUNITTRANS?CONTROL
BL51 BANKED LINKER/LOCATER V6.22.2.0                                                  06/18/2026  09:22:45  PAGE 15


  +--> ?PR?_WRITE_DGUS_VP?SYS

?PR?_SYNCINDOORROOMTEMPVPPAIR?CONTROL            -----    -----      -----    -----      8C51H    0005H
  +--> ?PR?_TEMPUNITTRANS?CONTROL
  +--> ?PR?_WRITE_DGUS_VP?SYS

?PR?_SYNCTIMERTEMPVPPAIR?CONTROL                 -----    -----      -----    -----      8C51H    000CH
  +--> ?PR?_TEMPUNITTRANS?CONTROL
  +--> ?PR?_WRITE_DGUS_VP?SYS

?PR?MODBUS_REFRESHCHECKPARAMDISPLAY?M...         -----    -----      -----    -----      8C51H    0009H
  +--> ?PR?_READ_DGUS_VP?SYS
  +--> ?PR?_TEMPUNITTRANS?CONTROL
  +--> ?PR?_WRITE_DGUS_VP?SYS

?PR?_DP_DOWNLOAD_DEFROST_HANDLE?PROTOCOL         -----    -----      -----    -----      8C47H    0001H
  +--> ?PR?_MCU_GET_DP_DOWNLOAD_BOOL?MCU_API
  +--> ?PR?_WRITE_DGUS_VP?SYS
  +--> ?PR?_MCU_DP_BOOL_UPDATE?MCU_API

?PR?_DP_DOWNLOAD_RELAY_STATUS_HANDLE?...         -----    -----      -----    -----      8C47H    0001H
  +--> ?PR?_MCU_GET_DP_DOWNLOAD_ENUM?MCU_API
  +--> ?PR?_WRITE_DGUS_VP?SYS
  +--> ?PR?READY_TO_SAVE?SYS
  +--> ?PR?_MCU_DP_ENUM_UPDATE?MCU_API

?PR?_DP_DOWNLOAD_TIMESTAMP_HANDLE?PRO...         -----    -----      -----    -----      8C47H    0015H
  +--> ?CO?PROTOCOL
  +--> ?PR?_STRTOUL?STRTOUL
  +--> ?PR?_TIMESTAMP_TO_YMDHMS?PROTOCOL
  +--> ?PR?PRINTF?PRINTF
  +--> ?PR?_RTC_WRITEDISPLAYTIME?RTC
  +--> ?PR?_RTC_WRITEEDITTIME?RTC
  +--> ?PR?_WRITE_DGUS_VP?SYS
  +--> ?PR?_MCU_DP_STRING_UPDATE?MCU_API

?PR?_STRTOUL?STRTOUL                             -----    -----      -----    -----      8C5CH    0012H

?PR?_TIMESTAMP_TO_YMDHMS?PROTOCOL                -----    -----      -----    -----      8C5CH    0015H
  +--> ?CO?PROTOCOL
  +--> ?PR?PRINTF?PRINTF
  +--> ?PR?_IS_LEAP_YEAR?PROTOCOL

?PR?PRINTF?PRINTF                                0023H.1  0001H.1    0008H    0005H      8C71H    0030H
  +--> ?PR?_PUTCHAR?UART

?PR?_RTC_WRITEDISPLAYTIME?RTC                    -----    -----      -----    -----      8C5CH    000AH
  +--> ?PR?_WRITE_DGUS_VP?SYS

?PR?_RTC_WRITEEDITTIME?RTC                       -----    -----      -----    -----      8C5CH    000AH
  +--> ?PR?_WRITE_DGUS_VP?SYS

?PR?_MCU_DP_STRING_UPDATE?MCU_API                -----    -----      -----    -----      8C5CH    0006H
  +--> ?PR?_SET_WIFI_UART_BYTE?SYSTEM
  +--> ?PR?_SET_WIFI_UART_BUFFER?SYSTEM
  +--> ?PR?_WIFI_UART_WRITE_FRAME?SYSTEM

BL51 BANKED LINKER/LOCATER V6.22.2.0                                                  06/18/2026  09:22:45  PAGE 16


?PR?_DP_DOWNLOAD_INDOOR_UNIT_HANDLE?P...         -----    -----      -----    -----      8C47H    0019H
  +--> ?PR?_MODE_MAP_TO_DGUS?PROTOCOL
  +--> ?PR?_WRITE_DGUS_VP?SYS
  +--> ?PR?_TEMPUNITTRANS?CONTROL
  +--> ?PR?HOMEPAGE_SYNCINDOORDISPLAY?CONTROL
  +--> ?PR?_MODBUS_TRIGGERINDOORUNITWRITE?MO...
  +--> ?PR?UPLOAD_INDOOR_UNIT?UPLOAD

?PR?_MODBUS_TRIGGERINDOORUNITWRITE?MO...         -----    -----      -----    -----      8C60H    0002H
  +--> ?PR?_MODBUS_FILLINDOORUNITREGS?MODBUS
  +--> ?PR?_MODBUS_INDOORREGSCHANGED?MODBUS

?PR?_MODBUS_FILLINDOORUNITREGS?MODBUS            -----    -----      -----    -----      8C62H    0010H
  +--> ?PR?_READ_DGUS_VP?SYS
  +--> ?PR?_MODBUS_ENCODEINDOORRUNMODE?MODBUS
  +--> ?PR?_MODBUS_ENCODEINDOORFAN?MODBUS

?PR?_MODBUS_INDOORREGSCHANGED?MODBUS             -----    -----      -----    -----      8C62H    0005H

?PR?UPLOAD_INDOOR_UNIT?UPLOAD                    -----    -----      -----    -----      8C60H    0027H
  +--> ?CO?UPLOAD
  +--> ?PR?_READ_DGUS_VP?SYS
  +--> ?PR?_UPLOAD_CLAMPINDOORTEMP?UPLOAD
  +--> ?PR?_MCU_DP_RAW_UPDATE?MCU_API

?PR?_MCU_DP_RAW_UPDATE?MCU_API                   -----    -----      -----    -----      8CC7H    0006H
  +--> ?PR?_SET_WIFI_UART_BYTE?SYSTEM
  +--> ?PR?_SET_WIFI_UART_BUFFER?SYSTEM
  +--> ?PR?_WIFI_UART_WRITE_FRAME?SYSTEM

?PR?_DP_DOWNLOAD_HISTORY_FAULT_EMPTY_...         -----    -----      -----    -----      8C47H    0001H
  +--> ?PR?_MCU_GET_DP_DOWNLOAD_BOOL?MCU_API
  +--> ?PR?CLEARERRORHISTORY?ERRORHISTORY
  +--> ?PR?_MCU_DP_BOOL_UPDATE?MCU_API

?PR?CLEARERRORHISTORY?ERRORHISTORY               -----    -----      -----    -----      -----    -----
  +--> ?PR?ERRORHISTORY_FLASHCOMMITNOW?ERROR...
  +--> ?PR?UPLOAD_HISTORY_FAULTS?UPLOAD

?PR?ERRORHISTORY_FLASHCOMMITNOW?ERROR...         -----    -----      -----    -----      8C48H    0002H
  +--> ?PR?ERRORHISTORY_FLASHVPADDR?ERRORHIS...
  +--> ?PR?_ERRORHISTORY_FLASHWRITE?ERRORHIS...
  +--> ?PR?_READ_DGUS_VP?SYS
  +--> ?PR?WRITE_MEMORY?SYS
  +--> ?PR?WRITE_NOR_FLASH?SYS

?PR?_ERRORHISTORY_FLASHWRITE?ERRORHIS...         -----    -----      -----    -----      8C4EH    0197H
  +--> ?PR?_ERRORHISTORY_PACKREC?ERRORHISTORY
  +--> ?PR?_WRITE_DGUS_VP?SYS

?PR?_ERRORHISTORY_PACKREC?ERRORHISTORY           -----    -----      -----    -----      8DE5H    000AH
  +--> ?PR?_ERRORHISTORY_ISVALIDCODE?ERRORHI...
  +--> ?PR?_ERRORHISTORY_CLAMPBYTE?ERRORHISTORY

?PR?WRITE_MEMORY?SYS                             -----    -----      -----    -----      8C4AH    0004H
  +--> ?PR?_READ_DGUS_VP?SYS
  +--> ?PR?_WRITE_DGUS_VP?SYS
BL51 BANKED LINKER/LOCATER V6.22.2.0                                                  06/18/2026  09:22:45  PAGE 17


  +--> ?PR?_MEMORY_WRITETIMERSLOT?SYS
  +--> ?PR?_ERRORHISTORY_FLASHWRITE?ERRORHIS...
  +--> ?PR?_FLASHCHECKSUMCALCULATE?SYS

?PR?_MEMORY_WRITETIMERSLOT?SYS                   -----    -----      -----    -----      8C4EH    003AH
  +--> ?PR?_READ_DGUS_VP?SYS
  +--> ?PR?_WRITE_DGUS_VP?SYS

?PR?WRITE_NOR_FLASH?SYS                          -----    -----      -----    -----      -----    -----
  +--> ?CO?SYS
  +--> ?PR?_WRITE_DGUS_VP?SYS
  +--> ?PR?_DELAY_MS?SYS
  +--> ?PR?_READ_DGUS_VP?SYS

?PR?UPLOAD_HISTORY_FAULTS?UPLOAD                 -----    -----      -----    -----      8C48H    007FH
  +--> ?PR?_MCU_DP_RAW_UPDATE?MCU_API

?PR?_DP_DOWNLOAD_INSIDE_TIME_OPEN_HAN...         -----    -----      -----    -----      8C47H    0020H
  +--> ?PR?_WRITE_DGUS_VP?SYS
  +--> ?PR?_TEMPUNITTRANS?CONTROL
  +--> ?PR?_MODBUS_APPLYINDOORTIMERVPTOUNITS...
  +--> ?PR?READY_TO_SAVE?SYS
  +--> ?PR?_MCU_DP_RAW_UPDATE?MCU_API

?PR?_MODBUS_APPLYINDOORTIMERVPTOUNITS...         -----    -----      -----    -----      8C67H    0016H
  +--> ?PR?_READ_DGUS_VP?SYS
  +--> ?PR?_WRITE_DGUS_VP?SYS
  +--> ?PR?_MODBUS_QUEUEINDOORTIMERWRITE?MODBUS

?PR?_MODBUS_QUEUEINDOORTIMERWRITE?MODBUS         -----    -----      -----    -----      -----    -----
  +--> ?PR?MODBUS_STARTNEXTTIMERWRITE?MODBUS

?PR?_DP_DOWNLOAD_EXTERNAL_TIME_OPEN_H...         -----    -----      -----    -----      8C47H    0019H
  +--> ?PR?_WRITE_DGUS_VP?SYS
  +--> ?PR?_TEMPUNITTRANS?CONTROL
  +--> ?PR?_DP117_MODE_TO_DGUS?PROTOCOL
  +--> ?PR?READY_TO_SAVE?SYS
  +--> ?PR?_MCU_DP_RAW_UPDATE?MCU_API

?PR?_DP_DOWNLOAD_INSIDE_TIME_CLOSE_HA...         -----    -----      -----    -----      8C47H    000EH
  +--> ?PR?_WRITE_DGUS_VP?SYS
  +--> ?PR?_MCU_DP_RAW_UPDATE?MCU_API

?PR?_DP_DOWNLOAD_EXTERNAL_TIME_CLOSE_...         -----    -----      -----    -----      8C47H    000EH
  +--> ?PR?_WRITE_DGUS_VP?SYS
  +--> ?PR?_MCU_DP_RAW_UPDATE?MCU_API

?PR?ALL_DATA_UPDATE?PROTOCOL                     -----    -----      -----    -----      8C39H    0016H
  +--> ?CO?PROTOCOL
  +--> ?PR?_READ_DGUS_VP?SYS
  +--> ?PR?_MCU_DP_BOOL_UPDATE?MCU_API
  +--> ?PR?_MCU_DP_ENUM_UPDATE?MCU_API
  +--> ?PR?_MCU_DP_VALUE_UPDATE?MCU_API

?PR?_UPGRADE_PACKAGE_CHOOSE?PROTOCOL             -----    -----      -----    -----      -----    -----
  +--> ?PR?_SET_WIFI_UART_BYTE?SYSTEM
  +--> ?PR?_WIFI_UART_WRITE_FRAME?SYSTEM
BL51 BANKED LINKER/LOCATER V6.22.2.0                                                  06/18/2026  09:22:45  PAGE 18



?PR?_MCU_FIRM_UPDATE_HANDLE?PROTOCOL             -----    -----      -----    -----      8C39H    0009H

?PR?_WIFI_TEST_RESULT?PROTOCOL                   -----    -----      -----    -----      8C39H    0002H

?PR?_FILE_DOWNLOAD_PACKAGE_CHOOSE?PRO...         -----    -----      -----    -----      -----    -----
  +--> ?PR?_SET_WIFI_UART_BYTE?SYSTEM
  +--> ?PR?_WIFI_UART_WRITE_FRAME?SYSTEM

?PR?_FILE_DOWNLOAD_HANDLE?PROTOCOL               -----    -----      -----    -----      8C39H    0009H

?PR?CONTROL_FUNCTION1?CONTROL                    -----    -----      -----    -----      8C22H    0011H
  +--> ?PR?_READ_DGUS_VP?SYS
  +--> ?PR?GETVALUE0F00?CONTROL
  +--> ?PR?_ISITHOMEPAGE?CONTROL
  +--> ?PR?HOMEPAGE?CONTROL
  +--> ?PR?_ERRORHISTORY_PAGECHANGE?ERRORHIS...
  +--> ?PR?_WRITE_DGUS_VP?SYS
  +--> ?PR?_SETTEMPINTREAD?CONTROL
  +--> ?PR?_SYNCSETTEMPCACHESFROMC?CONTROL
  +--> ?PR?UNITCHANGEPRO?CONTROL
  +--> ?PR?_PAGE_CHANGE_HANDLER?SYS
  +--> ?PR?UPLOAD_INSIDE_TIME_OPEN?UPLOAD
  +--> ?PR?UPLOAD_EXTERNAL_TIME_OPEN?UPLOAD
  +--> ?PR?UPLOAD_INDOOR_UNIT?UPLOAD
  +--> ?PR?_MODBUS_TRIGGERINDOORUNITWRITE?MO...
  +--> ?PR?_KEYADJUSTSETTEMPFORMODE?CONTROL
  +--> ?PR?PREFILLSETTEMPEDITPAGE?CONTROL
  +--> ?PR?_TEMPUNITTRANS?CONTROL
  +--> ?PR?_MCU_DP_VALUE_UPDATE?MCU_API
  +--> ?PR?_SETTEMPINTWRITE?CONTROL
  +--> ?PR?_SETTEMPFLOATWRITEC?CONTROL
  +--> ?PR?_SETMODEPROCESS?CONTROL
  +--> ?PR?RTCDISPLAY4CHANGE?CONTROL
  +--> ?PR?_LANGUAGE_CHANGE?SYS
  +--> ?PR?RTC_GETUNIXLOCAL?RTC
  +--> ?PR?MODBUS_STARTMANUALDEFROST?MODBUS
  +--> ?PR?_MCU_DP_BOOL_UPDATE?MCU_API
  +--> ?PR?_BRIGHTNESS_HANDLER?SYS
  +--> ?PR?_MCU_DP_ENUM_UPDATE?MCU_API
  +--> ?PR?ERRORHISTORY_TRYMIGRATEFLASH?ERRO...
  +--> ?PR?UPLOAD_EXTERNAL_TIME_CLOSE?UPLOAD
  +--> ?PR?UPLOAD_INSIDE_TIME_CLOSE?UPLOAD
  +--> ?PR?MODBUS_TRIGGERGROUPCONTROLWRITE?M...
  +--> ?PR?ERRORHISTORY_RESETPAGE?ERRORHISTORY
  +--> ?PR?ERRORHISTORYDISPLAY?ERRORHISTORY
  +--> ?PR?CLEARERRORHISTORY?ERRORHISTORY
  +--> ?PR?_MODBUS_TRIGGERDEFROSTPARAMWRITE?...
  +--> ?PR?_TEMP_LIMIT?CONTROL
  +--> ?CO?CONTROL
  +--> ?PR?PRINTF?PRINTF
  +--> ?PR?MCU_RESET_WIFI?MCU_API
  +--> ?PR?_MODBUS_APPLYINDOORTIMERVPTOUNITS...
  +--> ?PR?SCREENTIMEOUT_SET?SYS
  +--> ?PR?READY4WRITERTC?CONTROL

?PR?GETVALUE0F00?CONTROL                         -----    -----      -----    -----      8C33H    0004H
BL51 BANKED LINKER/LOCATER V6.22.2.0                                                  06/18/2026  09:22:45  PAGE 19


  +--> ?CO?CONTROL
  +--> ?PR?_READ_DGUS_VP?SYS
  +--> ?PR?_WRITE_DGUS_VP?SYS

?PR?_ERRORHISTORY_PAGECHANGE?ERRORHIS...         -----    -----      -----    -----      -----    -----
  +--> ?PR?ERRORHISTORY_GETMAXPAGE?ERRORHISTORY
  +--> ?PR?ERRORHISTORYDISPLAY?ERRORHISTORY

?PR?ERRORHISTORY_GETMAXPAGE?ERRORHISTORY         -----    -----      -----    -----      -----    -----
  +--> ?PR?ERRORHISTORY_GETCOUNT?ERRORHISTORY

?PR?ERRORHISTORYDISPLAY?ERRORHISTORY             -----    -----      -----    -----      8C33H    000EH
  +--> ?CO?ERRORHISTORY
  +--> ?PR?_WRITE_DGUS_VP?SYS

?PR?UPLOAD_INSIDE_TIME_OPEN?UPLOAD               -----    -----      -----    -----      8C33H    000BH
  +--> ?CO?UPLOAD
  +--> ?PR?_READ_DGUS_VP?SYS
  +--> ?PR?_UPLOAD_DGUSMODETODP116?UPLOAD
  +--> ?PR?UPLOAD_PACKTIMERROOMBYTE?UPLOAD
  +--> ?PR?_MCU_DP_RAW_UPDATE?MCU_API

?PR?UPLOAD_PACKTIMERROOMBYTE?UPLOAD              -----    -----      -----    -----      8C3EH    0006H
  +--> ?PR?_READ_DGUS_VP?SYS

?PR?UPLOAD_EXTERNAL_TIME_OPEN?UPLOAD             -----    -----      -----    -----      8C33H    0009H
  +--> ?CO?UPLOAD
  +--> ?PR?_READ_DGUS_VP?SYS
  +--> ?PR?_MCU_DP_RAW_UPDATE?MCU_API

?PR?_KEYADJUSTSETTEMPFORMODE?CONTROL             -----    -----      -----    -----      8C33H    000BH
  +--> ?PR?_READ_DGUS_VP?SYS
  +--> ?PR?_SETTEMPINTVPBYMODE?CONTROL
  +--> ?PR?_WRITE_DGUS_VP?SYS
  +--> ?PR?_TEMP_LIMIT?CONTROL
  +--> ?PR?_TEMPUNITTRANS?CONTROL
  +--> ?PR?_SYNCSETTEMPCACHESFROMC?CONTROL

?PR?_TEMP_LIMIT?CONTROL                          -----    -----      -----    -----      8C3EH    0009H
  +--> ?PR?_READ_DGUS_VP?SYS
  +--> ?PR?_TEMPUNITTRANS?CONTROL
  +--> ?PR?_WRITE_DGUS_VP?SYS
  +--> ?PR?_SYNCINDOORSETTEMPVPPAIR?CONTROL
  +--> ?PR?_SYNCSETTEMPCACHESFROMC?CONTROL
  +--> ?PR?_SETTEMPINTWRITE?CONTROL

?PR?PREFILLSETTEMPEDITPAGE?CONTROL               -----    -----      -----    -----      8C33H    0008H
  +--> ?PR?_READ_DGUS_VP?SYS
  +--> ?PR?_SETTEMPINTREAD?CONTROL
  +--> ?PR?_TEMPUNITTRANS?CONTROL
  +--> ?PR?_WRITE_DGUS_VP?SYS
  +--> ?PR?_PAGE_CHANGE_HANDLER?SYS

?PR?_SETTEMPFLOATWRITEC?CONTROL                  -----    -----      -----    -----      8C33H    0009H
  +--> ?PR?_TEMPUNITTRANS?CONTROL
  +--> ?PR?_SETTEMPINTWRITE?CONTROL

BL51 BANKED LINKER/LOCATER V6.22.2.0                                                  06/18/2026  09:22:45  PAGE 20


?PR?_SETMODEPROCESS?CONTROL                      -----    -----      -----    -----      8C33H    0002H
  +--> ?PR?_WRITE_DGUS_VP?SYS

?PR?RTCDISPLAY4CHANGE?CONTROL                    -----    -----      -----    -----      8C33H    0008H
  +--> ?PR?_READ_DGUS_VP?SYS
  +--> ?PR?_WRITE_DGUS_VP?SYS
  +--> ?PR?_RTC_MONTHFROMDISPLAYVP?RTC

?PR?_RTC_MONTHFROMDISPLAYVP?RTC                  -----    -----      -----    -----      8C3BH    0002H

?PR?RTC_GETUNIXLOCAL?RTC                         -----    -----      -----    -----      8C33H    0009H
  +--> ?PR?_RTC_IS_LEAP?RTC
  +--> ?PR?_RTC_DAYS_IN_MONTH?RTC

?PR?_RTC_DAYS_IN_MONTH?RTC                       -----    -----      -----    -----      -----    -----
  +--> ?PR?_RTC_IS_LEAP?RTC

?PR?MODBUS_STARTMANUALDEFROST?MODBUS             -----    -----      -----    -----      8C33H    0002H
  +--> ?PR?_WRITE_DGUS_VP?SYS

?PR?ERRORHISTORY_TRYMIGRATEFLASH?ERRO...         -----    -----      -----    -----      8C33H    0008H
  +--> ?PR?ERRORHISTORY_FLASHVPADDR?ERRORHIS...
  +--> ?PR?_READ_DGUS_VP?SYS
  +--> ?PR?ERRORHISTORY_SANITIZE?ERRORHISTORY
  +--> ?PR?_ERRORHISTORY_FLASHWRITE?ERRORHIS...
  +--> ?PR?WRITE_MEMORY?SYS
  +--> ?PR?WRITE_NOR_FLASH?SYS

?PR?UPLOAD_EXTERNAL_TIME_CLOSE?UPLOAD            -----    -----      -----    -----      8C33H    0005H
  +--> ?CO?UPLOAD
  +--> ?PR?_READ_DGUS_VP?SYS
  +--> ?PR?_MCU_DP_RAW_UPDATE?MCU_API

?PR?UPLOAD_INSIDE_TIME_CLOSE?UPLOAD              -----    -----      -----    -----      8C33H    0005H
  +--> ?CO?UPLOAD
  +--> ?PR?_READ_DGUS_VP?SYS
  +--> ?PR?_MCU_DP_RAW_UPDATE?MCU_API

?PR?MODBUS_TRIGGERGROUPCONTROLWRITE?M...         -----    -----      -----    -----      -----    -----
  +--> ?PR?_MODBUS_FILLGROUPCONTROLREGS?MODBUS
  +--> ?PR?_MODBUS_GROUPREGSCHANGED?MODBUS

?PR?_MODBUS_FILLGROUPCONTROLREGS?MODBUS          -----    -----      -----    -----      8C33H    0005H
  +--> ?PR?_READ_DGUS_VP?SYS

?PR?_MODBUS_GROUPREGSCHANGED?MODBUS              -----    -----      -----    -----      8C33H    0004H

?PR?MCU_RESET_WIFI?MCU_API                       -----    -----      -----    -----      -----    -----
  +--> ?PR?_WIFI_UART_WRITE_FRAME?SYSTEM
  +--> ?CO?MCU_API
  +--> ?PR?PRINTF?PRINTF

?PR?READY4WRITERTC?CONTROL                       -----    -----      -----    -----      8C33H    0012H
  +--> ?PR?_READ_DGUS_VP?SYS
  +--> ?PR?_WRITE_DGUS_VP?SYS
  +--> ?PR?_RTC_WRITEDISPLAYTIME?RTC

BL51 BANKED LINKER/LOCATER V6.22.2.0                                                  06/18/2026  09:22:45  PAGE 21


?PR?MCU_GET_WIFI_WORK_STATE?MCU_API              -----    -----      -----    -----      -----    -----
  +--> ?CO?MCU_API
  +--> ?PR?PRINTF?PRINTF

?PR?UI_OPENPAGE?MAIN                             -----    -----      -----    -----      -----    -----
  +--> ?PR?HOMEPAGE?CONTROL

?PR?WIFI_RESTING_PRO?CONTROL                     -----    -----      -----    -----      -----    -----
  +--> ?PR?MCU_GET_RESET_WIFI_FLAG?MCU_API
  +--> ?CO?CONTROL
  +--> ?PR?PRINTF?PRINTF
  +--> ?PR?_PAGE_CHANGE_HANDLER?SYS

*** NEW ROOT ***************************************************

?PR?UART2_ISR_PC?UART                            -----    -----      -----    -----      -----    -----
  +--> ?PR?_UART_RECEIVE_INPUT?MCU_API

?PR?_UART_RECEIVE_INPUT?MCU_API                  -----    -----      -----    -----      8DF4H    0001H



UNRESOLVED EXTERNAL SYMBOLS:
   OTALENGTH
   READY_TO_SAVE_REPORT



SYMBOL TABLE OF MODULE:  .\obj\T5L51 (?C_STARTUP)

  VALUE           TYPE          NAME
  ----------------------------------

  -------         MODULE        ?C_STARTUP
  C:CB20H         SEGMENT       ?C_C51STARTUP
  I:0027H         SEGMENT       ?STACK
  C:0000H         PUBLIC        ?C_STARTUP
  D:00E0H         SYMBOL        ACC
  D:00F0H         SYMBOL        B
  D:008EH         SYMBOL        CKCON
  D:0094H         SYMBOL        DAGESEL
  D:0093H         SYMBOL        DPC
  D:0083H         SYMBOL        DPH
  D:0082H         SYMBOL        DPL
  D:0095H         SYMBOL        D_PAGESEL
  N:0000H         SYMBOL        IBPSTACK
  N:0100H         SYMBOL        IBPSTACKTOP
  N:0080H         SYMBOL        IDATALEN
  C:CB38H         SYMBOL        IDATALOOP
  D:00C9H         SYMBOL        MUX_SEL
  N:0000H         SYMBOL        PBPSTACK
  N:0100H         SYMBOL        PBPSTACKTOP
  N:0000H         SYMBOL        PDATALEN
  N:0000H         SYMBOL        PDATASTART
  N:0000H         SYMBOL        PPAGE
  N:0000H         SYMBOL        PPAGEENABLE
  D:00A0H         SYMBOL        PPAGE_SFR
BL51 BANKED LINKER/LOCATER V6.22.2.0                                                  06/18/2026  09:22:45  PAGE 22


  D:00F8H         SYMBOL        RAMMODE
  D:0081H         SYMBOL        SP
  C:CB20H         SYMBOL        STARTUP1
  D:00C8H         SYMBOL        T2CON
  N:0000H         SYMBOL        XBPSTACK
  N:0000H         SYMBOL        XBPSTACKTOP
  N:0000H         SYMBOL        XDATALEN
  N:0000H         SYMBOL        XDATASTART
  C:0000H         LINE#         133
  C:CB20H         LINE#         143
  C:CB23H         LINE#         144
  C:CB26H         LINE#         145
  C:CB29H         LINE#         146
  C:CB2CH         LINE#         147
  C:CB2FH         LINE#         148
  C:CB32H         LINE#         149
  C:CB35H         LINE#         152
  C:CB37H         LINE#         153
  C:CB38H         LINE#         154
  C:CB39H         LINE#         155
  C:CB3BH         LINE#         204
  C:CB3EH         LINE#         215
  -------         ENDMOD        ?C_STARTUP

  -------         MODULE        MAIN
  C:0000H         SYMBOL        _ICE_DUMMY_
  D:0080H         PUBLIC        P0
  D:00B0H         PUBLIC        P3
  D:00F8H         PUBLIC        RAMMODE
  D:00A8H         PUBLIC        IEN0
  D:00B8H         PUBLIC        IEN1
  C:F029H         PUBLIC        UI_OpenPage
  C:D37EH         PUBLIC        ModbusChanelControl
  C:DEF5H         PUBLIC        main
  B:0026H.2       PUBLIC        OldTuyaOTAState
  D:0088H         PUBLIC        TCON
  D:00C9H         PUBLIC        MUX_SEL
  D:0098H         PUBLIC        SCON0
  D:00C8H         PUBLIC        T2CON
  D:00D0H         PUBLIC        PSW
  D:00C0H         PUBLIC        IRCON
  -------         PROC          UI_OPENPAGE
  -------         DO            
  X:93FDH         SYMBOL        WaitingTime
  X:93FEH         SYMBOL        AlreadyRunning
  -------         ENDDO         
  C:F029H         LINE#         32
  C:F029H         LINE#         33
  C:F029H         LINE#         37
  C:F02FH         LINE#         38
  C:F02FH         LINE#         39
  C:F035H         LINE#         40
  C:F035H         LINE#         41
  C:F037H         LINE#         42
  C:F03AH         LINE#         43
  C:F03AH         LINE#         44
  C:F03FH         LINE#         45
BL51 BANKED LINKER/LOCATER V6.22.2.0                                                  06/18/2026  09:22:45  PAGE 23


  C:F046H         LINE#         46
  C:F04BH         LINE#         47
  C:F04BH         LINE#         48
  C:F04BH         LINE#         49
  C:F04BH         LINE#         50
  -------         ENDPROC       UI_OPENPAGE
  -------         PROC          MODBUSCHANELCONTROL
  C:D37EH         LINE#         51
  C:D37EH         LINE#         52
  C:D37EH         LINE#         53
  C:D386H         LINE#         54
  C:D386H         LINE#         55
  C:D38AH         LINE#         56
  C:D38DH         LINE#         57
  C:D38DH         LINE#         58
  C:D390H         LINE#         59
  C:D395H         LINE#         60
  C:D397H         LINE#         62
  C:D397H         LINE#         63
  C:D399H         LINE#         64
  C:D39BH         LINE#         65
  C:D39DH         LINE#         66
  C:D39FH         LINE#         67
  C:D39FH         LINE#         68
  C:D39FH         LINE#         69
  C:D3A2H         LINE#         71
  C:D3A7H         LINE#         73
  C:D3A7H         LINE#         74
  C:D3AAH         LINE#         75
  C:D3CFH         LINE#         76
  C:D3CFH         LINE#         77
  C:D3DEH         LINE#         78
  C:D3E0H         LINE#         80
  C:D3E3H         LINE#         81
  C:D3E3H         LINE#         82
  C:D3E5H         LINE#         83
  C:D3EAH         LINE#         84
  C:D3EAH         LINE#         85
  C:D3EDH         LINE#         86
  C:D3EDH         LINE#         87
  C:D3F7H         LINE#         88
  C:D3F9H         LINE#         89
  C:D3F9H         LINE#         90
  -------         ENDPROC       MODBUSCHANELCONTROL
  -------         PROC          MAIN
  C:DEF5H         LINE#         93
  C:DEF5H         LINE#         94
  C:DEF5H         LINE#         95
  C:DEF8H         LINE#         96
  C:DEFBH         LINE#         97
  C:DEFEH         LINE#         98
  C:DF01H         LINE#         99
  C:DF04H         LINE#         102
  C:DF07H         LINE#         103
  C:DF0AH         LINE#         104
  C:DF0DH         LINE#         106
  C:DF10H         LINE#         110
BL51 BANKED LINKER/LOCATER V6.22.2.0                                                  06/18/2026  09:22:45  PAGE 24


  C:DF13H         LINE#         111
  C:DF16H         LINE#         113
  C:DF16H         LINE#         114
  C:DF16H         LINE#         116
  C:DF19H         LINE#         117
  C:DF1CH         LINE#         119
  C:DF2BH         LINE#         120
  C:DF2BH         LINE#         121
  C:DF2FH         LINE#         123
  C:DF32H         LINE#         128
  C:DF32H         LINE#         138
  C:DF41H         LINE#         139
  C:DF41H         LINE#         140
  C:DF44H         LINE#         141
  C:DF4BH         LINE#         142
  C:DF4EH         LINE#         144
  C:DF51H         LINE#         149
  C:DF51H         LINE#         151
  -------         ENDPROC       MAIN
  -------         ENDMOD        MAIN

  -------         MODULE        SYS
  C:0000H         SYMBOL        _ICE_DUMMY_
  C:DAA8H         PUBLIC        INIT_CPU
  D:00F1H         PUBLIC        ADR_H
  D:0080H         PUBLIC        P0
  D:0090H         PUBLIC        P1
  D:00A0H         PUBLIC        P2
  D:00B0H         PUBLIC        P3
  D:00F3H         PUBLIC        ADR_L
  D:00F2H         PUBLIC        ADR_M
  C:C937H         SYMBOL        _Memory_ReadTimerSlot
  B:00A8H.7       PUBLIC        EA
  D:00F8H         PUBLIC        RAMMODE
  C:92A7H         PUBLIC        _write_dgus_vp
  D:00B7H         PUBLIC        P0MDOUT
  D:00BCH         PUBLIC        P1MDOUT
  D:00A8H         PUBLIC        IEN0
  C:E8A3H         PUBLIC        Ready_To_Save
  D:00BDH         PUBLIC        P2MDOUT
  D:00B8H         PUBLIC        IEN1
  D:00BEH         PUBLIC        P3MDOUT
  D:009AH         PUBLIC        IEN2
  C:E2DAH         PUBLIC        read_flash
  C:E3AFH         PUBLIC        Save_Data_Handler
  B:00F8H.4       PUBLIC        APP_ACK
  D:00F4H         PUBLIC        ADR_INC
  X:846AH         PUBLIC        TempSensorData
  C:C3A0H         SYMBOL        _Memory_WriteTimerSlot
  X:8732H         PUBLIC        read_flash_status
  C:ABC2H         PUBLIC        _FlashCheckSumCalculate
  C:E2E2H         PUBLIC        write_flash
  X:873AH         PUBLIC        Page_Change
  D:00BAH         PUBLIC        SREL0H
  C:F113H         PUBLIC        _DelayMs
  D:00F9H         PUBLIC        PORTDRV
  D:00AAH         PUBLIC        SREL0L
BL51 BANKED LINKER/LOCATER V6.22.2.0                                                  06/18/2026  09:22:45  PAGE 25


  D:0089H         PUBLIC        TMOD
  D:0088H         PUBLIC        TCON
  C:E2CEH         PUBLIC        mon_table
  D:0097H         PUBLIC        SCON2R
  D:00ABH         PUBLIC        SCON3R
  D:00D9H         PUBLIC        BODE2_DIV_H
  C:F0F3H         PUBLIC        _DelayUs
  D:00AEH         PUBLIC        BODE3_DIV_H
  D:0096H         PUBLIC        SCON2T
  D:00A7H         PUBLIC        SCON3T
  C:F4D9H         PUBLIC        PORT_Init
  C:E075H         PUBLIC        ScreenTimeOut_Set
  D:00E7H         PUBLIC        BODE2_DIV_L
  C:E2EAH         PUBLIC        Soft_Ver_Num
  X:874EH         PUBLIC        Save_Flash_Flag
  D:00AFH         PUBLIC        BODE3_DIV_L
  D:00C9H         PUBLIC        MUX_SEL
  C:E5BEH         SYMBOL        _Dgus_WaitEn
  C:E2EEH         SYMBOL        _?ix1000
  C:F0D3H         PUBLIC        _Brightness_Handler
  C:B5F5H         PUBLIC        T0_ISR_PC
  C:E116H         PUBLIC        T1_ISR_PC
  X:874FH         PUBLIC        Modbus_Error_Count
  C:F367H         PUBLIC        T2_ISR_PC
  C:9F42H         PUBLIC        Read_Memory_Error
  D:00A9H         PUBLIC        IP0
  B:00A8H.1       PUBLIC        ET0
  D:00B9H         PUBLIC        IP1
  B:00A8H.3       PUBLIC        ET1
  D:00FDH         PUBLIC        DATA0
  C:E495H         PUBLIC        _Page_Change_Handler
  D:00FCH         PUBLIC        DATA1
  B:00C0H.6       PUBLIC        TF2
  D:008CH         PUBLIC        TH0
  X:8751H         PUBLIC        page_set
  D:00FBH         PUBLIC        DATA2
  D:008DH         PUBLIC        TH1
  D:000DH         SYMBOL        SysTick
  D:00FAH         PUBLIC        DATA3
  D:00CDH         PUBLIC        TH2
  X:8755H         PUBLIC        Flash_Save_Count
  D:008AH         PUBLIC        TL0
  D:008BH         PUBLIC        TL1
  D:00CCH         PUBLIC        TL2
  C:F450H         PUBLIC        _delay_ms
  C:EE1DH         PUBLIC        _Language_Change
  B:00F8H.6       PUBLIC        APP_EN
  B:00D0H.3       PUBLIC        RS0
  B:00D0H.4       PUBLIC        RS1
  B:0088H.4       PUBLIC        TR0
  B:0088H.6       PUBLIC        TR1
  X:8757H         PUBLIC        Password
  B:00C8H.0       PUBLIC        TR2
  C:8B06H         PUBLIC        Read_Memory
  X:875BH         PUBLIC        adc_average_channel7
  C:E921H         PUBLIC        Read_Nor_Flash
  D:0098H         PUBLIC        SCON0
BL51 BANKED LINKER/LOCATER V6.22.2.0                                                  06/18/2026  09:22:45  PAGE 26


  X:875DH         PUBLIC        task_10ms_count
  D:00D8H         PUBLIC        ADCON
  X:875FH         PUBLIC        Temp_Indoor
  D:00C8H         PUBLIC        T2CON
  C:A4E9H         PUBLIC        Write_Memory
  D:00CBH         PUBLIC        TRL2H
  C:E95FH         PUBLIC        Write_Nor_Flash
  X:8761H         PUBLIC        AD_Count
  D:00CAH         PUBLIC        TRL2L
  C:E863H         PUBLIC        System_Parm_Init
  X:8763H         PUBLIC        APP_1000ms_count
  X:8765H         PUBLIC        task_10000ms_count
  X:8767H         PUBLIC        Send_Count
  X:8769H         PUBLIC        rx485_Count
  C:F3FCH         PUBLIC        T0_Init
  D:00D0H         PUBLIC        PSW
  C:8738H         PUBLIC        _read_dgus_vp
  C:F40CH         PUBLIC        T1_Init
  C:F2FCH         PUBLIC        T2_Init
  D:00C0H         PUBLIC        IRCON
  -------         PROC          _DGUS_WAITEN
  X:93DAH         SYMBOL        addr
  X:93DCH         SYMBOL        limit
  C:E5BEH         LINE#         29
  C:E5CCH         LINE#         30
  C:E5CCH         LINE#         31
  C:E5CFH         LINE#         32
  C:E5CFH         LINE#         33
  C:E5DDH         LINE#         34
  C:E5DDH         LINE#         35
  C:E5F5H         LINE#         36
  C:E5F8H         LINE#         37
  C:E5FAH         LINE#         38
  C:E5FCH         LINE#         39
  C:E5FCH         LINE#         40
  C:E5FFH         LINE#         41
  C:E601H         LINE#         42
  C:E602H         LINE#         43
  -------         ENDPROC       _DGUS_WAITEN
  -------         PROC          L?0171
  -------         ENDPROC       L?0171
  -------         PROC          _MEMORY_WRITETIMERSLOT
  X:8C4EH         SYMBOL        flash_addr
  X:8C52H         SYMBOL        vp_addr
  X:8C56H         SYMBOL        struct_bytes
  -------         DO            
  X:8C58H         SYMBOL        slot
  D:0007H         SYMBOL        i
  X:8C78H         SYMBOL        temp
  -------         ENDDO         
  C:C3A0H         LINE#         45
  C:C3A6H         LINE#         46
  C:C3A6H         LINE#         51
  C:C3B2H         LINE#         52
  C:C3C5H         LINE#         53
  C:C3D1H         LINE#         54
  C:C3E0H         LINE#         55
BL51 BANKED LINKER/LOCATER V6.22.2.0                                                  06/18/2026  09:22:45  PAGE 27


  C:C412H         LINE#         56
  C:C424H         LINE#         57
  C:C43FH         LINE#         58
  -------         ENDPROC       _MEMORY_WRITETIMERSLOT
  -------         PROC          L?0173
  -------         ENDPROC       L?0173
  -------         PROC          _MEMORY_READTIMERSLOT
  X:8C2AH         SYMBOL        flash_addr
  X:8C2EH         SYMBOL        vp_addr
  X:8C32H         SYMBOL        struct_bytes
  -------         DO            
  X:8C34H         SYMBOL        slot
  D:0007H         SYMBOL        i
  X:8C54H         SYMBOL        temp
  -------         ENDDO         
  C:C937H         LINE#         61
  C:C93DH         LINE#         62
  C:C93DH         LINE#         67
  C:C949H         LINE#         68
  C:C958H         LINE#         69
  C:C978H         LINE#         70
  C:C98AH         LINE#         71
  C:C9A5H         LINE#         72
  -------         ENDPROC       _MEMORY_READTIMERSLOT
  -------         PROC          INIT_CPU
  C:DAA8H         LINE#         145
  C:DAA8H         LINE#         146
  C:DAA8H         LINE#         147
  C:DAAAH         LINE#         148
  C:DAACH         LINE#         149
  C:DAAEH         LINE#         151
  C:DAB1H         LINE#         152
  C:DAB4H         LINE#         153
  C:DAB6H         LINE#         154
  C:DAB8H         LINE#         155
  C:DABAH         LINE#         156
  C:DABCH         LINE#         158
  C:DABFH         LINE#         161
  C:DAC1H         LINE#         162
  C:DAC3H         LINE#         163
  C:DAC5H         LINE#         164
  C:DAC7H         LINE#         165
  C:DACAH         LINE#         166
  C:DACCH         LINE#         167
  C:DACEH         LINE#         168
  C:DAD0H         LINE#         171
  C:DAD3H         LINE#         172
  C:DAD6H         LINE#         173
  C:DAD9H         LINE#         174
  C:DADCH         LINE#         177
  C:DADFH         LINE#         178
  C:DAE2H         LINE#         179
  C:DAE4H         LINE#         180
  C:DAE7H         LINE#         183
  C:DAEAH         LINE#         184
  C:DAEDH         LINE#         185
  C:DAEFH         LINE#         186
BL51 BANKED LINKER/LOCATER V6.22.2.0                                                  06/18/2026  09:22:45  PAGE 28


  C:DAF2H         LINE#         189
  C:DAF5H         LINE#         191
  C:DAF7H         LINE#         192
  C:DAF9H         LINE#         193
  C:DAFBH         LINE#         196
  C:DAFDH         LINE#         197
  C:DAFFH         LINE#         198
  C:DB01H         LINE#         202
  C:DB04H         LINE#         203
  C:DB06H         LINE#         204
  C:DB08H         LINE#         205
  C:DB0BH         LINE#         206
  C:DB0EH         LINE#         207
  -------         ENDPROC       INIT_CPU
  -------         PROC          PORT_INIT
  C:F4D9H         LINE#         219
  C:F4D9H         LINE#         220
  C:F4D9H         LINE#         221
  C:F4DCH         LINE#         222
  C:F4DFH         LINE#         223
  C:F4E2H         LINE#         224
  -------         ENDPROC       PORT_INIT
  -------         PROC          L?0168
  -------         ENDPROC       L?0168
  -------         PROC          _FLASHCHECKSUMCALCULATE
  X:8C4EH         SYMBOL        StartAddr
  X:8C50H         SYMBOL        Length
  -------         DO            
  X:8C52H         SYMBOL        i
  X:8C53H         SYMBOL        j
  X:8C54H         SYMBOL        Page
  X:8C55H         SYMBOL        Num
  X:8C56H         SYMBOL        FlashCheckSum_Add
  X:8C58H         SYMBOL        FlashCheckSum_Buff
  -------         ENDDO         
  C:ABC2H         LINE#         227
  C:ABD0H         LINE#         228
  C:ABD0H         LINE#         230
  C:ABD7H         LINE#         231
  C:ABE9H         LINE#         233
  C:ABFCH         LINE#         234
  C:AC0FH         LINE#         235
  C:AC0FH         LINE#         236
  C:AC36H         LINE#         237
  C:AC49H         LINE#         238
  C:AC49H         LINE#         239
  C:AC66H         LINE#         240
  C:AC6EH         LINE#         241
  C:AC76H         LINE#         242
  C:AC80H         LINE#         243
  C:ACB3H         LINE#         244
  C:ACC6H         LINE#         245
  C:ACC6H         LINE#         246
  C:ACE3H         LINE#         247
  C:ACEBH         LINE#         248
  C:ACF9H         LINE#         249
  C:AD01H         LINE#         250
BL51 BANKED LINKER/LOCATER V6.22.2.0                                                  06/18/2026  09:22:45  PAGE 29


  -------         ENDPROC       _FLASHCHECKSUMCALCULATE
  -------         PROC          SYSTEM_PARM_INIT
  -------         DO            
  X:8C22H         SYMBOL        FlashCheckSum
  -------         ENDDO         
  C:E863H         LINE#         262
  C:E863H         LINE#         263
  C:E863H         LINE#         264
  C:E86AH         LINE#         266
  C:E86DH         LINE#         267
  C:E874H         LINE#         268
  C:E88DH         LINE#         269
  C:E89CH         LINE#         270
  C:E89CH         LINE#         271
  C:E89FH         LINE#         272
  C:E89FH         LINE#         274
  C:E89FH         LINE#         275
  C:E8A2H         LINE#         276
  C:E8A2H         LINE#         277
  -------         ENDPROC       SYSTEM_PARM_INIT
  -------         PROC          READ_NOR_FLASH
  C:E921H         LINE#         290
  C:E921H         LINE#         291
  C:E921H         LINE#         292
  C:E93BH         LINE#         294
  C:E93BH         LINE#         295
  C:E93EH         LINE#         296
  C:E958H         LINE#         298
  C:E95EH         LINE#         299
  -------         ENDPROC       READ_NOR_FLASH
  -------         PROC          WRITE_NOR_FLASH
  C:E95FH         LINE#         312
  C:E95FH         LINE#         313
  C:E95FH         LINE#         314
  C:E979H         LINE#         316
  C:E979H         LINE#         317
  C:E97CH         LINE#         318
  C:E996H         LINE#         319
  C:E99CH         LINE#         320
  -------         ENDPROC       WRITE_NOR_FLASH
  -------         PROC          SAVE_DATA_HANDLER
  -------         DO            
  X:93FFH         SYMBOL        temp
  -------         ENDDO         
  C:E3AFH         LINE#         332
  C:E3AFH         LINE#         333
  C:E3AFH         LINE#         334
  C:E3B6H         LINE#         336
  C:E3BEH         LINE#         337
  C:E3BEH         LINE#         338
  C:E3CDH         LINE#         339
  C:E3CDH         LINE#         340
  C:E3D0H         LINE#         341
  C:E3D3H         LINE#         342
  C:E3D8H         LINE#         343
  C:E3DEH         LINE#         344
  C:E3DEH         LINE#         345
BL51 BANKED LINKER/LOCATER V6.22.2.0                                                  06/18/2026  09:22:45  PAGE 30


  C:E3DEH         LINE#         347
  C:E3F5H         LINE#         348
  C:E3F5H         LINE#         349
  C:E3FCH         LINE#         350
  C:E3FCH         LINE#         351
  -------         ENDPROC       SAVE_DATA_HANDLER
  -------         PROC          READY_TO_SAVE
  -------         DO            
  X:8C67H         SYMBOL        Enable_Memory
  -------         ENDDO         
  C:E8A3H         LINE#         364
  C:E8A3H         LINE#         365
  C:E8A3H         LINE#         366
  C:E8AAH         LINE#         367
  C:E8C2H         LINE#         368
  C:E8CEH         LINE#         369
  C:E8CEH         LINE#         370
  C:E8D3H         LINE#         371
  C:E8D4H         LINE#         372
  C:E8D6H         LINE#         374
  C:E8D6H         LINE#         375
  C:E8DBH         LINE#         376
  C:E8E1H         LINE#         377
  C:E8E1H         LINE#         378
  -------         ENDPROC       READY_TO_SAVE
  -------         PROC          _BRIGHTNESS_HANDLER
  D:0007H         SYMBOL        LEDBrightness
  -------         DO            
  X:8C33H         SYMBOL        Brightness_Handler_u8temp
  -------         ENDDO         
  C:F0D3H         LINE#         386
  C:F0D3H         LINE#         387
  C:F0D3H         LINE#         390
  C:F0D8H         LINE#         391
  C:F0DBH         LINE#         392
  -------         ENDPROC       _BRIGHTNESS_HANDLER
  -------         PROC          WRITE_MEMORY
  -------         DO            
  X:8C4AH         SYMBOL        Write_Memory_u16temp
  X:8C4CH         SYMBOL        Write_Memory_Addr
  -------         ENDDO         
  C:A4E9H         LINE#         407
  C:A4E9H         LINE#         408
  C:A4E9H         LINE#         412
  C:A4F2H         LINE#         414
  C:A4F8H         LINE#         415
  C:A510H         LINE#         416
  C:A513H         LINE#         418
  C:A52BH         LINE#         419
  C:A52EH         LINE#         421
  C:A547H         LINE#         422
  C:A54AH         LINE#         424
  C:A563H         LINE#         425
  C:A566H         LINE#         427
  C:A57FH         LINE#         428
  C:A582H         LINE#         430
  C:A59BH         LINE#         431
BL51 BANKED LINKER/LOCATER V6.22.2.0                                                  06/18/2026  09:22:45  PAGE 31


  C:A59EH         LINE#         433
  C:A5B7H         LINE#         434
  C:A5BAH         LINE#         436
  C:A5C9H         LINE#         437
  C:A5CDH         LINE#         440
  C:A5E4H         LINE#         442
  C:A5FCH         LINE#         443
  C:A606H         LINE#         445
  C:A613H         LINE#         446
  C:A617H         LINE#         448
  C:A62AH         LINE#         450
  C:A635H         LINE#         451
  -------         ENDPROC       WRITE_MEMORY
  -------         PROC          READ_MEMORY
  -------         DO            
  X:8C24H         SYMBOL        Read_Memory_u16temp
  X:8C26H         SYMBOL        Read_Memory_u16temp1
  D:0006H         SYMBOL        home_mode_saved
  X:8C28H         SYMBOL        Read_Memory_Addr
  -------         ENDDO         
  C:8B06H         LINE#         463
  C:8B06H         LINE#         464
  C:8B06H         LINE#         467
  C:8B0DH         LINE#         468
  C:8B11H         LINE#         469
  C:8B11H         LINE#         470
  C:8B17H         LINE#         472
  C:8B1AH         LINE#         473
  C:8B33H         LINE#         475
  C:8B33H         LINE#         476
  C:8B36H         LINE#         477
  C:8B4EH         LINE#         478
  C:8B56H         LINE#         479
  C:8B59H         LINE#         481
  C:8B59H         LINE#         482
  C:8B5CH         LINE#         483
  C:8B75H         LINE#         485
  C:8B7CH         LINE#         486
  C:8B8AH         LINE#         487
  C:8BA3H         LINE#         489
  C:8BA3H         LINE#         490
  C:8BA6H         LINE#         491
  C:8BBFH         LINE#         494
  C:8BBFH         LINE#         495
  C:8BC2H         LINE#         496
  C:8BDBH         LINE#         499
  C:8BDBH         LINE#         500
  C:8BDEH         LINE#         501
  C:8BF7H         LINE#         502
  C:8C00H         LINE#         503
  C:8C19H         LINE#         504
  C:8C22H         LINE#         506
  C:8C22H         LINE#         507
  C:8C25H         LINE#         508
  C:8C38H         LINE#         509
  C:8C38H         LINE#         510
  C:8C40H         LINE#         511
BL51 BANKED LINKER/LOCATER V6.22.2.0                                                  06/18/2026  09:22:45  PAGE 32


  C:8C43H         LINE#         512
  C:8C5CH         LINE#         513
  C:8C5CH         LINE#         516
  C:8C73H         LINE#         517
  C:8C7DH         LINE#         520
  C:8C95H         LINE#         521
  C:8C9FH         LINE#         523
  C:8CA6H         LINE#         524
  C:8CB0H         LINE#         525
  C:8CBAH         LINE#         527
  C:8CC1H         LINE#         528
  C:8CC4H         LINE#         529
  C:8CC7H         LINE#         530
  C:8CE0H         LINE#         532
  C:8CF3H         LINE#         533
  -------         ENDPROC       READ_MEMORY
  -------         PROC          READ_MEMORY_ERROR
  -------         DO            
  X:8C24H         SYMBOL        Read_Memory_Error_u16temp
  D:0007H         SYMBOL        i
  D:0006H         SYMBOL        j
  -------         ENDDO         
  C:9F42H         LINE#         535
  C:9F42H         LINE#         536
  C:9F42H         LINE#         540
  C:9F4AH         LINE#         541
  C:9F62H         LINE#         543
  C:9F6AH         LINE#         544
  C:9F81H         LINE#         546
  C:9F8AH         LINE#         547
  C:9FA3H         LINE#         549
  C:9FAAH         LINE#         550
  C:9FC2H         LINE#         552
  C:9FCBH         LINE#         553
  C:9FE4H         LINE#         555
  C:9FEDH         LINE#         556
  C:A006H         LINE#         558
  C:A009H         LINE#         559
  C:A022H         LINE#         561
  C:A02BH         LINE#         562
  C:A034H         LINE#         563
  C:A04DH         LINE#         565
  C:A054H         LINE#         566
  C:A057H         LINE#         567
  C:A05AH         LINE#         568
  C:A073H         LINE#         570
  C:A07FH         LINE#         571
  C:A07FH         LINE#         572
  C:A08BH         LINE#         573
  C:A0A9H         LINE#         574
  C:A0ACH         LINE#         575
  C:A0AEH         LINE#         576
  -------         ENDPROC       READ_MEMORY_ERROR
  -------         PROC          T0_INIT
  C:F3FCH         LINE#         587
  C:F3FCH         LINE#         588
  C:F3FCH         LINE#         589
BL51 BANKED LINKER/LOCATER V6.22.2.0                                                  06/18/2026  09:22:45  PAGE 33


  C:F3FFH         LINE#         590
  C:F402H         LINE#         591
  C:F405H         LINE#         592
  C:F407H         LINE#         593
  C:F409H         LINE#         594
  C:F40BH         LINE#         595
  -------         ENDPROC       T0_INIT
  -------         PROC          T1_INIT
  C:F40CH         LINE#         608
  C:F40CH         LINE#         609
  C:F40CH         LINE#         610
  C:F40FH         LINE#         611
  C:F412H         LINE#         612
  C:F415H         LINE#         613
  C:F417H         LINE#         614
  C:F419H         LINE#         615
  C:F41BH         LINE#         616
  -------         ENDPROC       T1_INIT
  -------         PROC          T2_INIT
  C:F2FCH         LINE#         630
  C:F2FCH         LINE#         631
  C:F2FCH         LINE#         632
  C:F2FFH         LINE#         633
  C:F302H         LINE#         634
  C:F304H         LINE#         635
  C:F307H         LINE#         636
  C:F30AH         LINE#         637
  C:F30DH         LINE#         638
  C:F30FH         LINE#         639
  C:F311H         LINE#         640
  -------         ENDPROC       T2_INIT
  C:8715H         SYMBOL        L?0160
  C:871BH         SYMBOL        L?0161
  C:871FH         SYMBOL        L?0162
  C:8729H         SYMBOL        L?0163
  -------         PROC          L?0159
  -------         ENDPROC       L?0159
  C:8715H         SYMBOL        L?0160
  C:871BH         SYMBOL        L?0161
  C:871FH         SYMBOL        L?0162
  C:8729H         SYMBOL        L?0163
  -------         PROC          _READ_DGUS_VP
  X:8DC3H         SYMBOL        addr
  X:8DC7H         SYMBOL        buf
  X:8DCAH         SYMBOL        len
  -------         DO            
  X:8DCCH         SYMBOL        OS_addr
  X:8DCEH         SYMBOL        OS_addr_offset
  X:8DD0H         SYMBOL        OS_len
  X:8DD2H         SYMBOL        OS_len_offset
  X:8DD4H         SYMBOL        LenLimit
  -------         ENDDO         
  C:8738H         LINE#         657
  C:8749H         LINE#         658
  C:8749H         LINE#         659
  C:8750H         LINE#         660
  C:8754H         LINE#         661
BL51 BANKED LINKER/LOCATER V6.22.2.0                                                  06/18/2026  09:22:45  PAGE 34


  C:875CH         LINE#         663
  C:8769H         LINE#         665
  C:878BH         LINE#         666
  C:87AAH         LINE#         667
  C:87AAH         LINE#         668
  C:87BBH         LINE#         669
  C:87BBH         LINE#         670
  C:87D6H         LINE#         671
  C:87E8H         LINE#         675
  C:87EBH         LINE#         676
  C:87F6H         LINE#         677
  C:87F8H         LINE#         679
  C:87FBH         LINE#         680
  C:87FEH         LINE#         682
  C:8801H         LINE#         683
  C:880BH         LINE#         684
  C:880BH         LINE#         685
  C:880DH         LINE#         686
  C:8810H         LINE#         687
  C:8825H         LINE#         688
  C:883AH         LINE#         689
  C:8848H         LINE#         690
  C:8848H         LINE#         691
  C:885EH         LINE#         692
  C:8868H         LINE#         693
  C:8876H         LINE#         694
  C:8876H         LINE#         695
  C:8878H         LINE#         696
  C:887BH         LINE#         697
  C:8890H         LINE#         698
  C:88A5H         LINE#         699
  C:88BAH         LINE#         700
  C:88CFH         LINE#         701
  C:88D1H         LINE#         702
  C:88DBH         LINE#         703
  C:88DBH         LINE#         704
  C:88DDH         LINE#         705
  C:88E0H         LINE#         706
  C:88F5H         LINE#         707
  C:890AH         LINE#         708
  C:890AH         LINE#         709
  C:890DH         LINE#         759
  -------         ENDPROC       _READ_DGUS_VP
  C:928AH         SYMBOL        L?0165
  C:928DH         SYMBOL        L?0166
  -------         PROC          L?0164
  -------         ENDPROC       L?0164
  C:928AH         SYMBOL        L?0165
  C:928DH         SYMBOL        L?0166
  -------         PROC          _WRITE_DGUS_VP
  X:8DE5H         SYMBOL        addr
  X:8DE9H         SYMBOL        buf
  X:8DECH         SYMBOL        len
  -------         DO            
  D:0002H         SYMBOL        OS_addr
  X:8DEEH         SYMBOL        OS_addr_offset
  X:8DF0H         SYMBOL        OS_len
BL51 BANKED LINKER/LOCATER V6.22.2.0                                                  06/18/2026  09:22:45  PAGE 35


  X:8DF2H         SYMBOL        OS_len_offset
  D:0006H         SYMBOL        LenLimit
  -------         ENDDO         
  C:92A7H         LINE#         773
  C:92B8H         LINE#         774
  C:92B8H         LINE#         775
  C:92BBH         LINE#         776
  C:92C1H         LINE#         777
  C:92C9H         LINE#         779
  C:92D6H         LINE#         781
  C:92E7H         LINE#         782
  C:92F4H         LINE#         783
  C:92F4H         LINE#         784
  C:92F9H         LINE#         785
  C:92F9H         LINE#         786
  C:9310H         LINE#         787
  C:9322H         LINE#         792
  C:9325H         LINE#         793
  C:9328H         LINE#         794
  C:932CH         LINE#         796
  C:932FH         LINE#         797
  C:9332H         LINE#         847
  C:9335H         LINE#         848
  C:933FH         LINE#         849
  C:933FH         LINE#         850
  C:9354H         LINE#         851
  C:9369H         LINE#         852
  C:936BH         LINE#         853
  C:936EH         LINE#         854
  C:937CH         LINE#         855
  C:937CH         LINE#         856
  C:9392H         LINE#         857
  C:939CH         LINE#         858
  C:939FH         LINE#         859
  C:93ADH         LINE#         860
  C:93ADH         LINE#         861
  C:93C2H         LINE#         862
  C:93D7H         LINE#         863
  C:93ECH         LINE#         864
  C:9401H         LINE#         865
  C:9403H         LINE#         866
  C:9408H         LINE#         867
  C:9408H         LINE#         868
  C:9412H         LINE#         869
  C:9412H         LINE#         870
  C:9415H         LINE#         871
  C:942AH         LINE#         872
  C:943FH         LINE#         873
  C:9441H         LINE#         874
  C:9444H         LINE#         875
  C:9444H         LINE#         876
  C:9447H         LINE#         881
  -------         ENDPROC       _WRITE_DGUS_VP
  -------         PROC          T0_ISR_PC
  C:B5F5H         LINE#         896
  C:B612H         LINE#         898
  C:B614H         LINE#         899
BL51 BANKED LINKER/LOCATER V6.22.2.0                                                  06/18/2026  09:22:45  PAGE 36


  C:B617H         LINE#         900
  C:B61AH         LINE#         902
  C:B628H         LINE#         903
  C:B636H         LINE#         904
  C:B644H         LINE#         905
  C:B652H         LINE#         906
  C:B660H         LINE#         908
  C:B66EH         LINE#         909
  C:B67CH         LINE#         910
  C:B67FH         LINE#         911
  C:B67FH         LINE#         912
  C:B696H         LINE#         913
  C:B6A4H         LINE#         914
  C:B6A4H         LINE#         916
  C:B6BBH         LINE#         917
  C:B6C9H         LINE#         918
  C:B6D8H         LINE#         919
  C:B6E4H         LINE#         921
  C:B6E6H         LINE#         922
  -------         ENDPROC       T0_ISR_PC
  -------         PROC          T1_ISR_PC
  C:E116H         LINE#         935
  C:E12DH         LINE#         937
  C:E12FH         LINE#         938
  C:E132H         LINE#         939
  C:E135H         LINE#         941
  C:E154H         LINE#         942
  C:E156H         LINE#         943
  -------         ENDPROC       T1_ISR_PC
  C:F44CH         SYMBOL        L?0170
  -------         PROC          L?0169
  -------         ENDPROC       L?0169
  C:F44CH         SYMBOL        L?0170
  -------         PROC          _DELAY_MS
  D:0006H         SYMBOL        n
  C:F450H         LINE#         957
  C:F450H         LINE#         958
  C:F450H         LINE#         959
  C:F454H         LINE#         960
  C:F45AH         LINE#         961
  -------         ENDPROC       _DELAY_MS
  -------         PROC          T2_ISR_PC
  C:F367H         LINE#         973
  C:F369H         LINE#         975
  C:F36BH         LINE#         976
  C:F36DH         LINE#         977
  C:F375H         LINE#         978
  C:F377H         LINE#         979
  -------         ENDPROC       T2_ISR_PC
  -------         PROC          _DELAYUS
  D:0006H         SYMBOL        n
  -------         DO            
  D:0004H         SYMBOL        i
  D:0002H         SYMBOL        j
  -------         ENDDO         
  C:F0F3H         LINE#         983
  C:F0F3H         LINE#         984
BL51 BANKED LINKER/LOCATER V6.22.2.0                                                  06/18/2026  09:22:45  PAGE 37


  C:F0F3H         LINE#         986
  C:F0FDH         LINE#         987
  C:F112H         LINE#         988
  -------         ENDPROC       _DELAYUS
  -------         PROC          _DELAYMS
  D:0006H         SYMBOL        n
  -------         DO            
  D:0004H         SYMBOL        i
  D:0002H         SYMBOL        j
  -------         ENDDO         
  C:F113H         LINE#         991
  C:F113H         LINE#         992
  C:F113H         LINE#         994
  C:F11DH         LINE#         995
  C:F132H         LINE#         996
  -------         ENDPROC       _DELAYMS
  -------         PROC          _PAGE_CHANGE_HANDLER
  D:0007H         SYMBOL        n
  C:E495H         LINE#         1008
  C:E495H         LINE#         1009
  C:E495H         LINE#         1027
  C:E49BH         LINE#         1028
  C:E49FH         LINE#         1029
  C:E4A2H         LINE#         1030
  C:E4A5H         LINE#         1031
  C:E4BFH         LINE#         1033
  C:E4BFH         LINE#         1034
  C:E4C2H         LINE#         1035
  C:E4D9H         LINE#         1036
  C:E4DFH         LINE#         1037
  -------         ENDPROC       _PAGE_CHANGE_HANDLER
  -------         PROC          L?0172
  -------         ENDPROC       L?0172
  -------         PROC          _LANGUAGE_CHANGE
  D:0007H         SYMBOL        num
  -------         DO            
  X:8C33H         SYMBOL        Language_Change_Buffer
  -------         ENDDO         
  C:EE1DH         LINE#         1039
  C:EE1DH         LINE#         1040
  C:EE1DH         LINE#         1043
  C:EE23H         LINE#         1044
  C:EE26H         LINE#         1045
  C:EE28H         LINE#         1046
  C:EE2BH         LINE#         1047
  -------         ENDPROC       _LANGUAGE_CHANGE
  -------         PROC          L?0167
  -------         ENDPROC       L?0167
  -------         PROC          SCREENTIMEOUT_SET
  B:0023H.1       SYMBOL        enable
  -------         DO            
  X:8C33H         SYMBOL        ScreenTimeOut_Set_Temp
  -------         ENDDO         
  C:E075H         LINE#         1049
  C:E075H         LINE#         1050
  C:E075H         LINE#         1053
  C:E08FH         LINE#         1054
BL51 BANKED LINKER/LOCATER V6.22.2.0                                                  06/18/2026  09:22:45  PAGE 38


  C:E096H         LINE#         1055
  C:E09BH         LINE#         1057
  C:E09EH         LINE#         1058
  C:E0A4H         LINE#         1059
  -------         ENDPROC       SCREENTIMEOUT_SET
  -------         ENDMOD        SYS

  -------         MODULE        CONTROL
  C:0000H         SYMBOL        _ICE_DUMMY_
  X:91A3H         PUBLIC        ExternTimer
  X:91ACH         SYMBOL        s_defrost_start_sec
  C:DD0BH         PUBLIC        _SetTempIntVpByMode
  X:91B0H         PUBLIC        set_send_type
  D:0080H         PUBLIC        P0
  C:BA0FH         PUBLIC        _HomePage_UpdateModeAnimation
  C:7EF5H         SYMBOL        SyncTimerFromVp
  C:ED95H         PUBLIC        _SetTempIntWrite
  D:00B0H         PUBLIC        P3
  C:B2C5H         PUBLIC        RTCdisplay4change
  C:EFDDH         PUBLIC        _IsItHomePage
  D:00F8H         PUBLIC        RAMMODE
  C:6BA4H         PUBLIC        TempUnit_RefreshAll
  C:E68DH         PUBLIC        HomePage
  X:91B1H         PUBLIC        getDar1
  C:CC60H         PUBLIC        _SyncSetTempCachesFromC
  D:00A8H         PUBLIC        IEN0
  D:00B8H         PUBLIC        IEN1
  B:0025H.1       PUBLIC        LockKeyCountEnalbe
  X:91B3H         PUBLIC        SetTempOld_HeatC
  X:91B4H         PUBLIC        SetPara_Addr
  C:BBFBH         SYMBOL        _KeyAdjustSetTempForMode
  C:E603H         PUBLIC        _SetTempFloatWriteC
  C:EF17H         PUBLIC        OTAReload_DelayPage
  B:0025H.2       PUBLIC        OTAReload_Delay
  X:91B5H         PUBLIC        SetTempOld_HeatF
  C:DE9CH         SYMBOL        _SyncTimerTempVpPair
  X:91B6H         PUBLIC        HomePageID
  C:F133H         PUBLIC        _SetModeProcess
  X:91BEH         PUBLIC        SetTempOld_CoolC
  C:AF63H         SYMBOL        Timer_ApplyIndoorOn
  X:91BFH         PUBLIC        Defrosting
  C:D8F9H         SYMBOL        TempUnit_RefreshActiveSetFromMode
  B:0025H.3       PUBLIC        WiFi_Tuya_Reseting
  X:91C1H         PUBLIC        SetTempOld_CoolF
  C:D5DBH         SYMBOL        _SyncIndoorRoomTempVpPair
  C:EBEBH         PUBLIC        UnitChangePro
  C:B4E7H         SYMBOL        PrefillSetTempEditPage
  C:AE3AH         PUBLIC        Ready4WriteRTC
  X:91C2H         PUBLIC        SetTempOld_AutoC
  X:91C3H         PUBLIC        SetTempOld_AutoF
  C:DB0FH         SYMBOL        _SyncIndoorSetTempVpPair
  C:F04CH         PUBLIC        GetPageID
  X:91C4H         PUBLIC        ExternTimer1
  B:0025H.4       PUBLIC        Screensaver_Enable
  D:0088H         PUBLIC        TCON
  C:9C5DH         SYMBOL        Defrost_CheckExit
  X:91CEH         PUBLIC        Language_Num
BL51 BANKED LINKER/LOCATER V6.22.2.0                                                  06/18/2026  09:22:45  PAGE 39


  X:91D0H         PUBLIC        Return_key_Set
  D:00C9H         PUBLIC        MUX_SEL
  C:E1BAH         SYMBOL        _?ix1000
  C:0100H         PUBLIC        Control_Function1
  X:91D2H         PUBLIC        LockKeyCount
  C:E1BEH         SYMBOL        _?ix1001
  C:C2DDH         PUBLIC        _TempUnitTrans
  X:91D4H         PUBLIC        BeforeScreenSavePage
  B:0025H.5       PUBLIC        TimerEnable
  X:91D5H         PUBLIC        Electric_Heating
  C:B701H         PUBLIC        HomePage_SyncIndoorDisplay
  X:91D7H         PUBLIC        key_down_delay
  X:91D9H         PUBLIC        SetTemp_HeatLower_C
  X:91DAH         PUBLIC        SetTemp_HeatLower_F
  X:91DBH         PUBLIC        SetTemp_HeatUpper_C
  C:D181H         SYMBOL        _ReadTimerTempC
  C:C5E0H         SYMBOL        _Timer_IsWeekdayMatch
  X:91DCH         PUBLIC        SetTemp_HeatUpper_F
  X:91DDH         PUBLIC        key_dowm
  D:0098H         PUBLIC        SCON0
  C:E79DH         PUBLIC        Wifi_Resting_Pro
  X:91DFH         PUBLIC        SetTemp_CoolLower_C
  D:00C8H         PUBLIC        T2CON
  X:91E0H         PUBLIC        SetTemp_CoolLower_F
  X:91E1H         PUBLIC        SetTemp_CoolUpper_C
  C:6E51H         PUBLIC        TimerRunning
  X:91E2H         PUBLIC        SetTemp_CoolUpper_F
  X:91E3H         PUBLIC        APP_down_delay
  C:ED5EH         PUBLIC        _SetTempIntRead
  X:91E5H         PUBLIC        Screensaver_Count
  C:A90BH         PUBLIC        HomePage_Icon
  X:91E7H         PUBLIC        value0F00
  C:DF59H         SYMBOL        _TempUnit_RefreshFloatPair
  C:DC41H         PUBLIC        GetValue0F00
  C:D4EEH         SYMBOL        Timer_ApplyIndoorOff
  C:68F9H         PUBLIC        _Temp_Limit
  D:00D0H         PUBLIC        PSW
  C:AA67H         PUBLIC        ScreenSaver_Pro
  D:00C0H         PUBLIC        IRCON
  -------         PROC          _SETTEMPINTVPBYMODE
  X:8C5DH         SYMBOL        mode
  D:0005H         SYMBOL        unit_f
  C:DD0BH         LINE#         50
  C:DD10H         LINE#         51
  C:DD10H         LINE#         52
  C:DD23H         LINE#         53
  C:DD29H         LINE#         54
  C:DD2FH         LINE#         55
  C:DD4AH         LINE#         56
  C:DD6EH         LINE#         57
  -------         ENDPROC       _SETTEMPINTVPBYMODE
  -------         PROC          PREFILLSETTEMPEDITPAGE
  -------         DO            
  X:8C33H         SYMBOL        mode
  X:8C35H         SYMBOL        unit
  X:8C37H         SYMBOL        temp_c
  X:8C39H         SYMBOL        temp_f
BL51 BANKED LINKER/LOCATER V6.22.2.0                                                  06/18/2026  09:22:45  PAGE 40


  -------         ENDDO         
  C:B4E7H         LINE#         62
  C:B4E7H         LINE#         63
  C:B4E7H         LINE#         69
  C:B500H         LINE#         70
  C:B513H         LINE#         71
  C:B526H         LINE#         72
  C:B53BH         LINE#         73
  C:B548H         LINE#         74
  C:B55DH         LINE#         75
  C:B56AH         LINE#         76
  C:B583H         LINE#         77
  C:B59CH         LINE#         78
  C:B5B5H         LINE#         79
  C:B5BFH         LINE#         80
  C:B5BFH         LINE#         81
  C:B5C4H         LINE#         82
  C:B5D4H         LINE#         83
  C:B5D6H         LINE#         85
  C:B5D6H         LINE#         86
  C:B5DBH         LINE#         87
  C:B5F4H         LINE#         88
  C:B5F4H         LINE#         89
  -------         ENDPROC       PREFILLSETTEMPEDITPAGE
  -------         PROC          DEFROST_CHECKEXIT
  -------         DO            
  X:9309H         SYMBOL        defrost_en
  X:930BH         SYMBOL        duration_min
  X:930DH         SYMBOL        evap_c
  X:9311H         SYMBOL        t3_c
  C:9D99H         SYMBOL        defrost_exit
  -------         DO            
  X:9315H         SYMBOL        zero
  -------         ENDDO         
  -------         ENDDO         
  C:9C5DH         LINE#         91
  C:9C5DH         LINE#         92
  C:9C5DH         LINE#         98
  C:9C6AH         LINE#         101
  C:9C83H         LINE#         102
  C:9C8DH         LINE#         103
  C:9C8DH         LINE#         104
  C:9C94H         LINE#         106
  C:9C94H         LINE#         108
  C:9CADH         LINE#         109
  C:9CB7H         LINE#         110
  C:9CCFH         LINE#         111
  C:9CF7H         LINE#         112
  C:9CF7H         LINE#         113
  C:9D42H         LINE#         114
  C:9D42H         LINE#         115
  C:9D42H         LINE#         117
  C:9D5CH         LINE#         118
  C:9D76H         LINE#         119
  C:9D99H         LINE#         120
  C:9D99H         LINE#         123
  C:9D99H         LINE#         124
BL51 BANKED LINKER/LOCATER V6.22.2.0                                                  06/18/2026  09:22:45  PAGE 41


  C:9D99H         LINE#         125
  C:9DA0H         LINE#         127
  C:9DA6H         LINE#         128
  C:9DB0H         LINE#         129
  C:9DC9H         LINE#         130
  C:9DD0H         LINE#         131
  C:9DD2H         LINE#         132
  C:9DD2H         LINE#         133
  -------         ENDPROC       DEFROST_CHECKEXIT
  -------         PROC          L?0693
  -------         ENDPROC       L?0693
  -------         PROC          _SETTEMPINTREAD
  D:0007H         SYMBOL        mode
  D:0005H         SYMBOL        unit_f
  -------         DO            
  X:8C55H         SYMBOL        temp
  D:0004H         SYMBOL        vp
  -------         ENDDO         
  C:ED5EH         LINE#         135
  C:ED5EH         LINE#         136
  C:ED5EH         LINE#         137
  C:ED65H         LINE#         138
  C:ED68H         LINE#         140
  C:ED6EH         LINE#         141
  C:ED7FH         LINE#         142
  C:ED87H         LINE#         143
  -------         ENDPROC       _SETTEMPINTREAD
  C:ED8DH         SYMBOL        L?0688
  C:ED8EH         SYMBOL        L?0689
  -------         PROC          L?0687
  -------         ENDPROC       L?0687
  C:ED8DH         SYMBOL        L?0688
  C:ED8EH         SYMBOL        L?0689
  -------         PROC          _SETTEMPINTWRITE
  D:0007H         SYMBOL        mode
  D:0005H         SYMBOL        unit_f
  X:8C5BH         SYMBOL        temp
  -------         DO            
  D:0004H         SYMBOL        vp
  -------         ENDDO         
  C:ED95H         LINE#         145
  C:ED9DH         LINE#         146
  C:ED9DH         LINE#         147
  C:EDA0H         LINE#         149
  C:EDA6H         LINE#         150
  C:EDB7H         LINE#         151
  -------         ENDPROC       _SETTEMPINTWRITE
  -------         PROC          _SETTEMPFLOATWRITEC
  X:8C33H         SYMBOL        mode
  X:8C34H         SYMBOL        temp_c
  -------         DO            
  X:8C38H         SYMBOL        temp_f
  X:8C3AH         SYMBOL        ic
  -------         ENDDO         
  C:E603H         LINE#         153
  C:E608H         LINE#         154
  C:E608H         LINE#         158
BL51 BANKED LINKER/LOCATER V6.22.2.0                                                  06/18/2026  09:22:45  PAGE 42


  C:E61FH         LINE#         159
  C:E62CH         LINE#         160
  C:E636H         LINE#         161
  -------         ENDPROC       _SETTEMPFLOATWRITEC
  C:DF53H         SYMBOL        L?0691
  C:DF55H         SYMBOL        L?0692
  -------         PROC          L?0690
  -------         ENDPROC       L?0690
  C:DF53H         SYMBOL        L?0691
  C:DF55H         SYMBOL        L?0692
  -------         PROC          _TEMPUNIT_REFRESHFLOATPAIR
  D:0004H         SYMBOL        vp_c
  X:8C55H         SYMBOL        vp_f
  -------         DO            
  X:8C59H         SYMBOL        fc
  X:8C5DH         SYMBOL        ff
  -------         ENDDO         
  C:DF59H         LINE#         164
  C:DF59H         LINE#         165
  C:DF59H         LINE#         169
  C:DF6BH         LINE#         170
  C:DF8FH         LINE#         171
  -------         ENDPROC       _TEMPUNIT_REFRESHFLOATPAIR
  -------         PROC          _SYNCINDOORSETTEMPVPPAIR
  X:8C51H         SYMBOL        index
  X:8C52H         SYMBOL        temp_c
  -------         DO            
  X:8C54H         SYMBOL        temp_f
  -------         ENDDO         
  C:DB0FH         LINE#         174
  C:DB1CH         LINE#         175
  C:DB1CH         LINE#         178
  C:DB25H         LINE#         180
  C:DB38H         LINE#         181
  C:DB56H         LINE#         182
  C:DB74H         LINE#         183
  -------         ENDPROC       _SYNCINDOORSETTEMPVPPAIR
  -------         PROC          _SYNCINDOORROOMTEMPVPPAIR
  X:8C51H         SYMBOL        index
  X:8C52H         SYMBOL        temp_c
  -------         DO            
  X:8C54H         SYMBOL        temp_f
  -------         ENDDO         
  C:D5DBH         LINE#         185
  C:D5E8H         LINE#         186
  C:D5E8H         LINE#         189
  C:D5F1H         LINE#         191
  C:D604H         LINE#         192
  C:D629H         LINE#         193
  C:D64EH         LINE#         194
  -------         ENDPROC       _SYNCINDOORROOMTEMPVPPAIR
  -------         PROC          L?0697
  -------         ENDPROC       L?0697
  -------         PROC          _SYNCTIMERTEMPVPPAIR
  X:8C51H         SYMBOL        vp_c
  X:8C55H         SYMBOL        vp_f
  X:8C59H         SYMBOL        temp_c
BL51 BANKED LINKER/LOCATER V6.22.2.0                                                  06/18/2026  09:22:45  PAGE 43


  -------         DO            
  X:8C5BH         SYMBOL        temp_f
  -------         ENDDO         
  C:DE9CH         LINE#         196
  C:DEA2H         LINE#         197
  C:DEA2H         LINE#         200
  C:DEB7H         LINE#         201
  C:DED6H         LINE#         202
  -------         ENDPROC       _SYNCTIMERTEMPVPPAIR
  -------         PROC          L?0698
  -------         ENDPROC       L?0698
  -------         PROC          _READTIMERTEMPC
  X:9317H         SYMBOL        vp_c
  X:931BH         SYMBOL        vp_f
  -------         DO            
  X:931FH         SYMBOL        unit
  X:9321H         SYMBOL        temp_c
  X:9323H         SYMBOL        temp_f
  -------         ENDDO         
  C:D181H         LINE#         205
  C:D187H         LINE#         206
  C:D187H         LINE#         211
  C:D1A0H         LINE#         212
  C:D1AAH         LINE#         213
  C:D1AAH         LINE#         214
  C:D1C9H         LINE#         215
  C:D1D6H         LINE#         216
  C:D1D6H         LINE#         217
  C:D1F5H         LINE#         218
  C:D1FDH         LINE#         219
  -------         ENDPROC       _READTIMERTEMPC
  -------         PROC          _KEYADJUSTSETTEMPFORMODE
  X:8C33H         SYMBOL        mode
  X:8C34H         SYMBOL        delta
  -------         DO            
  X:8C36H         SYMBOL        unit
  X:8C38H         SYMBOL        temp
  X:8C3AH         SYMBOL        vp
  -------         ENDDO         
  C:BBFBH         LINE#         221
  C:BC06H         LINE#         222
  C:BC06H         LINE#         227
  C:BC1FH         LINE#         228
  C:BC33H         LINE#         229
  C:BC4AH         LINE#         231
  C:BC5BH         LINE#         232
  C:BC75H         LINE#         233
  C:BC92H         LINE#         234
  C:BCAFH         LINE#         235
  C:BCCEH         LINE#         236
  C:BCDBH         LINE#         237
  C:BCE0H         LINE#         239
  C:BCE8H         LINE#         240
  -------         ENDPROC       _KEYADJUSTSETTEMPFORMODE
  -------         PROC          _HOMEPAGE_UPDATEMODEANIMATION
  D:0007H         SYMBOL        mode
  -------         DO            
BL51 BANKED LINKER/LOCATER V6.22.2.0                                                  06/18/2026  09:22:45  PAGE 44


  X:8C64H         SYMBOL        icon_start
  X:8C66H         SYMBOL        icon_end
  X:8C68H         SYMBOL        anim_val
  -------         ENDDO         
  C:BA0FH         LINE#         242
  C:BA0FH         LINE#         243
  C:BA0FH         LINE#         248
  C:BA19H         LINE#         249
  C:BA1BH         LINE#         250
  C:BA29H         LINE#         251
  C:BA29H         LINE#         252
  C:BA29H         LINE#         253
  C:BA32H         LINE#         254
  C:BA39H         LINE#         255
  C:BA3BH         LINE#         256
  C:BA3BH         LINE#         257
  C:BA44H         LINE#         258
  C:BA4BH         LINE#         259
  C:BA4DH         LINE#         260
  C:BA4DH         LINE#         261
  C:BA56H         LINE#         262
  C:BA5DH         LINE#         263
  C:BA5FH         LINE#         264
  C:BA5FH         LINE#         265
  C:BA67H         LINE#         266
  C:BA6EH         LINE#         267
  C:BA70H         LINE#         268
  C:BA70H         LINE#         269
  C:BA79H         LINE#         270
  C:BA80H         LINE#         271
  C:BA80H         LINE#         272
  C:BA80H         LINE#         274
  C:BA99H         LINE#         275
  C:BAB2H         LINE#         276
  C:BACBH         LINE#         278
  C:BAD3H         LINE#         279
  C:BAEBH         LINE#         280
  C:BAF2H         LINE#         281
  -------         ENDPROC       _HOMEPAGE_UPDATEMODEANIMATION
  -------         PROC          GETVALUE0F00
  -------         DO            
  X:8C33H         SYMBOL        cleanData
  -------         ENDDO         
  C:DC41H         LINE#         338
  C:DC41H         LINE#         339
  C:DC41H         LINE#         340
  C:DC54H         LINE#         341
  C:DC6EH         LINE#         342
  C:DC76H         LINE#         343
  C:DC76H         LINE#         344
  C:DC86H         LINE#         345
  C:DCA0H         LINE#         346
  C:DCA3H         LINE#         347
  C:DCA3H         LINE#         348
  C:DCA5H         LINE#         349
  -------         ENDPROC       GETVALUE0F00
  -------         PROC          GETPAGEID
BL51 BANKED LINKER/LOCATER V6.22.2.0                                                  06/18/2026  09:22:45  PAGE 45


  -------         DO            
  X:8C4AH         SYMBOL        usPID
  -------         ENDDO         
  C:F04CH         LINE#         350
  C:F04CH         LINE#         351
  C:F04CH         LINE#         353
  C:F065H         LINE#         354
  C:F06DH         LINE#         355
  -------         ENDPROC       GETPAGEID
  -------         PROC          CONTROL_FUNCTION1
  -------         DO            
  X:8C22H         SYMBOL        LockFlag
  X:8C24H         SYMBOL        Control_u16temp
  X:8C26H         SYMBOL        Control_s16temp
  X:8C28H         SYMBOL        i
  -------         DO            
  X:8C29H         SYMBOL        unit
  X:8C2BH         SYMBOL        temp_c
  X:8C2DH         SYMBOL        power_mode
  X:8C29H         SYMBOL        mode
  X:8C29H         SYMBOL        i
  X:8C2AH         SYMBOL        CF
  X:8C29H         SYMBOL        unit_sel
  -------         ENDDO         
  -------         DO            
  X:8C29H         SYMBOL        mode
  X:8C29H         SYMBOL        i
  X:8C2AH         SYMBOL        CF
  X:8C29H         SYMBOL        unit_sel
  -------         ENDDO         
  -------         DO            
  X:8C29H         SYMBOL        i
  X:8C2AH         SYMBOL        CF
  X:8C29H         SYMBOL        unit_sel
  -------         ENDDO         
  -------         DO            
  X:8C29H         SYMBOL        unit_sel
  -------         ENDDO         
  -------         DO            
  X:8C29H         SYMBOL        SaveSetTemp_u16tempC
  X:8C2BH         SYMBOL        SaveSetTemp_u16tempF
  X:8C2DH         SYMBOL        SaveSetTemp_u16temp
  X:8C2FH         SYMBOL        SaveSetTemp_u16mode
  X:8C29H         SYMBOL        Enable_Memory
  X:8C29H         SYMBOL        SaveSetTemp_u16mode
  X:8C2BH         SYMBOL        SaveSetTemp_u16mode1
  X:8C29H         SYMBOL        idx
  X:8C2AH         SYMBOL        temp_f
  X:8C2CH         SYMBOL        temp_c
  X:8C29H         SYMBOL        temp_f
  X:8C2BH         SYMBOL        temp_c
  X:8C29H         SYMBOL        temp_f
  X:8C2BH         SYMBOL        temp_c
  -------         DO            
  X:8C31H         SYMBOL        save_mode
  -------         ENDDO         
  -------         ENDDO         
BL51 BANKED LINKER/LOCATER V6.22.2.0                                                  06/18/2026  09:22:45  PAGE 46


  -------         DO            
  X:8C29H         SYMBOL        Enable_Memory
  X:8C29H         SYMBOL        SaveSetTemp_u16mode
  X:8C2BH         SYMBOL        SaveSetTemp_u16mode1
  X:8C29H         SYMBOL        idx
  X:8C2AH         SYMBOL        temp_f
  X:8C2CH         SYMBOL        temp_c
  X:8C29H         SYMBOL        temp_f
  X:8C2BH         SYMBOL        temp_c
  X:8C29H         SYMBOL        temp_f
  X:8C2BH         SYMBOL        temp_c
  -------         ENDDO         
  -------         DO            
  X:8C29H         SYMBOL        SaveSetTemp_u16mode
  X:8C2BH         SYMBOL        SaveSetTemp_u16mode1
  X:8C29H         SYMBOL        idx
  X:8C2AH         SYMBOL        temp_f
  X:8C2CH         SYMBOL        temp_c
  X:8C29H         SYMBOL        temp_f
  X:8C2BH         SYMBOL        temp_c
  X:8C29H         SYMBOL        temp_f
  X:8C2BH         SYMBOL        temp_c
  -------         ENDDO         
  -------         DO            
  X:8C29H         SYMBOL        idx
  X:8C2AH         SYMBOL        temp_f
  X:8C2CH         SYMBOL        temp_c
  X:8C29H         SYMBOL        temp_f
  X:8C2BH         SYMBOL        temp_c
  X:8C29H         SYMBOL        temp_f
  X:8C2BH         SYMBOL        temp_c
  -------         ENDDO         
  -------         DO            
  X:8C29H         SYMBOL        temp_f
  X:8C2BH         SYMBOL        temp_c
  X:8C29H         SYMBOL        temp_f
  X:8C2BH         SYMBOL        temp_c
  -------         ENDDO         
  -------         DO            
  X:8C29H         SYMBOL        temp_f
  X:8C2BH         SYMBOL        temp_c
  -------         ENDDO         
  -------         DO            
  X:8C29H         SYMBOL        para_idx
  -------         ENDDO         
  -------         ENDDO         
  C:0100H         LINE#         357
  C:0100H         LINE#         358
  C:0100H         LINE#         363
  C:0119H         LINE#         364
  C:0128H         LINE#         365
  C:012EH         LINE#         366
  C:012EH         LINE#         367
  C:0135H         LINE#         368
  C:02C5H         LINE#         369
  C:02C5H         LINE#         370
  C:02C5H         LINE#         371
BL51 BANKED LINKER/LOCATER V6.22.2.0                                                  06/18/2026  09:22:45  PAGE 47


  C:02C5H         LINE#         372
  C:02C8H         LINE#         373
  C:02C8H         LINE#         374
  C:02D5H         LINE#         375
  C:02D5H         LINE#         376
  C:02EDH         LINE#         377
  C:02F7H         LINE#         378
  C:02FAH         LINE#         380
  C:02FCH         LINE#         381
  C:02FCH         LINE#         382
  C:02FFH         LINE#         383
  C:02FFH         LINE#         384
  C:030CH         LINE#         385
  C:0324H         LINE#         386
  C:032EH         LINE#         387
  C:0333H         LINE#         389
  C:0335H         LINE#         390
  C:0335H         LINE#         391
  C:0338H         LINE#         392
  C:0338H         LINE#         393
  C:0345H         LINE#         394
  C:0347H         LINE#         395
  C:034AH         LINE#         396
  C:034AH         LINE#         397
  C:0354H         LINE#         398
  C:035CH         LINE#         400
  C:0361H         LINE#         401
  C:0364H         LINE#         402
  C:0364H         LINE#         403
  C:037DH         LINE#         404
  C:0393H         LINE#         405
  C:0393H         LINE#         406
  C:0396H         LINE#         407
  C:039DH         LINE#         408
  C:03AEH         LINE#         409
  C:03AEH         LINE#         410
  C:03B1H         LINE#         411
  C:03B1H         LINE#         412
  C:03B1H         LINE#         413
  C:03B1H         LINE#         414
  C:03B4H         LINE#         415
  C:03B4H         LINE#         419
  C:03B6H         LINE#         420
  C:03CFH         LINE#         421
  C:03E2H         LINE#         422
  C:03E2H         LINE#         423
  C:03E2H         LINE#         424
  C:03E2H         LINE#         425
  C:03E9H         LINE#         426
  C:03E9H         LINE#         427
  C:03ECH         LINE#         428
  C:03F5H         LINE#         429
  C:03F7H         LINE#         431
  C:03F7H         LINE#         432
  C:03FCH         LINE#         433
  C:0414H         LINE#         434
  C:0414H         LINE#         435
BL51 BANKED LINKER/LOCATER V6.22.2.0                                                  06/18/2026  09:22:45  PAGE 48


  C:042DH         LINE#         436
  C:0439H         LINE#         437
  C:0439H         LINE#         438
  C:0446H         LINE#         439
  C:0449H         LINE#         440
  C:0457H         LINE#         441
  C:0465H         LINE#         442
  C:0465H         LINE#         443
  C:0467H         LINE#         444
  C:0473H         LINE#         445
  C:0473H         LINE#         446
  C:0480H         LINE#         447
  C:0483H         LINE#         448
  C:0491H         LINE#         449
  C:049CH         LINE#         450
  C:049CH         LINE#         451
  C:049EH         LINE#         452
  C:04AAH         LINE#         453
  C:04AAH         LINE#         454
  C:04BDH         LINE#         455
  C:04C0H         LINE#         456
  C:04CEH         LINE#         457
  C:04D9H         LINE#         458
  C:04DCH         LINE#         459
  C:04DCH         LINE#         460
  C:04DCH         LINE#         461
  C:04DCH         LINE#         462
  C:04DFH         LINE#         463
  C:04DFH         LINE#         464
  C:04E2H         LINE#         465
  C:04E7H         LINE#         466
  C:04E7H         LINE#         467
  C:04EAH         LINE#         468
  C:04EAH         LINE#         470
  C:0503H         LINE#         471
  C:0515H         LINE#         472
  C:0515H         LINE#         473
  C:0515H         LINE#         474
  C:0515H         LINE#         475
  C:052EH         LINE#         476
  C:0538H         LINE#         477
  C:0538H         LINE#         478
  C:053EH         LINE#         479
  C:0547H         LINE#         480
  C:0549H         LINE#         481
  C:0553H         LINE#         482
  C:0553H         LINE#         483
  C:055AH         LINE#         484
  C:0572H         LINE#         485
  C:0572H         LINE#         486
  C:0574H         LINE#         487
  C:0574H         LINE#         488
  C:0574H         LINE#         489
  C:0577H         LINE#         490
  C:0577H         LINE#         491
  C:057CH         LINE#         492
  C:0595H         LINE#         493
BL51 BANKED LINKER/LOCATER V6.22.2.0                                                  06/18/2026  09:22:45  PAGE 49


  C:05A1H         LINE#         494
  C:05B9H         LINE#         495
  C:05D2H         LINE#         497
  C:05D9H         LINE#         498
  C:05F1H         LINE#         499
  C:0603H         LINE#         500
  C:0606H         LINE#         501
  C:0612H         LINE#         502
  C:0629H         LINE#         503
  C:0642H         LINE#         505
  C:065BH         LINE#         506
  C:066DH         LINE#         507
  C:0670H         LINE#         508
  C:067CH         LINE#         509
  C:0694H         LINE#         510
  C:06ADH         LINE#         512
  C:06C6H         LINE#         513
  C:06D8H         LINE#         514
  C:06DBH         LINE#         515
  C:06E7H         LINE#         516
  C:06FFH         LINE#         517
  C:0718H         LINE#         519
  C:0731H         LINE#         520
  C:0743H         LINE#         521
  C:0746H         LINE#         522
  C:0752H         LINE#         523
  C:076AH         LINE#         524
  C:0783H         LINE#         526
  C:079CH         LINE#         527
  C:07AEH         LINE#         528
  C:07B1H         LINE#         529
  C:07C0H         LINE#         530
  C:07D8H         LINE#         531
  C:07F1H         LINE#         533
  C:080AH         LINE#         534
  C:081CH         LINE#         535
  C:081CH         LINE#         538
  C:081FH         LINE#         539
  C:081FH         LINE#         540
  C:0821H         LINE#         541
  C:0824H         LINE#         542
  C:0824H         LINE#         543
  C:0829H         LINE#         545
  C:0841H         LINE#         546
  C:085AH         LINE#         547
  C:0866H         LINE#         548
  C:0866H         LINE#         549
  C:0878H         LINE#         550
  C:0893H         LINE#         551
  C:08B1H         LINE#         552
  C:08B9H         LINE#         553
  C:08C5H         LINE#         554
  C:08CAH         LINE#         556
  C:08CCH         LINE#         557
  C:08CFH         LINE#         558
  C:08CFH         LINE#         559
  C:08E2H         LINE#         560
BL51 BANKED LINKER/LOCATER V6.22.2.0                                                  06/18/2026  09:22:45  PAGE 50


  C:08FDH         LINE#         561
  C:091BH         LINE#         562
  C:0923H         LINE#         563
  C:092FH         LINE#         564
  C:0934H         LINE#         566
  C:0936H         LINE#         567
  C:0936H         LINE#         568
  C:0936H         LINE#         569
  C:0939H         LINE#         570
  C:0939H         LINE#         571
  C:093CH         LINE#         572
  C:093FH         LINE#         573
  C:093FH         LINE#         574
  C:0942H         LINE#         575
  C:0945H         LINE#         576
  C:0945H         LINE#         577
  C:095EH         LINE#         578
  C:096AH         LINE#         579
  C:0982H         LINE#         580
  C:098EH         LINE#         581
  C:0993H         LINE#         583
  C:0995H         LINE#         584
  C:0998H         LINE#         585
  C:09A7H         LINE#         586
  C:09BFH         LINE#         587
  C:09CBH         LINE#         588
  C:09D0H         LINE#         590
  C:09D2H         LINE#         591
  C:09D2H         LINE#         592
  C:09D5H         LINE#         593
  C:09D5H         LINE#         594
  C:09DAH         LINE#         595
  C:09F3H         LINE#         596
  C:0A0CH         LINE#         598
  C:0A25H         LINE#         599
  C:0A37H         LINE#         600
  C:0A3AH         LINE#         601
  C:0A3AH         LINE#         602
  C:0A3AH         LINE#         604
  C:0A53H         LINE#         605
  C:0A5EH         LINE#         606
  C:0A63H         LINE#         607
  C:0A68H         LINE#         608
  C:0A81H         LINE#         609
  C:0A9AH         LINE#         611
  C:0AB3H         LINE#         612
  C:0AC3H         LINE#         613
  C:0AD2H         LINE#         614
  C:0AD7H         LINE#         615
  C:0AF0H         LINE#         616
  C:0B08H         LINE#         618
  C:0B21H         LINE#         619
  C:0B31H         LINE#         620
  C:0B40H         LINE#         621
  C:0B45H         LINE#         622
  C:0B5EH         LINE#         623
  C:0B77H         LINE#         625
BL51 BANKED LINKER/LOCATER V6.22.2.0                                                  06/18/2026  09:22:45  PAGE 51


  C:0B90H         LINE#         626
  C:0BA0H         LINE#         627
  C:0BAFH         LINE#         628
  C:0BB4H         LINE#         629
  C:0BCDH         LINE#         630
  C:0BE6H         LINE#         632
  C:0BFFH         LINE#         633
  C:0C0FH         LINE#         634
  C:0C1EH         LINE#         635
  C:0C23H         LINE#         636
  C:0C3CH         LINE#         637
  C:0C55H         LINE#         639
  C:0C6EH         LINE#         640
  C:0C7EH         LINE#         641
  C:0C8CH         LINE#         642
  C:0C91H         LINE#         643
  C:0CAAH         LINE#         644
  C:0CC3H         LINE#         646
  C:0CDCH         LINE#         647
  C:0CF5H         LINE#         648
  C:0CF5H         LINE#         649
  C:0CF8H         LINE#         650
  C:0D18H         LINE#         651
  C:0D22H         LINE#         652
  C:0D22H         LINE#         653
  C:0D25H         LINE#         654
  C:0D25H         LINE#         655
  C:0D3EH         LINE#         656
  C:0D4DH         LINE#         657
  C:0D4FH         LINE#         658
  C:0D51H         LINE#         659
  C:0D51H         LINE#         660
  C:0D6AH         LINE#         661
  C:0D79H         LINE#         662
  C:0D7FH         LINE#         663
  C:0D82H         LINE#         664
  C:0D82H         LINE#         665
  C:0D9BH         LINE#         666
  C:0DAAH         LINE#         667
  C:0DB0H         LINE#         668
  C:0DB3H         LINE#         669
  C:0DB3H         LINE#         670
  C:0DCCH         LINE#         671
  C:0DDBH         LINE#         672
  C:0DE0H         LINE#         673
  C:0DE2H         LINE#         674
  C:0DE2H         LINE#         675
  C:0DFBH         LINE#         676
  C:0E0AH         LINE#         677
  C:0E0FH         LINE#         678
  C:0E11H         LINE#         679
  C:0E11H         LINE#         680
  C:0E2AH         LINE#         681
  C:0E39H         LINE#         682
  C:0E42H         LINE#         683
  C:0E45H         LINE#         688
  C:0E45H         LINE#         689
BL51 BANKED LINKER/LOCATER V6.22.2.0                                                  06/18/2026  09:22:45  PAGE 52


  C:0E48H         LINE#         690
  C:0E4BH         LINE#         691
  C:0E4BH         LINE#         698
  C:0E64H         LINE#         699
  C:0E73H         LINE#         700
  C:0E73H         LINE#         701
  C:0E89H         LINE#         702
  C:0EA2H         LINE#         703
  C:0EB7H         LINE#         704
  C:0ED0H         LINE#         705
  C:0EE9H         LINE#         706
  C:0EFFH         LINE#         707
  C:0F05H         LINE#         708
  C:0F18H         LINE#         709
  C:0F37H         LINE#         710
  C:0F39H         LINE#         711
  C:0F3CH         LINE#         713
  C:0F3CH         LINE#         715
  C:0F53H         LINE#         716
  C:0F6CH         LINE#         717
  C:0F7AH         LINE#         718
  C:0F93H         LINE#         719
  C:0FACH         LINE#         720
  C:0FC2H         LINE#         721
  C:0FC8H         LINE#         722
  C:0FDBH         LINE#         723
  C:0FFAH         LINE#         724
  C:0FFFH         LINE#         725
  C:0FFFH         LINE#         726
  C:1001H         LINE#         727
  C:1001H         LINE#         728
  C:1001H         LINE#         729
  C:1004H         LINE#         730
  C:1004H         LINE#         731
  C:101DH         LINE#         732
  C:1028H         LINE#         733
  C:102AH         LINE#         734
  C:102AH         LINE#         735
  C:102DH         LINE#         750
  C:102DH         LINE#         751
  C:1032H         LINE#         752
  C:1035H         LINE#         753
  C:1038H         LINE#         754
  C:1038H         LINE#         755
  C:1051H         LINE#         756
  C:1061H         LINE#         757
  C:1064H         LINE#         758
  C:1064H         LINE#         759
  C:1067H         LINE#         773
  C:1067H         LINE#         774
  C:1070H         LINE#         775
  C:1073H         LINE#         776
  C:107AH         LINE#         777
  C:107DH         LINE#         786
  C:107DH         LINE#         787
  C:1096H         LINE#         788
  C:10AFH         LINE#         789
BL51 BANKED LINKER/LOCATER V6.22.2.0                                                  06/18/2026  09:22:45  PAGE 53


  C:10B8H         LINE#         790
  C:10B8H         LINE#         791
  C:10BBH         LINE#         792
  C:10BBH         LINE#         793
  C:10C2H         LINE#         794
  C:10DAH         LINE#         795
  C:10E5H         LINE#         796
  C:10FEH         LINE#         797
  C:1101H         LINE#         798
  C:1101H         LINE#         799
  C:1101H         LINE#         800
  C:1104H         LINE#         801
  C:1104H         LINE#         802
  C:1106H         LINE#         803
  C:1109H         LINE#         804
  C:1109H         LINE#         805
  C:1122H         LINE#         806
  C:112CH         LINE#         807
  C:1131H         LINE#         809
  C:1133H         LINE#         810
  C:1136H         LINE#         811
  C:1136H         LINE#         812
  C:114FH         LINE#         813
  C:1159H         LINE#         814
  C:115EH         LINE#         816
  C:1160H         LINE#         817
  C:1163H         LINE#         818
  C:1163H         LINE#         819
  C:117CH         LINE#         820
  C:1186H         LINE#         821
  C:118BH         LINE#         823
  C:118DH         LINE#         824
  C:1190H         LINE#         825
  C:1190H         LINE#         826
  C:11A9H         LINE#         827
  C:11B8H         LINE#         828
  C:11D0H         LINE#         829
  C:11DCH         LINE#         830
  C:11DCH         LINE#         831
  C:11F4H         LINE#         832
  C:120DH         LINE#         833
  C:1226H         LINE#         834
  C:123FH         LINE#         835
  C:1242H         LINE#         836
  C:1242H         LINE#         837
  C:1244H         LINE#         838
  C:1247H         LINE#         839
  C:1256H         LINE#         840
  C:126EH         LINE#         841
  C:127AH         LINE#         842
  C:127AH         LINE#         843
  C:1292H         LINE#         844
  C:12ABH         LINE#         845
  C:12C4H         LINE#         846
  C:12DDH         LINE#         847
  C:12E0H         LINE#         848
  C:12E0H         LINE#         849
BL51 BANKED LINKER/LOCATER V6.22.2.0                                                  06/18/2026  09:22:45  PAGE 54


  C:12E2H         LINE#         850
  C:12E5H         LINE#         851
  C:12F4H         LINE#         852
  C:130CH         LINE#         853
  C:1318H         LINE#         854
  C:1318H         LINE#         855
  C:1330H         LINE#         856
  C:1349H         LINE#         857
  C:1362H         LINE#         858
  C:137BH         LINE#         859
  C:137BH         LINE#         860
  C:137DH         LINE#         861
  C:1380H         LINE#         862
  C:138FH         LINE#         863
  C:13A7H         LINE#         864
  C:13B3H         LINE#         865
  C:13B3H         LINE#         866
  C:13CBH         LINE#         867
  C:13E4H         LINE#         868
  C:13FDH         LINE#         869
  C:1416H         LINE#         870
  C:1419H         LINE#         871
  C:1419H         LINE#         872
  C:141BH         LINE#         873
  C:141BH         LINE#         874
  C:141EH         LINE#         875
  C:141EH         LINE#         876
  C:1437H         LINE#         877
  C:1441H         LINE#         878
  C:1446H         LINE#         880
  C:1448H         LINE#         881
  C:144BH         LINE#         882
  C:144BH         LINE#         883
  C:1464H         LINE#         884
  C:146EH         LINE#         885
  C:146EH         LINE#         886
  C:147DH         LINE#         887
  C:147DH         LINE#         888
  C:1496H         LINE#         889
  C:14B0H         LINE#         890
  C:14C9H         LINE#         891
  C:14D4H         LINE#         892
  C:14D4H         LINE#         893
  C:14D6H         LINE#         894
  C:14DDH         LINE#         895
  C:14E0H         LINE#         897
  C:14E0H         LINE#         898
  C:14E2H         LINE#         899
  C:14E2H         LINE#         900
  C:14E5H         LINE#         901
  C:14E5H         LINE#         904
  C:14FEH         LINE#         905
  C:1511H         LINE#         906
  C:152BH         LINE#         907
  C:1533H         LINE#         908
  C:1551H         LINE#         909
  C:1559H         LINE#         911
BL51 BANKED LINKER/LOCATER V6.22.2.0                                                  06/18/2026  09:22:45  PAGE 55


  C:1572H         LINE#         912
  C:1585H         LINE#         913
  C:15A8H         LINE#         915
  C:15C1H         LINE#         916
  C:15D4H         LINE#         917
  C:15F7H         LINE#         918
  C:15FAH         LINE#         919
  C:1601H         LINE#         920
  C:1604H         LINE#         921
  C:1607H         LINE#         922
  C:1609H         LINE#         923
  C:1609H         LINE#         924
  C:160CH         LINE#         925
  C:160CH         LINE#         926
  C:1625H         LINE#         927
  C:163EH         LINE#         928
  C:1640H         LINE#         929
  C:1640H         LINE#         930
  C:1643H         LINE#         931
  C:1643H         LINE#         932
  C:1646H         LINE#         933
  C:164BH         LINE#         934
  C:164EH         LINE#         935
  C:1651H         LINE#         936
  C:1651H         LINE#         937
  C:166AH         LINE#         938
  C:1679H         LINE#         939
  C:1679H         LINE#         940
  C:167CH         LINE#         941
  C:167FH         LINE#         942
  C:1686H         LINE#         943
  C:169EH         LINE#         944
  C:169EH         LINE#         945
  C:16A1H         LINE#         946
  C:16A1H         LINE#         947
  C:16A1H         LINE#         948
  C:16A1H         LINE#         949
  C:16A1H         LINE#         950
  C:16A1H         LINE#         951
  C:16ACH         LINE#         952
  C:16ACH         LINE#         953
  C:16AFH         LINE#         954
  C:16AFH         LINE#         955
  C:16AFH         LINE#         956
  C:16AFH         LINE#         957
  C:16AFH         LINE#         958
  C:16AFH         LINE#         959
  C:16AFH         LINE#         960
  C:16BFH         LINE#         961
  C:16C8H         LINE#         962
  C:16C8H         LINE#         963
  C:16C8H         LINE#         964
  C:16CBH         LINE#         965
  C:16CBH         LINE#         966
  C:16CBH         LINE#         967
  C:16CBH         LINE#         968
  C:16CBH         LINE#         969
BL51 BANKED LINKER/LOCATER V6.22.2.0                                                  06/18/2026  09:22:45  PAGE 56


  C:16CBH         LINE#         970
  C:16CBH         LINE#         971
  C:16D9H         LINE#         972
  C:16DEH         LINE#         973
  C:16DEH         LINE#         974
  C:16DEH         LINE#         975
  C:16E1H         LINE#         976
  C:16E1H         LINE#         977
  C:16E1H         LINE#         978
  C:16E1H         LINE#         979
  C:16E1H         LINE#         980
  C:16E1H         LINE#         981
  C:16E1H         LINE#         982
  C:16F1H         LINE#         983
  C:16FAH         LINE#         984
  C:16FAH         LINE#         985
  C:16FAH         LINE#         986
  C:16FDH         LINE#         987
  C:16FDH         LINE#         988
  C:16FDH         LINE#         989
  C:16FDH         LINE#         990
  C:16FDH         LINE#         991
  C:16FDH         LINE#         992
  C:16FDH         LINE#         993
  C:16FDH         LINE#         994
  C:16FDH         LINE#         995
  C:1702H         LINE#         996
  C:1712H         LINE#         997
  C:171BH         LINE#         998
  C:171BH         LINE#         999
  C:171BH         LINE#         1000
  C:171DH         LINE#         1001
  C:171DH         LINE#         1002
  C:171DH         LINE#         1003
  C:171DH         LINE#         1004
  C:171DH         LINE#         1005
  C:171DH         LINE#         1006
  C:171DH         LINE#         1007
  C:171DH         LINE#         1012
  C:1722H         LINE#         1013
  C:1730H         LINE#         1014
  C:1747H         LINE#         1015
  C:1755H         LINE#         1016
  C:1773H         LINE#         1017
  C:177DH         LINE#         1018
  C:1780H         LINE#         1019
  C:1783H         LINE#         1020
  C:1783H         LINE#         1021
  C:1786H         LINE#         1022
  C:1786H         LINE#         1023
  C:178FH         LINE#         1024
  C:1792H         LINE#         1025
  C:1797H         LINE#         1026
  C:1799H         LINE#         1027
  C:179CH         LINE#         1031
  C:179CH         LINE#         1032
  C:179CH         LINE#         1033
BL51 BANKED LINKER/LOCATER V6.22.2.0                                                  06/18/2026  09:22:45  PAGE 57


  C:179CH         LINE#         1034
  C:179FH         LINE#         1035
  C:179FH         LINE#         1036
  C:17A2H         LINE#         1037
  C:17A2H         LINE#         1038
  C:17A2H         LINE#         1042
  C:17BDH         LINE#         1043
  C:17CBH         LINE#         1044
  C:17E4H         LINE#         1045
  C:17E7H         LINE#         1046
  C:17E7H         LINE#         1047
  C:17E7H         LINE#         1048
  C:17EAH         LINE#         1049
  C:17EAH         LINE#         1050
  C:17F1H         LINE#         1051
  C:17F4H         LINE#         1052
  C:17F4H         LINE#         1053
  C:17F7H         LINE#         1054
  C:17F7H         LINE#         1055
  C:17F7H         LINE#         1059
  C:1812H         LINE#         1060
  C:1820H         LINE#         1061
  C:1839H         LINE#         1062
  C:1840H         LINE#         1063
  C:1843H         LINE#         1064
  C:1843H         LINE#         1065
  C:1843H         LINE#         1066
  C:1845H         LINE#         1067
  C:1845H         LINE#         1068
  C:184CH         LINE#         1069
  C:184FH         LINE#         1070
  C:184FH         LINE#         1071
  C:1851H         LINE#         1072
  C:1851H         LINE#         1073
  C:1854H         LINE#         1074
  C:1854H         LINE#         1075
  C:1856H         LINE#         1076
  C:1856H         LINE#         1077
  C:186FH         LINE#         1078
  C:1879H         LINE#         1079
  C:187DH         LINE#         1081
  C:187FH         LINE#         1082
  C:1887H         LINE#         1083
  C:188AH         LINE#         1084
  C:188CH         LINE#         1085
  C:188CH         LINE#         1086
  C:188CH         LINE#         1087
  C:188CH         LINE#         1088
  C:188CH         LINE#         1089
  C:188CH         LINE#         1090
  C:188FH         LINE#         1091
  C:1891H         LINE#         1092
  C:1891H         LINE#         1093
  C:18AAH         LINE#         1094
  C:18B4H         LINE#         1095
  C:18B8H         LINE#         1097
  C:18BDH         LINE#         1098
BL51 BANKED LINKER/LOCATER V6.22.2.0                                                  06/18/2026  09:22:45  PAGE 58


  C:18BDH         LINE#         1099
  C:18BDH         LINE#         1100
  C:18DAH         LINE#         1101
  C:18DAH         LINE#         1104
  C:1940H         LINE#         1107
  C:195AH         LINE#         1108
  C:195AH         LINE#         1109
  C:195CH         LINE#         1110
  C:195CH         LINE#         1111
  C:195EH         LINE#         1112
  C:197FH         LINE#         1113
  C:197FH         LINE#         1114
  C:198CH         LINE#         1115
  C:198CH         LINE#         1116
  C:198FH         LINE#         1118
  C:198FH         LINE#         1119
  C:19AAH         LINE#         1120
  C:19B3H         LINE#         1121
  C:19E2H         LINE#         1122
  C:19E2H         LINE#         1123
  C:19F6H         LINE#         1124
  C:1A0FH         LINE#         1125
  C:1A30H         LINE#         1126
  C:1A38H         LINE#         1127
  C:1A38H         LINE#         1128
  C:1A53H         LINE#         1129
  C:1A5BH         LINE#         1130
  C:1A5DH         LINE#         1131
  C:1A66H         LINE#         1132
  C:1A69H         LINE#         1133
  C:1A69H         LINE#         1134
  C:1A69H         LINE#         1135
  C:1A69H         LINE#         1136
  -------         ENDPROC       CONTROL_FUNCTION1
  -------         PROC          _ISITHOMEPAGE
  D:0007H         SYMBOL        NowPage
  -------         DO            
  B:0023H.2       SYMBOL        IsHomePage
  D:0006H         SYMBOL        i
  -------         ENDDO         
  C:EFDDH         LINE#         1148
  C:EFDDH         LINE#         1149
  C:EFDDH         LINE#         1150
  C:EFDFH         LINE#         1153
  C:EFEBH         LINE#         1154
  C:EFEBH         LINE#         1155
  C:EFF9H         LINE#         1156
  C:EFF9H         LINE#         1157
  C:EFFBH         LINE#         1158
  C:EFFDH         LINE#         1159
  C:EFFDH         LINE#         1160
  C:F000H         LINE#         1161
  C:F002H         LINE#         1162
  -------         ENDPROC       _ISITHOMEPAGE
  -------         PROC          HOMEPAGE_SYNCINDOORDISPLAY
  -------         DO            
  X:8C60H         SYMBOL        HomePage_Power
BL51 BANKED LINKER/LOCATER V6.22.2.0                                                  06/18/2026  09:22:45  PAGE 59


  X:8C62H         SYMBOL        i
  X:8C63H         SYMBOL        first_one
  X:9195H         SYMBOL        s_last_anim_mode
  -------         ENDDO         
  C:B701H         LINE#         1164
  C:B701H         LINE#         1165
  C:B701H         LINE#         1166
  C:B708H         LINE#         1167
  C:B70AH         LINE#         1168
  C:B70EH         LINE#         1171
  C:B721H         LINE#         1172
  C:B721H         LINE#         1173
  C:B73CH         LINE#         1174
  C:B748H         LINE#         1175
  C:B748H         LINE#         1176
  C:B74EH         LINE#         1177
  C:B750H         LINE#         1178
  C:B750H         LINE#         1179
  C:B758H         LINE#         1180
  C:B75FH         LINE#         1181
  C:B76DH         LINE#         1182
  C:B76DH         LINE#         1183
  C:B78DH         LINE#         1184
  C:B79CH         LINE#         1185
  C:B79CH         LINE#         1186
  C:B7BAH         LINE#         1187
  C:B7C9H         LINE#         1188
  C:B7CDH         LINE#         1189
  C:B7CDH         LINE#         1190
  C:B7CDH         LINE#         1191
  C:B7E5H         LINE#         1192
  C:B7F8H         LINE#         1193
  C:B7F8H         LINE#         1194
  C:B7FDH         LINE#         1195
  C:B806H         LINE#         1196
  C:B806H         LINE#         1197
  -------         ENDPROC       HOMEPAGE_SYNCINDOORDISPLAY
  -------         PROC          HOMEPAGE
  B:0023H.1       SYMBOL        TurnPage
  -------         DO            
  X:8C48H         SYMBOL        HomePage_TempType
  -------         ENDDO         
  C:E68DH         LINE#         1199
  C:E68DH         LINE#         1200
  C:E68DH         LINE#         1201
  C:E694H         LINE#         1203
  C:E697H         LINE#         1204
  C:E697H         LINE#         1205
  C:E69FH         LINE#         1207
  C:E6A1H         LINE#         1209
  C:E6A1H         LINE#         1211
  C:E6BAH         LINE#         1212
  C:E6C4H         LINE#         1213
  C:E6C8H         LINE#         1215
  C:E6CDH         LINE#         1216
  C:E6D0H         LINE#         1217
  -------         ENDPROC       HOMEPAGE
BL51 BANKED LINKER/LOCATER V6.22.2.0                                                  06/18/2026  09:22:45  PAGE 60


  -------         PROC          L?0696
  -------         ENDPROC       L?0696
  -------         PROC          _TEMP_LIMIT
  X:8C3EH         SYMBOL        Addr
  X:8C40H         SYMBOL        TempType
  -------         DO            
  X:8C41H         SYMBOL        Temp_Limit_Temp
  X:8C43H         SYMBOL        lo
  X:8C45H         SYMBOL        hi
  -------         ENDDO         
  C:68F9H         LINE#         1219
  C:6906H         LINE#         1220
  C:6906H         LINE#         1224
  C:6906H         LINE#         1225
  C:6919H         LINE#         1226
  C:6932H         LINE#         1227
  C:6932H         LINE#         1228
  C:6932H         LINE#         1229
  C:6932H         LINE#         1230
  C:6934H         LINE#         1231
  C:6946H         LINE#         1232
  C:6946H         LINE#         1233
  C:6946H         LINE#         1234
  C:6946H         LINE#         1235
  C:6948H         LINE#         1236
  C:6956H         LINE#         1237
  C:6956H         LINE#         1238
  C:695FH         LINE#         1239
  C:6966H         LINE#         1240
  C:6969H         LINE#         1241
  C:696FH         LINE#         1242
  C:696FH         LINE#         1243
  C:6980H         LINE#         1244
  C:6984H         LINE#         1245
  C:6987H         LINE#         1246
  C:6995H         LINE#         1247
  C:6995H         LINE#         1248
  C:699EH         LINE#         1249
  C:69A5H         LINE#         1250
  C:69A8H         LINE#         1251
  C:69AEH         LINE#         1252
  C:69AEH         LINE#         1253
  C:69B7H         LINE#         1254
  C:69BEH         LINE#         1255
  C:69C1H         LINE#         1256
  C:69C7H         LINE#         1257
  C:69C7H         LINE#         1258
  C:69D0H         LINE#         1259
  C:69D7H         LINE#         1260
  C:69D9H         LINE#         1261
  C:69DFH         LINE#         1262
  C:69DFH         LINE#         1263
  C:69F0H         LINE#         1264
  C:69F4H         LINE#         1265
  C:69F6H         LINE#         1266
  C:6A02H         LINE#         1267
  C:6A02H         LINE#         1268
BL51 BANKED LINKER/LOCATER V6.22.2.0                                                  06/18/2026  09:22:45  PAGE 61


  C:6A13H         LINE#         1269
  C:6A17H         LINE#         1270
  C:6A19H         LINE#         1271
  C:6A2AH         LINE#         1272
  C:6A2AH         LINE#         1273
  C:6A3AH         LINE#         1274
  C:6A4BH         LINE#         1275
  C:6A4BH         LINE#         1278
  C:6A61H         LINE#         1279
  C:6A63H         LINE#         1280
  C:6A72H         LINE#         1281
  C:6A7AH         LINE#         1282
  C:6A95H         LINE#         1283
  C:6AAEH         LINE#         1284
  C:6AB3H         LINE#         1285
  C:6ACCH         LINE#         1286
  C:6ACCH         LINE#         1287
  C:6AD7H         LINE#         1288
  C:6AEAH         LINE#         1289
  C:6AEAH         LINE#         1290
  C:6AF6H         LINE#         1291
  C:6B00H         LINE#         1292
  C:6B0CH         LINE#         1293
  C:6B12H         LINE#         1294
  C:6B37H         LINE#         1296
  C:6B5FH         LINE#         1297
  C:6B84H         LINE#         1299
  C:6BA3H         LINE#         1300
  -------         ENDPROC       _TEMP_LIMIT
  -------         PROC          _SETMODEPROCESS
  X:8C33H         SYMBOL        NewMode
  C:F133H         LINE#         1301
  C:F13BH         LINE#         1302
  C:F13BH         LINE#         1303
  -------         ENDPROC       _SETMODEPROCESS
  -------         PROC          RTCDISPLAY4CHANGE
  -------         DO            
  X:8C33H         SYMBOL        RTCS2C_temp
  X:8C35H         SYMBOL        year
  X:8C37H         SYMBOL        month_vp
  X:8C39H         SYMBOL        month
  -------         ENDDO         
  C:B2C5H         LINE#         1305
  C:B2C5H         LINE#         1306
  C:B2C5H         LINE#         1310
  C:B2DEH         LINE#         1311
  C:B2F7H         LINE#         1312
  C:B310H         LINE#         1313
  C:B329H         LINE#         1314
  C:B342H         LINE#         1315
  C:B35BH         LINE#         1316
  C:B374H         LINE#         1317
  C:B38DH         LINE#         1318
  C:B3A6H         LINE#         1319
  C:B3BFH         LINE#         1320
  -------         ENDPROC       RTCDISPLAY4CHANGE
  -------         PROC          READY4WRITERTC
BL51 BANKED LINKER/LOCATER V6.22.2.0                                                  06/18/2026  09:22:45  PAGE 62


  -------         DO            
  X:8C33H         SYMBOL        RTCC2W_write
  X:8C39H         SYMBOL        year_full
  X:8C3BH         SYMBOL        month
  X:8C3DH         SYMBOL        day
  X:8C3FH         SYMBOL        hour
  X:8C41H         SYMBOL        minute
  X:8C43H         SYMBOL        year
  -------         ENDDO         
  C:AE3AH         LINE#         1322
  C:AE3AH         LINE#         1323
  C:AE3AH         LINE#         1327
  C:AE53H         LINE#         1328
  C:AE6CH         LINE#         1329
  C:AE85H         LINE#         1330
  C:AE9EH         LINE#         1331
  C:AEB7H         LINE#         1332
  C:AEC7H         LINE#         1333
  C:AED3H         LINE#         1335
  C:AEE2H         LINE#         1336
  C:AEF6H         LINE#         1337
  C:AF0AH         LINE#         1338
  C:AF15H         LINE#         1339
  C:AF2EH         LINE#         1340
  -------         ENDPROC       READY4WRITERTC
  -------         PROC          _SYNCSETTEMPCACHESFROMC
  X:8C55H         SYMBOL        temp_c
  -------         DO            
  X:8C57H         SYMBOL        temp_f
  X:8C59H         SYMBOL        mode
  -------         ENDDO         
  C:CC60H         LINE#         1343
  C:CC68H         LINE#         1344
  C:CC68H         LINE#         1348
  C:CC7DH         LINE#         1349
  C:CC96H         LINE#         1350
  C:CCAFH         LINE#         1351
  C:CCC8H         LINE#         1352
  C:CCE1H         LINE#         1353
  C:CCE1H         LINE#         1354
  C:CCE7H         LINE#         1355
  C:CCFAH         LINE#         1356
  C:CCFAH         LINE#         1357
  -------         ENDPROC       _SYNCSETTEMPCACHESFROMC
  -------         PROC          TEMPUNIT_REFRESHACTIVESETFROMMODE
  -------         DO            
  X:8C51H         SYMBOL        mode
  X:8C53H         SYMBOL        unit
  D:0006H         SYMBOL        temp_c
  -------         ENDDO         
  C:D8F9H         LINE#         1359
  C:D8F9H         LINE#         1360
  C:D8F9H         LINE#         1365
  C:D912H         LINE#         1366
  C:D92BH         LINE#         1367
  C:D944H         LINE#         1369
  C:D94BH         LINE#         1370
BL51 BANKED LINKER/LOCATER V6.22.2.0                                                  06/18/2026  09:22:45  PAGE 63


  C:D959H         LINE#         1371
  C:D95EH         LINE#         1372
  C:D962H         LINE#         1373
  C:D965H         LINE#         1374
  -------         ENDPROC       TEMPUNIT_REFRESHACTIVESETFROMMODE
  -------         PROC          TEMPUNIT_REFRESHALL
  -------         DO            
  X:8C4AH         SYMBOL        unit
  X:8C4CH         SYMBOL        temp_c
  X:8C4EH         SYMBOL        temp_f
  X:8C50H         SYMBOL        i
  -------         ENDDO         
  C:6BA4H         LINE#         1376
  C:6BA4H         LINE#         1377
  C:6BA4H         LINE#         1383
  C:6BBDH         LINE#         1384
  C:6BD6H         LINE#         1385
  C:6BEFH         LINE#         1386
  C:6BF9H         LINE#         1387
  C:6BF9H         LINE#         1388
  C:6C04H         LINE#         1389
  C:6C06H         LINE#         1390
  C:6C11H         LINE#         1391
  C:6C11H         LINE#         1392
  C:6C13H         LINE#         1394
  C:6C13H         LINE#         1395
  C:6C1EH         LINE#         1396
  C:6C28H         LINE#         1397
  C:6C33H         LINE#         1398
  C:6C40H         LINE#         1399
  C:6C40H         LINE#         1400
  C:6C4BH         LINE#         1401
  C:6C4DH         LINE#         1402
  C:6C58H         LINE#         1403
  C:6C58H         LINE#         1404
  C:6C65H         LINE#         1405
  C:6C70H         LINE#         1406
  C:6C70H         LINE#         1407
  C:6C89H         LINE#         1408
  C:6CA2H         LINE#         1409
  C:6CA5H         LINE#         1411
  C:6CB4H         LINE#         1412
  C:6CC3H         LINE#         1413
  C:6CD2H         LINE#         1414
  C:6CE1H         LINE#         1415
  C:6CF5H         LINE#         1416
  C:6CF5H         LINE#         1417
  C:6D02H         LINE#         1418
  C:6D0DH         LINE#         1419
  C:6D0DH         LINE#         1420
  C:6D1AH         LINE#         1421
  C:6D2AH         LINE#         1422
  C:6D2AH         LINE#         1423
  C:6D2DH         LINE#         1424
  C:6D35H         LINE#         1425
  C:6D46H         LINE#         1426
  C:6D57H         LINE#         1428
BL51 BANKED LINKER/LOCATER V6.22.2.0                                                  06/18/2026  09:22:45  PAGE 64


  C:6D6AH         LINE#         1429
  C:6D6AH         LINE#         1430
  C:6D85H         LINE#         1431
  C:6D95H         LINE#         1432
  C:6DBAH         LINE#         1433
  C:6DC5H         LINE#         1434
  C:6DCDH         LINE#         1435
  C:6DD0H         LINE#         1436
  C:6DD8H         LINE#         1438
  C:6DF1H         LINE#         1439
  C:6DFCH         LINE#         1440
  C:6E13H         LINE#         1441
  C:6E2CH         LINE#         1442
  C:6E37H         LINE#         1443
  C:6E4EH         LINE#         1445
  -------         ENDPROC       TEMPUNIT_REFRESHALL
  C:C2D3H         SYMBOL        L?0685
  C:C2D6H         SYMBOL        L?0686
  -------         PROC          L?0684
  -------         ENDPROC       L?0684
  C:C2D3H         SYMBOL        L?0685
  C:C2D6H         SYMBOL        L?0686
  -------         PROC          _TEMPUNITTRANS
  D:0006H         SYMBOL        temp
  X:8C67H         SYMBOL        type
  -------         DO            
  X:8C68H         SYMBOL        Cache
  -------         ENDDO         
  C:C2DDH         LINE#         1448
  C:C2E2H         LINE#         1449
  C:C2E2H         LINE#         1452
  C:C2E6H         LINE#         1453
  C:C2E6H         LINE#         1454
  C:C2F1H         LINE#         1455
  C:C2F7H         LINE#         1456
  C:C302H         LINE#         1457
  C:C306H         LINE#         1458
  C:C31EH         LINE#         1459
  C:C320H         LINE#         1460
  C:C328H         LINE#         1461
  C:C328H         LINE#         1462
  C:C333H         LINE#         1463
  C:C339H         LINE#         1464
  C:C344H         LINE#         1465
  C:C348H         LINE#         1466
  C:C362H         LINE#         1467
  C:C362H         LINE#         1469
  C:C399H         LINE#         1470
  C:C399H         LINE#         1471
  -------         ENDPROC       _TEMPUNITTRANS
  -------         PROC          UNITCHANGEPRO
  -------         DO            
  X:8C48H         SYMBOL        UnitChange_TempType
  -------         ENDDO         
  C:EBEBH         LINE#         1472
  C:EBEBH         LINE#         1473
  C:EBEBH         LINE#         1474
BL51 BANKED LINKER/LOCATER V6.22.2.0                                                  06/18/2026  09:22:45  PAGE 65


  C:EBF2H         LINE#         1476
  C:EC0AH         LINE#         1477
  C:EC14H         LINE#         1478
  C:EC17H         LINE#         1480
  C:EC1EH         LINE#         1481
  -------         ENDPROC       UNITCHANGEPRO
  -------         PROC          SYNCTIMERFROMVP
  -------         DO            
  X:9401H         SYMBOL        u8tou16
  -------         ENDDO         
  C:7EF5H         LINE#         1523
  C:7EF5H         LINE#         1524
  C:7EF5H         LINE#         1525
  C:7F08H         LINE#         1527
  C:7F21H         LINE#         1528
  C:7F29H         LINE#         1529
  C:7F42H         LINE#         1530
  C:7F4AH         LINE#         1531
  C:7F63H         LINE#         1532
  C:7F6BH         LINE#         1533
  C:7F84H         LINE#         1534
  C:7F8CH         LINE#         1535
  C:7FA5H         LINE#         1536
  C:7FADH         LINE#         1537
  C:7FC6H         LINE#         1538
  C:7FCEH         LINE#         1539
  C:7FE7H         LINE#         1540
  C:7FEFH         LINE#         1541
  C:8003H         LINE#         1543
  C:801CH         LINE#         1544
  C:8024H         LINE#         1545
  C:803DH         LINE#         1546
  C:8045H         LINE#         1547
  C:805EH         LINE#         1548
  C:8066H         LINE#         1549
  C:807FH         LINE#         1550
  C:8087H         LINE#         1551
  C:80A0H         LINE#         1552
  C:80A8H         LINE#         1553
  C:80C1H         LINE#         1554
  C:80C9H         LINE#         1555
  C:80E2H         LINE#         1556
  C:80EAH         LINE#         1557
  C:8103H         LINE#         1558
  C:810BH         LINE#         1559
  C:811FH         LINE#         1560
  -------         ENDPROC       SYNCTIMERFROMVP
  C:C5DBH         SYMBOL        L?0695
  -------         PROC          L?0694
  -------         ENDPROC       L?0694
  C:C5DBH         SYMBOL        L?0695
  -------         PROC          _TIMER_ISWEEKDAYMATCH
  D:0007H         SYMBOL        rtc_week
  -------         DO            
  X:93BCH         SYMBOL        bit_idx
  X:93BDH         SYMBOL        week_en
  X:93BEH         SYMBOL        week_mask
BL51 BANKED LINKER/LOCATER V6.22.2.0                                                  06/18/2026  09:22:45  PAGE 66


  X:93C0H         SYMBOL        i
  -------         ENDDO         
  C:C5E0H         LINE#         1562
  C:C5E0H         LINE#         1563
  C:C5E0H         LINE#         1565
  C:C5E7H         LINE#         1568
  C:C5F8H         LINE#         1569
  C:C60BH         LINE#         1570
  C:C60BH         LINE#         1571
  C:C626H         LINE#         1572
  C:C62CH         LINE#         1573
  C:C64CH         LINE#         1574
  C:C654H         LINE#         1575
  C:C65FH         LINE#         1576
  C:C662H         LINE#         1577
  C:C686H         LINE#         1578
  -------         ENDPROC       _TIMER_ISWEEKDAYMATCH
  -------         PROC          TIMER_APPLYINDOORON
  -------         DO            
  X:9358H         SYMBOL        i
  X:9359H         SYMBOL        power
  X:935BH         SYMBOL        mode
  X:935DH         SYMBOL        temp
  X:935FH         SYMBOL        fan
  -------         DO            
  X:9361H         SYMBOL        sel
  -------         ENDDO         
  -------         ENDDO         
  C:AF63H         LINE#         1580
  C:AF63H         LINE#         1581
  C:AF63H         LINE#         1585
  C:AF7CH         LINE#         1586
  C:AF95H         LINE#         1587
  C:AFAEH         LINE#         1588
  C:AFC4H         LINE#         1589
  C:AFC4H         LINE#         1590
  C:AFCBH         LINE#         1591
  C:AFE6H         LINE#         1592
  C:AFF3H         LINE#         1593
  C:AFF3H         LINE#         1594
  C:AFFBH         LINE#         1595
  C:B019H         LINE#         1596
  C:B037H         LINE#         1597
  C:B055H         LINE#         1598
  C:B073H         LINE#         1599
  C:B07DH         LINE#         1600
  C:B086H         LINE#         1601
  -------         ENDPROC       TIMER_APPLYINDOORON
  -------         PROC          TIMER_APPLYINDOOROFF
  -------         DO            
  X:93C1H         SYMBOL        i
  X:93C2H         SYMBOL        power
  -------         DO            
  X:93C4H         SYMBOL        sel
  -------         ENDDO         
  -------         ENDDO         
  C:D4EEH         LINE#         1604
BL51 BANKED LINKER/LOCATER V6.22.2.0                                                  06/18/2026  09:22:45  PAGE 67


  C:D4EEH         LINE#         1605
  C:D4EEH         LINE#         1607
  C:D4F5H         LINE#         1609
  C:D507H         LINE#         1610
  C:D507H         LINE#         1611
  C:D50EH         LINE#         1612
  C:D529H         LINE#         1613
  C:D533H         LINE#         1614
  C:D533H         LINE#         1615
  C:D551H         LINE#         1616
  C:D55BH         LINE#         1617
  C:D563H         LINE#         1618
  -------         ENDPROC       TIMER_APPLYINDOOROFF
  -------         PROC          TIMERRUNNING
  -------         DO            
  X:93A2H         SYMBOL        Timer_ReadRtc
  X:93A4H         SYMBOL        Timer_Power
  X:93A6H         SYMBOL        rtc_week
  X:93A7H         SYMBOL        time_key
  X:9196H         SYMBOL        s_last_ext_on
  X:9198H         SYMBOL        s_last_ext_off
  X:919AH         SYMBOL        s_last_in_on
  X:919CH         SYMBOL        s_last_in_off
  -------         ENDDO         
  C:6E51H         LINE#         1621
  C:6E51H         LINE#         1622
  C:6E51H         LINE#         1632
  C:6E6AH         LINE#         1633
  C:6E6DH         LINE#         1634
  C:6E75H         LINE#         1635
  C:6E87H         LINE#         1637
  C:6E99H         LINE#         1638
  C:6E99H         LINE#         1639
  C:6EB7H         LINE#         1640
  C:6EB7H         LINE#         1641
  C:6ECEH         LINE#         1642
  C:6ECEH         LINE#         1643
  C:6ED6H         LINE#         1644
  C:6EEEH         LINE#         1645
  C:6F07H         LINE#         1646
  C:6F0FH         LINE#         1647
  C:6F1AH         LINE#         1648
  C:6F22H         LINE#         1649
  C:6F2DH         LINE#         1650
  C:6F35H         LINE#         1651
  C:6F41H         LINE#         1652
  C:6F4BH         LINE#         1653
  C:6F4DH         LINE#         1654
  C:6F50H         LINE#         1655
  C:6F5FH         LINE#         1656
  C:6F5FH         LINE#         1657
  C:6F61H         LINE#         1658
  C:6F75H         LINE#         1659
  C:6F7DH         LINE#         1660
  C:6F7DH         LINE#         1661
  C:6F8FH         LINE#         1662
  C:6F8FH         LINE#         1663
BL51 BANKED LINKER/LOCATER V6.22.2.0                                                  06/18/2026  09:22:45  PAGE 68


  C:6FA7H         LINE#         1664
  C:6FA7H         LINE#         1665
  C:6FBBH         LINE#         1666
  C:6FBBH         LINE#         1667
  C:6FC2H         LINE#         1668
  C:6FDAH         LINE#         1669
  C:6FDCH         LINE#         1670
  C:6FDFH         LINE#         1671
  C:6FEEH         LINE#         1672
  C:6FEEH         LINE#         1673
  C:6FF0H         LINE#         1674
  C:7004H         LINE#         1675
  C:700CH         LINE#         1676
  C:700CH         LINE#         1677
  C:7018H         LINE#         1678
  C:7018H         LINE#         1679
  C:7030H         LINE#         1680
  C:7030H         LINE#         1681
  C:7044H         LINE#         1682
  C:7044H         LINE#         1683
  C:7047H         LINE#         1684
  C:704AH         LINE#         1685
  C:7059H         LINE#         1686
  C:7059H         LINE#         1687
  C:705BH         LINE#         1688
  C:706FH         LINE#         1689
  C:7077H         LINE#         1690
  C:7077H         LINE#         1691
  C:7083H         LINE#         1692
  C:7083H         LINE#         1693
  C:709BH         LINE#         1694
  C:709BH         LINE#         1695
  C:70AFH         LINE#         1696
  C:70AFH         LINE#         1697
  C:70B2H         LINE#         1698
  C:70B5H         LINE#         1699
  C:70C4H         LINE#         1700
  C:70C4H         LINE#         1701
  C:70C6H         LINE#         1702
  C:70DAH         LINE#         1703
  C:70E2H         LINE#         1704
  C:70E2H         LINE#         1705
  -------         ENDPROC       TIMERRUNNING
  -------         PROC          HOMEPAGE_ICON
  -------         DO            
  X:93DEH         SYMBOL        HomePage_Icon_u16temp
  X:919EH         SYMBOL        s_last_home_mode
  X:919FH         SYMBOL        s_last_wifi_st
  X:93E0H         SYMBOL        cur_mode
  X:93E1H         SYMBOL        wifi_st
  -------         ENDDO         
  C:A90BH         LINE#         1707
  C:A90BH         LINE#         1708
  C:A90BH         LINE#         1715
  C:A913H         LINE#         1716
  C:A929H         LINE#         1717
  C:A929H         LINE#         1718
BL51 BANKED LINKER/LOCATER V6.22.2.0                                                  06/18/2026  09:22:45  PAGE 69


  C:A937H         LINE#         1719
  C:A93FH         LINE#         1720
  C:A93FH         LINE#         1721
  C:A94CH         LINE#         1722
  C:A94EH         LINE#         1723
  C:A956H         LINE#         1724
  C:A956H         LINE#         1725
  C:A956H         LINE#         1726
  C:A95EH         LINE#         1727
  C:A960H         LINE#         1728
  C:A960H         LINE#         1729
  C:A967H         LINE#         1730
  C:A967H         LINE#         1731
  C:A967H         LINE#         1732
  C:A980H         LINE#         1734
  C:A987H         LINE#         1735
  C:A99FH         LINE#         1736
  C:A9A9H         LINE#         1737
  C:A9C1H         LINE#         1738
  C:A9CBH         LINE#         1739
  C:A9E3H         LINE#         1740
  C:A9EDH         LINE#         1741
  C:AA05H         LINE#         1742
  C:AA1EH         LINE#         1744
  C:AA36H         LINE#         1745
  C:AA43H         LINE#         1746
  C:AA43H         LINE#         1747
  C:AA46H         LINE#         1748
  C:AA4EH         LINE#         1749
  C:AA4EH         LINE#         1751
  -------         ENDPROC       HOMEPAGE_ICON
  -------         PROC          WIFI_RESTING_PRO
  -------         DO            
  X:91A0H         SYMBOL        Wifi_Resting_Pro_Count
  -------         ENDDO         
  C:E79DH         LINE#         1754
  C:E79DH         LINE#         1755
  C:E79DH         LINE#         1758
  C:E7A0H         LINE#         1759
  C:E7A0H         LINE#         1760
  C:E7A2H         LINE#         1762
  C:E7A2H         LINE#         1764
  C:E7A8H         LINE#         1765
  C:E7A8H         LINE#         1766
  C:E7B1H         LINE#         1767
  C:E7B6H         LINE#         1768
  C:E7B8H         LINE#         1769
  C:E7BAH         LINE#         1771
  C:E7BAH         LINE#         1773
  C:E7C0H         LINE#         1774
  C:E7CAH         LINE#         1775
  C:E7CAH         LINE#         1776
  C:E7D3H         LINE#         1777
  C:E7D8H         LINE#         1778
  C:E7DAH         LINE#         1779
  C:E7DFH         LINE#         1780
  C:E7DFH         LINE#         1781
BL51 BANKED LINKER/LOCATER V6.22.2.0                                                  06/18/2026  09:22:45  PAGE 70


  -------         ENDPROC       WIFI_RESTING_PRO
  -------         PROC          OTARELOAD_DELAYPAGE
  -------         DO            
  X:91A1H         SYMBOL        OTAReloadDelayCount
  -------         ENDDO         
  C:EF17H         LINE#         1782
  C:EF17H         LINE#         1783
  C:EF17H         LINE#         1786
  C:EF1AH         LINE#         1787
  C:EF1AH         LINE#         1788
  C:EF27H         LINE#         1789
  C:EF2BH         LINE#         1791
  C:EF2BH         LINE#         1792
  C:EF2DH         LINE#         1793
  C:EF32H         LINE#         1794
  C:EF37H         LINE#         1795
  C:EF3EH         LINE#         1796
  C:EF3EH         LINE#         1797
  C:EF3EH         LINE#         1798
  -------         ENDPROC       OTARELOAD_DELAYPAGE
  -------         PROC          SCREENSAVER_PRO
  -------         DO            
  X:91A2H         SYMBOL        ScreenSaveType_Old
  X:934CH         SYMBOL        i
  X:934DH         SYMBOL        ScreenSaveType
  X:934EH         SYMBOL        ScreenSaver_Pro_SetMode
  X:9350H         SYMBOL        ScreenSaver_Pro_Power
  X:9352H         SYMBOL        ScreenSaver_Pro_Error
  X:9354H         SYMBOL        ScreenSaver_Pro_Temp
  X:9356H         SYMBOL        ScreenSaver_Pro_TempA
  -------         ENDDO         
  C:AA67H         LINE#         1799
  C:AA67H         LINE#         1800
  C:AA67H         LINE#         1805
  C:AA73H         LINE#         1806
  C:AA73H         LINE#         1807
  C:AA8BH         LINE#         1808
  C:AA8BH         LINE#         1809
  C:AA94H         LINE#         1810
  C:AA94H         LINE#         1811
  C:AA9CH         LINE#         1812
  C:AAA1H         LINE#         1813
  C:AAA1H         LINE#         1814
  C:AABAH         LINE#         1815
  C:AAD2H         LINE#         1816
  C:AAEBH         LINE#         1817
  C:AAF5H         LINE#         1818
  C:AAFDH         LINE#         1819
  C:AB07H         LINE#         1820
  C:AB0DH         LINE#         1822
  C:AB0DH         LINE#         1823
  C:AB20H         LINE#         1824
  C:AB20H         LINE#         1825
  C:AB20H         LINE#         1826
  C:AB26H         LINE#         1827
  C:AB28H         LINE#         1828
  C:AB28H         LINE#         1829
BL51 BANKED LINKER/LOCATER V6.22.2.0                                                  06/18/2026  09:22:45  PAGE 71


  C:AB2EH         LINE#         1830
  C:AB30H         LINE#         1831
  C:AB30H         LINE#         1832
  C:AB30H         LINE#         1833
  C:AB36H         LINE#         1834
  C:AB36H         LINE#         1835
  C:AB36H         LINE#         1836
  C:AB36H         LINE#         1837
  C:AB42H         LINE#         1838
  C:AB42H         LINE#         1839
  C:AB55H         LINE#         1840
  C:AB55H         LINE#         1841
  C:AB5AH         LINE#         1842
  C:AB5AH         LINE#         1843
  C:AB63H         LINE#         1844
  C:AB67H         LINE#         1846
  C:AB77H         LINE#         1847
  C:AB79H         LINE#         1849
  C:AB79H         LINE#         1850
  C:AB90H         LINE#         1851
  C:AB96H         LINE#         1853
  C:ABA9H         LINE#         1854
  C:ABA9H         LINE#         1855
  C:ABB1H         LINE#         1856
  C:ABB9H         LINE#         1857
  C:ABB9H         LINE#         1858
  C:ABB9H         LINE#         1859
  C:ABB9H         LINE#         1860
  -------         ENDPROC       SCREENSAVER_PRO
  -------         ENDMOD        CONTROL

  -------         MODULE        UART
  C:0000H         SYMBOL        _ICE_DUMMY_
  X:8DF5H         PUBLIC        Uart5_Rx
  D:0080H         PUBLIC        P0
  X:8EF5H         PUBLIC        modbus_send_finish
  B:00A8H.7       PUBLIC        EA
  D:00F8H         PUBLIC        RAMMODE
  X:8EF6H         PUBLIC        nUart0Sending
  D:00B7H         PUBLIC        P0MDOUT
  D:00A8H         PUBLIC        IEN0
  B:0080H.0       PUBLIC        RS485_UART4_EN
  D:00B8H         PUBLIC        IEN1
  X:8EF7H         PUBLIC        nUart5Sending
  B:0098H.4       PUBLIC        REN0
  X:8EF8H         PUBLIC        uart2_busy
  C:D736H         PUBLIC        _UART5_SendStr
  X:8EF9H         PUBLIC        modbus_error
  B:00B8H.5       PUBLIC        ES3R
  X:8EFBH         PUBLIC        modbus_res_finish
  B:00B8H.4       PUBLIC        ES3T
  X:8EFCH         SYMBOL        s_uart2_tx_byte
  D:00BAH         PUBLIC        SREL0H
  D:0087H         PUBLIC        PCON
  C:CD96H         PUBLIC        UART2_ISR_PC
  D:00AAH         PUBLIC        SREL0L
  D:0088H         PUBLIC        TCON
BL51 BANKED LINKER/LOCATER V6.22.2.0                                                  06/18/2026  09:22:45  PAGE 72


  D:0097H         PUBLIC        SCON2R
  D:00ABH         PUBLIC        SCON3R
  D:00D9H         PUBLIC        BODE2_DIV_H
  D:00AEH         PUBLIC        BODE3_DIV_H
  D:0096H         PUBLIC        SCON2T
  D:00A7H         PUBLIC        SCON3T
  D:00E7H         PUBLIC        BODE2_DIV_L
  D:00AFH         PUBLIC        BODE3_DIV_L
  D:00C9H         PUBLIC        MUX_SEL
  C:C20BH         PUBLIC        UART5_RX_ISR_PC
  C:D7A7H         PUBLIC        UART5_TX_ISR_PC
  X:8EFDH         PUBLIC        nUart0SendIndex
  B:0080H.1       PUBLIC        RS485_TX_EN
  B:00A8H.4       PUBLIC        ES0
  X:8EFFH         PUBLIC        uart2_rx_count
  X:8F01H         PUBLIC        pUart0SendAddr
  X:8F04H         PUBLIC        nUart5SendIndex
  B:0098H.0       PUBLIC        RI0
  X:8F06H         PUBLIC        uart5_rx_count
  B:0098H.1       PUBLIC        TI0
  X:8F08H         PUBLIC        pUart5SendAddr
  C:D64FH         PUBLIC        _Uart2SendData
  D:0099H         PUBLIC        SBUF0
  X:8F0BH         PUBLIC        modbus_rx_status
  D:0098H         PUBLIC        SCON0
  C:F519H         PUBLIC        UART2_RxEnable
  C:F312H         PUBLIC        UART2_Init
  D:00D8H         PUBLIC        ADCON
  D:00C8H         PUBLIC        T2CON
  C:F3C6H         PUBLIC        UART4_Init
  C:F33EH         PUBLIC        UART5_Init
  D:00ADH         PUBLIC        SBUF3_RX
  D:009EH         PUBLIC        SBUF2_TX
  D:00ACH         PUBLIC        SBUF3_TX
  X:8F0DH         PUBLIC        wifi_send_en
  D:00D0H         PUBLIC        PSW
  X:8F0EH         PUBLIC        Uart2_Rx
  C:F153H         PUBLIC        _putchar
  D:00C0H         PUBLIC        IRCON
  -------         PROC          UART2_INIT
  C:F312H         LINE#         61
  C:F312H         LINE#         62
  C:F312H         LINE#         73
  C:F315H         LINE#         74
  C:F318H         LINE#         75
  C:F31BH         LINE#         76
  C:F31EH         LINE#         77
  C:F321H         LINE#         78
  C:F323H         LINE#         79
  C:F325H         LINE#         80
  C:F327H         LINE#         81
  -------         ENDPROC       UART2_INIT
  -------         PROC          UART2_RXENABLE
  C:F519H         LINE#         83
  C:F519H         LINE#         84
  C:F519H         LINE#         85
  C:F51BH         LINE#         86
BL51 BANKED LINKER/LOCATER V6.22.2.0                                                  06/18/2026  09:22:45  PAGE 73


  C:F51DH         LINE#         87
  C:F51FH         LINE#         88
  -------         ENDPROC       UART2_RXENABLE
  -------         PROC          _UART2SENDDATA
  X:8CD4H         SYMBOL        pBuf
  D:0005H         SYMBOL        nLen
  C:D64FH         LINE#         107
  C:D65AH         LINE#         108
  C:D65AH         LINE#         109
  C:D672H         LINE#         110
  C:D672H         LINE#         111
  C:D675H         LINE#         112
  C:D675H         LINE#         114
  C:D68AH         LINE#         115
  C:D694H         LINE#         118
  C:D6A4H         LINE#         120
  C:D6AEH         LINE#         121
  C:D6BCH         LINE#         123
  C:D6C2H         LINE#         124
  -------         ENDPROC       _UART2SENDDATA
  -------         PROC          UART2_ISR_PC
  -------         DO            
  D:0007H         SYMBOL        res
  -------         ENDDO         
  C:CD96H         LINE#         126
  C:CDB3H         LINE#         128
  C:CDB4H         LINE#         129
  C:CDB6H         LINE#         130
  C:CDB9H         LINE#         131
  C:CDB9H         LINE#         132
  C:CDBBH         LINE#         133
  C:CDBEH         LINE#         134
  C:CDC0H         LINE#         135
  C:CDC0H         LINE#         137
  C:CDC3H         LINE#         138
  C:CDC3H         LINE#         139
  C:CDC5H         LINE#         141
  C:CDD4H         LINE#         142
  C:CDD4H         LINE#         143
  C:CDE4H         LINE#         144
  C:CDEEH         LINE#         145
  C:CDFCH         LINE#         146
  C:CE02H         LINE#         147
  C:CE04H         LINE#         149
  C:CE04H         LINE#         150
  C:CE09H         LINE#         151
  C:CE09H         LINE#         153
  C:CE0EH         LINE#         154
  C:CE0EH         LINE#         155
  C:CE10H         LINE#         156
  -------         ENDPROC       UART2_ISR_PC
  -------         PROC          UART5_INIT
  C:F33EH         LINE#         304
  C:F33EH         LINE#         305
  C:F33EH         LINE#         306
  C:F341H         LINE#         307
  C:F344H         LINE#         313
BL51 BANKED LINKER/LOCATER V6.22.2.0                                                  06/18/2026  09:22:45  PAGE 74


  C:F347H         LINE#         314
  C:F34AH         LINE#         317
  C:F34CH         LINE#         318
  C:F34EH         LINE#         320
  C:F350H         LINE#         321
  C:F352H         LINE#         322
  -------         ENDPROC       UART5_INIT
  -------         PROC          _UART5_SENDSTR
  X:93EEH         SYMBOL        pstr
  D:0004H         SYMBOL        strlen
  C:D736H         LINE#         334
  C:D741H         LINE#         335
  C:D741H         LINE#         336
  C:D758H         LINE#         339
  C:D76AH         LINE#         340
  C:D774H         LINE#         342
  C:D776H         LINE#         345
  C:D786H         LINE#         346
  C:D790H         LINE#         347
  C:D79EH         LINE#         348
  C:D7A4H         LINE#         349
  C:D7A6H         LINE#         350
  -------         ENDPROC       _UART5_SENDSTR
  -------         PROC          UART5_TX_ISR_PC
  C:D7A7H         LINE#         356
  C:D7BCH         LINE#         358
  C:D7BEH         LINE#         359
  C:D7C1H         LINE#         361
  C:D7D0H         LINE#         362
  C:D7D0H         LINE#         364
  C:D7E0H         LINE#         365
  C:D7EAH         LINE#         366
  C:D7F8H         LINE#         367
  C:D7FAH         LINE#         369
  C:D7FAH         LINE#         370
  C:D7FCH         LINE#         371
  C:D801H         LINE#         372
  C:D803H         LINE#         374
  C:D803H         LINE#         376
  C:D805H         LINE#         377
  -------         ENDPROC       UART5_TX_ISR_PC
  -------         PROC          UART5_RX_ISR_PC
  -------         DO            
  D:0001H         SYMBOL        res
  D:0006H         SYMBOL        modbus_len
  -------         ENDDO         
  C:C20BH         LINE#         383
  C:C220H         LINE#         386
  C:C220H         LINE#         388
  C:C222H         LINE#         390
  C:C22DH         LINE#         391
  C:C22DH         LINE#         392
  C:C22FH         LINE#         435
  C:C23FH         LINE#         436
  C:C23FH         LINE#         438
  C:C24BH         LINE#         439
  C:C259H         LINE#         442
BL51 BANKED LINKER/LOCATER V6.22.2.0                                                  06/18/2026  09:22:45  PAGE 75


  C:C261H         LINE#         443
  C:C261H         LINE#         444
  C:C264H         LINE#         445
  C:C266H         LINE#         447
  C:C266H         LINE#         448
  C:C270H         LINE#         449
  C:C270H         LINE#         451
  C:C27DH         LINE#         452
  C:C27DH         LINE#         453
  C:C283H         LINE#         454
  C:C28AH         LINE#         457
  C:C290H         LINE#         458
  C:C290H         LINE#         459
  C:C297H         LINE#         460
  C:C299H         LINE#         462
  C:C299H         LINE#         463
  C:C2ADH         LINE#         464
  C:C2BBH         LINE#         465
  C:C2BBH         LINE#         468
  C:C2BEH         LINE#         469
  C:C2BEH         LINE#         470
  C:C2C0H         LINE#         471
  -------         ENDPROC       UART5_RX_ISR_PC
  -------         PROC          UART4_INIT
  C:F3C6H         LINE#         477
  C:F3C6H         LINE#         478
  C:F3C6H         LINE#         479
  C:F3C9H         LINE#         480
  C:F3CCH         LINE#         484
  C:F3CFH         LINE#         485
  C:F3D2H         LINE#         488
  C:F3D5H         LINE#         489
  C:F3D7H         LINE#         490
  -------         ENDPROC       UART4_INIT
  -------         PROC          _PUTCHAR
  D:0007H         SYMBOL        c
  -------         DO            
  D:0004H         SYMBOL        i
  -------         ENDDO         
  C:F153H         LINE#         497
  C:F153H         LINE#         498
  C:F153H         LINE#         500
  C:F155H         LINE#         502
  C:F157H         LINE#         503
  C:F15CH         LINE#         504
  C:F15FH         LINE#         508
  C:F16DH         LINE#         510
  C:F16FH         LINE#         512
  C:F172H         LINE#         513
  C:F172H         LINE#         514
  -------         ENDPROC       _PUTCHAR
  -------         ENDMOD        UART

  -------         MODULE        MODBUS
  C:0000H         SYMBOL        _ICE_DUMMY_
  C:D88FH         SYMBOL        _Modbus_WriteFloatTempPair
  C:8521H         SYMBOL        _Modbus_FillIndoorUnitRegs
BL51 BANKED LINKER/LOCATER V6.22.2.0                                                  06/18/2026  09:22:45  PAGE 76


  D:0080H         PUBLIC        P0
  C:DCA6H         SYMBOL        _Modbus_SaveIndoorSentRegs
  C:D281H         SYMBOL        _Modbus_IndoorRegsChanged
  X:8006H         PUBLIC        FirstQueryMember
  D:00B0H         PUBLIC        P3
  C:F353H         PUBLIC        _Modbus_TriggerDefrostParamWrite
  D:00F8H         PUBLIC        RAMMODE
  X:8012H         PUBLIC        En_change_Controller
  X:8014H         SYMBOL        s_defrost_param_vp
  D:00A8H         PUBLIC        IEN0
  B:0020H.0       PUBLIC        Modbus_Write_DefrostParam
  B:0020H.1       PUBLIC        Modbus_Read_Check
  D:00B8H         PUBLIC        IEN1
  X:8016H         PUBLIC        Read_Or_Write
  B:0020H.2       PUBLIC        First_Write600
  X:8017H         SYMBOL        s_indoor_sent_regs
  X:8077H         SYMBOL        s_group_sent_valid
  C:EA95H         SYMBOL        Modbus_StartNextTimerWrite
  X:8078H         SYMBOL        s_group_regs
  B:0020H.3       PUBLIC        Modbus_Write_Defrost
  C:D204H         SYMBOL        _Modbus_AppendModeSetTempReg
  B:0020H.4       SYMBOL        Modbus_Write_5_Pending
  B:0020H.5       SYMBOL        Modbus_Write_6_Pending
  C:C522H         PUBLIC        _CalculateModbusCrc
  C:E648H         PUBLIC        Modbus_StartManualDefrost
  B:0020H.6       PUBLIC        Modbus_Read_Check_2
  B:0020H.7       PUBLIC        Modbus_Read_Check_3
  C:29A4H         PUBLIC        Modbus_Salve_Handler1
  C:E3FDH         SYMBOL        _Modbus_SaveGroupSentRegs
  C:DB75H         SYMBOL        _Modbus_GroupRegsChanged
  B:0021H.0       PUBLIC        Modbus_Read_Check_4
  B:0021H.1       PUBLIC        Modbus_Read_Check_5
  C:1A6AH         PUBLIC        Modbus_Analysis_Data1
  C:EE9CH         SYMBOL        _Modbus_EncodeIndoorFan
  C:C68DH         SYMBOL        _Modbus_PackCheckStatusBlock
  X:80A8H         PUBLIC        Modbus_Buffer
  C:F1EFH         PUBLIC        Modbus_TriggerGroupControlWrite
  C:E453H         PUBLIC        _GetModbusReg
  X:81D4H         SYMBOL        Modbus_Timer_Unit_Index
  X:81D5H         PUBLIC        xuantest1
  X:81D7H         PUBLIC        xuantest2
  X:81D9H         SYMBOL        s_group_sent_regs
  D:0088H         PUBLIC        TCON
  B:0021H.2       PUBLIC        Modbus_Write_ClearPower
  B:0021H.3       PUBLIC        Modbus_Read_Error
  B:0021H.4       PUBLIC        Modbus_Read_LowerLimit
  B:0021H.5       PUBLIC        Modbus_Read_UpperLimit
  D:00C9H         PUBLIC        MUX_SEL
  B:0021H.6       PUBLIC        Modbus_Write_Timer
  C:F509H         SYMBOL        _?ix1000
  B:0021H.7       PUBLIC        Modbus_Read_Check_4_old
  B:0022H.0       PUBLIC        Modbus_Write_Ueser
  X:8209H         PUBLIC        Analysis_OK
  X:820AH         SYMBOL        s_timer_q
  X:8210H         SYMBOL        s_defrost_verify
  C:E30EH         PUBLIC        _Modbus_TriggerIndoorUnitWrite
  C:EBB4H         SYMBOL        _Modbus_ReportFaultCode
BL51 BANKED LINKER/LOCATER V6.22.2.0                                                  06/18/2026  09:22:45  PAGE 77


  X:8211H         PUBLIC        Indoor_Unit_Index
  B:0022H.1       PUBLIC        Modbus_Read_User
  C:E99DH         SYMBOL        _Modbus_EncodeIndoorRunMode
  C:F32FH         SYMBOL        _Modbus_PackCheckStatusByte
  X:8212H         PUBLIC        send_type
  X:8213H         PUBLIC        Modbus_DefrostRetryLeft
  C:A0AFH         PUBLIC        Modbus_RefreshCheckParamDisplay
  C:EF8FH         SYMBOL        _Modbus_QueueIndoorTimerWrite
  C:E575H         PUBLIC        _Modbus_GetCheckStatus
  B:0022H.2       PUBLIC        Modbus_Read_Set
  X:8214H         SYMBOL        s_check_status
  X:825FH         PUBLIC        IsCheckParameterTemperature
  C:B80DH         SYMBOL        _Modbus_FillGroupControlRegs
  C:F54CH         PUBLIC        Modbus_Init
  D:0098H         PUBLIC        SCON0
  X:8278H         PUBLIC        SetParameterLowerLimit
  C:E4EDH         SYMBOL        _Modbus_AppendU16
  D:00C8H         PUBLIC        T2CON
  X:8338H         PUBLIC        SetParameterUpperLimit
  X:83F8H         SYMBOL        s_timer_q_len
  B:0022H.3       PUBLIC        Modbus_Write_Set
  C:E1C0H         SYMBOL        _Modbus_IsFaultActive
  B:0022H.4       SYMBOL        Modbus_Write_Timer_Pending
  X:83F9H         SYMBOL        s_defrost_want
  B:0022H.5       PUBLIC        Modbus_Write_6_All
  X:83FAH         PUBLIC        IsCheckParameterTemperature_2
  C:8320H         PUBLIC        _Modbus_ApplyIndoorTimerVpToUnits
  B:0022H.6       PUBLIC        Modbus_Write_5
  B:0022H.7       PUBLIC        Modbus_Write_6
  X:8427H         SYMBOL        s_indoor_sent_valid
  X:842DH         SYMBOL        s_indoor_regs
  D:00D0H         PUBLIC        PSW
  B:0023H.0       PUBLIC        Modbus_Read_Initial
  D:00C0H         PUBLIC        IRCON
  X:8469H         SYMBOL        s_timer_q_pos
  -------         PROC          _CALCULATEMODBUSCRC
  X:936EH         SYMBOL        pBuf
  X:9371H         SYMBOL        nLen
  -------         DO            
  X:9373H         SYMBOL        i
  D:0005H         SYMBOL        j
  X:9375H         SYMBOL        nData
  D:0002H         SYMBOL        nFlag
  -------         ENDDO         
  C:C522H         LINE#         86
  C:C533H         LINE#         87
  C:C533H         LINE#         93
  C:C53BH         LINE#         94
  C:C557H         LINE#         95
  C:C557H         LINE#         96
  C:C57AH         LINE#         97
  C:C586H         LINE#         98
  C:C586H         LINE#         99
  C:C58DH         LINE#         100
  C:C5A0H         LINE#         101
  C:C5AAH         LINE#         103
  C:C5AFH         LINE#         104
BL51 BANKED LINKER/LOCATER V6.22.2.0                                                  06/18/2026  09:22:45  PAGE 78


  C:C5AFH         LINE#         105
  C:C5BBH         LINE#         106
  C:C5BBH         LINE#         107
  C:C5BEH         LINE#         108
  C:C5D2H         LINE#         110
  C:C5DAH         LINE#         111
  -------         ENDPROC       _CALCULATEMODBUSCRC
  -------         PROC          MODBUS_INIT
  C:F54CH         LINE#         123
  C:F54CH         LINE#         124
  C:F54CH         LINE#         125
  -------         ENDPROC       MODBUS_INIT
  C:E4E0H         SYMBOL        L?0315
  -------         PROC          L?0314
  -------         ENDPROC       L?0314
  C:E4E0H         SYMBOL        L?0315
  -------         PROC          _MODBUS_APPENDU16
  D:0001H         SYMBOL        pLen
  X:9403H         SYMBOL        val
  C:E4EDH         LINE#         128
  C:E4F5H         LINE#         129
  C:E4F5H         LINE#         130
  C:E50FH         LINE#         131
  C:E52AH         LINE#         132
  -------         ENDPROC       _MODBUS_APPENDU16
  -------         PROC          L?0318
  -------         ENDPROC       L?0318
  -------         PROC          _MODBUS_APPENDMODESETTEMPREG
  X:93C6H         SYMBOL        pLen
  D:0005H         SYMBOL        mode
  -------         DO            
  X:93C9H         SYMBOL        temp
  -------         ENDDO         
  C:D204H         LINE#         134
  C:D20FH         LINE#         135
  C:D20FH         LINE#         136
  C:D214H         LINE#         138
  C:D22BH         LINE#         139
  C:D260H         LINE#         140
  -------         ENDPROC       _MODBUS_APPENDMODESETTEMPREG
  -------         PROC          _MODBUS_ENCODEINDOORRUNMODE
  D:0006H         SYMBOL        power
  D:0004H         SYMBOL        dgus_mode
  -------         DO            
  D:0002H         SYMBOL        modbus_mode
  -------         ENDDO         
  C:E99DH         LINE#         143
  C:E99DH         LINE#         144
  C:E99DH         LINE#         146
  C:E9A1H         LINE#         147
  C:E9A4H         LINE#         148
  C:E9B8H         LINE#         149
  C:E9B8H         LINE#         150
  C:E9BEH         LINE#         151
  C:E9C4H         LINE#         152
  C:E9CAH         LINE#         153
  C:E9D0H         LINE#         154
BL51 BANKED LINKER/LOCATER V6.22.2.0                                                  06/18/2026  09:22:45  PAGE 79


  C:E9D0H         LINE#         155
  C:E9D4H         LINE#         156
  C:E9D4H         LINE#         157
  C:E9DAH         LINE#         158
  -------         ENDPROC       _MODBUS_ENCODEINDOORRUNMODE
  -------         PROC          _MODBUS_ENCODEINDOORFAN
  D:0006H         SYMBOL        dgus_fan
  C:EE9CH         LINE#         160
  C:EE9CH         LINE#         161
  C:EE9CH         LINE#         162
  C:EEADH         LINE#         163
  C:EEADH         LINE#         164
  C:EEB1H         LINE#         165
  C:EEB6H         LINE#         166
  C:EEBBH         LINE#         167
  C:EEC0H         LINE#         168
  C:EEC4H         LINE#         169
  C:EEC4H         LINE#         170
  -------         ENDPROC       _MODBUS_ENCODEINDOORFAN
  -------         PROC          L?0321
  -------         ENDPROC       L?0321
  -------         PROC          _MODBUS_FILLINDOORUNITREGS
  X:8C62H         SYMBOL        index
  X:8C63H         SYMBOL        regs
  -------         DO            
  D:0007H         SYMBOL        i
  X:8C66H         SYMBOL        power
  X:8C68H         SYMBOL        mode
  X:8C6AH         SYMBOL        temp
  X:8C6CH         SYMBOL        fan
  X:8C6EH         SYMBOL        vp_base
  -------         ENDDO         
  C:8521H         LINE#         181
  C:852FH         LINE#         182
  C:852FH         LINE#         187
  C:854DH         LINE#         188
  C:856BH         LINE#         189
  C:8589H         LINE#         190
  C:85A7H         LINE#         192
  C:85C9H         LINE#         193
  C:85E8H         LINE#         194
  C:85F8H         LINE#         196
  C:861AH         LINE#         197
  C:862EH         LINE#         198
  C:864EH         LINE#         199
  C:8682H         LINE#         200
  C:86B6H         LINE#         201
  C:86EAH         LINE#         203
  C:86F6H         LINE#         204
  C:8714H         LINE#         205
  -------         ENDPROC       _MODBUS_FILLINDOORUNITREGS
  -------         PROC          _MODBUS_INDOORREGSCHANGED
  X:8C62H         SYMBOL        idx
  X:8C63H         SYMBOL        regs
  -------         DO            
  X:8C66H         SYMBOL        i
  -------         ENDDO         
BL51 BANKED LINKER/LOCATER V6.22.2.0                                                  06/18/2026  09:22:45  PAGE 80


  C:D281H         LINE#         207
  C:D28FH         LINE#         208
  C:D28FH         LINE#         211
  C:D29FH         LINE#         212
  C:D2A2H         LINE#         213
  C:D2B4H         LINE#         214
  C:D2B4H         LINE#         215
  C:D2F3H         LINE#         216
  C:D2F6H         LINE#         217
  C:D2FEH         LINE#         218
  C:D300H         LINE#         219
  -------         ENDPROC       _MODBUS_INDOORREGSCHANGED
  -------         PROC          _MODBUS_SAVEINDOORSENTREGS
  X:93E2H         SYMBOL        idx
  X:93E3H         SYMBOL        regs
  -------         DO            
  D:0007H         SYMBOL        i
  -------         ENDDO         
  C:DCA6H         LINE#         221
  C:DCB4H         LINE#         222
  C:DCB4H         LINE#         225
  C:DCC0H         LINE#         226
  C:DCFAH         LINE#         227
  C:DD0AH         LINE#         228
  -------         ENDPROC       _MODBUS_SAVEINDOORSENTREGS
  -------         PROC          L?0320
  -------         ENDPROC       L?0320
  -------         PROC          _MODBUS_FILLGROUPCONTROLREGS
  X:8C33H         SYMBOL        regs
  -------         DO            
  D:0007H         SYMBOL        i
  X:8C36H         SYMBOL        val
  -------         ENDDO         
  C:B80DH         LINE#         237
  C:B818H         LINE#         238
  C:B818H         LINE#         242
  C:B824H         LINE#         243
  C:B843H         LINE#         245
  C:B85CH         LINE#         246
  C:B878H         LINE#         248
  C:B891H         LINE#         249
  C:B8ADH         LINE#         251
  C:B8C6H         LINE#         252
  C:B8E2H         LINE#         254
  C:B8EEH         LINE#         255
  C:B90CH         LINE#         256
  -------         ENDPROC       _MODBUS_FILLGROUPCONTROLREGS
  -------         PROC          _MODBUS_GROUPREGSCHANGED
  X:8C33H         SYMBOL        regs
  -------         DO            
  X:8C36H         SYMBOL        i
  -------         ENDDO         
  C:DB75H         LINE#         258
  C:DB80H         LINE#         259
  C:DB80H         LINE#         262
  C:DB86H         LINE#         263
  C:DB89H         LINE#         264
BL51 BANKED LINKER/LOCATER V6.22.2.0                                                  06/18/2026  09:22:45  PAGE 81


  C:DB9CH         LINE#         265
  C:DB9CH         LINE#         266
  C:DBCDH         LINE#         267
  C:DBD0H         LINE#         268
  C:DBD8H         LINE#         269
  C:DBDAH         LINE#         270
  -------         ENDPROC       _MODBUS_GROUPREGSCHANGED
  -------         PROC          _MODBUS_SAVEGROUPSENTREGS
  X:93F1H         SYMBOL        regs
  -------         DO            
  D:0007H         SYMBOL        i
  -------         ENDDO         
  C:E3FDH         LINE#         272
  C:E408H         LINE#         273
  C:E408H         LINE#         276
  C:E414H         LINE#         277
  C:E442H         LINE#         278
  C:E448H         LINE#         279
  -------         ENDPROC       _MODBUS_SAVEGROUPSENTREGS
  -------         PROC          MODBUS_TRIGGERGROUPCONTROLWRITE
  C:F1EFH         LINE#         281
  C:F1EFH         LINE#         282
  C:F1EFH         LINE#         283
  C:F1F2H         LINE#         284
  C:F1FEH         LINE#         285
  C:F1FEH         LINE#         286
  C:F200H         LINE#         287
  C:F202H         LINE#         288
  C:F20BH         LINE#         289
  C:F20BH         LINE#         290
  -------         ENDPROC       MODBUS_TRIGGERGROUPCONTROLWRITE
  -------         PROC          _MODBUS_REPORTFAULTCODE
  X:9405H         SYMBOL        fault_code
  C:EBB4H         LINE#         292
  C:EBBCH         LINE#         293
  C:EBBCH         LINE#         294
  C:EBD5H         LINE#         295
  -------         ENDPROC       _MODBUS_REPORTFAULTCODE
  -------         PROC          _MODBUS_ISFAULTACTIVE
  D:0004H         SYMBOL        err_code
  D:0001H         SYMBOL        err_words
  -------         DO            
  X:9407H         SYMBOL        wi
  D:0007H         SYMBOL        bi
  -------         ENDDO         
  C:E1C0H         LINE#         298
  C:E1C4H         LINE#         299
  C:E1C4H         LINE#         302
  C:E1C8H         LINE#         303
  C:E1CAH         LINE#         304
  C:E1DFH         LINE#         305
  C:E1E7H         LINE#         306
  C:E1F2H         LINE#         307
  C:E1F5H         LINE#         308
  C:E213H         LINE#         309
  -------         ENDPROC       _MODBUS_ISFAULTACTIVE
  -------         PROC          L?0319
BL51 BANKED LINKER/LOCATER V6.22.2.0                                                  06/18/2026  09:22:45  PAGE 82


  -------         ENDPROC       L?0319
  -------         PROC          _MODBUS_PACKCHECKSTATUSBYTE
  D:0002H         SYMBOL        val
  D:0005H         SYMBOL        is_temp
  -------         DO            
  D:0006H         SYMBOL        temp
  -------         ENDDO         
  C:F32FH         LINE#         311
  C:F331H         LINE#         312
  C:F331H         LINE#         315
  C:F334H         LINE#         316
  C:F334H         LINE#         317
  C:F33BH         LINE#         318
  C:F33BH         LINE#         319
  C:F33BH         LINE#         320
  C:F33DH         LINE#         321
  -------         ENDPROC       _MODBUS_PACKCHECKSTATUSBYTE
  -------         PROC          L?0322
  -------         ENDPROC       L?0322
  -------         PROC          _MODBUS_PACKCHECKSTATUSBLOCK
  X:9325H         SYMBOL        rx
  X:9328H         SYMBOL        count
  X:9329H         SYMBOL        is_temp_arr
  X:932CH         SYMBOL        dst_off
  -------         DO            
  X:932DH         SYMBOL        i
  X:932EH         SYMBOL        u8tou16
  -------         ENDDO         
  C:C68DH         LINE#         323
  C:C69BH         LINE#         324
  C:C69BH         LINE#         328
  C:C6B1H         LINE#         329
  C:C6B1H         LINE#         330
  C:C6D1H         LINE#         331
  C:C6F1H         LINE#         332
  C:C729H         LINE#         333
  C:C732H         LINE#         334
  -------         ENDPROC       _MODBUS_PACKCHECKSTATUSBLOCK
  C:D889H         SYMBOL        L?0317
  -------         PROC          L?0316
  -------         ENDPROC       L?0316
  C:D889H         SYMBOL        L?0317
  -------         PROC          _MODBUS_WRITEFLOATTEMPPAIR
  X:92D9H         SYMBOL        vp_c
  X:92DDH         SYMBOL        vp_f
  X:92E1H         SYMBOL        temp_c
  -------         DO            
  X:92E5H         SYMBOL        temp_f
  -------         ENDDO         
  C:D88FH         LINE#         336
  C:D895H         LINE#         337
  C:D895H         LINE#         340
  C:D8B9H         LINE#         341
  C:D8D9H         LINE#         342
  -------         ENDPROC       _MODBUS_WRITEFLOATTEMPPAIR
  -------         PROC          _MODBUS_GETCHECKSTATUS
  X:93F4H         SYMBOL        buf
BL51 BANKED LINKER/LOCATER V6.22.2.0                                                  06/18/2026  09:22:45  PAGE 83


  D:0005H         SYMBOL        len
  -------         DO            
  D:0006H         SYMBOL        i
  D:0007H         SYMBOL        n
  -------         ENDDO         
  C:E575H         LINE#         345
  C:E580H         LINE#         346
  C:E580H         LINE#         349
  C:E583H         LINE#         351
  C:E593H         LINE#         352
  C:E59AH         LINE#         353
  C:E5BDH         LINE#         354
  -------         ENDPROC       _MODBUS_GETCHECKSTATUS
  -------         PROC          MODBUS_STARTMANUALDEFROST
  -------         DO            
  X:8C33H         SYMBOL        one
  -------         ENDDO         
  C:E648H         LINE#         356
  C:E648H         LINE#         357
  C:E648H         LINE#         358
  C:E650H         LINE#         360
  C:E654H         LINE#         361
  C:E659H         LINE#         362
  C:E65FH         LINE#         363
  C:E667H         LINE#         364
  C:E67FH         LINE#         365
  C:E681H         LINE#         366
  C:E683H         LINE#         367
  C:E68CH         LINE#         368
  -------         ENDPROC       MODBUS_STARTMANUALDEFROST
  -------         PROC          MODBUS_STARTNEXTTIMERWRITE
  C:EA95H         LINE#         370
  C:EA95H         LINE#         371
  C:EA95H         LINE#         372
  C:EAA2H         LINE#         373
  C:EAA2H         LINE#         374
  C:EAA7H         LINE#         375
  C:EAACH         LINE#         377
  C:EAACH         LINE#         378
  C:EAC2H         LINE#         379
  C:EAC4H         LINE#         380
  C:EAC6H         LINE#         381
  C:EACFH         LINE#         382
  -------         ENDPROC       MODBUS_STARTNEXTTIMERWRITE
  -------         PROC          _MODBUS_QUEUEINDOORTIMERWRITE
  D:0007H         SYMBOL        index
  C:EF8FH         LINE#         384
  C:EF8FH         LINE#         385
  C:EF8FH         LINE#         386
  C:EF9CH         LINE#         387
  C:EFACH         LINE#         388
  C:EFB2H         LINE#         389
  C:EFB5H         LINE#         390
  -------         ENDPROC       _MODBUS_QUEUEINDOORTIMERWRITE
  -------         PROC          _MODBUS_APPLYINDOORTIMERVPTOUNITS
  X:8C67H         SYMBOL        update_on
  X:8C68H         SYMBOL        update_off
BL51 BANKED LINKER/LOCATER V6.22.2.0                                                  06/18/2026  09:22:45  PAGE 84


  -------         DO            
  X:8C69H         SYMBOL        i
  X:8C6AH         SYMBOL        sel_count
  X:8C6BH         SYMBOL        on_en
  X:8C6DH         SYMBOL        off_en
  X:8C6FH         SYMBOL        hour
  X:8C71H         SYMBOL        minute
  X:8C73H         SYMBOL        on_time
  X:8C75H         SYMBOL        off_time
  X:8C77H         SYMBOL        sel
  X:8C79H         SYMBOL        vp_base
  -------         ENDDO         
  C:8320H         LINE#         392
  C:832AH         LINE#         393
  C:832AH         LINE#         394
  C:832FH         LINE#         398
  C:8333H         LINE#         399
  C:8337H         LINE#         401
  C:833AH         LINE#         402
  C:833AH         LINE#         403
  C:8353H         LINE#         404
  C:836CH         LINE#         405
  C:8385H         LINE#         406
  C:8396H         LINE#         407
  C:8396H         LINE#         408
  C:839CH         LINE#         409
  C:839CH         LINE#         410
  C:83B5H         LINE#         411
  C:83CEH         LINE#         412
  C:83E7H         LINE#         413
  C:83FAH         LINE#         414
  C:83FAH         LINE#         416
  C:8410H         LINE#         417
  C:8410H         LINE#         418
  C:842BH         LINE#         419
  C:8438H         LINE#         420
  C:8438H         LINE#         421
  C:843EH         LINE#         422
  C:8460H         LINE#         423
  C:8466H         LINE#         424
  C:8466H         LINE#         425
  C:8485H         LINE#         426
  C:84AFH         LINE#         427
  C:84AFH         LINE#         428
  C:84B5H         LINE#         429
  C:84B5H         LINE#         430
  C:84DFH         LINE#         431
  C:8509H         LINE#         432
  C:8509H         LINE#         433
  C:8511H         LINE#         434
  C:851AH         LINE#         435
  -------         ENDPROC       _MODBUS_APPLYINDOORTIMERVPTOUNITS
  -------         PROC          _MODBUS_TRIGGERINDOORUNITWRITE
  X:8C60H         SYMBOL        index
  X:8C61H         SYMBOL        write_all
  C:E30EH         LINE#         437
  C:E318H         LINE#         438
BL51 BANKED LINKER/LOCATER V6.22.2.0                                                  06/18/2026  09:22:45  PAGE 85


  C:E318H         LINE#         439
  C:E321H         LINE#         440
  C:E321H         LINE#         441
  C:E326H         LINE#         442
  C:E33DH         LINE#         443
  C:E33DH         LINE#         444
  C:E345H         LINE#         445
  C:E351H         LINE#         446
  C:E353H         LINE#         447
  C:E355H         LINE#         448
  C:E35EH         LINE#         449
  C:E35EH         LINE#         450
  C:E35EH         LINE#         451
  -------         ENDPROC       _MODBUS_TRIGGERINDOORUNITWRITE
  -------         PROC          _MODBUS_TRIGGERDEFROSTPARAMWRITE
  D:0006H         SYMBOL        vp
  C:F353H         LINE#         453
  C:F353H         LINE#         454
  C:F353H         LINE#         455
  C:F35BH         LINE#         456
  C:F35DH         LINE#         457
  C:F366H         LINE#         458
  -------         ENDPROC       _MODBUS_TRIGGERDEFROSTPARAMWRITE
  -------         PROC          MODBUS_SALVE_HANDLER1
  -------         DO            
  D:0006H         SYMBOL        Modbus_Crc
  X:928EH         SYMBOL        Modbus_Len
  D:0004H         SYMBOL        Modbus_u16temp
  X:9290H         SYMBOL        Modbus_Power
  X:9292H         SYMBOL        Modbus_Mode
  D:0006H         SYMBOL        error
  -------         DO            
  X:9294H         SYMBOL        addr
  X:9294H         SYMBOL        addr
  X:9294H         SYMBOL        i
  X:9294H         SYMBOL        ri
  X:9295H         SYMBOL        addr
  X:9294H         SYMBOL        reg
  X:9296H         SYMBOL        val
  X:9294H         SYMBOL        freq
  X:9296H         SYMBOL        dtime
  X:9298H         SYMBOL        t3c
  X:929AH         SYMBOL        reg
  X:9294H         SYMBOL        ti
  X:9295H         SYMBOL        addr
  X:9297H         SYMBOL        vp_base
  X:929BH         SYMBOL        treg
  -------         ENDDO         
  -------         DO            
  X:9294H         SYMBOL        addr
  X:9294H         SYMBOL        i
  X:9294H         SYMBOL        ri
  X:9295H         SYMBOL        addr
  X:9294H         SYMBOL        reg
  X:9296H         SYMBOL        val
  X:9294H         SYMBOL        freq
  X:9296H         SYMBOL        dtime
BL51 BANKED LINKER/LOCATER V6.22.2.0                                                  06/18/2026  09:22:45  PAGE 86


  X:9298H         SYMBOL        t3c
  X:929AH         SYMBOL        reg
  X:9294H         SYMBOL        ti
  X:9295H         SYMBOL        addr
  X:9297H         SYMBOL        vp_base
  X:929BH         SYMBOL        treg
  -------         ENDDO         
  -------         DO            
  X:9294H         SYMBOL        i
  X:9294H         SYMBOL        ri
  X:9295H         SYMBOL        addr
  X:9294H         SYMBOL        reg
  X:9296H         SYMBOL        val
  X:9294H         SYMBOL        freq
  X:9296H         SYMBOL        dtime
  X:9298H         SYMBOL        t3c
  X:929AH         SYMBOL        reg
  X:9294H         SYMBOL        ti
  X:9295H         SYMBOL        addr
  X:9297H         SYMBOL        vp_base
  X:929BH         SYMBOL        treg
  -------         ENDDO         
  -------         DO            
  X:9294H         SYMBOL        ri
  X:9295H         SYMBOL        addr
  X:9294H         SYMBOL        reg
  X:9296H         SYMBOL        val
  X:9294H         SYMBOL        freq
  X:9296H         SYMBOL        dtime
  X:9298H         SYMBOL        t3c
  X:929AH         SYMBOL        reg
  X:9294H         SYMBOL        ti
  X:9295H         SYMBOL        addr
  X:9297H         SYMBOL        vp_base
  X:929BH         SYMBOL        treg
  -------         ENDDO         
  -------         DO            
  X:9294H         SYMBOL        reg
  X:9296H         SYMBOL        val
  X:9294H         SYMBOL        freq
  X:9296H         SYMBOL        dtime
  X:9298H         SYMBOL        t3c
  X:929AH         SYMBOL        reg
  X:9294H         SYMBOL        ti
  X:9295H         SYMBOL        addr
  X:9297H         SYMBOL        vp_base
  X:929BH         SYMBOL        treg
  -------         ENDDO         
  -------         DO            
  X:9294H         SYMBOL        freq
  X:9296H         SYMBOL        dtime
  X:9298H         SYMBOL        t3c
  X:929AH         SYMBOL        reg
  X:9294H         SYMBOL        ti
  X:9295H         SYMBOL        addr
  X:9297H         SYMBOL        vp_base
  X:929BH         SYMBOL        treg
BL51 BANKED LINKER/LOCATER V6.22.2.0                                                  06/18/2026  09:22:45  PAGE 87


  -------         ENDDO         
  -------         DO            
  X:9294H         SYMBOL        ti
  X:9295H         SYMBOL        addr
  X:9297H         SYMBOL        vp_base
  X:929BH         SYMBOL        treg
  -------         ENDDO         
  -------         ENDDO         
  C:29A4H         LINE#         459
  C:29A4H         LINE#         460
  C:29A4H         LINE#         462
  C:29ABH         LINE#         466
  C:29ADH         LINE#         467
  C:29B0H         LINE#         468
  C:29B8H         LINE#         469
  C:29BBH         LINE#         470
  C:29C3H         LINE#         471
  C:29C6H         LINE#         472
  C:29CEH         LINE#         473
  C:29D1H         LINE#         474
  C:29D9H         LINE#         475
  C:29DCH         LINE#         476
  C:29E4H         LINE#         477
  C:29E7H         LINE#         478
  C:29EFH         LINE#         479
  C:29F2H         LINE#         480
  C:29F7H         LINE#         481
  C:29FAH         LINE#         482
  C:2A02H         LINE#         483
  C:2A05H         LINE#         484
  C:2A0DH         LINE#         485
  C:2A10H         LINE#         486
  C:2A18H         LINE#         487
  C:2A1BH         LINE#         488
  C:2A23H         LINE#         489
  C:2A29H         LINE#         490
  C:2A2EH         LINE#         492
  C:2A31H         LINE#         494
  C:2A4AH         LINE#         496
  C:2A8AH         LINE#         497
  C:2A8AH         LINE#         498
  C:2A8AH         LINE#         499
  C:2AA3H         LINE#         500
  C:2ABBH         LINE#         501
  C:2AD3H         LINE#         502
  C:2AEBH         LINE#         503
  C:2B03H         LINE#         505
  C:2B06H         LINE#         506
  C:2B06H         LINE#         507
  C:2B1FH         LINE#         508
  C:2B37H         LINE#         509
  C:2B4FH         LINE#         510
  C:2B67H         LINE#         511
  C:2B7FH         LINE#         513
  C:2B82H         LINE#         515
  C:2B82H         LINE#         516
  C:2B9BH         LINE#         517
BL51 BANKED LINKER/LOCATER V6.22.2.0                                                  06/18/2026  09:22:45  PAGE 88


  C:2BB4H         LINE#         518
  C:2BCDH         LINE#         519
  C:2BE5H         LINE#         520
  C:2BFDH         LINE#         521
  C:2C00H         LINE#         523
  C:2C00H         LINE#         524
  C:2C19H         LINE#         525
  C:2C32H         LINE#         526
  C:2C4BH         LINE#         527
  C:2C63H         LINE#         528
  C:2C7BH         LINE#         529
  C:2C7EH         LINE#         530
  C:2C7EH         LINE#         531
  C:2C7EH         LINE#         532
  C:2C9AH         LINE#         533
  C:2CB3H         LINE#         534
  C:2CD5H         LINE#         535
  C:2CEDH         LINE#         536
  C:2D05H         LINE#         537
  C:2D1DH         LINE#         538
  C:2D1DH         LINE#         539
  C:2D20H         LINE#         540
  C:2D20H         LINE#         541
  C:2D20H         LINE#         542
  C:2D3CH         LINE#         543
  C:2D55H         LINE#         544
  C:2D77H         LINE#         545
  C:2D8FH         LINE#         546
  C:2DA7H         LINE#         547
  C:2DBFH         LINE#         548
  C:2DBFH         LINE#         549
  C:2DC2H         LINE#         550
  C:2DC2H         LINE#         553
  C:2DC5H         LINE#         554
  C:2DDEH         LINE#         555
  C:2DF7H         LINE#         556
  C:2E10H         LINE#         557
  C:2E28H         LINE#         558
  C:2E40H         LINE#         559
  C:2E59H         LINE#         560
  C:2E6FH         LINE#         561
  C:2E84H         LINE#         562
  C:2E84H         LINE#         563
  C:2E84H         LINE#         564
  C:2E84H         LINE#         565
  C:2E84H         LINE#         567
  C:2EA1H         LINE#         569
  C:2EA6H         LINE#         570
  C:2EBFH         LINE#         571
  C:2EE1H         LINE#         572
  C:2EF9H         LINE#         573
  C:2F11H         LINE#         574
  C:2F29H         LINE#         575
  C:2F42H         LINE#         577
  C:2F55H         LINE#         578
  C:2F6AH         LINE#         579
  C:2F7FH         LINE#         580
BL51 BANKED LINKER/LOCATER V6.22.2.0                                                  06/18/2026  09:22:45  PAGE 89


  C:2F7FH         LINE#         581
  C:2F97H         LINE#         582
  C:2FAEH         LINE#         583
  C:2FB6H         LINE#         584
  C:2FB6H         LINE#         585
  C:2FB6H         LINE#         586
  C:2FB6H         LINE#         587
  C:2FCFH         LINE#         588
  C:2FE7H         LINE#         589
  C:2FFFH         LINE#         590
  C:3017H         LINE#         591
  C:302FH         LINE#         592
  C:3048H         LINE#         594
  C:3061H         LINE#         595
  C:3061H         LINE#         596
  C:306EH         LINE#         597
  C:3087H         LINE#         598
  C:30A1H         LINE#         600
  C:30BAH         LINE#         601
  C:30BAH         LINE#         602
  C:30C2H         LINE#         607
  C:30DCH         LINE#         608
  C:30F4H         LINE#         610
  C:30F9H         LINE#         611
  C:30FEH         LINE#         613
  C:3100H         LINE#         614
  C:3117H         LINE#         615
  C:312EH         LINE#         617
  C:312EH         LINE#         618
  C:3145H         LINE#         619
  C:315CH         LINE#         621
  C:3172H         LINE#         622
  C:317AH         LINE#         623
  C:3194H         LINE#         624
  C:31ACH         LINE#         626
  C:31ADH         LINE#         627
  C:31C4H         LINE#         628
  C:31DBH         LINE#         630
  C:31DBH         LINE#         631
  C:31F2H         LINE#         632
  C:3209H         LINE#         634
  C:3214H         LINE#         636
  C:3215H         LINE#         637
  C:322CH         LINE#         638
  C:3243H         LINE#         640
  C:3243H         LINE#         641
  C:325AH         LINE#         642
  C:3272H         LINE#         644
  C:3274H         LINE#         645
  C:328CH         LINE#         646
  C:32A4H         LINE#         647
  C:32A7H         LINE#         648
  C:32A7H         LINE#         649
  C:32A7H         LINE#         650
  C:32BBH         LINE#         653
  C:32D4H         LINE#         654
  C:32EDH         LINE#         655
BL51 BANKED LINKER/LOCATER V6.22.2.0                                                  06/18/2026  09:22:45  PAGE 90


  C:330FH         LINE#         656
  C:3327H         LINE#         657
  C:3349H         LINE#         658
  C:3361H         LINE#         659
  C:3361H         LINE#         660
  C:3364H         LINE#         661
  C:3364H         LINE#         662
  C:3364H         LINE#         664
  C:336EH         LINE#         666
  C:3387H         LINE#         667
  C:33A0H         LINE#         668
  C:33B9H         LINE#         669
  C:33D0H         LINE#         671
  C:33E9H         LINE#         672
  C:340BH         LINE#         673
  C:3423H         LINE#         674
  C:343BH         LINE#         675
  C:3453H         LINE#         676
  C:346CH         LINE#         677
  C:347DH         LINE#         678
  C:3488H         LINE#         679
  C:3493H         LINE#         680
  C:3493H         LINE#         681
  C:3496H         LINE#         682
  C:3496H         LINE#         683
  C:3496H         LINE#         685
  C:34B5H         LINE#         686
  C:34D0H         LINE#         689
  C:34EFH         LINE#         690
  C:3519H         LINE#         691
  C:3543H         LINE#         692
  C:356DH         LINE#         694
  C:3586H         LINE#         695
  C:35A8H         LINE#         696
  C:35C0H         LINE#         697
  C:35D8H         LINE#         698
  C:35F0H         LINE#         699
  C:3609H         LINE#         700
  C:361CH         LINE#         701
  C:3631H         LINE#         702
  C:3631H         LINE#         703
  C:3631H         LINE#         705
  C:3631H         LINE#         706
  C:3642H         LINE#         707
  C:365AH         LINE#         708
  C:3674H         LINE#         711
  C:36A7H         LINE#         712
  C:36A7H         LINE#         713
  C:36AFH         LINE#         714
  C:36AFH         LINE#         715
  C:36B4H         LINE#         716
  C:36B6H         LINE#         718
  C:36B6H         LINE#         719
  C:36BBH         LINE#         720
  C:36BBH         LINE#         721
  C:36C1H         LINE#         722
  C:36C1H         LINE#         723
BL51 BANKED LINKER/LOCATER V6.22.2.0                                                  06/18/2026  09:22:45  PAGE 91


  C:36D2H         LINE#         724
  C:36D2H         LINE#         726
  C:36D9H         LINE#         728
  C:36E3H         LINE#         729
  C:36E3H         LINE#         730
  C:36E9H         LINE#         731
  C:36EBH         LINE#         732
  C:3702H         LINE#         733
  C:3702H         LINE#         734
  C:3706H         LINE#         735
  C:3709H         LINE#         736
  C:3710H         LINE#         737
  C:3710H         LINE#         739
  C:3718H         LINE#         740
  C:3718H         LINE#         744
  -------         ENDPROC       MODBUS_SALVE_HANDLER1
  C:E44BH         SYMBOL        L?0313
  -------         PROC          L?0312
  -------         ENDPROC       L?0312
  C:E44BH         SYMBOL        L?0313
  -------         PROC          _GETMODBUSREG
  X:93F7H         SYMBOL        rx
  D:0004H         SYMBOL        reg
  -------         DO            
  D:0004H         SYMBOL        index
  -------         ENDDO         
  C:E453H         LINE#         748
  C:E45EH         LINE#         749
  C:E45EH         LINE#         750
  C:E46FH         LINE#         753
  C:E494H         LINE#         754
  -------         ENDPROC       _GETMODBUSREG
  -------         PROC          MODBUS_ANALYSIS_DATA1
  -------         DO            
  X:9237H         SYMBOL        modbus_addr
  X:9239H         SYMBOL        u8tou16
  X:923DH         SYMBOL        u8tos16
  X:923FH         SYMBOL        Modbus_Analysis_TempType
  D:0006H         SYMBOL        Modbus_Analysis_Onoff
  X:9241H         SYMBOL        Modbus_Analysis_mode
  X:9243H         SYMBOL        Modbus_Analysis_ModeTemp
  X:9245H         SYMBOL        Modbus_Analysis_SetTemp
  X:9247H         SYMBOL        Modbus_Analysis_FanMode
  X:9249H         SYMBOL        Modbus_Temp1
  X:8000H         SYMBOL        SetTempOld
  X:8002H         SYMBOL        OnoffOld
  X:8004H         SYMBOL        modeOld
  X:924BH         SYMBOL        Modbus_Power
  X:924FH         SYMBOL        i
  X:9251H         SYMBOL        j
  X:9253H         SYMBOL        modbus_rec_len
  X:9255H         SYMBOL        modbus_rec_CRC
  X:9257H         SYMBOL        modbus_calculate_CRC
  X:9259H         SYMBOL        ftemp
  X:925DH         SYMBOL        Error_Code
  X:925FH         SYMBOL        Error_Cnt
  X:9261H         SYMBOL        NewError
BL51 BANKED LINKER/LOCATER V6.22.2.0                                                  06/18/2026  09:22:45  PAGE 92


  X:9269H         SYMBOL        Error_Temp
  -------         DO            
  X:926BH         SYMBOL        power_vp
  X:926BH         SYMBOL        temp_c
  X:926DH         SYMBOL        freq_raw
  X:926FH         SYMBOL        time_raw
  X:9271H         SYMBOL        t3_raw
  X:926BH         SYMBOL        temp_c
  X:926DH         SYMBOL        temp_f
  -------         ENDDO         
  -------         DO            
  X:926BH         SYMBOL        temp_c
  X:926DH         SYMBOL        freq_raw
  X:926FH         SYMBOL        time_raw
  X:9271H         SYMBOL        t3_raw
  X:926BH         SYMBOL        temp_c
  X:926DH         SYMBOL        temp_f
  -------         ENDDO         
  -------         DO            
  X:926BH         SYMBOL        temp_c
  X:926DH         SYMBOL        temp_f
  -------         ENDDO         
  -------         ENDDO         
  C:1A6AH         LINE#         756
  C:1A6AH         LINE#         757
  C:1A6AH         LINE#         758
  C:1A71H         LINE#         773
  C:1A7BH         LINE#         775
  C:1A7FH         LINE#         776
  C:1A83H         LINE#         777
  C:1A87H         LINE#         780
  C:1A8DH         LINE#         781
  C:1A9FH         LINE#         782
  C:1AA6H         LINE#         783
  C:1AB1H         LINE#         784
  C:1AB1H         LINE#         785
  C:1AB2H         LINE#         791
  C:1ABAH         LINE#         792
  C:1ABAH         LINE#         793
  C:1ACAH         LINE#         794
  C:1ACCH         LINE#         796
  C:1ACCH         LINE#         797
  C:1AD5H         LINE#         798
  C:1AD5H         LINE#         801
  C:1AEBH         LINE#         802
  C:1AFAH         LINE#         803
  C:1B09H         LINE#         805
  C:1B28H         LINE#         808
  C:1B34H         LINE#         809
  C:1B34H         LINE#         810
  C:1B41H         LINE#         811
  C:1B46H         LINE#         812
  C:1B48H         LINE#         814
  C:1B48H         LINE#         815
  C:1B50H         LINE#         817
  C:1B50H         LINE#         819
  C:1B5BH         LINE#         820
BL51 BANKED LINKER/LOCATER V6.22.2.0                                                  06/18/2026  09:22:45  PAGE 93


  C:1B5BH         LINE#         821
  C:1B93H         LINE#         822
  C:1B93H         LINE#         823
  C:1B93H         LINE#         824
  C:1B99H         LINE#         825
  C:1B99H         LINE#         828
  C:1BB2H         LINE#         829
  C:1BBAH         LINE#         830
  C:1BC2H         LINE#         831
  C:1BC9H         LINE#         832
  C:1BE1H         LINE#         833
  C:1BF5H         LINE#         834
  C:1BF5H         LINE#         835
  C:1C0EH         LINE#         836
  C:1C27H         LINE#         837
  C:1C31H         LINE#         838
  C:1C31H         LINE#         839
  C:1C37H         LINE#         840
  C:1C4FH         LINE#         841
  C:1C4FH         LINE#         842
  C:1C52H         LINE#         843
  C:1C52H         LINE#         846
  C:1C6BH         LINE#         847
  C:1C73H         LINE#         848
  C:1C7BH         LINE#         849
  C:1C8AH         LINE#         850
  C:1C9EH         LINE#         851
  C:1C9EH         LINE#         852
  C:1CB7H         LINE#         853
  C:1CBAH         LINE#         854
  C:1CBAH         LINE#         856
  C:1CD3H         LINE#         857
  C:1CDBH         LINE#         858
  C:1CE3H         LINE#         859
  C:1CFAH         LINE#         860
  C:1D0EH         LINE#         861
  C:1D15H         LINE#         862
  C:1D2DH         LINE#         863
  C:1D30H         LINE#         864
  C:1D30H         LINE#         866
  C:1D49H         LINE#         867
  C:1D51H         LINE#         868
  C:1D59H         LINE#         869
  C:1D70H         LINE#         870
  C:1D84H         LINE#         871
  C:1D8BH         LINE#         872
  C:1DA3H         LINE#         873
  C:1DA6H         LINE#         874
  C:1DA6H         LINE#         876
  C:1DBFH         LINE#         877
  C:1DC7H         LINE#         878
  C:1DCFH         LINE#         879
  C:1DE6H         LINE#         880
  C:1DFAH         LINE#         881
  C:1E01H         LINE#         882
  C:1E19H         LINE#         883
  C:1E1CH         LINE#         884
BL51 BANKED LINKER/LOCATER V6.22.2.0                                                  06/18/2026  09:22:45  PAGE 94


  C:1E1CH         LINE#         886
  C:1E35H         LINE#         887
  C:1E3DH         LINE#         888
  C:1E45H         LINE#         889
  C:1E54H         LINE#         890
  C:1E68H         LINE#         891
  C:1E68H         LINE#         892
  C:1E81H         LINE#         893
  C:1E9BH         LINE#         894
  C:1E9EH         LINE#         895
  C:1E9EH         LINE#         897
  C:1E9EH         LINE#         899
  C:1EA0H         LINE#         900
  C:1EA2H         LINE#         901
  C:1EA3H         LINE#         902
  C:1EA3H         LINE#         903
  C:1EA3H         LINE#         904
  C:1EBCH         LINE#         905
  C:1EC9H         LINE#         906
  C:1EC9H         LINE#         910
  C:1ED0H         LINE#         911
  C:1ED0H         LINE#         912
  C:1EEDH         LINE#         913
  C:1EFCH         LINE#         914
  C:1F09H         LINE#         915
  C:1F09H         LINE#         916
  C:1F10H         LINE#         917
  C:1F27H         LINE#         918
  C:1F3CH         LINE#         919
  C:1F4FH         LINE#         920
  C:1F51H         LINE#         922
  C:1F51H         LINE#         923
  C:1F79H         LINE#         924
  C:1F79H         LINE#         925
  C:1F9CH         LINE#         926
  C:1F9CH         LINE#         928
  C:1F9CH         LINE#         931
  C:1FA3H         LINE#         932
  C:1FA3H         LINE#         933
  C:1FC0H         LINE#         934
  C:1FCFH         LINE#         936
  C:1FDCH         LINE#         937
  C:1FDCH         LINE#         938
  C:1FE3H         LINE#         939
  C:1FFAH         LINE#         940
  C:2017H         LINE#         941
  C:2019H         LINE#         943
  C:2019H         LINE#         944
  C:2041H         LINE#         945
  C:2041H         LINE#         947
  C:2061H         LINE#         948
  C:2061H         LINE#         950
  C:2077H         LINE#         952
  C:208DH         LINE#         953
  C:20AAH         LINE#         955
  C:20C8H         LINE#         956
  C:20E5H         LINE#         958
BL51 BANKED LINKER/LOCATER V6.22.2.0                                                  06/18/2026  09:22:45  PAGE 95


  C:20F9H         LINE#         959
  C:2116H         LINE#         961
  C:212BH         LINE#         962
  C:2144H         LINE#         964
  C:2156H         LINE#         965
  C:216FH         LINE#         967
  C:2171H         LINE#         968
  C:2173H         LINE#         969
  C:2173H         LINE#         970
  C:2174H         LINE#         972
  C:2174H         LINE#         975
  C:218DH         LINE#         976
  C:219AH         LINE#         977
  C:219AH         LINE#         978
  C:21A1H         LINE#         979
  C:21A1H         LINE#         980
  C:21BEH         LINE#         981
  C:21CDH         LINE#         982
  C:21DAH         LINE#         983
  C:21DAH         LINE#         984
  C:21E1H         LINE#         985
  C:21F8H         LINE#         986
  C:220DH         LINE#         987
  C:2221H         LINE#         988
  C:2223H         LINE#         990
  C:2223H         LINE#         991
  C:224CH         LINE#         992
  C:224CH         LINE#         993
  C:226FH         LINE#         994
  C:226FH         LINE#         996
  C:226FH         LINE#         997
  C:2276H         LINE#         998
  C:2276H         LINE#         999
  C:2293H         LINE#         1000
  C:22A2H         LINE#         1002
  C:22AFH         LINE#         1003
  C:22AFH         LINE#         1004
  C:22B6H         LINE#         1005
  C:22CDH         LINE#         1006
  C:22EBH         LINE#         1007
  C:22EDH         LINE#         1009
  C:22EDH         LINE#         1010
  C:2316H         LINE#         1011
  C:2316H         LINE#         1012
  C:2336H         LINE#         1013
  C:2336H         LINE#         1016
  C:233DH         LINE#         1017
  C:2356H         LINE#         1018
  C:2356H         LINE#         1019
  C:236CH         LINE#         1020
  C:237BH         LINE#         1021
  C:2399H         LINE#         1022
  C:23B0H         LINE#         1025
  C:23BAH         LINE#         1026
  C:23BAH         LINE#         1027
  C:23C8H         LINE#         1028
  C:23C8H         LINE#         1029
BL51 BANKED LINKER/LOCATER V6.22.2.0                                                  06/18/2026  09:22:45  PAGE 96


  C:23D9H         LINE#         1031
  C:23E8H         LINE#         1032
  C:23E8H         LINE#         1033
  C:23EFH         LINE#         1034
  C:23F7H         LINE#         1035
  C:2410H         LINE#         1036
  C:2413H         LINE#         1038
  C:2413H         LINE#         1039
  C:241AH         LINE#         1040
  C:241AH         LINE#         1041
  C:2434H         LINE#         1042
  C:2434H         LINE#         1043
  C:245FH         LINE#         1044
  C:245FH         LINE#         1045
  C:2466H         LINE#         1046
  C:248CH         LINE#         1047
  C:24A5H         LINE#         1048
  C:24A5H         LINE#         1049
  C:24B6H         LINE#         1050
  C:24D6H         LINE#         1051
  C:24D6H         LINE#         1053
  C:24EDH         LINE#         1055
  C:24F5H         LINE#         1056
  C:24FDH         LINE#         1057
  C:2519H         LINE#         1058
  C:2533H         LINE#         1059
  C:2557H         LINE#         1060
  C:2571H         LINE#         1062
  C:2579H         LINE#         1063
  C:2581H         LINE#         1064
  C:259DH         LINE#         1065
  C:25C9H         LINE#         1068
  C:25CBH         LINE#         1069
  C:25CDH         LINE#         1070
  C:25CEH         LINE#         1071
  C:25CEH         LINE#         1072
  C:25CEH         LINE#         1076
  C:25D6H         LINE#         1077
  C:25DEH         LINE#         1078
  C:25EDH         LINE#         1079
  C:25FCH         LINE#         1080
  C:2616H         LINE#         1081
  C:262FH         LINE#         1083
  C:2637H         LINE#         1084
  C:263FH         LINE#         1085
  C:264EH         LINE#         1086
  C:265DH         LINE#         1087
  C:2677H         LINE#         1088
  C:2690H         LINE#         1090
  C:2698H         LINE#         1091
  C:26A0H         LINE#         1092
  C:26AFH         LINE#         1093
  C:26C6H         LINE#         1094
  C:26D8H         LINE#         1095
  C:26F2H         LINE#         1096
  C:270DH         LINE#         1097
  C:2727H         LINE#         1098
BL51 BANKED LINKER/LOCATER V6.22.2.0                                                  06/18/2026  09:22:45  PAGE 97


  C:2740H         LINE#         1099
  C:274BH         LINE#         1100
  C:2756H         LINE#         1101
  C:2768H         LINE#         1102
  C:2768H         LINE#         1103
  C:276AH         LINE#         1104
  C:276FH         LINE#         1105
  C:2771H         LINE#         1106
  C:2774H         LINE#         1107
  C:2777H         LINE#         1108
  C:2777H         LINE#         1109
  C:2777H         LINE#         1110
  C:2777H         LINE#         1115
  C:277FH         LINE#         1116
  C:2787H         LINE#         1117
  C:2796H         LINE#         1118
  C:27BAH         LINE#         1119
  C:27D1H         LINE#         1120
  C:27F6H         LINE#         1121
  C:280BH         LINE#         1122
  C:2830H         LINE#         1124
  C:2838H         LINE#         1125
  C:2840H         LINE#         1126
  C:284FH         LINE#         1127
  C:2873H         LINE#         1129
  C:2880H         LINE#         1130
  C:2880H         LINE#         1131
  C:2883H         LINE#         1132
  C:2885H         LINE#         1133
  C:2886H         LINE#         1135
  C:2886H         LINE#         1136
  C:288BH         LINE#         1137
  C:288DH         LINE#         1138
  C:288FH         LINE#         1139
  C:288FH         LINE#         1140
  C:288FH         LINE#         1141
  C:2890H         LINE#         1142
  C:2890H         LINE#         1146
  C:289DH         LINE#         1147
  C:289DH         LINE#         1148
  C:28A0H         LINE#         1149
  C:28A2H         LINE#         1150
  C:28A3H         LINE#         1152
  C:28A3H         LINE#         1153
  C:28A8H         LINE#         1154
  C:28AAH         LINE#         1155
  C:28ACH         LINE#         1156
  C:28ACH         LINE#         1157
  C:28ACH         LINE#         1158
  C:28ADH         LINE#         1159
  C:28ADH         LINE#         1161
  C:28ADH         LINE#         1163
  C:28ADH         LINE#         1164
  C:28B2H         LINE#         1165
  C:28BEH         LINE#         1166
  C:28BEH         LINE#         1167
  C:28C5H         LINE#         1168
BL51 BANKED LINKER/LOCATER V6.22.2.0                                                  06/18/2026  09:22:45  PAGE 98


  C:28D7H         LINE#         1169
  C:28D7H         LINE#         1171
  C:292BH         LINE#         1172
  C:292BH         LINE#         1173
  C:292BH         LINE#         1174
  C:292DH         LINE#         1175
  C:292FH         LINE#         1176
  C:2930H         LINE#         1178
  C:2930H         LINE#         1179
  C:2932H         LINE#         1180
  C:2934H         LINE#         1181
  C:293DH         LINE#         1182
  C:293DH         LINE#         1184
  C:293DH         LINE#         1185
  C:293DH         LINE#         1186
  C:293DH         LINE#         1187
  C:293DH         LINE#         1188
  C:293DH         LINE#         1189
  C:293DH         LINE#         1190
  C:294BH         LINE#         1191
  C:295BH         LINE#         1192
  C:295BH         LINE#         1193
  C:295EH         LINE#         1194
  C:2960H         LINE#         1195
  C:2961H         LINE#         1197
  C:2961H         LINE#         1198
  C:2966H         LINE#         1199
  C:2968H         LINE#         1200
  C:296AH         LINE#         1201
  C:296CH         LINE#         1202
  C:296CH         LINE#         1203
  C:296DH         LINE#         1205
  C:296DH         LINE#         1206
  C:296DH         LINE#         1207
  C:296DH         LINE#         1208
  C:296DH         LINE#         1209
  C:296DH         LINE#         1210
  C:296DH         LINE#         1211
  C:296FH         LINE#         1212
  C:2971H         LINE#         1213
  C:297EH         LINE#         1214
  C:2981H         LINE#         1216
  C:2981H         LINE#         1218
  C:2981H         LINE#         1219
  C:2983H         LINE#         1220
  C:2984H         LINE#         1222
  C:2984H         LINE#         1224
  C:2986H         LINE#         1225
  C:2987H         LINE#         1227
  C:2987H         LINE#         1228
  C:2989H         LINE#         1229
  C:298AH         LINE#         1231
  C:298AH         LINE#         1232
  C:29A1H         LINE#         1233
  C:29A3H         LINE#         1234
  C:29A3H         LINE#         1235
  C:29A3H         LINE#         1236
BL51 BANKED LINKER/LOCATER V6.22.2.0                                                  06/18/2026  09:22:45  PAGE 99


  C:29A3H         LINE#         1237
  -------         ENDPROC       MODBUS_ANALYSIS_DATA1
  -------         PROC          MODBUS_REFRESHCHECKPARAMDISPLAY
  -------         DO            
  X:8C51H         SYMBOL        i
  X:8C52H         SYMBOL        raw
  X:8C54H         SYMBOL        temp_c
  X:8C56H         SYMBOL        temp_f
  X:8C58H         SYMBOL        unit
  -------         ENDDO         
  C:A0AFH         LINE#         1239
  C:A0AFH         LINE#         1240
  C:A0AFH         LINE#         1246
  C:A0C8H         LINE#         1247
  C:A0DEH         LINE#         1248
  C:A0DEH         LINE#         1249
  C:A0FEH         LINE#         1250
  C:A10EH         LINE#         1251
  C:A10EH         LINE#         1252
  C:A123H         LINE#         1253
  C:A130H         LINE#         1254
  C:A138H         LINE#         1255
  C:A15BH         LINE#         1256
  C:A15BH         LINE#         1257
  C:A165H         LINE#         1258
  C:A168H         LINE#         1259
  C:A171H         LINE#         1260
  C:A187H         LINE#         1261
  C:A187H         LINE#         1262
  C:A1A7H         LINE#         1263
  C:A1B7H         LINE#         1264
  C:A1B7H         LINE#         1265
  C:A1CCH         LINE#         1266
  C:A1D9H         LINE#         1267
  C:A1E1H         LINE#         1268
  C:A204H         LINE#         1269
  C:A204H         LINE#         1270
  C:A20EH         LINE#         1271
  C:A211H         LINE#         1272
  C:A21AH         LINE#         1273
  -------         ENDPROC       MODBUS_REFRESHCHECKPARAMDISPLAY
  -------         ENDMOD        MODBUS

  -------         MODULE        RTC
  C:0000H         SYMBOL        _ICE_DUMMY_
  C:EEC5H         PUBLIC        RTCcack
  D:0080H         PUBLIC        P0
  C:9606H         PUBLIC        RTC_GetUnixLocal
  D:00B0H         PUBLIC        P3
  D:00F8H         PUBLIC        RAMMODE
  C:9448H         PUBLIC        rdtime
  C:F3D8H         PUBLIC        RTCmack
  C:EF3FH         SYMBOL        _rtc_is_leap
  D:00A8H         PUBLIC        IEN0
  C:F478H         PUBLIC        _RTC_MonthFromDisplayVp
  D:00B8H         PUBLIC        IEN1
  D:00BEH         PUBLIC        P3MDOUT
BL51 BANKED LINKER/LOCATER V6.22.2.0                                                  06/18/2026  09:22:45  PAGE 100


  C:F41CH         PUBLIC        RTCmnak
  C:F241H         PUBLIC        RTCi2cstart
  C:EC57H         SYMBOL        _rtc_days_in_month
  C:F45BH         PUBLIC        GetSystickTime
  B:00B0H.3       PUBLIC        RTC_SDA
  C:BCE9H         PUBLIC        _rtc_config
  X:9283H         SYMBOL        s_rtc_month
  X:9284H         SYMBOL        s_rtc_week
  B:00B0H.2       PUBLIC        RTC_SCL
  C:D475H         PUBLIC        _GetTimeDiff
  X:9285H         SYMBOL        s_rtc_year
  C:F289H         PUBLIC        RTCi2cstop
  D:0088H         PUBLIC        TCON
  X:9286H         SYMBOL        s_rtc_sec
  C:F52EH         PUBLIC        rtc_get_weekday
  X:9287H         SYMBOL        s_rtc_day
  X:9288H         SYMBOL        s_rtc_hour
  C:ED26H         PUBLIC        RTCi2cbr
  C:F42CH         SYMBOL        _?ix1000
  C:F434H         SYMBOL        _?ix1001
  X:9289H         SYMBOL        s_rtc_min
  C:E9E0H         PUBLIC        _RTCi2cbw
  C:CEBFH         PUBLIC        _RTC_WriteDisplayTime
  C:F37AH         PUBLIC        _BCD
  C:CA7CH         PUBLIC        RTCUpdate
  C:A21BH         PUBLIC        check_rtc_set
  C:ECFAH         PUBLIC        _delay_us
  X:928AH         PUBLIC        ulSystickCount
  C:C45FH         PUBLIC        init_rtc
  D:0098H         PUBLIC        SCON0
  D:00C8H         PUBLIC        T2CON
  C:CF50H         PUBLIC        _RTC_WriteEditTime
  D:00D0H         PUBLIC        PSW
  C:CE2BH         PUBLIC        _rtc_get_week
  D:00C0H         PUBLIC        IRCON
  -------         PROC          _RTC_MONTHFROMDISPLAYVP
  X:8C3BH         SYMBOL        year
  D:0004H         SYMBOL        month_vp
  C:F478H         LINE#         18
  C:F480H         LINE#         19
  C:F480H         LINE#         20
  C:F480H         LINE#         21
  C:F484H         LINE#         22
  -------         ENDPROC       _RTC_MONTHFROMDISPLAYVP
  -------         PROC          _RTC_WRITEDISPLAYTIME
  X:8C5CH         SYMBOL        year
  X:8C5EH         SYMBOL        month
  X:8C60H         SYMBOL        day
  X:8C62H         SYMBOL        hour
  X:8C64H         SYMBOL        minute
  C:CEBFH         LINE#         26
  C:CED3H         LINE#         27
  C:CED3H         LINE#         28
  C:CEECH         LINE#         29
  C:CF05H         LINE#         30
  C:CF1EH         LINE#         31
  C:CF37H         LINE#         32
BL51 BANKED LINKER/LOCATER V6.22.2.0                                                  06/18/2026  09:22:45  PAGE 101


  -------         ENDPROC       _RTC_WRITEDISPLAYTIME
  -------         PROC          _RTC_WRITEEDITTIME
  X:8C5CH         SYMBOL        year
  X:8C5EH         SYMBOL        month
  X:8C60H         SYMBOL        day
  X:8C62H         SYMBOL        hour
  X:8C64H         SYMBOL        minute
  C:CF50H         LINE#         35
  C:CF64H         LINE#         36
  C:CF64H         LINE#         37
  C:CF7DH         LINE#         38
  C:CF96H         LINE#         39
  C:CFAFH         LINE#         40
  C:CFC8H         LINE#         41
  -------         ENDPROC       _RTC_WRITEEDITTIME
  -------         PROC          INIT_RTC
  -------         DO            
  X:8C22H         SYMBOL        dat1
  X:8C23H         SYMBOL        dat2
  -------         ENDDO         
  C:C45FH         LINE#         47
  C:C45FH         LINE#         48
  C:C45FH         LINE#         49
  C:C45FH         LINE#         50
  C:C462H         LINE#         52
  C:C465H         LINE#         53
  C:C46AH         LINE#         54
  C:C46FH         LINE#         55
  C:C472H         LINE#         56
  C:C475H         LINE#         57
  C:C47AH         LINE#         58
  C:C482H         LINE#         59
  C:C485H         LINE#         60
  C:C488H         LINE#         61
  C:C48BH         LINE#         62
  C:C48EH         LINE#         63
  C:C49BH         LINE#         64
  C:C49BH         LINE#         66
  C:C49EH         LINE#         67
  C:C4A3H         LINE#         68
  C:C4A8H         LINE#         69
  C:C4ADH         LINE#         70
  C:C4B0H         LINE#         71
  C:C4B3H         LINE#         72
  C:C4B8H         LINE#         73
  C:C4BDH         LINE#         74
  C:C4C2H         LINE#         75
  C:C4C7H         LINE#         76
  C:C4CCH         LINE#         77
  C:C4D1H         LINE#         78
  C:C4D4H         LINE#         79
  C:C4D7H         LINE#         80
  C:C4DCH         LINE#         81
  C:C4E1H         LINE#         82
  C:C4E6H         LINE#         83
  C:C4EBH         LINE#         84
  C:C4F0H         LINE#         85
BL51 BANKED LINKER/LOCATER V6.22.2.0                                                  06/18/2026  09:22:45  PAGE 102


  C:C4F5H         LINE#         86
  C:C4FAH         LINE#         87
  C:C4FFH         LINE#         88
  C:C504H         LINE#         89
  C:C507H         LINE#         90
  C:C50AH         LINE#         91
  C:C50FH         LINE#         92
  C:C514H         LINE#         93
  C:C519H         LINE#         94
  C:C51EH         LINE#         95
  C:C521H         LINE#         96
  C:C521H         LINE#         97
  -------         ENDPROC       INIT_RTC
  C:ECF6H         SYMBOL        L?0090
  -------         PROC          L?0089
  -------         ENDPROC       L?0089
  C:ECF6H         SYMBOL        L?0090
  -------         PROC          _DELAY_US
  D:0006H         SYMBOL        n
  -------         DO            
  D:0008H         SYMBOL        ui
  D:000AH         SYMBOL        uj
  -------         ENDDO         
  C:ECFAH         LINE#         110
  C:ECFAH         LINE#         111
  C:ECFAH         LINE#         113
  C:ED08H         LINE#         114
  C:ED25H         LINE#         116
  -------         ENDPROC       _DELAY_US
  -------         PROC          _RTC_CONFIG
  X:93CBH         SYMBOL        prtc_set
  -------         DO            
  X:93CEH         SYMBOL        dat
  X:93CFH         SYMBOL        dat1
  -------         ENDDO         
  C:BCE9H         LINE#         118
  C:BCF4H         LINE#         119
  C:BCF4H         LINE#         121
  C:BCF7H         LINE#         122
  C:BCFCH         LINE#         123
  C:BD01H         LINE#         124
  C:BD06H         LINE#         125
  C:BD09H         LINE#         126
  C:BD0CH         LINE#         127
  C:BD11H         LINE#         128
  C:BD16H         LINE#         129
  C:BD1BH         LINE#         130
  C:BD20H         LINE#         131
  C:BD25H         LINE#         132
  C:BD2AH         LINE#         133
  C:BD2DH         LINE#         134
  C:BD30H         LINE#         135
  C:BD35H         LINE#         136
  C:BD3AH         LINE#         137
  C:BD4CH         LINE#         138
  C:BD5CH         LINE#         139
  C:BD6CH         LINE#         140
BL51 BANKED LINKER/LOCATER V6.22.2.0                                                  06/18/2026  09:22:45  PAGE 103


  C:BD7DH         LINE#         141
  C:BD8EH         LINE#         142
  C:BD9FH         LINE#         143
  C:BDB0H         LINE#         144
  C:BDB3H         LINE#         145
  C:BDB6H         LINE#         146
  C:BDBBH         LINE#         147
  C:BDC0H         LINE#         148
  C:BDC5H         LINE#         149
  C:BDCAH         LINE#         150
  -------         ENDPROC       _RTC_CONFIG
  -------         PROC          RDTIME
  -------         DO            
  X:92C8H         SYMBOL        rtcdata
  X:92D0H         SYMBOL        i
  X:92D1H         SYMBOL        n
  X:92D2H         SYMBOL        m
  -------         DO            
  X:92D3H         SYMBOL        rtc_vp
  -------         ENDDO         
  -------         ENDDO         
  C:9448H         LINE#         154
  C:9448H         LINE#         155
  C:9448H         LINE#         156
  C:9448H         LINE#         158
  C:944BH         LINE#         159
  C:944EH         LINE#         160
  C:9453H         LINE#         161
  C:9458H         LINE#         162
  C:945BH         LINE#         163
  C:945EH         LINE#         164
  C:9463H         LINE#         165
  C:9476H         LINE#         166
  C:9476H         LINE#         167
  C:9488H         LINE#         168
  C:948BH         LINE#         169
  C:9493H         LINE#         170
  C:949BH         LINE#         172
  C:949EH         LINE#         173
  C:94A1H         LINE#         174
  C:94B4H         LINE#         175
  C:94B4H         LINE#         176
  C:94C8H         LINE#         177
  C:94CEH         LINE#         178
  C:94E1H         LINE#         179
  C:94E9H         LINE#         180
  C:94FDH         LINE#         181
  C:94FDH         LINE#         182
  C:9511H         LINE#         183
  C:9517H         LINE#         184
  C:952AH         LINE#         185
  C:9532H         LINE#         187
  C:9537H         LINE#         188
  C:953FH         LINE#         189
  C:9551H         LINE#         190
  C:9551H         LINE#         191
  C:9559H         LINE#         193
BL51 BANKED LINKER/LOCATER V6.22.2.0                                                  06/18/2026  09:22:45  PAGE 104


  C:955FH         LINE#         194
  C:9564H         LINE#         195
  C:956CH         LINE#         196
  C:9574H         LINE#         197
  C:9579H         LINE#         198
  C:9581H         LINE#         199
  C:9581H         LINE#         202
  C:9593H         LINE#         203
  C:95A7H         LINE#         204
  C:95B9H         LINE#         205
  C:95D3H         LINE#         206
  C:95D3H         LINE#         207
  C:95DBH         LINE#         208
  C:95E3H         LINE#         209
  C:95EBH         LINE#         210
  C:95F3H         LINE#         211
  C:95FBH         LINE#         212
  C:9603H         LINE#         214
  -------         ENDPROC       RDTIME
  -------         PROC          _BCD
  D:0007H         SYMBOL        dat
  C:F37AH         LINE#         239
  C:F37AH         LINE#         240
  C:F37AH         LINE#         241
  C:F38CH         LINE#         242
  -------         ENDPROC       _BCD
  -------         PROC          _RTC_GET_WEEK
  D:0004H         SYMBOL        year
  D:0005H         SYMBOL        month
  X:93D0H         SYMBOL        day
  -------         DO            
  D:0006H         SYMBOL        tmp
  X:93D1H         SYMBOL        mon
  X:93D3H         SYMBOL        y
  D:0007H         SYMBOL        week
  -------         ENDDO         
  C:CE2BH         LINE#         249
  C:CE32H         LINE#         250
  C:CE32H         LINE#         253
  C:CE3FH         LINE#         254
  C:CE3FH         LINE#         255
  C:CE4CH         LINE#         256
  C:CE58H         LINE#         257
  C:CE5AH         LINE#         259
  C:CE5AH         LINE#         260
  C:CE64H         LINE#         261
  C:CE6CH         LINE#         262
  C:CE6CH         LINE#         263
  C:CEB7H         LINE#         264
  C:CEBEH         LINE#         265
  C:CEBEH         LINE#         266
  -------         ENDPROC       _RTC_GET_WEEK
  -------         PROC          CHECK_RTC_SET
  -------         DO            
  X:92B6H         SYMBOL        rtc_parm
  X:92BEH         SYMBOL        rtc_set
  -------         DO            
BL51 BANKED LINKER/LOCATER V6.22.2.0                                                  06/18/2026  09:22:45  PAGE 105


  X:92C6H         SYMBOL        yfull
  -------         ENDDO         
  -------         ENDDO         
  C:A21BH         LINE#         268
  C:A21BH         LINE#         269
  C:A21BH         LINE#         270
  C:A22EH         LINE#         271
  C:A241H         LINE#         272
  C:A25BH         LINE#         273
  C:A26FH         LINE#         274
  C:A26FH         LINE#         275
  C:A27AH         LINE#         276
  C:A287H         LINE#         277
  C:A294H         LINE#         278
  C:A2B1H         LINE#         279
  C:A2BEH         LINE#         280
  C:A2CBH         LINE#         281
  C:A2D6H         LINE#         282
  C:A2DFH         LINE#         283
  C:A2DFH         LINE#         284
  C:A2EEH         LINE#         286
  C:A2F6H         LINE#         287
  C:A301H         LINE#         288
  C:A330H         LINE#         289
  C:A35FH         LINE#         290
  C:A35FH         LINE#         291
  C:A364H         LINE#         292
  C:A366H         LINE#         293
  C:A37EH         LINE#         294
  C:A381H         LINE#         295
  C:A381H         LINE#         296
  -------         ENDPROC       CHECK_RTC_SET
  -------         PROC          RTCI2CSTART
  C:F241H         LINE#         300
  C:F241H         LINE#         301
  C:F241H         LINE#         302
  C:F244H         LINE#         303
  C:F246H         LINE#         304
  C:F248H         LINE#         305
  C:F24FH         LINE#         306
  C:F251H         LINE#         307
  C:F254H         LINE#         308
  C:F256H         LINE#         309
  -------         ENDPROC       RTCI2CSTART
  -------         PROC          RTCI2CSTOP
  C:F289H         LINE#         312
  C:F289H         LINE#         313
  C:F289H         LINE#         314
  C:F28CH         LINE#         315
  C:F28EH         LINE#         316
  C:F290H         LINE#         317
  C:F297H         LINE#         318
  C:F299H         LINE#         319
  C:F29CH         LINE#         320
  C:F29FH         LINE#         321
  -------         ENDPROC       RTCI2CSTOP
  -------         PROC          RTCMACK
BL51 BANKED LINKER/LOCATER V6.22.2.0                                                  06/18/2026  09:22:45  PAGE 106


  C:F3D8H         LINE#         323
  C:F3D8H         LINE#         324
  C:F3D8H         LINE#         325
  C:F3DBH         LINE#         326
  C:F3DDH         LINE#         327
  C:F3E0H         LINE#         328
  C:F3E2H         LINE#         329
  C:F3E5H         LINE#         330
  C:F3E7H         LINE#         331
  -------         ENDPROC       RTCMACK
  -------         PROC          RTCMNAK
  C:F41CH         LINE#         334
  C:F41CH         LINE#         335
  C:F41CH         LINE#         336
  C:F41FH         LINE#         337
  C:F41FH         LINE#         338
  C:F422H         LINE#         339
  C:F424H         LINE#         340
  C:F427H         LINE#         341
  C:F429H         LINE#         342
  -------         ENDPROC       RTCMNAK
  -------         PROC          RTCCACK
  -------         DO            
  D:0005H         SYMBOL        i
  -------         ENDDO         
  C:EEC5H         LINE#         345
  C:EEC5H         LINE#         346
  C:EEC5H         LINE#         347
  C:EEC5H         LINE#         348
  C:EEC8H         LINE#         349
  C:EEC8H         LINE#         350
  C:EECBH         LINE#         351
  C:EECDH         LINE#         352
  C:EED0H         LINE#         353
  C:EEDCH         LINE#         354
  C:EEDCH         LINE#         355
  C:EEDFH         LINE#         356
  C:EEDFH         LINE#         357
  C:EEDFH         LINE#         358
  C:EEDFH         LINE#         359
  C:EEE2H         LINE#         360
  C:EEE5H         LINE#         361
  C:EEE7H         LINE#         362
  C:EEEAH         LINE#         363
  C:EEEDH         LINE#         364
  -------         ENDPROC       RTCCACK
  C:E9DCH         SYMBOL        L?0092
  -------         PROC          L?0091
  -------         ENDPROC       L?0091
  C:E9DCH         SYMBOL        L?0092
  -------         PROC          _RTCI2CBW
  D:0005H         SYMBOL        dat
  -------         DO            
  D:0004H         SYMBOL        i
  -------         ENDDO         
  C:E9E0H         LINE#         367
  C:E9E2H         LINE#         368
BL51 BANKED LINKER/LOCATER V6.22.2.0                                                  06/18/2026  09:22:45  PAGE 107


  C:E9E2H         LINE#         369
  C:E9E2H         LINE#         370
  C:E9E5H         LINE#         371
  C:E9F8H         LINE#         372
  C:E9F8H         LINE#         373
  C:E9FCH         LINE#         374
  C:E9FCH         LINE#         375
  C:E9FEH         LINE#         376
  C:EA00H         LINE#         378
  C:EA00H         LINE#         379
  C:EA02H         LINE#         380
  C:EA02H         LINE#         381
  C:EA06H         LINE#         382
  C:EA09H         LINE#         383
  C:EA0BH         LINE#         384
  C:EA0EH         LINE#         385
  C:EA10H         LINE#         386
  C:EA13H         LINE#         387
  C:EA16H         LINE#         388
  -------         ENDPROC       _RTCI2CBW
  -------         PROC          RTCI2CBR
  -------         DO            
  D:0004H         SYMBOL        i
  D:0005H         SYMBOL        dat
  -------         ENDDO         
  C:ED26H         LINE#         392
  C:ED26H         LINE#         393
  C:ED26H         LINE#         394
  C:ED26H         LINE#         396
  C:ED29H         LINE#         397
  C:ED35H         LINE#         398
  C:ED35H         LINE#         399
  C:ED38H         LINE#         400
  C:ED3AH         LINE#         401
  C:ED3DH         LINE#         402
  C:ED41H         LINE#         403
  C:ED44H         LINE#         404
  C:ED44H         LINE#         405
  C:ED47H         LINE#         406
  C:ED49H         LINE#         408
  C:ED49H         LINE#         409
  C:ED4DH         LINE#         410
  C:ED4DH         LINE#         412
  C:ED4FH         LINE#         413
  C:ED52H         LINE#         414
  C:ED55H         LINE#         415
  C:ED57H         LINE#         416
  -------         ENDPROC       RTCI2CBR
  -------         PROC          RTCUPDATE
  -------         DO            
  X:9273H         SYMBOL        ulUpdateTime
  X:93B0H         SYMBOL        year
  D:0004H         SYMBOL        month
  D:0002H         SYMBOL        day
  X:93B2H         SYMBOL        hour
  X:93B4H         SYMBOL        minute
  -------         ENDDO         
BL51 BANKED LINKER/LOCATER V6.22.2.0                                                  06/18/2026  09:22:45  PAGE 108


  C:CA7CH         LINE#         417
  C:CA7CH         LINE#         418
  C:CA7CH         LINE#         421
  C:CAB3H         LINE#         422
  C:CAB3H         LINE#         423
  C:CABCH         LINE#         424
  C:CABFH         LINE#         425
  C:CAD0H         LINE#         426
  C:CAD7H         LINE#         427
  C:CADEH         LINE#         428
  C:CAE9H         LINE#         429
  C:CAF6H         LINE#         430
  C:CB1FH         LINE#         431
  C:CB1FH         LINE#         432
  -------         ENDPROC       RTCUPDATE
  -------         PROC          GETSYSTICKTIME
  C:F45BH         LINE#         440
  C:F45BH         LINE#         441
  C:F45BH         LINE#         442
  C:F469H         LINE#         443
  -------         ENDPROC       GETSYSTICKTIME
  -------         PROC          _GETTIMEDIFF
  X:9392H         SYMBOL        currtime
  X:9396H         SYMBOL        lasttime
  C:D475H         LINE#         453
  C:D47BH         LINE#         454
  C:D47BH         LINE#         455
  C:D4ABH         LINE#         456
  C:D4ABH         LINE#         457
  C:D4C4H         LINE#         458
  C:D4C4H         LINE#         460
  C:D4C4H         LINE#         462
  C:D4EDH         LINE#         463
  C:D4EDH         LINE#         464
  -------         ENDPROC       _GETTIMEDIFF
  -------         PROC          RTC_GET_WEEKDAY
  C:F52EH         LINE#         466
  C:F52EH         LINE#         467
  C:F52EH         LINE#         468
  C:F533H         LINE#         469
  -------         ENDPROC       RTC_GET_WEEKDAY
  -------         PROC          _RTC_IS_LEAP
  D:0002H         SYMBOL        year
  C:EF3FH         LINE#         471
  C:EF43H         LINE#         472
  C:EF43H         LINE#         473
  C:EF66H         LINE#         474
  -------         ENDPROC       _RTC_IS_LEAP
  -------         PROC          _RTC_DAYS_IN_MONTH
  D:0006H         SYMBOL        year
  D:0001H         SYMBOL        month
  -------         DO            
  X:9277H         SYMBOL        mdays
  -------         ENDDO         
  C:EC57H         LINE#         476
  C:EC59H         LINE#         477
  C:EC59H         LINE#         480
BL51 BANKED LINKER/LOCATER V6.22.2.0                                                  06/18/2026  09:22:45  PAGE 109


  C:EC64H         LINE#         481
  C:EC67H         LINE#         482
  C:EC7CH         LINE#         483
  C:EC89H         LINE#         484
  C:EC8BH         LINE#         485
  -------         ENDPROC       _RTC_DAYS_IN_MONTH
  -------         PROC          RTC_GETUNIXLOCAL
  -------         DO            
  X:8C33H         SYMBOL        days
  X:8C37H         SYMBOL        year
  X:8C39H         SYMBOL        month
  X:8C3AH         SYMBOL        full_year
  -------         ENDDO         
  C:9606H         LINE#         487
  C:9606H         LINE#         488
  C:9606H         LINE#         489
  C:9610H         LINE#         494
  C:9621H         LINE#         495
  C:9640H         LINE#         496
  C:9698H         LINE#         497
  C:96ABH         LINE#         498
  C:96F7H         LINE#         499
  C:9704H         LINE#         500
  C:9734H         LINE#         501
  C:97B0H         LINE#         502
  -------         ENDPROC       RTC_GETUNIXLOCAL
  -------         ENDMOD        RTC

  -------         MODULE        ERRORHISTORY
  C:0000H         SYMBOL        _ICE_DUMMY_
  C:7CB9H         PUBLIC        _ErrorHistory_PackRec
  D:00B0H         PUBLIC        P3
  X:8A25H         PUBLIC        ErrorHistory
  D:00F8H         PUBLIC        RAMMODE
  D:00A8H         PUBLIC        IEN0
  D:00B8H         PUBLIC        IEN1
  C:F06EH         SYMBOL        ErrorHistory_GetCount
  C:EE81H         SYMBOL        _ErrorHistory_IsValidCode
  C:F511H         SYMBOL        ErrorHistory_FlashVpAddr
  C:F43CH         SYMBOL        ErrorHistory_GetMaxPage
  C:ECC1H         PUBLIC        _ErrorHistory_PageChange
  C:E35FH         PUBLIC        ErrorHistory_Sanitize
  D:0088H         PUBLIC        TCON
  C:97B1H         SYMBOL        _ErrorHistory_UnpackRecLegacy
  C:F49FH         SYMBOL        _?ix1000
  X:8C19H         PUBLIC        AllErrorBit
  C:E214H         PUBLIC        DecodeErrorHistory
  C:75BAH         PUBLIC        _ErrorHistory_FlashRead
  C:B90DH         PUBLIC        ErrorHistoryDisplay
  D:0098H         PUBLIC        SCON0
  C:C7DFH         PUBLIC        _ErrorHistory_FlashWrite
  C:CFE1H         PUBLIC        ErrorHistory_TryMigrateFlash
  C:9948H         SYMBOL        _ErrorHistory_UnpackRec
  D:00C8H         PUBLIC        T2CON
  C:F534H         PUBLIC        ErrorHistory_ResetPage
  C:F392H         SYMBOL        _ErrorHistory_ClampByte
  C:F552H         PUBLIC        _UWOErrorCodeProcess
BL51 BANKED LINKER/LOCATER V6.22.2.0                                                  06/18/2026  09:22:45  PAGE 110


  C:A7ADH         PUBLIC        _UpdateErrorHistory
  C:D966H         SYMBOL        _ErrorHistory_ConvertLegacyRawRec
  C:E715H         PUBLIC        ClearErrorHistory
  X:8C21H         SYMBOL        s_page
  C:B3D8H         SYMBOL        _ErrorHistory_ReadTime
  C:E6D1H         PUBLIC        ErrorHistory_FlashCommitNow
  D:00D0H         PUBLIC        PSW
  C:F46AH         PUBLIC        ErrorHistory_Init
  D:00C0H         PUBLIC        IRCON
  -------         PROC          L?0133
  -------         ENDPROC       L?0133
  -------         PROC          _ERRORHISTORY_ISVALIDCODE
  D:0007H         SYMBOL        fault_code
  C:EE81H         LINE#         390
  C:EE81H         LINE#         391
  C:EE81H         LINE#         392
  C:EE9BH         LINE#         393
  -------         ENDPROC       _ERRORHISTORY_ISVALIDCODE
  -------         PROC          L?0134
  -------         ENDPROC       L?0134
  -------         PROC          _ERRORHISTORY_CLAMPBYTE
  D:0006H         SYMBOL        v
  D:0005H         SYMBOL        maxv
  C:F392H         LINE#         395
  C:F392H         LINE#         396
  C:F392H         LINE#         397
  C:F39CH         LINE#         398
  C:F39FH         LINE#         399
  C:F39FH         LINE#         400
  -------         ENDPROC       _ERRORHISTORY_CLAMPBYTE
  -------         PROC          _ERRORHISTORY_READTIME
  X:9332H         SYMBOL        rec
  -------         DO            
  X:9335H         SYMBOL        year
  X:9337H         SYMBOL        month_vp
  X:9339H         SYMBOL        day
  X:933BH         SYMBOL        hour
  X:933DH         SYMBOL        minute
  -------         ENDDO         
  C:B3D8H         LINE#         403
  C:B3E3H         LINE#         404
  C:B3E3H         LINE#         405
  C:B3E8H         LINE#         406
  C:B3ECH         LINE#         407
  C:B3F0H         LINE#         408
  C:B3F4H         LINE#         409
  C:B3F8H         LINE#         411
  C:B410H         LINE#         412
  C:B429H         LINE#         413
  C:B442H         LINE#         414
  C:B45BH         LINE#         415
  C:B474H         LINE#         416
  C:B494H         LINE#         417
  C:B4AEH         LINE#         418
  C:B4C8H         LINE#         419
  -------         ENDPROC       _ERRORHISTORY_READTIME
  -------         PROC          _ERRORHISTORY_PACKREC
BL51 BANKED LINKER/LOCATER V6.22.2.0                                                  06/18/2026  09:22:45  PAGE 111


  X:8DE5H         SYMBOL        out
  X:8DE8H         SYMBOL        rec
  -------         DO            
  X:8DEBH         SYMBOL        v
  -------         ENDDO         
  C:7CB9H         LINE#         422
  C:7CC4H         LINE#         423
  C:7CC4H         LINE#         426
  C:7CDAH         LINE#         427
  C:7CDAH         LINE#         428
  C:7CE9H         LINE#         429
  C:7CFBH         LINE#         430
  C:7D02H         LINE#         431
  C:7D09H         LINE#         433
  C:7D09H         LINE#         434
  C:7D27H         LINE#         435
  C:7D7FH         LINE#         436
  C:7DD7H         LINE#         437
  C:7E2FH         LINE#         438
  C:7E84H         LINE#         439
  C:7E9BH         LINE#         440
  C:7EC0H         LINE#         441
  C:7EDAH         LINE#         442
  C:7EF4H         LINE#         443
  -------         ENDPROC       _ERRORHISTORY_PACKREC
  -------         PROC          _ERRORHISTORY_UNPACKREC
  X:8DC3H         SYMBOL        rec
  X:8DC6H         SYMBOL        in
  -------         DO            
  X:8DC9H         SYMBOL        v
  -------         ENDDO         
  C:9948H         LINE#         445
  C:9953H         LINE#         446
  C:9953H         LINE#         449
  C:99FBH         LINE#         450
  C:9A13H         LINE#         451
  C:9A13H         LINE#         452
  C:9A22H         LINE#         453
  C:9A34H         LINE#         454
  C:9A3BH         LINE#         455
  C:9A42H         LINE#         456
  C:9A49H         LINE#         458
  C:9A49H         LINE#         459
  C:9A65H         LINE#         460
  C:9A83H         LINE#         461
  C:9AA1H         LINE#         462
  C:9ABFH         LINE#         463
  C:9ADAH         LINE#         464
  -------         ENDPROC       _ERRORHISTORY_UNPACKREC
  -------         PROC          _ERRORHISTORY_UNPACKRECLEGACY
  X:8DC3H         SYMBOL        rec
  X:8DC6H         SYMBOL        in
  -------         DO            
  X:8DC9H         SYMBOL        v
  D:0007H         SYMBOL        month
  X:8DCDH         SYMBOL        day
  X:8DCEH         SYMBOL        hour
BL51 BANKED LINKER/LOCATER V6.22.2.0                                                  06/18/2026  09:22:45  PAGE 112


  -------         ENDDO         
  C:97B1H         LINE#         466
  C:97BCH         LINE#         467
  C:97BCH         LINE#         473
  C:9864H         LINE#         474
  C:987CH         LINE#         475
  C:987CH         LINE#         476
  C:988BH         LINE#         477
  C:989DH         LINE#         478
  C:98A4H         LINE#         479
  C:98ABH         LINE#         480
  C:98B2H         LINE#         482
  C:98B2H         LINE#         483
  C:98CEH         LINE#         484
  C:98E8H         LINE#         485
  C:98FFH         LINE#         486
  C:990EH         LINE#         487
  C:9925H         LINE#         488
  C:992FH         LINE#         489
  C:9936H         LINE#         490
  C:9947H         LINE#         491
  -------         ENDPROC       _ERRORHISTORY_UNPACKRECLEGACY
  -------         PROC          _ERRORHISTORY_CONVERTLEGACYRAWREC
  D:0001H         SYMBOL        rec
  -------         DO            
  X:8DC3H         SYMBOL        month
  D:0007H         SYMBOL        day
  D:0006H         SYMBOL        hour
  D:0005H         SYMBOL        fault_code
  -------         ENDDO         
  C:D966H         LINE#         493
  C:D966H         LINE#         494
  C:D966H         LINE#         500
  C:D973H         LINE#         501
  C:D973H         LINE#         502
  C:D976H         LINE#         503
  C:D97CH         LINE#         504
  C:D983H         LINE#         505
  C:D98AH         LINE#         506
  C:D990H         LINE#         508
  C:D990H         LINE#         509
  C:D99AH         LINE#         510
  C:D9A1H         LINE#         511
  C:D9A8H         LINE#         512
  C:D9AFH         LINE#         513
  C:D9B6H         LINE#         514
  C:D9BDH         LINE#         515
  C:D9C4H         LINE#         516
  C:D9CBH         LINE#         517
  C:D9D2H         LINE#         518
  -------         ENDPROC       _ERRORHISTORY_CONVERTLEGACYRAWREC
  -------         PROC          _ERRORHISTORY_FLASHWRITE
  X:8C4EH         SYMBOL        flash_vp_addr
  -------         DO            
  X:8C52H         SYMBOL        packed
  X:8DE2H         SYMBOL        i
  X:8DE3H         SYMBOL        magic
BL51 BANKED LINKER/LOCATER V6.22.2.0                                                  06/18/2026  09:22:45  PAGE 113


  -------         ENDDO         
  C:C7DFH         LINE#         520
  C:C7E5H         LINE#         521
  C:C7E5H         LINE#         524
  C:C7EFH         LINE#         526
  C:C802H         LINE#         527
  C:C840H         LINE#         528
  C:C85FH         LINE#         529
  -------         ENDPROC       _ERRORHISTORY_FLASHWRITE
  -------         PROC          ERRORHISTORY_FLASHVPADDR
  C:F511H         LINE#         532
  C:F511H         LINE#         533
  C:F511H         LINE#         534
  C:F518H         LINE#         536
  -------         ENDPROC       ERRORHISTORY_FLASHVPADDR
  -------         PROC          ERRORHISTORY_FLASHCOMMITNOW
  -------         DO            
  X:8C48H         SYMBOL        enable_memory
  -------         ENDDO         
  C:E6D1H         LINE#         538
  C:E6D1H         LINE#         539
  C:E6D1H         LINE#         540
  C:E6D8H         LINE#         542
  C:E6DEH         LINE#         543
  C:E6F7H         LINE#         544
  C:E703H         LINE#         545
  C:E703H         LINE#         546
  C:E706H         LINE#         547
  C:E709H         LINE#         548
  C:E70EH         LINE#         549
  C:E714H         LINE#         550
  C:E714H         LINE#         551
  -------         ENDPROC       ERRORHISTORY_FLASHCOMMITNOW
  -------         PROC          ERRORHISTORY_TRYMIGRATEFLASH
  -------         DO            
  X:8C33H         SYMBOL        magic
  X:8C35H         SYMBOL        enable_memory
  X:8C37H         SYMBOL        addr
  -------         ENDDO         
  C:CFE1H         LINE#         553
  C:CFE1H         LINE#         554
  C:CFE1H         LINE#         555
  C:CFE8H         LINE#         556
  C:CFECH         LINE#         559
  C:CFF3H         LINE#         560
  C:D012H         LINE#         561
  C:D020H         LINE#         564
  C:D023H         LINE#         565
  C:D034H         LINE#         567
  C:D04DH         LINE#         568
  C:D059H         LINE#         569
  C:D059H         LINE#         570
  C:D05CH         LINE#         571
  C:D05FH         LINE#         572
  C:D064H         LINE#         573
  C:D06AH         LINE#         574
  C:D06AH         LINE#         575
BL51 BANKED LINKER/LOCATER V6.22.2.0                                                  06/18/2026  09:22:45  PAGE 114


  -------         ENDPROC       ERRORHISTORY_TRYMIGRATEFLASH
  -------         PROC          _ERRORHISTORY_FLASHREAD
  X:8C2AH         SYMBOL        flash_vp_addr
  -------         DO            
  X:8C2EH         SYMBOL        magic
  X:8C30H         SYMBOL        packed
  X:8DC0H         SYMBOL        i
  X:8DC1H         SYMBOL        j
  -------         DO            
  X:8DC2H         SYMBOL        k
  -------         ENDDO         
  -------         ENDDO         
  C:75BAH         LINE#         577
  C:75C0H         LINE#         578
  C:75C0H         LINE#         579
  C:75C7H         LINE#         583
  C:75E6H         LINE#         584
  C:75F7H         LINE#         585
  C:75F7H         LINE#         586
  C:7622H         LINE#         587
  C:7638H         LINE#         588
  C:7676H         LINE#         590
  C:7676H         LINE#         591
  C:7687H         LINE#         592
  C:7687H         LINE#         593
  C:76B2H         LINE#         594
  C:76C8H         LINE#         595
  C:7706H         LINE#         597
  C:7706H         LINE#         599
  C:7726H         LINE#         600
  C:7739H         LINE#         601
  C:7753H         LINE#         602
  C:7766H         LINE#         603
  C:7766H         LINE#         604
  C:7777H         LINE#         605
  C:779DH         LINE#         606
  C:77A5H         LINE#         607
  C:77B8H         LINE#         608
  C:77B8H         LINE#         609
  C:77BFH         LINE#         610
  C:77BFH         LINE#         611
  C:77D2H         LINE#         612
  C:77D2H         LINE#         614
  C:77E3H         LINE#         615
  C:7809H         LINE#         616
  C:7811H         LINE#         617
  C:7811H         LINE#         618
  C:7811H         LINE#         619
  C:7819H         LINE#         620
  -------         ENDPROC       _ERRORHISTORY_FLASHREAD
  -------         PROC          ERRORHISTORY_SANITIZE
  -------         DO            
  D:0006H         SYMBOL        i
  D:0007H         SYMBOL        j
  D:0005H         SYMBOL        k
  -------         ENDDO         
  C:E35FH         LINE#         622
BL51 BANKED LINKER/LOCATER V6.22.2.0                                                  06/18/2026  09:22:45  PAGE 115


  C:E35FH         LINE#         623
  C:E35FH         LINE#         626
  C:E36BH         LINE#         627
  C:E36BH         LINE#         628
  C:E372H         LINE#         629
  C:E372H         LINE#         630
  C:E37EH         LINE#         631
  C:E37EH         LINE#         632
  C:E38AH         LINE#         633
  C:E3A8H         LINE#         634
  C:E3ABH         LINE#         635
  C:E3ABH         LINE#         636
  C:E3ABH         LINE#         637
  C:E3AEH         LINE#         638
  -------         ENDPROC       ERRORHISTORY_SANITIZE
  -------         PROC          ERRORHISTORY_INIT
  C:F46AH         LINE#         640
  C:F46AH         LINE#         641
  C:F46AH         LINE#         642
  C:F46DH         LINE#         643
  C:F472H         LINE#         644
  C:F475H         LINE#         645
  -------         ENDPROC       ERRORHISTORY_INIT
  -------         PROC          ERRORHISTORY_GETCOUNT
  -------         DO            
  D:0007H         SYMBOL        i
  -------         ENDDO         
  C:F06EH         LINE#         648
  C:F06EH         LINE#         649
  C:F06EH         LINE#         652
  C:F07AH         LINE#         653
  C:F07AH         LINE#         654
  C:F08CH         LINE#         655
  C:F08CH         LINE#         656
  C:F08FH         LINE#         657
  C:F08FH         LINE#         658
  -------         ENDPROC       ERRORHISTORY_GETCOUNT
  -------         PROC          ERRORHISTORY_GETMAXPAGE
  -------         DO            
  D:0007H         SYMBOL        count
  -------         ENDDO         
  C:F43CH         LINE#         660
  C:F43CH         LINE#         661
  C:F43CH         LINE#         664
  C:F43FH         LINE#         665
  C:F442H         LINE#         666
  C:F444H         LINE#         667
  C:F44BH         LINE#         668
  -------         ENDPROC       ERRORHISTORY_GETMAXPAGE
  -------         PROC          _UPDATEERRORHISTORY
  X:9377H         SYMBOL        NewError
  X:9379H         SYMBOL        ErrorBuffNum
  -------         DO            
  X:8A1DH         SYMBOL        OldError
  X:937AH         SYMBOL        i
  D:0007H         SYMBOL        j
  X:937BH         SYMBOL        k
BL51 BANKED LINKER/LOCATER V6.22.2.0                                                  06/18/2026  09:22:45  PAGE 116


  X:937CH         SYMBOL        time_rec
  -------         ENDDO         
  C:A7ADH         LINE#         670
  C:A7B8H         LINE#         671
  C:A7B8H         LINE#         676
  C:A7D1H         LINE#         677
  C:A7D1H         LINE#         678
  C:A7DAH         LINE#         679
  C:A7EFH         LINE#         680
  C:A7EFH         LINE#         681
  C:A838H         LINE#         682
  C:A838H         LINE#         683
  C:A844H         LINE#         684
  C:A844H         LINE#         685
  C:A856H         LINE#         686
  C:A856H         LINE#         687
  C:A88EH         LINE#         688
  C:A896H         LINE#         689
  C:A899H         LINE#         690
  C:A8ABH         LINE#         691
  C:A8ABH         LINE#         692
  C:A8C4H         LINE#         693
  C:A8CCH         LINE#         694
  C:A8E1H         LINE#         695
  C:A8E1H         LINE#         696
  C:A8EAH         LINE#         697
  C:A904H         LINE#         698
  C:A907H         LINE#         699
  C:A90AH         LINE#         700
  C:A90AH         LINE#         701
  -------         ENDPROC       _UPDATEERRORHISTORY
  -------         PROC          ERRORHISTORYDISPLAY
  -------         DO            
  X:8C33H         SYMBOL        i
  X:8C34H         SYMBOL        j
  D:0003H         SYMBOL        rowIdx
  X:8C35H         SYMBOL        ErrorHistoryDisplay_Temp
  -------         ENDDO         
  C:B90DH         LINE#         702
  C:B90DH         LINE#         703
  C:B90DH         LINE#         706
  C:B920H         LINE#         708
  C:B936H         LINE#         709
  C:B936H         LINE#         710
  C:B942H         LINE#         711
  C:B960H         LINE#         712
  C:B960H         LINE#         713
  C:B96DH         LINE#         714
  C:B980H         LINE#         715
  C:B980H         LINE#         716
  C:B9AEH         LINE#         717
  C:B9B6H         LINE#         718
  C:B9B6H         LINE#         720
  C:B9B6H         LINE#         721
  C:B9C9H         LINE#         722
  C:B9C9H         LINE#         723
  C:B9D9H         LINE#         724
BL51 BANKED LINKER/LOCATER V6.22.2.0                                                  06/18/2026  09:22:45  PAGE 117


  C:B9E1H         LINE#         725
  C:B9E1H         LINE#         726
  C:BA05H         LINE#         727
  C:BA0EH         LINE#         728
  -------         ENDPROC       ERRORHISTORYDISPLAY
  -------         PROC          _ERRORHISTORY_PAGECHANGE
  D:0004H         SYMBOL        keyValue
  -------         DO            
  D:0007H         SYMBOL        maxPage
  -------         ENDDO         
  C:ECC1H         LINE#         729
  C:ECC5H         LINE#         730
  C:ECC5H         LINE#         733
  C:ECC8H         LINE#         734
  C:ECCEH         LINE#         735
  C:ECCEH         LINE#         736
  C:ECDBH         LINE#         737
  C:ECDEH         LINE#         738
  C:ECE0H         LINE#         739
  C:ECE6H         LINE#         740
  C:ECE6H         LINE#         741
  C:ECEEH         LINE#         742
  C:ECF1H         LINE#         743
  C:ECF1H         LINE#         744
  -------         ENDPROC       _ERRORHISTORY_PAGECHANGE
  -------         PROC          ERRORHISTORY_RESETPAGE
  C:F534H         LINE#         746
  C:F534H         LINE#         747
  C:F534H         LINE#         748
  C:F539H         LINE#         749
  -------         ENDPROC       ERRORHISTORY_RESETPAGE
  -------         PROC          CLEARERRORHISTORY
  -------         DO            
  D:0007H         SYMBOL        i
  D:0006H         SYMBOL        j
  -------         ENDDO         
  C:E715H         LINE#         750
  C:E715H         LINE#         751
  C:E715H         LINE#         754
  C:E721H         LINE#         755
  C:E721H         LINE#         756
  C:E72DH         LINE#         757
  C:E72DH         LINE#         758
  C:E748H         LINE#         759
  C:E74BH         LINE#         760
  C:E74EH         LINE#         761
  C:E753H         LINE#         762
  C:E756H         LINE#         763
  -------         ENDPROC       CLEARERRORHISTORY
  -------         PROC          DECODEERRORHISTORY
  -------         DO            
  X:9408H         SYMBOL        i
  D:0006H         SYMBOL        DecodeErrorHistory_Page
  -------         ENDDO         
  C:E214H         LINE#         765
  C:E214H         LINE#         766
  C:E214H         LINE#         770
BL51 BANKED LINKER/LOCATER V6.22.2.0                                                  06/18/2026  09:22:45  PAGE 118


  C:E227H         LINE#         771
  C:E227H         LINE#         772
  C:E23BH         LINE#         773
  C:E243H         LINE#         774
  C:E246H         LINE#         775
  C:E264H         LINE#         776
  C:E264H         LINE#         777
  C:E267H         LINE#         778
  C:E267H         LINE#         779
  -------         ENDPROC       DECODEERRORHISTORY
  -------         PROC          _UWOERRORCODEPROCESS
  D:0007H         SYMBOL        Code
  C:F552H         LINE#         780
  C:F552H         LINE#         781
  C:F552H         LINE#         782
  C:F552H         LINE#         783
  -------         ENDPROC       _UWOERRORCODEPROCESS
  -------         ENDMOD        ERRORHISTORY

  -------         MODULE        UPLOAD
  C:0000H         SYMBOL        _ICE_DUMMY_
  D:00B0H         PUBLIC        P3
  C:D301H         SYMBOL        Upload_PackTimerRoomByte
  C:DBDBH         PUBLIC        upload_timestamp_from_rtc
  D:00F8H         PUBLIC        RAMMODE
  C:B1AAH         SYMBOL        _Upload_UlToStr
  D:00A8H         PUBLIC        IEN0
  D:00B8H         PUBLIC        IEN1
  C:8CF6H         PUBLIC        upload_inside_time_open
  C:7A6CH         PUBLIC        upload_indoor_unit
  C:F527H         PUBLIC        upload_report_force_sync
  C:F4ABH         PUBLIC        upload_all_timers
  C:F4B7H         PUBLIC        upload_report_poll
  X:9192H         SYMBOL        s_upload_pending
  C:DD6FH         SYMBOL        _Upload_ValueIfChanged
  D:0088H         PUBLIC        TCON
  C:F213H         SYMBOL        _Upload_BoolIfChanged
  C:5480H         PUBLIC        upload_report_changed
  C:F2A3H         SYMBOL        _Upload_EnumIfChanged
  C:F0BAH         SYMBOL        _Upload_ClampIndoorTemp
  C:EB7CH         SYMBOL        _?ix1000
  C:EBA0H         SYMBOL        _?ix1001
  C:EBA8H         SYMBOL        _?ix1002
  C:EBAEH         SYMBOL        _?ix1003
  C:EB44H         PUBLIC        upload_electricity_statistics
  C:EBB1H         SYMBOL        _?ix1004
  B:0025H.0       SYMBOL        s_timestamp_boot_done
  C:F259H         SYMBOL        _Upload_ModeToDp101
  C:BEAFH         PUBLIC        upload_external_time_close
  C:F4F7H         PUBLIC        upload_timestamp_boot_once
  D:0098H         PUBLIC        SCON0
  X:9193H         SYMBOL        s_report_force
  X:9194H         SYMBOL        s_report_valid
  D:00C8H         PUBLIC        T2CON
  C:F1D1H         SYMBOL        _Upload_WorkStateToDp
  C:CCFBH         PUBLIC        upload_check_status
  C:9DD3H         PUBLIC        upload_history_faults
BL51 BANKED LINKER/LOCATER V6.22.2.0                                                  06/18/2026  09:22:45  PAGE 119


  C:BDCDH         PUBLIC        upload_inside_time_close
  C:F520H         PUBLIC        upload_request_report
  C:F193H         SYMBOL        _Upload_DgusModeToDp116
  C:8120H         PUBLIC        upload_external_time_open
  D:00D0H         PUBLIC        PSW
  D:00C0H         PUBLIC        IRCON
  -------         PROC          _UPLOAD_ULTOSTR
  X:92A3H         SYMBOL        v
  X:92A7H         SYMBOL        buf
  -------         DO            
  X:92AAH         SYMBOL        rev
  X:92B4H         SYMBOL        n
  X:92B5H         SYMBOL        i
  -------         ENDDO         
  C:B1AAH         LINE#         14
  C:B1BBH         LINE#         15
  C:B1BBH         LINE#         17
  C:B1C0H         LINE#         20
  C:B1D8H         LINE#         21
  C:B1D8H         LINE#         22
  C:B1E8H         LINE#         23
  C:B1FAH         LINE#         24
  C:B1FDH         LINE#         25
  C:B1FDH         LINE#         26
  C:B21EH         LINE#         27
  C:B21EH         LINE#         28
  C:B245H         LINE#         29
  C:B262H         LINE#         30
  C:B264H         LINE#         31
  C:B275H         LINE#         32
  C:B2ABH         LINE#         33
  C:B2C4H         LINE#         34
  C:B2C4H         LINE#         35
  -------         ENDPROC       _UPLOAD_ULTOSTR
  -------         PROC          L?0192
  -------         ENDPROC       L?0192
  -------         PROC          _UPLOAD_CLAMPINDOORTEMP
  D:0006H         SYMBOL        v
  C:F0BAH         LINE#         37
  C:F0BAH         LINE#         38
  C:F0BAH         LINE#         39
  C:F0C3H         LINE#         40
  C:F0C6H         LINE#         41
  C:F0CFH         LINE#         42
  C:F0D2H         LINE#         43
  C:F0D2H         LINE#         44
  -------         ENDPROC       _UPLOAD_CLAMPINDOORTEMP
  -------         PROC          _UPLOAD_DGUSMODETODP116
  D:0006H         SYMBOL        dgus
  C:F193H         LINE#         46
  C:F193H         LINE#         47
  C:F193H         LINE#         48
  C:F1A3H         LINE#         49
  C:F1A3H         LINE#         50
  C:F1A6H         LINE#         51
  C:F1A9H         LINE#         52
  C:F1ACH         LINE#         53
BL51 BANKED LINKER/LOCATER V6.22.2.0                                                  06/18/2026  09:22:45  PAGE 120


  C:F1AFH         LINE#         54
  -------         ENDPROC       _UPLOAD_DGUSMODETODP116
  -------         PROC          UPLOAD_PACKTIMERROOMBYTE
  -------         DO            
  X:8C3EH         SYMBOL        i
  X:8C3FH         SYMBOL        sel
  X:8C41H         SYMBOL        count
  X:8C42H         SYMBOL        single_room
  X:8C43H         SYMBOL        mask
  -------         ENDDO         
  C:D301H         LINE#         59
  C:D301H         LINE#         60
  C:D301H         LINE#         63
  C:D306H         LINE#         64
  C:D308H         LINE#         65
  C:D30AH         LINE#         67
  C:D31CH         LINE#         68
  C:D31CH         LINE#         69
  C:D337H         LINE#         70
  C:D341H         LINE#         71
  C:D341H         LINE#         72
  C:D347H         LINE#         73
  C:D351H         LINE#         74
  C:D364H         LINE#         75
  C:D364H         LINE#         76
  C:D36CH         LINE#         77
  C:D374H         LINE#         78
  C:D378H         LINE#         79
  C:D37DH         LINE#         80
  -------         ENDPROC       UPLOAD_PACKTIMERROOMBYTE
  -------         PROC          UPLOAD_ELECTRICITY_STATISTICS
  -------         DO            
  X:92E9H         SYMBOL        buf
  D:0007H         SYMBOL        i
  X:90DFH         SYMBOL        s_sent
  -------         ENDDO         
  C:EB44H         LINE#         82
  C:EB44H         LINE#         83
  C:EB44H         LINE#         88
  C:EB4AH         LINE#         90
  C:EB4CH         LINE#         91
  C:EB58H         LINE#         92
  C:EB67H         LINE#         93
  C:EB7BH         LINE#         94
  -------         ENDPROC       UPLOAD_ELECTRICITY_STATISTICS
  -------         PROC          UPLOAD_TIMESTAMP_FROM_RTC
  -------         DO            
  X:92F9H         SYMBOL        ts_buf
  X:9305H         SYMBOL        ts_local
  D:0004H         SYMBOL        ts_utc
  -------         ENDDO         
  C:DBDBH         LINE#         96
  C:DBDBH         LINE#         97
  C:DBDBH         LINE#         102
  C:DBE4H         LINE#         103
  C:DBFFH         LINE#         105
  C:DC1BH         LINE#         106
BL51 BANKED LINKER/LOCATER V6.22.2.0                                                  06/18/2026  09:22:45  PAGE 121


  C:DC24H         LINE#         107
  C:DC40H         LINE#         108
  -------         ENDPROC       UPLOAD_TIMESTAMP_FROM_RTC
  -------         PROC          UPLOAD_TIMESTAMP_BOOT_ONCE
  C:F4F7H         LINE#         110
  C:F4F7H         LINE#         111
  C:F4F7H         LINE#         112
  C:F4FAH         LINE#         114
  C:F4FCH         LINE#         115
  C:F4FFH         LINE#         116
  -------         ENDPROC       UPLOAD_TIMESTAMP_BOOT_ONCE
  -------         PROC          UPLOAD_INDOOR_UNIT
  -------         DO            
  X:8C60H         SYMBOL        mode1
  X:8C62H         SYMBOL        i
  X:8C63H         SYMBOL        num
  X:90E0H         SYMBOL        s_shadow
  B:0024H.2       SYMBOL        s_valid
  -------         ENDDO         
  C:7A6CH         LINE#         118
  C:7A6CH         LINE#         119
  C:7A6CH         LINE#         120
  C:7A73H         LINE#         121
  C:7A75H         LINE#         122
  C:7A87H         LINE#         126
  C:7A9DH         LINE#         127
  C:7A9DH         LINE#         128
  C:7AB1H         LINE#         129
  C:7ACCH         LINE#         130
  C:7AE4H         LINE#         131
  C:7B06H         LINE#         132
  C:7B1FH         LINE#         133
  C:7B26H         LINE#         134
  C:7B3BH         LINE#         135
  C:7B56H         LINE#         136
  C:7B61H         LINE#         137
  C:7B6AH         LINE#         138
  C:7B70H         LINE#         139
  C:7B7AH         LINE#         140
  C:7B80H         LINE#         141
  C:7B8AH         LINE#         142
  C:7B90H         LINE#         143
  C:7B9AH         LINE#         144
  C:7BA0H         LINE#         145
  C:7BA6H         LINE#         146
  C:7BBEH         LINE#         147
  C:7BD9H         LINE#         148
  C:7BF1H         LINE#         149
  C:7C0CH         LINE#         150
  C:7C20H         LINE#         151
  C:7C29H         LINE#         152
  C:7C2CH         LINE#         153
  C:7C2CH         LINE#         154
  C:7C41H         LINE#         155
  C:7C41H         LINE#         156
  C:7C5CH         LINE#         157
  C:7C5CH         LINE#         158
BL51 BANKED LINKER/LOCATER V6.22.2.0                                                  06/18/2026  09:22:45  PAGE 122


  C:7C64H         LINE#         159
  C:7C6FH         LINE#         161
  C:7C6FH         LINE#         162
  C:7C81H         LINE#         163
  C:7CA2H         LINE#         164
  C:7CA4H         LINE#         165
  C:7CB8H         LINE#         166
  -------         ENDPROC       UPLOAD_INDOOR_UNIT
  -------         PROC          UPLOAD_INSIDE_TIME_OPEN
  -------         DO            
  X:8C33H         SYMBOL        num
  X:8C3BH         SYMBOL        mode1
  X:8C3DH         SYMBOL        i
  X:9104H         SYMBOL        s_shadow
  B:0024H.3       SYMBOL        s_valid
  -------         ENDDO         
  C:8CF6H         LINE#         168
  C:8CF6H         LINE#         169
  C:8CF6H         LINE#         170
  C:8D09H         LINE#         171
  C:8D10H         LINE#         172
  C:8D12H         LINE#         176
  C:8D2AH         LINE#         177
  C:8D33H         LINE#         178
  C:8D4CH         LINE#         179
  C:8D55H         LINE#         180
  C:8D6EH         LINE#         181
  C:8D77H         LINE#         183
  C:8D8AH         LINE#         184
  C:8D8AH         LINE#         185
  C:8DA5H         LINE#         186
  C:8DAFH         LINE#         187
  C:8DC8H         LINE#         188
  C:8DD0H         LINE#         189
  C:8DE9H         LINE#         190
  C:8DF2H         LINE#         191
  C:8E0BH         LINE#         192
  C:8E1BH         LINE#         193
  C:8E34H         LINE#         194
  C:8E3EH         LINE#         195
  C:8E46H         LINE#         196
  C:8E49H         LINE#         197
  C:8E49H         LINE#         198
  C:8E5EH         LINE#         199
  C:8E5EH         LINE#         200
  C:8E79H         LINE#         201
  C:8E79H         LINE#         202
  C:8E81H         LINE#         203
  C:8E8CH         LINE#         205
  C:8E8CH         LINE#         206
  C:8E9EH         LINE#         207
  C:8EBFH         LINE#         208
  C:8EC1H         LINE#         209
  C:8ED5H         LINE#         210
  -------         ENDPROC       UPLOAD_INSIDE_TIME_OPEN
  -------         PROC          UPLOAD_EXTERNAL_TIME_OPEN
  -------         DO            
BL51 BANKED LINKER/LOCATER V6.22.2.0                                                  06/18/2026  09:22:45  PAGE 123


  X:8C33H         SYMBOL        num
  X:8C39H         SYMBOL        mode1
  X:8C3BH         SYMBOL        i
  X:910CH         SYMBOL        s_shadow
  B:0024H.4       SYMBOL        s_valid
  -------         ENDDO         
  C:8120H         LINE#         212
  C:8120H         LINE#         213
  C:8120H         LINE#         214
  C:8133H         LINE#         215
  C:813AH         LINE#         216
  C:813CH         LINE#         220
  C:8154H         LINE#         221
  C:815DH         LINE#         222
  C:8176H         LINE#         223
  C:817FH         LINE#         224
  C:8198H         LINE#         225
  C:81A1H         LINE#         227
  C:81B5H         LINE#         228
  C:81B5H         LINE#         229
  C:81D0H         LINE#         230
  C:81DCH         LINE#         231
  C:81F6H         LINE#         232
  C:81FEH         LINE#         233
  C:8217H         LINE#         234
  C:8223H         LINE#         235
  C:8229H         LINE#         236
  C:8242H         LINE#         237
  C:824BH         LINE#         238
  C:8264H         LINE#         239
  C:826FH         LINE#         240
  C:8277H         LINE#         241
  C:827DH         LINE#         242
  C:8285H         LINE#         243
  C:828BH         LINE#         244
  C:8290H         LINE#         245
  C:8293H         LINE#         246
  C:8293H         LINE#         247
  C:82A8H         LINE#         248
  C:82A8H         LINE#         249
  C:82C3H         LINE#         250
  C:82C3H         LINE#         251
  C:82CBH         LINE#         252
  C:82D6H         LINE#         254
  C:82D6H         LINE#         255
  C:82E8H         LINE#         256
  C:8309H         LINE#         257
  C:830BH         LINE#         258
  C:831FH         LINE#         259
  -------         ENDPROC       UPLOAD_EXTERNAL_TIME_OPEN
  -------         PROC          UPLOAD_INSIDE_TIME_CLOSE
  -------         DO            
  X:8C33H         SYMBOL        mode1
  X:8C35H         SYMBOL        num
  D:0007H         SYMBOL        i
  X:9112H         SYMBOL        s_shadow
  B:0024H.5       SYMBOL        s_valid
BL51 BANKED LINKER/LOCATER V6.22.2.0                                                  06/18/2026  09:22:45  PAGE 124


  -------         ENDDO         
  C:BDCDH         LINE#         261
  C:BDCDH         LINE#         262
  C:BDCDH         LINE#         263
  C:BDD4H         LINE#         264
  C:BDE6H         LINE#         269
  C:BDFFH         LINE#         270
  C:BE06H         LINE#         271
  C:BE1FH         LINE#         272
  C:BE28H         LINE#         273
  C:BE41H         LINE#         274
  C:BE4AH         LINE#         275
  C:BE71H         LINE#         277
  C:BE7DH         LINE#         278
  C:BE98H         LINE#         279
  C:BE9AH         LINE#         280
  C:BEAEH         LINE#         281
  -------         ENDPROC       UPLOAD_INSIDE_TIME_CLOSE
  -------         PROC          UPLOAD_EXTERNAL_TIME_CLOSE
  -------         DO            
  X:8C33H         SYMBOL        mode1
  X:8C35H         SYMBOL        num
  D:0007H         SYMBOL        i
  X:9115H         SYMBOL        s_shadow
  B:0024H.6       SYMBOL        s_valid
  -------         ENDDO         
  C:BEAFH         LINE#         283
  C:BEAFH         LINE#         284
  C:BEAFH         LINE#         285
  C:BEB6H         LINE#         286
  C:BEC8H         LINE#         291
  C:BEE1H         LINE#         292
  C:BEE8H         LINE#         293
  C:BF01H         LINE#         294
  C:BF0AH         LINE#         295
  C:BF23H         LINE#         296
  C:BF2CH         LINE#         297
  C:BF53H         LINE#         299
  C:BF5FH         LINE#         300
  C:BF7AH         LINE#         301
  C:BF7CH         LINE#         302
  C:BF90H         LINE#         303
  -------         ENDPROC       UPLOAD_EXTERNAL_TIME_CLOSE
  -------         PROC          UPLOAD_CHECK_STATUS
  -------         DO            
  X:91EBH         SYMBOL        buf
  X:9236H         SYMBOL        i
  X:9118H         SYMBOL        s_shadow
  B:0024H.7       SYMBOL        s_valid
  -------         ENDDO         
  C:CCFBH         LINE#         305
  C:CCFBH         LINE#         306
  C:CCFBH         LINE#         312
  C:CD06H         LINE#         313
  C:CD09H         LINE#         314
  C:CD09H         LINE#         315
  C:CD1EH         LINE#         316
BL51 BANKED LINKER/LOCATER V6.22.2.0                                                  06/18/2026  09:22:45  PAGE 125


  C:CD1EH         LINE#         317
  C:CD39H         LINE#         318
  C:CD39H         LINE#         319
  C:CD41H         LINE#         320
  C:CD4CH         LINE#         322
  C:CD4CH         LINE#         323
  C:CD5EH         LINE#         324
  C:CD7FH         LINE#         325
  C:CD81H         LINE#         326
  C:CD95H         LINE#         327
  -------         ENDPROC       UPLOAD_CHECK_STATUS
  -------         PROC          UPLOAD_HISTORY_FAULTS
  -------         DO            
  X:8C48H         SYMBOL        buf
  X:8CC5H         SYMBOL        block
  D:0007H         SYMBOL        rec
  X:8CC6H         SYMBOL        idx
  -------         ENDDO         
  C:9DD3H         LINE#         329
  C:9DD3H         LINE#         330
  C:9DD3H         LINE#         334
  C:9DE8H         LINE#         335
  C:9DE8H         LINE#         336
  C:9DF4H         LINE#         337
  C:9E03H         LINE#         338
  C:9E12H         LINE#         339
  C:9E12H         LINE#         340
  C:9E1DH         LINE#         341
  C:9E40H         LINE#         342
  C:9E40H         LINE#         343
  C:9E55H         LINE#         344
  C:9E76H         LINE#         345
  C:9E9BH         LINE#         346
  C:9EBCH         LINE#         347
  C:9EDDH         LINE#         348
  C:9EE1H         LINE#         349
  C:9EE7H         LINE#         350
  C:9EF9H         LINE#         351
  C:9F01H         LINE#         352
  C:9F13H         LINE#         353
  C:9F24H         LINE#         354
  C:9F2DH         LINE#         356
  C:9F38H         LINE#         357
  C:9F41H         LINE#         358
  -------         ENDPROC       UPLOAD_HISTORY_FAULTS
  -------         PROC          UPLOAD_ALL_TIMERS
  C:F4ABH         LINE#         360
  C:F4ABH         LINE#         361
  C:F4ABH         LINE#         362
  C:F4AEH         LINE#         363
  C:F4B1H         LINE#         364
  C:F4B4H         LINE#         365
  -------         ENDPROC       UPLOAD_ALL_TIMERS
  -------         PROC          UPLOAD_REQUEST_REPORT
  C:F520H         LINE#         372
  C:F520H         LINE#         373
  C:F520H         LINE#         374
BL51 BANKED LINKER/LOCATER V6.22.2.0                                                  06/18/2026  09:22:45  PAGE 126


  C:F526H         LINE#         375
  -------         ENDPROC       UPLOAD_REQUEST_REPORT
  -------         PROC          UPLOAD_REPORT_POLL
  C:F4B7H         LINE#         377
  C:F4B7H         LINE#         378
  C:F4B7H         LINE#         379
  C:F4BDH         LINE#         381
  C:F4BFH         LINE#         382
  C:F4C2H         LINE#         383
  -------         ENDPROC       UPLOAD_REPORT_POLL
  -------         PROC          _UPLOAD_MODETODP101
  D:0007H         SYMBOL        mode
  C:F259H         LINE#         385
  C:F259H         LINE#         386
  C:F259H         LINE#         387
  C:F265H         LINE#         388
  C:F265H         LINE#         389
  C:F268H         LINE#         390
  C:F26BH         LINE#         391
  C:F26EH         LINE#         392
  C:F270H         LINE#         393
  C:F270H         LINE#         394
  -------         ENDPROC       _UPLOAD_MODETODP101
  -------         PROC          _UPLOAD_WORKSTATETODP
  D:0007H         SYMBOL        mode
  C:F1D1H         LINE#         396
  C:F1D1H         LINE#         397
  C:F1D1H         LINE#         398
  C:F1E0H         LINE#         399
  C:F1E0H         LINE#         400
  C:F1E3H         LINE#         401
  C:F1E6H         LINE#         402
  C:F1E9H         LINE#         403
  C:F1ECH         LINE#         404
  -------         ENDPROC       _UPLOAD_WORKSTATETODP
  -------         PROC          L?0190
  -------         ENDPROC       L?0190
  -------         PROC          _UPLOAD_BOOLIFCHANGED
  D:0007H         SYMBOL        dpid
  D:0005H         SYMBOL        val
  D:0001H         SYMBOL        shadow
  C:F213H         LINE#         409
  C:F213H         LINE#         410
  C:F213H         LINE#         411
  C:F21FH         LINE#         413
  C:F223H         LINE#         414
  C:F226H         LINE#         415
  -------         ENDPROC       _UPLOAD_BOOLIFCHANGED
  -------         PROC          L?0191
  -------         ENDPROC       L?0191
  -------         PROC          _UPLOAD_ENUMIFCHANGED
  D:0007H         SYMBOL        dpid
  D:0005H         SYMBOL        val
  D:0001H         SYMBOL        shadow
  C:F2A3H         LINE#         417
  C:F2A3H         LINE#         418
  C:F2A3H         LINE#         419
BL51 BANKED LINKER/LOCATER V6.22.2.0                                                  06/18/2026  09:22:45  PAGE 127


  C:F2AFH         LINE#         421
  C:F2B3H         LINE#         422
  C:F2B6H         LINE#         423
  -------         ENDPROC       _UPLOAD_ENUMIFCHANGED
  -------         PROC          _UPLOAD_VALUEIFCHANGED
  X:939AH         SYMBOL        dpid
  X:939BH         SYMBOL        val
  X:939FH         SYMBOL        shadow
  C:DD6FH         LINE#         425
  C:DD74H         LINE#         426
  C:DD74H         LINE#         427
  C:DD9CH         LINE#         429
  C:DDB6H         LINE#         430
  C:DDD2H         LINE#         431
  -------         ENDPROC       _UPLOAD_VALUEIFCHANGED
  -------         PROC          UPLOAD_REPORT_FORCE_SYNC
  C:F527H         LINE#         433
  C:F527H         LINE#         434
  C:F527H         LINE#         435
  C:F52DH         LINE#         436
  -------         ENDPROC       UPLOAD_REPORT_FORCE_SYNC
  -------         PROC          UPLOAD_REPORT_CHANGED
  -------         DO            
  X:933FH         SYMBOL        update_data
  X:9341H         SYMBOL        unit
  X:9342H         SYMBOL        dp_val
  X:9343H         SYMBOL        force
  X:9344H         SYMBOL        set_temp32
  X:9348H         SYMBOL        ft
  X:9163H         SYMBOL        s_switch
  X:9164H         SYMBOL        s_mode
  X:9165H         SYMBOL        s_lock
  X:9166H         SYMBOL        s_unit
  X:9167H         SYMBOL        s_defrost
  X:9168H         SYMBOL        s_relay
  X:9169H         SYMBOL        s_work
  X:916AH         SYMBOL        s_temp_set
  X:916EH         SYMBOL        s_temp_cur
  X:9172H         SYMBOL        s_temp_top
  X:9176H         SYMBOL        s_effluent
  X:917AH         SYMBOL        s_around
  X:917EH         SYMBOL        s_fault
  X:9182H         SYMBOL        s_evap
  X:9186H         SYMBOL        s_def_freq
  X:918AH         SYMBOL        s_def_out
  X:918EH         SYMBOL        s_def_time
  -------         ENDDO         
  C:5480H         LINE#         438
  C:5480H         LINE#         439
  C:5480H         LINE#         450
  C:5489H         LINE#         451
  C:548EH         LINE#         452
  C:5491H         LINE#         453
  C:5491H         LINE#         454
  C:5494H         LINE#         455
  C:5494H         LINE#         457
  C:54ADH         LINE#         458
BL51 BANKED LINKER/LOCATER V6.22.2.0                                                  06/18/2026  09:22:45  PAGE 128


  C:54B6H         LINE#         460
  C:54CFH         LINE#         461
  C:54DCH         LINE#         462
  C:54E5H         LINE#         464
  C:54FEH         LINE#         465
  C:5507H         LINE#         467
  C:5520H         LINE#         468
  C:5534H         LINE#         469
  C:555BH         LINE#         471
  C:5574H         LINE#         472
  C:557AH         LINE#         473
  C:5583H         LINE#         475
  C:559CH         LINE#         476
  C:55ACH         LINE#         478
  C:55BBH         LINE#         479
  C:55C5H         LINE#         481
  C:55D5H         LINE#         482
  C:55F6H         LINE#         483
  C:561DH         LINE#         485
  C:5635H         LINE#         486
  C:5643H         LINE#         487
  C:564EH         LINE#         489
  C:565DH         LINE#         490
  C:5667H         LINE#         492
  C:5678H         LINE#         493
  C:5699H         LINE#         494
  C:56C0H         LINE#         496
  C:56CFH         LINE#         497
  C:56D9H         LINE#         499
  C:56EAH         LINE#         500
  C:570BH         LINE#         501
  C:5732H         LINE#         503
  C:5741H         LINE#         504
  C:574BH         LINE#         506
  C:575CH         LINE#         507
  C:577DH         LINE#         508
  C:57A4H         LINE#         510
  C:57BDH         LINE#         511
  C:57CDH         LINE#         513
  C:57E6H         LINE#         514
  C:57F5H         LINE#         515
  C:581CH         LINE#         517
  C:582BH         LINE#         518
  C:5835H         LINE#         520
  C:5846H         LINE#         521
  C:5867H         LINE#         522
  C:588EH         LINE#         524
  C:58A7H         LINE#         525
  C:58B6H         LINE#         526
  C:58DDH         LINE#         528
  C:58ECH         LINE#         529
  C:58F6H         LINE#         531
  C:5907H         LINE#         532
  C:5928H         LINE#         533
  C:594FH         LINE#         535
  C:5968H         LINE#         536
  C:5977H         LINE#         537
BL51 BANKED LINKER/LOCATER V6.22.2.0                                                  06/18/2026  09:22:45  PAGE 129


  C:599EH         LINE#         539
  C:59AAH         LINE#         540
  C:59ADH         LINE#         541
  C:59B3H         LINE#         542
  -------         ENDPROC       UPLOAD_REPORT_CHANGED
  -------         ENDMOD        UPLOAD

  -------         MODULE        WIFIPRO
  C:0000H         SYMBOL        _ICE_DUMMY_
  D:0080H         PUBLIC        P0
  C:F53AH         PUBLIC        Wifi_Init
  D:00F8H         PUBLIC        RAMMODE
  D:00A8H         PUBLIC        IEN0
  D:00B8H         PUBLIC        IEN1
  D:0088H         PUBLIC        TCON
  D:0098H         PUBLIC        SCON0
  D:00C8H         PUBLIC        T2CON
  D:00D0H         PUBLIC        PSW
  D:00C0H         PUBLIC        IRCON
  -------         PROC          WIFI_INIT
  C:F53AH         LINE#         12
  C:F53AH         LINE#         13
  C:F53AH         LINE#         14
  C:F53DH         LINE#         15
  -------         ENDPROC       WIFI_INIT
  -------         ENDMOD        WIFIPRO

  -------         MODULE        OTA
  C:0000H         SYMBOL        _ICE_DUMMY_
  D:0080H         PUBLIC        P0
  B:0025H.6       PUBLIC        OTAReloading
  B:0025H.7       PUBLIC        OTAStartReply
  D:00F8H         PUBLIC        RAMMODE
  X:9363H         PUBLIC        OTAStartSendTimes
  D:00A8H         PUBLIC        IEN0
  D:00B8H         PUBLIC        IEN1
  B:0026H.0       PUBLIC        TuyaOTAState
  C:F003H         PUBLIC        OTAinit
  X:9364H         PUBLIC        TuyaOTADisConnectCnt
  C:F173H         PUBLIC        OTARecvPro
  D:0088H         PUBLIC        TCON
  X:9366H         PUBLIC        OTA_ModbusStep
  X:9367H         PUBLIC        OTAModbusRecvDelay
  X:9369H         PUBLIC        OTA_ModbusSendStep
  C:D3FAH         PUBLIC        OTADecodePro
  X:936AH         PUBLIC        OTAModbusRecvIndex
  D:0098H         PUBLIC        SCON0
  X:936CH         PUBLIC        OTAModbusRecvLenth
  X:936DH         PUBLIC        OTA_ModbusRecvStep
  C:F271H         PUBLIC        OTA_ModbusPro
  D:00C8H         PUBLIC        T2CON
  C:6280H         PUBLIC        OTAEncodePro
  B:0026H.1       PUBLIC        OTAReply
  D:00D0H         PUBLIC        PSW
  D:00C0H         PUBLIC        IRCON
  -------         PROC          OTAINIT
  -------         DO            
BL51 BANKED LINKER/LOCATER V6.22.2.0                                                  06/18/2026  09:22:45  PAGE 130


  D:0006H         SYMBOL        i
  -------         ENDDO         
  C:F003H         LINE#         44
  C:F003H         LINE#         45
  C:F003H         LINE#         47
  C:F003H         LINE#         48
  C:F003H         LINE#         49
  C:F011H         LINE#         50
  C:F011H         LINE#         51
  C:F016H         LINE#         52
  C:F01AH         LINE#         53
  C:F01EH         LINE#         54
  C:F020H         LINE#         55
  C:F024H         LINE#         56
  C:F028H         LINE#         57
  -------         ENDPROC       OTAINIT
  -------         PROC          OTA_MODBUSPRO
  C:F271H         LINE#         58
  C:F271H         LINE#         59
  C:F271H         LINE#         60
  C:F27FH         LINE#         61
  C:F27FH         LINE#         62
  C:F27FH         LINE#         63
  C:F282H         LINE#         64
  C:F282H         LINE#         65
  C:F282H         LINE#         66
  C:F285H         LINE#         67
  C:F285H         LINE#         68
  C:F285H         LINE#         69
  C:F288H         LINE#         70
  C:F288H         LINE#         71
  C:F288H         LINE#         72
  -------         ENDPROC       OTA_MODBUSPRO
  -------         PROC          OTAENCODEPRO
  -------         DO            
  X:93E6H         SYMBOL        SendIndex
  X:93E8H         SYMBOL        Crc
  D:0006H         SYMBOL        i
  -------         ENDDO         
  C:6280H         LINE#         73
  C:6280H         LINE#         74
  C:6280H         LINE#         75
  C:628DH         LINE#         76
  C:6296H         LINE#         77
  C:6296H         LINE#         78
  C:62A8H         LINE#         79
  C:62A8H         LINE#         80
  C:62C1H         LINE#         81
  C:62DAH         LINE#         82
  C:62F3H         LINE#         83
  C:6303H         LINE#         84
  C:6303H         LINE#         85
  C:6308H         LINE#         86
  C:630AH         LINE#         87
  C:630DH         LINE#         88
  C:630DH         LINE#         89
  C:6313H         LINE#         90
BL51 BANKED LINKER/LOCATER V6.22.2.0                                                  06/18/2026  09:22:45  PAGE 131


  C:6315H         LINE#         92
  C:6315H         LINE#         93
  C:631EH         LINE#         94
  C:631EH         LINE#         95
  C:6320H         LINE#         96
  C:6326H         LINE#         97
  C:6327H         LINE#         99
  C:6327H         LINE#         100
  C:6337H         LINE#         101
  C:6337H         LINE#         102
  C:6337H         LINE#         103
  C:633DH         LINE#         104
  C:6356H         LINE#         105
  C:636FH         LINE#         106
  C:6388H         LINE#         107
  C:63A1H         LINE#         108
  C:63B9H         LINE#         109
  C:63D1H         LINE#         110
  C:63FCH         LINE#         111
  C:6429H         LINE#         112
  C:6454H         LINE#         113
  C:6474H         LINE#         114
  C:648CH         LINE#         115
  C:64B7H         LINE#         116
  C:64D0H         LINE#         117
  C:64E9H         LINE#         118
  C:64ECH         LINE#         119
  C:64ECH         LINE#         120
  C:6505H         LINE#         121
  C:651EH         LINE#         122
  C:6549H         LINE#         123
  C:6569H         LINE#         124
  C:656CH         LINE#         125
  C:656CH         LINE#         126
  C:6590H         LINE#         127
  C:659DH         LINE#         128
  C:659DH         LINE#         129
  C:659DH         LINE#         130
  C:65BCH         LINE#         131
  C:65DCH         LINE#         132
  C:65F6H         LINE#         133
  C:6607H         LINE#         134
  C:660DH         LINE#         135
  C:660DH         LINE#         136
  C:660DH         LINE#         137
  -------         ENDPROC       OTAENCODEPRO
  -------         PROC          OTARECVPRO
  C:F173H         LINE#         138
  C:F173H         LINE#         139
  C:F173H         LINE#         140
  C:F17FH         LINE#         141
  C:F17FH         LINE#         142
  C:F184H         LINE#         143
  C:F18CH         LINE#         144
  C:F192H         LINE#         145
  C:F192H         LINE#         146
  -------         ENDPROC       OTARECVPRO
BL51 BANKED LINKER/LOCATER V6.22.2.0                                                  06/18/2026  09:22:45  PAGE 132


  -------         PROC          OTADECODEPRO
  -------         DO            
  D:0006H         SYMBOL        Crc
  -------         ENDDO         
  C:D3FAH         LINE#         147
  C:D3FAH         LINE#         148
  C:D3FAH         LINE#         149
  C:D3FCH         LINE#         150
  C:D410H         LINE#         151
  C:D432H         LINE#         152
  C:D432H         LINE#         153
  C:D432H         LINE#         154
  C:D434H         LINE#         156
  C:D434H         LINE#         157
  C:D467H         LINE#         158
  C:D467H         LINE#         159
  C:D469H         LINE#         160
  C:D46BH         LINE#         161
  C:D46BH         LINE#         162
  C:D470H         LINE#         163
  C:D474H         LINE#         164
  -------         ENDPROC       OTADECODEPRO
  -------         ENDMOD        OTA

  -------         MODULE        MCU_API
  C:0000H         SYMBOL        _ICE_DUMMY_
  C:F540H         PUBLIC        mcu_get_reset_wifi_flag
  D:00F8H         PUBLIC        RAMMODE
  D:00A8H         PUBLIC        IEN0
  D:00B8H         PUBLIC        IEN1
  C:F2CEH         PUBLIC        _mcu_set_wifi_mode
  C:DFAFH         PUBLIC        _mcu_dp_raw_update
  C:D818H         PUBLIC        _hex_to_bcd
  C:C733H         PUBLIC        _uart_receive_input
  C:F546H         PUBLIC        mcu_get_wifimode_flag
  C:EF67H         PUBLIC        wifi_protocol_init
  C:E8E2H         PUBLIC        _uart_receive_buff_input
  C:F2E5H         PUBLIC        mcu_get_wifi_work_state
  C:890EH         PUBLIC        wifi_uart_service
  C:AD02H         PUBLIC        _byte_to_int
  C:DE36H         PUBLIC        _int_to_byte
  C:F4E3H         PUBLIC        mcu_start_wifitest
  D:0088H         PUBLIC        TCON
  C:A382H         PUBLIC        _my_memcpy
  C:E0BEH         PUBLIC        _my_memset
  C:F4C3H         PUBLIC        _mcu_get_dp_download_value
  C:F2B7H         PUBLIC        mcu_reset_wifi
  C:E00AH         PUBLIC        _mcu_dp_string_update
  C:A64EH         PUBLIC        _mcu_dp_fault_update
  C:D566H         PUBLIC        _my_strlen
  D:0098H         PUBLIC        SCON0
  C:C88AH         PUBLIC        _mcu_dp_value_update
  C:D6C3H         PUBLIC        _my_strcmp
  D:00C8H         PUBLIC        T2CON
  C:F485H         PUBLIC        _mcu_get_dp_download_bool
  C:D06BH         PUBLIC        _my_strcpy
  C:E759H         PUBLIC        _mcu_dp_bool_update
BL51 BANKED LINKER/LOCATER V6.22.2.0                                                  06/18/2026  09:22:45  PAGE 133


  C:F492H         PUBLIC        _mcu_get_dp_download_enum
  D:00D0H         PUBLIC        PSW
  C:EA19H         PUBLIC        _mcu_dp_enum_update
  D:00C0H         PUBLIC        IRCON
  -------         PROC          _HEX_TO_BCD
  D:0007H         SYMBOL        Value_H
  D:0005H         SYMBOL        Value_L
  -------         DO            
  D:0007H         SYMBOL        bcd_value
  -------         ENDDO         
  C:D818H         LINE#         31
  C:D818H         LINE#         32
  C:D818H         LINE#         35
  C:D824H         LINE#         36
  C:D82AH         LINE#         37
  C:D836H         LINE#         38
  C:D83CH         LINE#         39
  C:D848H         LINE#         40
  C:D84CH         LINE#         42
  C:D84FH         LINE#         44
  C:D853H         LINE#         45
  C:D85FH         LINE#         46
  C:D865H         LINE#         47
  C:D871H         LINE#         48
  C:D873H         LINE#         49
  C:D87FH         LINE#         50
  C:D883H         LINE#         52
  C:D888H         LINE#         54
  C:D888H         LINE#         55
  -------         ENDPROC       _HEX_TO_BCD
  -------         PROC          _MY_STRLEN
  X:8C46H         SYMBOL        str
  -------         DO            
  X:8C49H         SYMBOL        len
  -------         ENDDO         
  C:D566H         LINE#         62
  C:D571H         LINE#         63
  C:D571H         LINE#         64
  C:D579H         LINE#         65
  C:D587H         LINE#         66
  C:D58CH         LINE#         67
  C:D58CH         LINE#         69
  C:D5ABH         LINE#         70
  C:D5CAH         LINE#         71
  C:D5CCH         LINE#         73
  C:D5DAH         LINE#         74
  -------         ENDPROC       _MY_STRLEN
  -------         PROC          _MY_MEMSET
  X:9380H         SYMBOL        src
  D:0005H         SYMBOL        ch
  X:9384H         SYMBOL        count
  -------         DO            
  X:9386H         SYMBOL        tmp
  -------         ENDDO         
  C:E0BEH         LINE#         83
  C:E0C9H         LINE#         84
  C:E0C9H         LINE#         85
BL51 BANKED LINKER/LOCATER V6.22.2.0                                                  06/18/2026  09:22:45  PAGE 134


  C:E0D4H         LINE#         87
  C:E0E2H         LINE#         88
  C:E0E6H         LINE#         89
  C:E0E6H         LINE#         91
  C:E0F4H         LINE#         92
  C:E108H         LINE#         93
  C:E10AH         LINE#         95
  C:E115H         LINE#         96
  -------         ENDPROC       _MY_MEMSET
  -------         PROC          _MY_MEMCPY
  X:8CD4H         SYMBOL        dest
  X:8CD7H         SYMBOL        src
  X:8CDAH         SYMBOL        count
  -------         DO            
  X:8CDCH         SYMBOL        pdest
  X:8CDFH         SYMBOL        psrc
  X:8CE2H         SYMBOL        i
  -------         ENDDO         
  C:A382H         LINE#         105
  C:A38DH         LINE#         106
  C:A38DH         LINE#         107
  C:A398H         LINE#         108
  C:A3ADH         LINE#         111
  C:A3C7H         LINE#         112
  C:A3CEH         LINE#         113
  C:A3CEH         LINE#         115
  C:A42AH         LINE#         116
  C:A44AH         LINE#         117
  C:A470H         LINE#         118
  C:A480H         LINE#         119
  C:A480H         LINE#         120
  C:A49FH         LINE#         121
  C:A4CDH         LINE#         122
  C:A4DDH         LINE#         123
  C:A4DDH         LINE#         125
  C:A4E8H         LINE#         126
  -------         ENDPROC       _MY_MEMCPY
  -------         PROC          _MY_STRCPY
  X:9389H         SYMBOL        dest
  X:938CH         SYMBOL        src
  -------         DO            
  X:938FH         SYMBOL        p
  -------         ENDDO         
  C:D06BH         LINE#         134
  C:D076H         LINE#         135
  C:D076H         LINE#         136
  C:D081H         LINE#         138
  C:D09BH         LINE#         139
  C:D0A2H         LINE#         140
  C:D0A2H         LINE#         143
  C:D0B2H         LINE#         144
  C:D0D8H         LINE#         145
  C:D0DAH         LINE#         146
  C:D0E9H         LINE#         147
  C:D0F4H         LINE#         148
  -------         ENDPROC       _MY_STRCPY
  -------         PROC          _MY_STRCMP
BL51 BANKED LINKER/LOCATER V6.22.2.0                                                  06/18/2026  09:22:45  PAGE 135


  X:93B6H         SYMBOL        s1
  X:93B9H         SYMBOL        s2
  C:D6C3H         LINE#         159
  C:D6CEH         LINE#         160
  C:D6CEH         LINE#         161
  C:D6F2H         LINE#         162
  C:D6FCH         LINE#         163
  C:D706H         LINE#         164
  C:D708H         LINE#         165
  C:D735H         LINE#         166
  -------         ENDPROC       _MY_STRCMP
  -------         PROC          _INT_TO_BYTE
  X:93EAH         SYMBOL        number
  D:0001H         SYMBOL        value
  C:DE36H         LINE#         174
  C:DE3CH         LINE#         175
  C:DE3CH         LINE#         176
  C:DE53H         LINE#         177
  C:DE6DH         LINE#         178
  C:DE87H         LINE#         179
  -------         ENDPROC       _INT_TO_BYTE
  -------         PROC          _BYTE_TO_INT
  X:8C53H         SYMBOL        value
  -------         DO            
  X:8C56H         SYMBOL        nubmer
  -------         ENDDO         
  C:AD02H         LINE#         187
  C:AD0DH         LINE#         188
  C:AD0DH         LINE#         189
  C:AD15H         LINE#         191
  C:AD23H         LINE#         192
  C:AD3CH         LINE#         193
  C:AD7BH         LINE#         194
  C:AD94H         LINE#         195
  C:ADD3H         LINE#         196
  C:ADECH         LINE#         197
  C:AE2BH         LINE#         199
  C:AE39H         LINE#         200
  -------         ENDPROC       _BYTE_TO_INT
  -------         PROC          _MCU_DP_RAW_UPDATE
  D:0005H         SYMBOL        dpid
  X:8CC8H         SYMBOL        value
  X:8CCBH         SYMBOL        len
  -------         DO            
  D:0006H         SYMBOL        send_len
  -------         ENDDO         
  C:DFAFH         LINE#         210
  C:DFBCH         LINE#         211
  C:DFBCH         LINE#         212
  C:DFBFH         LINE#         214
  C:DFC7H         LINE#         215
  C:DFC9H         LINE#         217
  C:DFCCH         LINE#         218
  C:DFD1H         LINE#         220
  C:DFD9H         LINE#         221
  C:DFE1H         LINE#         223
  C:DFFCH         LINE#         225
BL51 BANKED LINKER/LOCATER V6.22.2.0                                                  06/18/2026  09:22:45  PAGE 136


  C:E007H         LINE#         227
  C:E009H         LINE#         228
  -------         ENDPROC       _MCU_DP_RAW_UPDATE
  -------         PROC          _MCU_DP_BOOL_UPDATE
  D:0004H         SYMBOL        dpid
  X:8C4FH         SYMBOL        value
  -------         DO            
  D:0006H         SYMBOL        send_len
  -------         ENDDO         
  C:E759H         LINE#         237
  C:E760H         LINE#         238
  C:E760H         LINE#         239
  C:E763H         LINE#         241
  C:E76BH         LINE#         242
  C:E76DH         LINE#         244
  C:E772H         LINE#         245
  C:E777H         LINE#         247
  C:E77CH         LINE#         248
  C:E781H         LINE#         250
  C:E787H         LINE#         251
  C:E788H         LINE#         252
  C:E78AH         LINE#         253
  C:E78FH         LINE#         254
  C:E78FH         LINE#         256
  C:E79AH         LINE#         258
  C:E79CH         LINE#         259
  -------         ENDPROC       _MCU_DP_BOOL_UPDATE
  -------         PROC          _MCU_DP_VALUE_UPDATE
  D:0005H         SYMBOL        dpid
  X:8C52H         SYMBOL        value
  -------         DO            
  D:0006H         SYMBOL        send_len
  -------         ENDDO         
  C:C88AH         LINE#         268
  C:C88CH         LINE#         269
  C:C88CH         LINE#         270
  C:C88FH         LINE#         272
  C:C897H         LINE#         273
  C:C899H         LINE#         275
  C:C89CH         LINE#         276
  C:C8A1H         LINE#         278
  C:C8A6H         LINE#         279
  C:C8ABH         LINE#         281
  C:C8CBH         LINE#         282
  C:C8EBH         LINE#         283
  C:C90BH         LINE#         284
  C:C923H         LINE#         286
  C:C92EH         LINE#         288
  C:C930H         LINE#         289
  -------         ENDPROC       _MCU_DP_VALUE_UPDATE
  -------         PROC          _MCU_DP_STRING_UPDATE
  D:0005H         SYMBOL        dpid
  X:8C5DH         SYMBOL        value
  X:8C60H         SYMBOL        len
  -------         DO            
  D:0006H         SYMBOL        send_len
  -------         ENDDO         
BL51 BANKED LINKER/LOCATER V6.22.2.0                                                  06/18/2026  09:22:45  PAGE 137


  C:E00AH         LINE#         299
  C:E017H         LINE#         300
  C:E017H         LINE#         301
  C:E01AH         LINE#         303
  C:E022H         LINE#         304
  C:E024H         LINE#         306
  C:E027H         LINE#         307
  C:E02CH         LINE#         309
  C:E034H         LINE#         310
  C:E03CH         LINE#         312
  C:E057H         LINE#         314
  C:E062H         LINE#         316
  C:E064H         LINE#         317
  -------         ENDPROC       _MCU_DP_STRING_UPDATE
  -------         PROC          _MCU_DP_ENUM_UPDATE
  D:0004H         SYMBOL        dpid
  X:8C4FH         SYMBOL        value
  -------         DO            
  D:0006H         SYMBOL        send_len
  -------         ENDDO         
  C:EA19H         LINE#         326
  C:EA20H         LINE#         327
  C:EA20H         LINE#         328
  C:EA23H         LINE#         330
  C:EA2BH         LINE#         331
  C:EA2DH         LINE#         333
  C:EA32H         LINE#         334
  C:EA37H         LINE#         336
  C:EA3CH         LINE#         337
  C:EA41H         LINE#         339
  C:EA49H         LINE#         341
  C:EA54H         LINE#         343
  C:EA56H         LINE#         344
  -------         ENDPROC       _MCU_DP_ENUM_UPDATE
  -------         PROC          _MCU_DP_FAULT_UPDATE
  D:0005H         SYMBOL        dpid
  X:93AAH         SYMBOL        value
  -------         DO            
  X:93AEH         SYMBOL        send_len
  -------         ENDDO         
  C:A64EH         LINE#         353
  C:A650H         LINE#         354
  C:A650H         LINE#         355
  C:A657H         LINE#         357
  C:A65FH         LINE#         358
  C:A662H         LINE#         360
  C:A675H         LINE#         361
  C:A682H         LINE#         363
  C:A68FH         LINE#         365
  C:A6AAH         LINE#         366
  C:A6BFH         LINE#         367
  C:A6C7H         LINE#         368
  C:A6E8H         LINE#         369
  C:A6EFH         LINE#         370
  C:A6EFH         LINE#         371
  C:A6EFH         LINE#         372
  C:A6F1H         LINE#         373
BL51 BANKED LINKER/LOCATER V6.22.2.0                                                  06/18/2026  09:22:45  PAGE 138


  C:A703H         LINE#         374
  C:A72BH         LINE#         375
  C:A753H         LINE#         376
  C:A77BH         LINE#         377
  C:A79BH         LINE#         378
  C:A79BH         LINE#         380
  C:A7AAH         LINE#         382
  C:A7ACH         LINE#         383
  -------         ENDPROC       _MCU_DP_FAULT_UPDATE
  -------         PROC          _MCU_GET_DP_DOWNLOAD_BOOL
  D:0001H         SYMBOL        value
  X:8C4CH         SYMBOL        len
  C:F485H         LINE#         577
  C:F48DH         LINE#         578
  C:F48DH         LINE#         579
  C:F491H         LINE#         580
  -------         ENDPROC       _MCU_GET_DP_DOWNLOAD_BOOL
  -------         PROC          _MCU_GET_DP_DOWNLOAD_ENUM
  D:0001H         SYMBOL        value
  X:8C4AH         SYMBOL        len
  C:F492H         LINE#         589
  C:F49AH         LINE#         590
  C:F49AH         LINE#         591
  C:F49EH         LINE#         592
  -------         ENDPROC       _MCU_GET_DP_DOWNLOAD_ENUM
  -------         PROC          _MCU_GET_DP_DOWNLOAD_VALUE
  D:0001H         SYMBOL        value
  X:8C51H         SYMBOL        len
  C:F4C3H         LINE#         601
  C:F4CBH         LINE#         602
  C:F4CBH         LINE#         603
  -------         ENDPROC       _MCU_GET_DP_DOWNLOAD_VALUE
  -------         PROC          _UART_RECEIVE_INPUT
  X:8DF4H         SYMBOL        value
  C:C733H         LINE#         612
  C:C738H         LINE#         613
  C:C738H         LINE#         616
  C:C75AH         LINE#         618
  C:C7A4H         LINE#         620
  C:C7A4H         LINE#         622
  C:C7B7H         LINE#         623
  C:C7C5H         LINE#         624
  C:C7C5H         LINE#         626
  C:C7DEH         LINE#         627
  C:C7DEH         LINE#         628
  -------         ENDPROC       _UART_RECEIVE_INPUT
  -------         PROC          _UART_RECEIVE_BUFF_INPUT
  X:93D5H         SYMBOL        value
  X:93D8H         SYMBOL        data_len
  -------         DO            
  D:0004H         SYMBOL        i
  -------         ENDDO         
  C:E8E2H         LINE#         637
  C:E8F3H         LINE#         638
  C:E8F3H         LINE#         641
  C:E8F6H         LINE#         642
  C:E903H         LINE#         643
BL51 BANKED LINKER/LOCATER V6.22.2.0                                                  06/18/2026  09:22:45  PAGE 139


  C:E919H         LINE#         644
  C:E920H         LINE#         645
  -------         ENDPROC       _UART_RECEIVE_BUFF_INPUT
  -------         PROC          WIFI_UART_SERVICE
  -------         DO            
  X:93FAH         SYMBOL        rx_in
  X:8C22H         SYMBOL        offset
  X:8C24H         SYMBOL        rx_value_len
  -------         ENDDO         
  C:890EH         LINE#         653
  C:890EH         LINE#         654
  C:890EH         LINE#         657
  C:8915H         LINE#         658
  C:8919H         LINE#         660
  C:8935H         LINE#         661
  C:8950H         LINE#         662
  C:8952H         LINE#         664
  C:8964H         LINE#         667
  C:8985H         LINE#         668
  C:8994H         LINE#         669
  C:89A2H         LINE#         670
  C:89A4H         LINE#         671
  C:89A4H         LINE#         673
  C:89BAH         LINE#         674
  C:89C8H         LINE#         675
  C:89CAH         LINE#         676
  C:89CAH         LINE#         678
  C:89D7H         LINE#         679
  C:89DDH         LINE#         680
  C:89E0H         LINE#         681
  C:89E0H         LINE#         683
  C:89F9H         LINE#         684
  C:8A16H         LINE#         685
  C:8A23H         LINE#         686
  C:8A29H         LINE#         687
  C:8A2BH         LINE#         688
  C:8A2BH         LINE#         690
  C:8A47H         LINE#         691
  C:8A47H         LINE#         692
  C:8A47H         LINE#         695
  C:8A8DH         LINE#         698
  C:8A9BH         LINE#         699
  C:8A9EH         LINE#         700
  C:8A9EH         LINE#         702
  C:8AA1H         LINE#         703
  C:8AB5H         LINE#         704
  C:8AB8H         LINE#         706
  C:8AD1H         LINE#         707
  C:8AD9H         LINE#         708
  C:8B05H         LINE#         709
  C:8B05H         LINE#         710
  -------         ENDPROC       WIFI_UART_SERVICE
  -------         PROC          WIFI_PROTOCOL_INIT
  C:EF67H         LINE#         718
  C:EF67H         LINE#         719
  C:EF67H         LINE#         721
  C:EF75H         LINE#         722
BL51 BANKED LINKER/LOCATER V6.22.2.0                                                  06/18/2026  09:22:45  PAGE 140


  C:EF83H         LINE#         724
  C:EF88H         LINE#         727
  C:EF8EH         LINE#         729
  -------         ENDPROC       WIFI_PROTOCOL_INIT
  -------         PROC          MCU_GET_RESET_WIFI_FLAG
  C:F540H         LINE#         743
  C:F540H         LINE#         744
  C:F540H         LINE#         745
  C:F545H         LINE#         746
  -------         ENDPROC       MCU_GET_RESET_WIFI_FLAG
  -------         PROC          MCU_RESET_WIFI
  C:F2B7H         LINE#         755
  C:F2B7H         LINE#         756
  C:F2B7H         LINE#         757
  C:F2BCH         LINE#         759
  C:F2C5H         LINE#         760
  -------         ENDPROC       MCU_RESET_WIFI
  -------         PROC          MCU_GET_WIFIMODE_FLAG
  C:F546H         LINE#         772
  C:F546H         LINE#         773
  C:F546H         LINE#         774
  C:F54BH         LINE#         775
  -------         ENDPROC       MCU_GET_WIFIMODE_FLAG
  -------         PROC          _MCU_SET_WIFI_MODE
  D:0005H         SYMBOL        mode
  -------         DO            
  D:0007H         SYMBOL        length
  -------         ENDDO         
  C:F2CEH         LINE#         787
  C:F2D0H         LINE#         788
  C:F2D0H         LINE#         789
  C:F2D2H         LINE#         791
  C:F2D6H         LINE#         793
  C:F2DAH         LINE#         795
  -------         ENDPROC       _MCU_SET_WIFI_MODE
  -------         PROC          MCU_GET_WIFI_WORK_STATE
  -------         DO            
  X:93FCH         SYMBOL        s_last
  -------         ENDDO         
  C:F2E5H         LINE#         811
  C:F2E5H         LINE#         812
  C:F2E5H         LINE#         818
  C:F2F6H         LINE#         820
  C:F2FBH         LINE#         821
  -------         ENDPROC       MCU_GET_WIFI_WORK_STATE
  -------         PROC          MCU_START_WIFITEST
  C:F4E3H         LINE#         857
  C:F4E3H         LINE#         858
  C:F4E3H         LINE#         859
  -------         ENDPROC       MCU_START_WIFITEST
  -------         ENDMOD        MCU_API

  -------         MODULE        PROTOCOL
  C:0000H         SYMBOL        _ICE_DUMMY_
  D:0080H         PUBLIC        P0
  D:00B0H         PUBLIC        P3
  C:F3A0H         PUBLIC        _upgrade_package_choose
BL51 BANKED LINKER/LOCATER V6.22.2.0                                                  06/18/2026  09:22:45  PAGE 141


  C:E822H         SYMBOL        _dp_download_temp_unit_convert_handle
  D:00F8H         PUBLIC        RAMMODE
  D:00A8H         PUBLIC        IEN0
  D:00B8H         PUBLIC        IEN1
  C:CBC1H         PUBLIC        _mcu_firm_update_handle
  C:7350H         PUBLIC        _timestamp_to_ymdhms
  X:8F92H         PUBLIC        OTAdataindex
  C:F54FH         PUBLIC        get_download_cmd_total
  C:90B4H         SYMBOL        _dp_download_timestamp_handle
  C:5E37H         PUBLIC        all_data_update
  X:9092H         SYMBOL        mdays
  C:EEEEH         SYMBOL        _mode_map_to_dgus
  C:C9D7H         SYMBOL        _dp_download_temp_set_handle
  C:F4CEH         PUBLIC        _uart_transmit_output
  C:F3EAH         PUBLIC        _file_download_handle
  X:909EH         PUBLIC        SendCnt
  D:0088H         PUBLIC        TCON
  C:C13AH         SYMBOL        _dp_download_external_time_close_handle
  C:EC21H         SYMBOL        _dp_download_defrost_handle
  C:E812H         SYMBOL        _?ix1000
  C:E814H         SYMBOL        _?ix1001
  C:E81AH         SYMBOL        _?ix1002
  C:E81CH         SYMBOL        _?ix1003
  B:0026H.3       PUBLIC        OTADataUpdate
  C:C069H         SYMBOL        _dp_download_inside_time_close_handle
  C:F227H         SYMBOL        _dp117_mode_to_dgus
  C:8ED6H         SYMBOL        _dp_download_external_time_open_handle
  C:EA57H         SYMBOL        _dp_download_child_lock_handle
  C:F500H         PUBLIC        _wifi_test_result
  C:BB0AH         SYMBOL        _dp_download_switch_handle
  X:909FH         PUBLIC        PackageNum
  C:9ADBH         PUBLIC        _dp_download_handle
  D:0098H         PUBLIC        SCON0
  D:00C8H         PUBLIC        T2CON
  C:660EH         SYMBOL        _dp_download_inside_time_open_handle
  C:BF91H         SYMBOL        _dp_download_mode_handle
  C:EB0BH         SYMBOL        _dp_download_relay_status_handle
  C:F090H         SYMBOL        _dp_download_history_fault_empty_handle
  X:90A3H         PUBLIC        download_cmd
  C:EDC0H         SYMBOL        _is_leap_year
  C:70E5H         SYMBOL        _dp_download_indoor_unit_handle
  C:F3B3H         PUBLIC        _file_download_package_choose
  D:00D0H         PUBLIC        PSW
  D:00C0H         PUBLIC        IRCON
  -------         PROC          _UART_TRANSMIT_OUTPUT
  D:0007H         SYMBOL        value
  C:F4CEH         LINE#         136
  C:F4CEH         LINE#         137
  C:F4CEH         LINE#         141
  -------         ENDPROC       _UART_TRANSMIT_OUTPUT
  -------         PROC          ALL_DATA_UPDATE
  -------         DO            
  X:8C39H         SYMBOL        update_data
  D:0007H         SYMBOL        mode
  X:8C3BH         SYMBOL        set_temp32
  X:8C3FH         SYMBOL        set_hotwater_temp32
  X:8C43H         SYMBOL        inflow_temp32
BL51 BANKED LINKER/LOCATER V6.22.2.0                                                  06/18/2026  09:22:45  PAGE 142


  X:8C47H         SYMBOL        error_code
  X:8C4BH         SYMBOL        dataupdate_floattemp
  -------         ENDDO         
  C:5E37H         LINE#         174
  C:5E37H         LINE#         175
  C:5E37H         LINE#         181
  C:5E4AH         LINE#         182
  C:5E4CH         LINE#         183
  C:5E56H         LINE#         184
  C:5E60H         LINE#         185
  C:5E6AH         LINE#         186
  C:5E74H         LINE#         187
  C:5E7EH         LINE#         188
  C:5E97H         LINE#         189
  C:5EA1H         LINE#         190
  C:5EBAH         LINE#         191
  C:5EBEH         LINE#         192
  C:5EC7H         LINE#         193
  C:5EC7H         LINE#         194
  C:5EC7H         LINE#         195
  C:5EC7H         LINE#         196
  C:5EC9H         LINE#         197
  C:5EC9H         LINE#         198
  C:5ECFH         LINE#         199
  C:5ED1H         LINE#         200
  C:5ED1H         LINE#         201
  C:5ED7H         LINE#         202
  C:5ED9H         LINE#         203
  C:5EDEH         LINE#         205
  C:5EDEH         LINE#         206
  C:5EDEH         LINE#         208
  C:5EE8H         LINE#         209
  C:5F01H         LINE#         210
  C:5F0BH         LINE#         211
  C:5F24H         LINE#         212
  C:5F31H         LINE#         213
  C:5F4EH         LINE#         214
  C:5F67H         LINE#         215
  C:5F80H         LINE#         216
  C:5F8AH         LINE#         217
  C:5FA3H         LINE#         218
  C:5FADH         LINE#         219
  C:5FC6H         LINE#         220
  C:5FD3H         LINE#         221
  C:5FF0H         LINE#         222
  C:6009H         LINE#         223
  C:6021H         LINE#         224
  C:6025H         LINE#         225
  C:6035H         LINE#         226
  C:6035H         LINE#         227
  C:6035H         LINE#         228
  C:6035H         LINE#         229
  C:6037H         LINE#         230
  C:6037H         LINE#         231
  C:603DH         LINE#         232
  C:603FH         LINE#         233
  C:603FH         LINE#         234
BL51 BANKED LINKER/LOCATER V6.22.2.0                                                  06/18/2026  09:22:45  PAGE 143


  C:6045H         LINE#         235
  C:6047H         LINE#         236
  C:6047H         LINE#         237
  C:604DH         LINE#         238
  C:604FH         LINE#         239
  C:604FH         LINE#         240
  C:6054H         LINE#         241
  C:6056H         LINE#         242
  C:6056H         LINE#         243
  C:605CH         LINE#         244
  C:605CH         LINE#         245
  C:605CH         LINE#         246
  C:6066H         LINE#         247
  C:607FH         LINE#         248
  C:608CH         LINE#         249
  C:60A9H         LINE#         250
  C:60C2H         LINE#         251
  C:60DBH         LINE#         252
  C:60E8H         LINE#         253
  C:6105H         LINE#         254
  C:611EH         LINE#         255
  C:6137H         LINE#         256
  C:6141H         LINE#         257
  C:615AH         LINE#         258
  C:616EH         LINE#         259
  C:6187H         LINE#         260
  C:6194H         LINE#         261
  C:61B1H         LINE#         262
  C:61CAH         LINE#         263
  C:61E3H         LINE#         264
  C:61F7H         LINE#         265
  C:6210H         LINE#         266
  C:621DH         LINE#         267
  C:623AH         LINE#         268
  C:6253H         LINE#         269
  C:626CH         LINE#         270
  -------         ENDPROC       ALL_DATA_UPDATE
  -------         PROC          _DP_DOWNLOAD_SWITCH_HANDLE
  D:0001H         SYMBOL        value
  D:0004H         SYMBOL        length
  -------         DO            
  D:0007H         SYMBOL        ret
  X:8C47H         SYMBOL        switch_1
  X:8C48H         SYMBOL        control_mode
  X:8C4AH         SYMBOL        external_switch
  -------         ENDDO         
  C:BB0AH         LINE#         288
  C:BB0AH         LINE#         289
  C:BB0AH         LINE#         293
  C:BB11H         LINE#         294
  C:BB19H         LINE#         295
  C:BB1DH         LINE#         296
  C:BB35H         LINE#         297
  C:BB3FH         LINE#         298
  C:BB3FH         LINE#         299
  C:BB46H         LINE#         300
  C:BB5EH         LINE#         301
BL51 BANKED LINKER/LOCATER V6.22.2.0                                                  06/18/2026  09:22:45  PAGE 144


  C:BB5EH         LINE#         302
  C:BB66H         LINE#         303
  C:BB6FH         LINE#         304
  C:BB71H         LINE#         305
  C:BB71H         LINE#         306
  C:BB78H         LINE#         307
  C:BB90H         LINE#         308
  C:BB97H         LINE#         309
  C:BBAFH         LINE#         310
  C:BBAFH         LINE#         311
  C:BBB1H         LINE#         312
  C:BBB4H         LINE#         313
  C:BBCDH         LINE#         314
  C:BBE6H         LINE#         316
  C:BBF0H         LINE#         317
  C:BBF5H         LINE#         318
  C:BBF8H         LINE#         320
  C:BBFAH         LINE#         321
  -------         ENDPROC       _DP_DOWNLOAD_SWITCH_HANDLE
  -------         PROC          _DP_DOWNLOAD_MODE_HANDLE
  D:0001H         SYMBOL        value
  D:0004H         SYMBOL        length
  -------         DO            
  D:0007H         SYMBOL        ret
  X:8C47H         SYMBOL        mode
  X:8C48H         SYMBOL        control_mode
  -------         ENDDO         
  C:BF91H         LINE#         330
  C:BF91H         LINE#         331
  C:BF91H         LINE#         336
  C:BF99H         LINE#         337
  C:BFA9H         LINE#         338
  C:BFA9H         LINE#         339
  C:BFB1H         LINE#         340
  C:BFB2H         LINE#         341
  C:BFB2H         LINE#         342
  C:BFB2H         LINE#         343
  C:BFB4H         LINE#         345
  C:BFB4H         LINE#         346
  C:BFBDH         LINE#         347
  C:BFBFH         LINE#         348
  C:BFBFH         LINE#         349
  C:BFBFH         LINE#         350
  C:BFC1H         LINE#         352
  C:BFC1H         LINE#         353
  C:BFCAH         LINE#         354
  C:BFE3H         LINE#         355
  C:BFEBH         LINE#         356
  C:BFFCH         LINE#         357
  C:BFFEH         LINE#         359
  C:BFFEH         LINE#         360
  C:C005H         LINE#         361
  C:C01DH         LINE#         362
  C:C036H         LINE#         363
  C:C036H         LINE#         365
  C:C036H         LINE#         367
  C:C036H         LINE#         368
BL51 BANKED LINKER/LOCATER V6.22.2.0                                                  06/18/2026  09:22:45  PAGE 145


  C:C036H         LINE#         369
  C:C038H         LINE#         370
  C:C03BH         LINE#         371
  C:C054H         LINE#         374
  C:C05EH         LINE#         375
  C:C063H         LINE#         376
  C:C066H         LINE#         378
  C:C068H         LINE#         379
  -------         ENDPROC       _DP_DOWNLOAD_MODE_HANDLE
  -------         PROC          _DP_DOWNLOAD_CHILD_LOCK_HANDLE
  D:0001H         SYMBOL        value
  D:0004H         SYMBOL        length
  -------         DO            
  D:0007H         SYMBOL        ret
  X:8C47H         SYMBOL        child_lock
  -------         ENDDO         
  C:EA57H         LINE#         388
  C:EA57H         LINE#         389
  C:EA57H         LINE#         395
  C:EA5FH         LINE#         396
  C:EA62H         LINE#         398
  C:EA62H         LINE#         399
  C:EA67H         LINE#         401
  C:EA67H         LINE#         403
  C:EA80H         LINE#         405
  C:EA8AH         LINE#         406
  C:EA8FH         LINE#         407
  C:EA92H         LINE#         409
  C:EA94H         LINE#         410
  -------         ENDPROC       _DP_DOWNLOAD_CHILD_LOCK_HANDLE
  -------         PROC          _DP_DOWNLOAD_TEMP_SET_HANDLE
  D:0001H         SYMBOL        value
  D:0004H         SYMBOL        length
  -------         DO            
  D:0007H         SYMBOL        ret
  X:8C47H         SYMBOL        temp_set
  X:8C4BH         SYMBOL        temp_set1
  X:8C4FH         SYMBOL        unit
  -------         ENDDO         
  C:C9D7H         LINE#         419
  C:C9D7H         LINE#         420
  C:C9D7H         LINE#         425
  C:C9E0H         LINE#         430
  C:C9F9H         LINE#         431
  C:CA12H         LINE#         432
  C:CA2BH         LINE#         433
  C:CA46H         LINE#         434
  C:CA53H         LINE#         435
  C:CA55H         LINE#         436
  C:CA58H         LINE#         438
  C:CA71H         LINE#         439
  C:CA76H         LINE#         440
  C:CA79H         LINE#         442
  C:CA7BH         LINE#         443
  -------         ENDPROC       _DP_DOWNLOAD_TEMP_SET_HANDLE
  -------         PROC          _DP_DOWNLOAD_TEMP_UNIT_CONVERT_HANDLE
  D:0001H         SYMBOL        value
BL51 BANKED LINKER/LOCATER V6.22.2.0                                                  06/18/2026  09:22:45  PAGE 146


  D:0004H         SYMBOL        length
  -------         DO            
  D:0007H         SYMBOL        ret
  X:8C47H         SYMBOL        temp_unit_convert
  -------         ENDDO         
  C:E822H         LINE#         452
  C:E822H         LINE#         453
  C:E822H         LINE#         458
  C:E82AH         LINE#         459
  C:E82AH         LINE#         460
  C:E82AH         LINE#         461
  C:E82AH         LINE#         463
  C:E82AH         LINE#         464
  C:E82AH         LINE#         466
  C:E82AH         LINE#         468
  C:E82AH         LINE#         469
  C:E82AH         LINE#         470
  C:E843H         LINE#         471
  C:E846H         LINE#         472
  C:E84BH         LINE#         473
  C:E84EH         LINE#         475
  C:E858H         LINE#         476
  C:E85DH         LINE#         477
  C:E860H         LINE#         479
  C:E862H         LINE#         480
  -------         ENDPROC       _DP_DOWNLOAD_TEMP_UNIT_CONVERT_HANDLE
  -------         PROC          _DP_DOWNLOAD_DEFROST_HANDLE
  D:0001H         SYMBOL        value
  D:0004H         SYMBOL        length
  -------         DO            
  D:0007H         SYMBOL        ret
  X:8C47H         SYMBOL        defrost
  -------         ENDDO         
  C:EC21H         LINE#         489
  C:EC21H         LINE#         490
  C:EC21H         LINE#         496
  C:EC29H         LINE#         497
  C:EC42H         LINE#         499
  C:EC4CH         LINE#         500
  C:EC51H         LINE#         501
  C:EC54H         LINE#         503
  C:EC56H         LINE#         504
  -------         ENDPROC       _DP_DOWNLOAD_DEFROST_HANDLE
  -------         PROC          _DP_DOWNLOAD_RELAY_STATUS_HANDLE
  D:0001H         SYMBOL        value
  D:0004H         SYMBOL        length
  -------         DO            
  D:0007H         SYMBOL        ret
  X:8C47H         SYMBOL        relay_status
  -------         ENDDO         
  C:EB0BH         LINE#         513
  C:EB0BH         LINE#         514
  C:EB0BH         LINE#         519
  C:EB13H         LINE#         520
  C:EB13H         LINE#         521
  C:EB13H         LINE#         522
  C:EB13H         LINE#         524
BL51 BANKED LINKER/LOCATER V6.22.2.0                                                  06/18/2026  09:22:45  PAGE 147


  C:EB13H         LINE#         525
  C:EB13H         LINE#         527
  C:EB13H         LINE#         529
  C:EB13H         LINE#         530
  C:EB13H         LINE#         531
  C:EB2CH         LINE#         532
  C:EB2FH         LINE#         534
  C:EB39H         LINE#         535
  C:EB3EH         LINE#         536
  C:EB41H         LINE#         538
  C:EB43H         LINE#         539
  -------         ENDPROC       _DP_DOWNLOAD_RELAY_STATUS_HANDLE
  -------         PROC          L?0205
  -------         ENDPROC       L?0205
  -------         PROC          _IS_LEAP_YEAR
  D:0002H         SYMBOL        year
  C:EDC0H         LINE#         557
  C:EDC4H         LINE#         558
  C:EDC4H         LINE#         559
  C:EDE7H         LINE#         561
  -------         ENDPROC       _IS_LEAP_YEAR
  -------         PROC          _TIMESTAMP_TO_YMDHMS
  D:0004H         SYMBOL        timestamp
  X:8C5CH         SYMBOL        dt
  -------         DO            
  X:8C5FH         SYMBOL        sec
  X:8C63H         SYMBOL        days
  X:8C67H         SYMBOL        rem
  X:8C6BH         SYMBOL        m
  X:8C6CH         SYMBOL        leap
  X:8C6DH         SYMBOL        full_year
  -------         DO            
  X:8C6FH         SYMBOL        ydays
  X:8C6FH         SYMBOL        dim
  -------         ENDDO         
  -------         DO            
  X:8C6FH         SYMBOL        dim
  -------         ENDDO         
  -------         ENDDO         
  C:7350H         LINE#         568
  C:735BH         LINE#         569
  C:735BH         LINE#         570
  C:735FH         LINE#         576
  C:737EH         LINE#         577
  C:739BH         LINE#         578
  C:73C2H         LINE#         581
  C:73ECH         LINE#         582
  C:7427H         LINE#         583
  C:7452H         LINE#         586
  C:745CH         LINE#         587
  C:745CH         LINE#         588
  C:7472H         LINE#         589
  C:7489H         LINE#         590
  C:7489H         LINE#         591
  C:74BDH         LINE#         592
  C:74CBH         LINE#         593
  C:74CDH         LINE#         595
BL51 BANKED LINKER/LOCATER V6.22.2.0                                                  06/18/2026  09:22:45  PAGE 148


  C:74E4H         LINE#         597
  C:74ECH         LINE#         598
  C:74FEH         LINE#         600
  C:7514H         LINE#         601
  C:7523H         LINE#         602
  C:752EH         LINE#         603
  C:7534H         LINE#         605
  C:7551H         LINE#         606
  C:7551H         LINE#         608
  C:757DH         LINE#         609
  C:7590H         LINE#         610
  C:7599H         LINE#         612
  C:75ACH         LINE#         613
  -------         ENDPROC       _TIMESTAMP_TO_YMDHMS
  -------         PROC          _DP_DOWNLOAD_TIMESTAMP_HANDLE
  X:8C47H         SYMBOL        value
  X:8C4AH         SYMBOL        length
  -------         DO            
  D:0007H         SYMBOL        ret
  X:8C4CH         SYMBOL        RTCC2W_write
  X:8C52H         SYMBOL        rtc_parm
  X:8C54H         SYMBOL        dt
  D:0004H         SYMBOL        ts
  X:8C5AH         SYMBOL        year
  -------         ENDDO         
  C:90B4H         LINE#         616
  C:90C5H         LINE#         617
  C:90C5H         LINE#         620
  C:90D8H         LINE#         621
  C:90EBH         LINE#         622
  C:90FEH         LINE#         625
  C:9119H         LINE#         626
  C:9127H         LINE#         628
  C:9130H         LINE#         629
  C:918BH         LINE#         630
  C:919DH         LINE#         631
  C:91C8H         LINE#         632
  C:91F7H         LINE#         634
  C:9209H         LINE#         635
  C:921BH         LINE#         636
  C:9226H         LINE#         637
  C:923FH         LINE#         639
  C:9245H         LINE#         640
  C:9249H         LINE#         641
  C:9262H         LINE#         644
  C:927FH         LINE#         645
  C:9284H         LINE#         646
  C:9287H         LINE#         648
  C:9289H         LINE#         649
  -------         ENDPROC       _DP_DOWNLOAD_TIMESTAMP_HANDLE
  -------         PROC          _MODE_MAP_TO_DGUS
  D:0007H         SYMBOL        cloud_mode
  C:EEEEH         LINE#         658
  C:EEEEH         LINE#         659
  C:EEEEH         LINE#         660
  C:EEFFH         LINE#         661
  C:EF04H         LINE#         662
BL51 BANKED LINKER/LOCATER V6.22.2.0                                                  06/18/2026  09:22:45  PAGE 149


  C:EF08H         LINE#         663
  C:EF0DH         LINE#         664
  C:EF12H         LINE#         665
  C:EF12H         LINE#         666
  C:EF16H         LINE#         667
  C:EF16H         LINE#         668
  -------         ENDPROC       _MODE_MAP_TO_DGUS
  -------         PROC          _DP_DOWNLOAD_INDOOR_UNIT_HANDLE
  X:8C47H         SYMBOL        value
  X:8C4AH         SYMBOL        length
  -------         DO            
  X:8C4CH         SYMBOL        offset
  X:8C4DH         SYMBOL        idx
  X:8C4EH         SYMBOL        unit_cnt
  D:0004H         SYMBOL        unit_id
  X:8C4FH         SYMBOL        power
  X:8C51H         SYMBOL        set_temp
  X:8C53H         SYMBOL        mode
  X:8C55H         SYMBOL        dgus_mode
  X:8C57H         SYMBOL        fan_speed
  X:8C59H         SYMBOL        room_temp
  C:7336H         SYMBOL        next
  -------         DO            
  X:8C5BH         SYMBOL        p
  -------         DO            
  X:8C5EH         SYMBOL        set_f
  X:8C5EH         SYMBOL        room_f
  -------         ENDDO         
  -------         DO            
  X:8C5EH         SYMBOL        room_f
  -------         ENDDO         
  -------         ENDDO         
  -------         ENDDO         
  C:70E5H         LINE#         669
  C:70F6H         LINE#         670
  C:70F6H         LINE#         671
  C:70F9H         LINE#         673
  C:70FDH         LINE#         681
  C:7117H         LINE#         682
  C:7117H         LINE#         683
  C:713AH         LINE#         685
  C:7140H         LINE#         686
  C:714FH         LINE#         687
  C:715EH         LINE#         688
  C:716DH         LINE#         689
  C:717CH         LINE#         690
  C:718BH         LINE#         692
  C:71A3H         LINE#         693
  C:71B4H         LINE#         694
  C:71D3H         LINE#         695
  C:71E4H         LINE#         696
  C:71F5H         LINE#         698
  C:7204H         LINE#         699
  C:720DH         LINE#         700
  C:7211H         LINE#         702
  C:722BH         LINE#         703
  C:7249H         LINE#         704
BL51 BANKED LINKER/LOCATER V6.22.2.0                                                  06/18/2026  09:22:45  PAGE 150


  C:7249H         LINE#         705
  C:725EH         LINE#         706
  C:727CH         LINE#         707
  C:727CH         LINE#         708
  C:729AH         LINE#         709
  C:72B8H         LINE#         710
  C:72DBH         LINE#         711
  C:72DBH         LINE#         712
  C:72F0H         LINE#         713
  C:7313H         LINE#         714
  C:7313H         LINE#         715
  C:7336H         LINE#         717
  C:7336H         LINE#         718
  C:733DH         LINE#         719
  C:7340H         LINE#         721
  C:7343H         LINE#         722
  C:734AH         LINE#         723
  C:734DH         LINE#         724
  C:734FH         LINE#         725
  -------         ENDPROC       _DP_DOWNLOAD_INDOOR_UNIT_HANDLE
  -------         PROC          _DP_DOWNLOAD_HISTORY_FAULT_EMPTY_HANDLE
  D:0001H         SYMBOL        value
  D:0004H         SYMBOL        length
  -------         DO            
  D:0007H         SYMBOL        ret
  X:8C47H         SYMBOL        history_fault_empty
  -------         ENDDO         
  C:F090H         LINE#         734
  C:F090H         LINE#         735
  C:F090H         LINE#         741
  C:F098H         LINE#         742
  C:F09AH         LINE#         744
  C:F09AH         LINE#         745
  C:F09DH         LINE#         747
  C:F09DH         LINE#         750
  C:F0A7H         LINE#         751
  C:F0ACH         LINE#         752
  C:F0AFH         LINE#         754
  C:F0B1H         LINE#         755
  -------         ENDPROC       _DP_DOWNLOAD_HISTORY_FAULT_EMPTY_HANDLE
  -------         PROC          _DP_DOWNLOAD_INSIDE_TIME_OPEN_HANDLE
  X:8C47H         SYMBOL        value
  X:8C4AH         SYMBOL        length
  -------         DO            
  D:0007H         SYMBOL        ret
  X:8C4CH         SYMBOL        i
  X:8C4DH         SYMBOL        week_mask
  X:8C4EH         SYMBOL        switch1
  X:8C50H         SYMBOL        hour
  X:8C52H         SYMBOL        minute
  X:8C54H         SYMBOL        week
  X:8C56H         SYMBOL        temp
  D:0006H         SYMBOL        temp_mode
  X:8C58H         SYMBOL        dgus_mode
  X:8C5AH         SYMBOL        fan_speed
  X:8C5CH         SYMBOL        room
  X:8C5EH         SYMBOL        set_val
BL51 BANKED LINKER/LOCATER V6.22.2.0                                                  06/18/2026  09:22:45  PAGE 151


  X:8C60H         SYMBOL        room1
  X:8C62H         SYMBOL        p
  -------         DO            
  X:8C65H         SYMBOL        temp_f
  -------         ENDDO         
  -------         ENDDO         
  C:660EH         LINE#         764
  C:661FH         LINE#         765
  C:661FH         LINE#         771
  C:662AH         LINE#         773
  C:6630H         LINE#         774
  C:6633H         LINE#         775
  C:6633H         LINE#         776
  C:664AH         LINE#         779
  C:6663H         LINE#         782
  C:667DH         LINE#         783
  C:6696H         LINE#         786
  C:66B0H         LINE#         787
  C:66C9H         LINE#         791
  C:66CEH         LINE#         792
  C:66E8H         LINE#         795
  C:66FBH         LINE#         797
  C:6711H         LINE#         798
  C:6719H         LINE#         799
  C:6737H         LINE#         800
  C:6737H         LINE#         801
  C:673FH         LINE#         804
  C:6759H         LINE#         805
  C:6772H         LINE#         806
  C:6772H         LINE#         807
  C:6787H         LINE#         808
  C:67A0H         LINE#         809
  C:67A0H         LINE#         812
  C:67B4H         LINE#         813
  C:67C7H         LINE#         814
  C:67C9H         LINE#         815
  C:67D2H         LINE#         816
  C:67DDH         LINE#         817
  C:67E7H         LINE#         818
  C:67F2H         LINE#         819
  C:67FBH         LINE#         820
  C:67FBH         LINE#         821
  C:6814H         LINE#         824
  C:682EH         LINE#         825
  C:6847H         LINE#         828
  C:6861H         LINE#         829
  C:6874H         LINE#         830
  C:6891H         LINE#         831
  C:6899H         LINE#         832
  C:68B7H         LINE#         833
  C:68B7H         LINE#         834
  C:68BFH         LINE#         837
  C:68C6H         LINE#         838
  C:68C9H         LINE#         841
  C:68E6H         LINE#         842
  C:68EBH         LINE#         843
  C:68EEH         LINE#         845
BL51 BANKED LINKER/LOCATER V6.22.2.0                                                  06/18/2026  09:22:45  PAGE 152


  C:68F0H         LINE#         846
  -------         ENDPROC       _DP_DOWNLOAD_INSIDE_TIME_OPEN_HANDLE
  -------         PROC          _DP117_MODE_TO_DGUS
  D:0007H         SYMBOL        dp_mode
  C:F227H         LINE#         855
  C:F227H         LINE#         856
  C:F227H         LINE#         857
  C:F233H         LINE#         858
  C:F233H         LINE#         859
  C:F238H         LINE#         860
  C:F238H         LINE#         861
  C:F23DH         LINE#         862
  C:F240H         LINE#         863
  C:F240H         LINE#         864
  -------         ENDPROC       _DP117_MODE_TO_DGUS
  -------         PROC          _DP_DOWNLOAD_EXTERNAL_TIME_OPEN_HANDLE
  X:8C47H         SYMBOL        value
  X:8C4AH         SYMBOL        length
  -------         DO            
  D:0007H         SYMBOL        ret
  X:8C4CH         SYMBOL        i
  X:8C4DH         SYMBOL        p
  X:8C50H         SYMBOL        switch1
  X:8C52H         SYMBOL        hour
  X:8C54H         SYMBOL        min
  D:0006H         SYMBOL        mode
  X:8C56H         SYMBOL        week
  X:8C58H         SYMBOL        temp
  X:8C5AH         SYMBOL        set_val
  X:8C5CH         SYMBOL        dgus_mode
  -------         DO            
  X:8C5EH         SYMBOL        temp_f
  -------         ENDDO         
  -------         ENDDO         
  C:8ED6H         LINE#         866
  C:8EE9H         LINE#         867
  C:8EE9H         LINE#         871
  C:8EF4H         LINE#         874
  C:8F00H         LINE#         875
  C:8F19H         LINE#         878
  C:8F33H         LINE#         879
  C:8F4CH         LINE#         882
  C:8F66H         LINE#         883
  C:8F7FH         LINE#         888
  C:8F99H         LINE#         889
  C:8FACH         LINE#         891
  C:8FC2H         LINE#         892
  C:8FCAH         LINE#         893
  C:8FE8H         LINE#         894
  C:8FE8H         LINE#         895
  C:8FF0H         LINE#         898
  C:900AH         LINE#         899
  C:9023H         LINE#         900
  C:9023H         LINE#         901
  C:9038H         LINE#         902
  C:9051H         LINE#         903
  C:9051H         LINE#         905
BL51 BANKED LINKER/LOCATER V6.22.2.0                                                  06/18/2026  09:22:45  PAGE 153


  C:9065H         LINE#         906
  C:9070H         LINE#         907
  C:9089H         LINE#         908
  C:908CH         LINE#         911
  C:90A9H         LINE#         912
  C:90AEH         LINE#         913
  C:90B1H         LINE#         915
  C:90B3H         LINE#         916
  -------         ENDPROC       _DP_DOWNLOAD_EXTERNAL_TIME_OPEN_HANDLE
  -------         PROC          _DP_DOWNLOAD_INSIDE_TIME_CLOSE_HANDLE
  X:8C47H         SYMBOL        value
  X:8C4AH         SYMBOL        length
  -------         DO            
  D:0007H         SYMBOL        ret
  X:8C4CH         SYMBOL        p
  X:8C4FH         SYMBOL        switch1
  X:8C51H         SYMBOL        hour
  X:8C53H         SYMBOL        min
  -------         ENDDO         
  C:C069H         LINE#         925
  C:C07CH         LINE#         926
  C:C07CH         LINE#         929
  C:C087H         LINE#         933
  C:C093H         LINE#         934
  C:C0ACH         LINE#         937
  C:C0C6H         LINE#         938
  C:C0DFH         LINE#         941
  C:C0F9H         LINE#         942
  C:C112H         LINE#         944
  C:C12FH         LINE#         945
  C:C134H         LINE#         946
  C:C137H         LINE#         948
  C:C139H         LINE#         949
  -------         ENDPROC       _DP_DOWNLOAD_INSIDE_TIME_CLOSE_HANDLE
  -------         PROC          _DP_DOWNLOAD_EXTERNAL_TIME_CLOSE_HANDLE
  X:8C47H         SYMBOL        value
  X:8C4AH         SYMBOL        length
  -------         DO            
  D:0007H         SYMBOL        ret
  X:8C4CH         SYMBOL        p
  X:8C4FH         SYMBOL        switch1
  X:8C51H         SYMBOL        hour
  X:8C53H         SYMBOL        min
  -------         ENDDO         
  C:C13AH         LINE#         958
  C:C14DH         LINE#         959
  C:C14DH         LINE#         962
  C:C158H         LINE#         965
  C:C164H         LINE#         966
  C:C17DH         LINE#         969
  C:C197H         LINE#         970
  C:C1B0H         LINE#         973
  C:C1CAH         LINE#         974
  C:C1E3H         LINE#         977
  C:C200H         LINE#         978
  C:C205H         LINE#         979
  C:C208H         LINE#         981
BL51 BANKED LINKER/LOCATER V6.22.2.0                                                  06/18/2026  09:22:45  PAGE 154


  C:C20AH         LINE#         982
  -------         ENDPROC       _DP_DOWNLOAD_EXTERNAL_TIME_CLOSE_HANDLE
  -------         PROC          _DP_DOWNLOAD_HANDLE
  D:0007H         SYMBOL        dpid
  X:8C41H         SYMBOL        value
  X:8C44H         SYMBOL        length
  -------         DO            
  X:8C46H         SYMBOL        ret
  -------         ENDDO         
  C:9ADBH         LINE#         1001
  C:9AE6H         LINE#         1002
  C:9AE6H         LINE#         1009
  C:9B18H         LINE#         1010
  C:9B18H         LINE#         1012
  C:9B2CH         LINE#         1013
  C:9B2FH         LINE#         1014
  C:9B2FH         LINE#         1016
  C:9B43H         LINE#         1017
  C:9B46H         LINE#         1018
  C:9B46H         LINE#         1020
  C:9B5AH         LINE#         1021
  C:9B5DH         LINE#         1022
  C:9B5DH         LINE#         1024
  C:9B71H         LINE#         1025
  C:9B74H         LINE#         1026
  C:9B74H         LINE#         1028
  C:9B88H         LINE#         1029
  C:9B8BH         LINE#         1030
  C:9B8BH         LINE#         1032
  C:9B9FH         LINE#         1033
  C:9BA2H         LINE#         1034
  C:9BA2H         LINE#         1036
  C:9BB6H         LINE#         1037
  C:9BB9H         LINE#         1038
  C:9BB9H         LINE#         1040
  C:9BCDH         LINE#         1041
  C:9BD0H         LINE#         1042
  C:9BD0H         LINE#         1044
  C:9BE4H         LINE#         1045
  C:9BE6H         LINE#         1046
  C:9BE6H         LINE#         1048
  C:9BFAH         LINE#         1049
  C:9BFCH         LINE#         1050
  C:9BFCH         LINE#         1052
  C:9C10H         LINE#         1053
  C:9C12H         LINE#         1054
  C:9C12H         LINE#         1056
  C:9C26H         LINE#         1057
  C:9C28H         LINE#         1058
  C:9C28H         LINE#         1060
  C:9C3CH         LINE#         1061
  C:9C3EH         LINE#         1062
  C:9C3EH         LINE#         1064
  C:9C57H         LINE#         1065
  C:9C57H         LINE#         1068
  C:9C57H         LINE#         1069
  C:9C57H         LINE#         1070
BL51 BANKED LINKER/LOCATER V6.22.2.0                                                  06/18/2026  09:22:45  PAGE 155


  C:9C57H         LINE#         1071
  C:9C5CH         LINE#         1072
  -------         ENDPROC       _DP_DOWNLOAD_HANDLE
  -------         PROC          GET_DOWNLOAD_CMD_TOTAL
  C:F54FH         LINE#         1080
  C:F54FH         LINE#         1081
  C:F54FH         LINE#         1082
  C:F551H         LINE#         1083
  -------         ENDPROC       GET_DOWNLOAD_CMD_TOTAL
  -------         PROC          _UPGRADE_PACKAGE_CHOOSE
  D:0005H         SYMBOL        package_sz
  -------         DO            
  D:0006H         SYMBOL        send_len
  -------         ENDDO         
  C:F3A0H         LINE#         1101
  C:F3A2H         LINE#         1102
  C:F3A2H         LINE#         1104
  C:F3A5H         LINE#         1105
  C:F3A8H         LINE#         1106
  -------         ENDPROC       _UPGRADE_PACKAGE_CHOOSE
  -------         PROC          _MCU_FIRM_UPDATE_HANDLE
  X:8C39H         SYMBOL        value
  X:8C3CH         SYMBOL        position
  X:8C40H         SYMBOL        length
  -------         DO            
  D:0006H         SYMBOL        i
  X:8F8EH         SYMBOL        Oldposittion
  -------         ENDDO         
  C:CBC1H         LINE#         1120
  C:CBD0H         LINE#         1121
  C:CBD0H         LINE#         1125
  C:CBDDH         LINE#         1128
  C:CBDDH         LINE#         1130
  C:CBF6H         LINE#         1131
  C:CBF9H         LINE#         1132
  C:CBF9H         LINE#         1133
  C:CC18H         LINE#         1134
  C:CC25H         LINE#         1135
  C:CC47H         LINE#         1136
  C:CC47H         LINE#         1137
  C:CC5BH         LINE#         1138
  C:CC5DH         LINE#         1139
  C:CC5DH         LINE#         1140
  C:CC5DH         LINE#         1142
  C:CC5FH         LINE#         1143
  -------         ENDPROC       _MCU_FIRM_UPDATE_HANDLE
  -------         PROC          _WIFI_TEST_RESULT
  X:8C39H         SYMBOL        result
  X:8C3AH         SYMBOL        rssi
  C:F500H         LINE#         1213
  C:F508H         LINE#         1214
  C:F508H         LINE#         1216
  C:F508H         LINE#         1218
  C:F508H         LINE#         1220
  C:F508H         LINE#         1222
  C:F508H         LINE#         1223
  C:F508H         LINE#         1226
BL51 BANKED LINKER/LOCATER V6.22.2.0                                                  06/18/2026  09:22:45  PAGE 156


  C:F508H         LINE#         1227
  -------         ENDPROC       _WIFI_TEST_RESULT
  -------         PROC          _FILE_DOWNLOAD_PACKAGE_CHOOSE
  D:0005H         SYMBOL        package_sz
  -------         DO            
  D:0006H         SYMBOL        send_len
  -------         ENDDO         
  C:F3B3H         LINE#         1581
  C:F3B5H         LINE#         1582
  C:F3B5H         LINE#         1584
  C:F3B8H         LINE#         1585
  C:F3BBH         LINE#         1586
  -------         ENDPROC       _FILE_DOWNLOAD_PACKAGE_CHOOSE
  -------         PROC          _FILE_DOWNLOAD_HANDLE
  X:8C39H         SYMBOL        value
  X:8C3CH         SYMBOL        position
  X:8C40H         SYMBOL        length
  C:F3EAH         LINE#         1599
  C:F3F9H         LINE#         1600
  C:F3F9H         LINE#         1602
  C:F3F9H         LINE#         1605
  C:F3F9H         LINE#         1608
  C:F3F9H         LINE#         1610
  C:F3FBH         LINE#         1611
  -------         ENDPROC       _FILE_DOWNLOAD_HANDLE
  -------         ENDMOD        PROTOCOL

  -------         MODULE        SYSTEM
  C:0000H         SYMBOL        _ICE_DUMMY_
  C:EDE8H         SYMBOL        _get_dowmload_dpid_index
  D:0080H         PUBLIC        P0
  C:F4EDH         SYMBOL        get_mcu_wifi_mode
  C:EFB6H         SYMBOL        heat_beat_check
  X:8776H         PUBLIC        set_wifimode_flag
  D:00F8H         PUBLIC        RAMMODE
  D:00A8H         PUBLIC        IEN0
  D:00B8H         PUBLIC        IEN1
  C:EE45H         PUBLIC        _set_wifi_uart_byte
  C:EC8CH         PUBLIC        with_data_rxbuff
  X:8777H         PUBLIC        stop_update_flag
  C:DDD3H         PUBLIC        take_byte_rxbuff
  X:8778H         PUBLIC        wifi_data_process_buf
  D:0088H         PUBLIC        TCON
  X:88ABH         PUBLIC        reset_wifi_flag
  X:88ACH         PUBLIC        wifi_uart_rx_buf
  X:89DFH         PUBLIC        wifi_uart_tx_buf
  X:8A16H         PUBLIC        rx_buf_in
  C:EB01H         SYMBOL        _?ix1000
  X:8A19H         PUBLIC        rx_buf_out
  C:DA3FH         PUBLIC        _wifi_uart_write_frame
  C:E52BH         PUBLIC        _get_check_sum
  C:E268H         SYMBOL        _wifi_uart_write_data
  X:8A1CH         PUBLIC        wifi_work_state
  C:D9DCH         PUBLIC        _set_wifi_uart_buffer
  D:0098H         PUBLIC        SCON0
  D:00C8H         PUBLIC        T2CON
  C:4CD9H         PUBLIC        _data_handle
BL51 BANKED LINKER/LOCATER V6.22.2.0                                                  06/18/2026  09:22:45  PAGE 157


  C:D0F5H         SYMBOL        _data_point_handle
  D:00D0H         PUBLIC        PSW
  C:B089H         SYMBOL        product_info_update
  D:00C0H         PUBLIC        IRCON
  -------         PROC          _SET_WIFI_UART_BYTE
  X:8CCDH         SYMBOL        dest
  D:0005H         SYMBOL        byte
  -------         DO            
  D:0001H         SYMBOL        obj
  -------         ENDDO         
  C:EE45H         LINE#         35
  C:EE4DH         LINE#         36
  C:EE4DH         LINE#         37
  C:EE56H         LINE#         39
  C:EE5AH         LINE#         40
  C:EE68H         LINE#         42
  C:EE70H         LINE#         43
  -------         ENDPROC       _SET_WIFI_UART_BYTE
  -------         PROC          L?0089
  -------         ENDPROC       L?0089
  -------         PROC          _SET_WIFI_UART_BUFFER
  X:8CCDH         SYMBOL        dest
  X:8CCFH         SYMBOL        src
  X:8CD2H         SYMBOL        len
  -------         DO            
  D:0001H         SYMBOL        obj
  -------         ENDDO         
  C:D9DCH         LINE#         52
  C:D9EFH         LINE#         53
  C:D9EFH         LINE#         54
  C:D9F8H         LINE#         56
  C:DA25H         LINE#         58
  C:DA39H         LINE#         59
  C:DA3EH         LINE#         60
  -------         ENDPROC       _SET_WIFI_UART_BUFFER
  -------         PROC          _GET_CHECK_SUM
  X:8CCFH         SYMBOL        pack
  X:8CD2H         SYMBOL        pack_len
  -------         DO            
  D:0006H         SYMBOL        i
  X:8CD4H         SYMBOL        check_sum
  -------         ENDDO         
  C:E52BH         LINE#         68
  C:E53CH         LINE#         69
  C:E53CH         LINE#         71
  C:E53FH         LINE#         73
  C:E54EH         LINE#         74
  C:E568H         LINE#         75
  C:E56FH         LINE#         77
  C:E574H         LINE#         78
  -------         ENDPROC       _GET_CHECK_SUM
  -------         PROC          _WIFI_UART_WRITE_DATA
  X:8CCFH         SYMBOL        in
  X:8CD2H         SYMBOL        len
  C:E268H         LINE#         86
  C:E279H         LINE#         87
  C:E279H         LINE#         88
BL51 BANKED LINKER/LOCATER V6.22.2.0                                                  06/18/2026  09:22:45  PAGE 158


  C:E28FH         LINE#         90
  C:E28FH         LINE#         92
  C:E29DH         LINE#         93
  C:E2AFH         LINE#         94
  C:E2B9H         LINE#         95
  C:E2BBH         LINE#         96
  -------         ENDPROC       _WIFI_UART_WRITE_DATA
  -------         PROC          _WIFI_UART_WRITE_FRAME
  D:0007H         SYMBOL        fr_type
  D:0005H         SYMBOL        fr_ver
  X:8CCDH         SYMBOL        len
  -------         DO            
  D:0006H         SYMBOL        check_sum
  -------         ENDDO         
  C:DA3FH         LINE#         105
  C:DA47H         LINE#         106
  C:DA47H         LINE#         107
  C:DA47H         LINE#         109
  C:DA4DH         LINE#         110
  C:DA51H         LINE#         111
  C:DA54H         LINE#         112
  C:DA57H         LINE#         113
  C:DA64H         LINE#         114
  C:DA67H         LINE#         116
  C:DA75H         LINE#         117
  C:DA8CH         LINE#         118
  C:DA9FH         LINE#         120
  -------         ENDPROC       _WIFI_UART_WRITE_FRAME
  -------         PROC          HEAT_BEAT_CHECK
  -------         DO            
  D:0007H         SYMBOL        length
  X:876BH         SYMBOL        mcu_reset_state
  -------         ENDDO         
  C:EFB6H         LINE#         128
  C:EFB6H         LINE#         129
  C:EFB6H         LINE#         130
  C:EFB8H         LINE#         133
  C:EFBEH         LINE#         134
  C:EFC3H         LINE#         135
  C:EFC9H         LINE#         136
  C:EFCBH         LINE#         137
  C:EFD2H         LINE#         138
  C:EFD2H         LINE#         140
  -------         ENDPROC       HEAT_BEAT_CHECK
  -------         PROC          PRODUCT_INFO_UPDATE
  -------         DO            
  X:8C39H         SYMBOL        length
  X:8C3AH         SYMBOL        str
  X:8C44H         SYMBOL        reset_flag
  -------         ENDDO         
  C:B089H         LINE#         148
  C:B089H         LINE#         149
  C:B089H         LINE#         150
  C:B08EH         LINE#         151
  C:B0A0H         LINE#         153
  C:B0A8H         LINE#         154
  C:B0C5H         LINE#         155
BL51 BANKED LINKER/LOCATER V6.22.2.0                                                  06/18/2026  09:22:45  PAGE 159


  C:B0E2H         LINE#         156
  C:B108H         LINE#         157
  C:B12EH         LINE#         158
  C:B154H         LINE#         159
  C:B17AH         LINE#         177
  C:B1A0H         LINE#         181
  -------         ENDPROC       PRODUCT_INFO_UPDATE
  -------         PROC          GET_MCU_WIFI_MODE
  -------         DO            
  D:0007H         SYMBOL        length
  -------         ENDDO         
  C:F4EDH         LINE#         190
  C:F4EDH         LINE#         191
  C:F4EDH         LINE#         192
  C:F4EEH         LINE#         201
  -------         ENDPROC       GET_MCU_WIFI_MODE
  -------         PROC          _GET_DOWMLOAD_DPID_INDEX
  X:8C40H         SYMBOL        dpid
  -------         DO            
  D:0006H         SYMBOL        index
  D:0007H         SYMBOL        total
  -------         ENDDO         
  C:EDE8H         LINE#         209
  C:EDEDH         LINE#         210
  C:EDEDH         LINE#         212
  C:EDF0H         LINE#         214
  C:EDF7H         LINE#         215
  C:EE11H         LINE#         216
  C:EE11H         LINE#         217
  C:EE11H         LINE#         218
  C:EE14H         LINE#         220
  C:EE16H         LINE#         221
  -------         ENDPROC       _GET_DOWMLOAD_DPID_INDEX
  -------         PROC          _DATA_POINT_HANDLE
  X:8C39H         SYMBOL        value
  -------         DO            
  X:8C3CH         SYMBOL        dp_id
  D:0007H         SYMBOL        index
  X:8C3DH         SYMBOL        dp_type
  D:0007H         SYMBOL        ret
  X:8C3EH         SYMBOL        dp_len
  -------         ENDDO         
  C:D0F5H         LINE#         229
  C:D100H         LINE#         230
  C:D100H         LINE#         236
  C:D108H         LINE#         237
  C:D112H         LINE#         238
  C:D11FH         LINE#         239
  C:D133H         LINE#         241
  C:D138H         LINE#         243
  C:D150H         LINE#         245
  C:D153H         LINE#         246
  C:D153H         LINE#         247
  C:D17AH         LINE#         248
  C:D17AH         LINE#         250
  C:D17AH         LINE#         251
  -------         ENDPROC       _DATA_POINT_HANDLE
BL51 BANKED LINKER/LOCATER V6.22.2.0                                                  06/18/2026  09:22:45  PAGE 160


  -------         PROC          _DATA_HANDLE
  X:8C26H         SYMBOL        offset
  -------         DO            
  X:8C28H         SYMBOL        firmware_addr
  X:876CH         SYMBOL        firm_size
  X:876EH         SYMBOL        firm_length
  X:8772H         SYMBOL        firm_update_flag
  X:8C2BH         SYMBOL        dp_len
  D:0007H         SYMBOL        firm_flag
  X:8C2FH         SYMBOL        ret
  X:8C30H         SYMBOL        i
  X:8C32H         SYMBOL        total_len
  D:0007H         SYMBOL        cmd_type
  D:0005H         SYMBOL        result
  D:0006H         SYMBOL        rssi
  X:8C34H         SYMBOL        file_data_addr
  X:8773H         SYMBOL        file_package_size
  X:8775H         SYMBOL        file_download_flag
  X:8C37H         SYMBOL        file_download_size
  -------         ENDDO         
  C:4CD9H         LINE#         397
  C:4CE1H         LINE#         398
  C:4CE1H         LINE#         400
  C:4CE8H         LINE#         412
  C:4CFAH         LINE#         424
  C:4D03H         LINE#         427
  C:4D07H         LINE#         430
  C:4D53H         LINE#         431
  C:4D53H         LINE#         432
  C:4D53H         LINE#         433
  C:4D56H         LINE#         434
  C:4D56H         LINE#         436
  C:4D56H         LINE#         437
  C:4D59H         LINE#         438
  C:4D59H         LINE#         440
  C:4D59H         LINE#         441
  C:4D5CH         LINE#         442
  C:4D5CH         LINE#         445
  C:4D5CH         LINE#         446
  C:4D71H         LINE#         447
  C:4D78H         LINE#         454
  C:4D7BH         LINE#         456
  C:4D7BH         LINE#         457
  C:4D7EH         LINE#         458
  C:4D80H         LINE#         460
  C:4D80H         LINE#         461
  C:4D86H         LINE#         462
  C:4D87H         LINE#         465
  C:4D87H         LINE#         466
  C:4DB0H         LINE#         468
  C:4DD0H         LINE#         469
  C:4DF3H         LINE#         470
  C:4E37H         LINE#         472
  C:4E5BH         LINE#         474
  C:4E5BH         LINE#         476
  C:4E5BH         LINE#         478
  C:4E5BH         LINE#         480
BL51 BANKED LINKER/LOCATER V6.22.2.0                                                  06/18/2026  09:22:45  PAGE 161


  C:4E76H         LINE#         481
  C:4E79H         LINE#         482
  C:4E79H         LINE#         484
  C:4E79H         LINE#         485
  C:4E7CH         LINE#         486
  C:4E7CH         LINE#         489
  C:4E7CH         LINE#         491
  C:4E7DH         LINE#         492
  C:4E81H         LINE#         493
  C:4E85H         LINE#         494
  C:4E8DH         LINE#         495
  C:4E92H         LINE#         496
  C:4E9AH         LINE#         497
  C:4EA3H         LINE#         498
  C:4EA3H         LINE#         500
  C:4EBFH         LINE#         501
  C:4ED8H         LINE#         502
  C:4F07H         LINE#         503
  C:4F20H         LINE#         504
  C:4F4FH         LINE#         505
  C:4F68H         LINE#         506
  C:4F97H         LINE#         516
  C:4F9CH         LINE#         517
  C:4FA2H         LINE#         518
  C:4FA3H         LINE#         520
  C:4FA3H         LINE#         521
  C:4FAEH         LINE#         523
  C:4FB3H         LINE#         525
  C:4FDCH         LINE#         527
  C:4FF8H         LINE#         528
  C:5011H         LINE#         529
  C:5040H         LINE#         530
  C:5059H         LINE#         531
  C:5088H         LINE#         532
  C:50A1H         LINE#         533
  C:50D0H         LINE#         535
  C:50E0H         LINE#         536
  C:50F5H         LINE#         540
  C:5123H         LINE#         542
  C:5149H         LINE#         544
  C:514EH         LINE#         545
  C:516BH         LINE#         546
  C:51A0H         LINE#         547
  C:51A2H         LINE#         548
  C:51A7H         LINE#         549
  C:51ABH         LINE#         550
  C:51ABH         LINE#         553
  C:51B3H         LINE#         554
  C:51BCH         LINE#         556
  C:51BCH         LINE#         558
  C:51C1H         LINE#         559
  C:51C1H         LINE#         560
  C:51C2H         LINE#         576
  C:51C2H         LINE#         577
  C:51D5H         LINE#         578
  C:51E1H         LINE#         579
  C:51E7H         LINE#         580
BL51 BANKED LINKER/LOCATER V6.22.2.0                                                  06/18/2026  09:22:45  PAGE 162


  C:51E7H         LINE#         648
  C:51E7H         LINE#         650
  C:51E7H         LINE#         651
  C:51F0H         LINE#         652
  C:51F0H         LINE#         653
  C:51F0H         LINE#         654
  C:51F0H         LINE#         655
  C:51F0H         LINE#         656
  C:51F0H         LINE#         658
  C:520BH         LINE#         659
  C:5225H         LINE#         660
  C:5246H         LINE#         661
  C:5260H         LINE#         663
  C:5265H         LINE#         664
  C:526BH         LINE#         665
  C:526CH         LINE#         667
  C:526CH         LINE#         668
  C:5277H         LINE#         669
  C:52A0H         LINE#         671
  C:52BCH         LINE#         672
  C:52D5H         LINE#         673
  C:5304H         LINE#         674
  C:531DH         LINE#         675
  C:534CH         LINE#         676
  C:5365H         LINE#         677
  C:5394H         LINE#         679
  C:53A4H         LINE#         680
  C:53B9H         LINE#         682
  C:53E4H         LINE#         684
  C:540CH         LINE#         685
  C:5411H         LINE#         686
  C:5413H         LINE#         687
  C:542EH         LINE#         688
  C:5463H         LINE#         689
  C:5465H         LINE#         690
  C:546AH         LINE#         691
  C:546EH         LINE#         692
  C:546EH         LINE#         694
  C:5476H         LINE#         695
  C:547FH         LINE#         696
  C:547FH         LINE#         697
  C:547FH         LINE#         698
  C:547FH         LINE#         744
  C:547FH         LINE#         745
  C:547FH         LINE#         746
  -------         ENDPROC       _DATA_HANDLE
  -------         PROC          WITH_DATA_RXBUFF
  C:EC8CH         LINE#         753
  C:EC8CH         LINE#         754
  C:EC8CH         LINE#         755
  C:ECBBH         LINE#         756
  C:ECBEH         LINE#         758
  C:ECC0H         LINE#         759
  -------         ENDPROC       WITH_DATA_RXBUFF
  -------         PROC          TAKE_BYTE_RXBUFF
  -------         DO            
  D:0007H         SYMBOL        value
BL51 BANKED LINKER/LOCATER V6.22.2.0                                                  06/18/2026  09:22:45  PAGE 163


  -------         ENDDO         
  C:DDD3H         LINE#         766
  C:DDD3H         LINE#         767
  C:DDD3H         LINE#         770
  C:DE00H         LINE#         772
  C:DE13H         LINE#         774
  C:DE21H         LINE#         775
  C:DE21H         LINE#         777
  C:DE35H         LINE#         778
  C:DE35H         LINE#         780
  C:DE35H         LINE#         781
  -------         ENDPROC       TAKE_BYTE_RXBUFF
  -------         ENDMOD        SYSTEM

  -------         MODULE        ?C?FPMUL
  C:371BH         PUBLIC        ?C?FPMUL
  -------         ENDMOD        ?C?FPMUL

  -------         MODULE        ?C?FPDIV
  C:3824H         PUBLIC        ?C?FPDIV
  -------         ENDMOD        ?C?FPDIV

  -------         MODULE        ?C?FPCMP
  C:38C3H         PUBLIC        ?C?FPCMP
  C:38C1H         PUBLIC        ?C?FPCMP3
  -------         ENDMOD        ?C?FPCMP

  -------         MODULE        ?C?FCAST
  C:3944H         PUBLIC        ?C?FCASTC
  C:393FH         PUBLIC        ?C?FCASTI
  C:393AH         PUBLIC        ?C?FCASTL
  -------         ENDMOD        ?C?FCAST

  -------         MODULE        ?C?CASTF
  C:3978H         PUBLIC        ?C?CASTF
  -------         ENDMOD        ?C?CASTF

  -------         MODULE        PRINTF
  X:8C71H         PUBLIC        ?_PRINTF?BYTE
  X:8C71H         PUBLIC        ?_SPRINTF?BYTE
  C:5A1FH         PUBLIC        _PRINTF
  C:5A19H         PUBLIC        _SPRINTF
  -------         ENDMOD        PRINTF

  -------         MODULE        ?C?FPROUND
  C:39F9H         PUBLIC        ?C?FPROUND
  -------         ENDMOD        ?C?FPROUND

  -------         MODULE        ?C?FPCONVERT
  C:3A36H         PUBLIC        ?C?FPCONVERT
  -------         ENDMOD        ?C?FPCONVERT

  -------         MODULE        ?C?FPADD
  C:3B42H         PUBLIC        ?C?FPADD
  C:3B3EH         PUBLIC        ?C?FPSUB
  -------         ENDMOD        ?C?FPADD

BL51 BANKED LINKER/LOCATER V6.22.2.0                                                  06/18/2026  09:22:45  PAGE 164


  -------         MODULE        ?C?FTNPWR
  C:3C63H         PUBLIC        ?C?FTNPWR
  -------         ENDMOD        ?C?FTNPWR

  -------         MODULE        ?C?COPY
  C:3D73H         PUBLIC        ?C?COPY
  -------         ENDMOD        ?C?COPY

  -------         MODULE        ?C?CLDPTR
  C:3D99H         PUBLIC        ?C?CLDPTR
  -------         ENDMOD        ?C?CLDPTR

  -------         MODULE        ?C?CLDOPTR
  C:3DB2H         PUBLIC        ?C?CLDOPTR
  -------         ENDMOD        ?C?CLDOPTR

  -------         MODULE        ?C?CILDOPTR
  C:3DDFH         PUBLIC        ?C?CILDOPTR
  -------         ENDMOD        ?C?CILDOPTR

  -------         MODULE        ?C?CSTPTR
  C:3E12H         PUBLIC        ?C?CSTPTR
  -------         ENDMOD        ?C?CSTPTR

  -------         MODULE        ?C?CSTOPTR
  C:3E24H         PUBLIC        ?C?CSTOPTR
  -------         ENDMOD        ?C?CSTOPTR

  -------         MODULE        ?C?IMUL
  C:3E46H         PUBLIC        ?C?IMUL
  -------         ENDMOD        ?C?IMUL

  -------         MODULE        ?C?UIDIV
  C:3E58H         PUBLIC        ?C?UIDIV
  -------         ENDMOD        ?C?UIDIV

  -------         MODULE        ?C?SIDIV
  C:3EADH         PUBLIC        ?C?SIDIV
  -------         ENDMOD        ?C?SIDIV

  -------         MODULE        ?C?IILDX
  C:3EE3H         PUBLIC        ?C?IILDX
  -------         ENDMOD        ?C?IILDX

  -------         MODULE        ?C?ILDIX
  C:3EF9H         PUBLIC        ?C?ILDIX
  -------         ENDMOD        ?C?ILDIX

  -------         MODULE        ?C?ILDIPTR
  C:3F0FH         PUBLIC        ?C?ILDIPTR
  -------         ENDMOD        ?C?ILDIPTR

  -------         MODULE        ?C?ILDOPTR
  C:3F44H         PUBLIC        ?C?ILDOPTR
  -------         ENDMOD        ?C?ILDOPTR

  -------         MODULE        ?C?ISTPTR
BL51 BANKED LINKER/LOCATER V6.22.2.0                                                  06/18/2026  09:22:45  PAGE 165


  C:3F7CH         PUBLIC        ?C?ISTPTR
  -------         ENDMOD        ?C?ISTPTR

  -------         MODULE        ?C?ISTOPTR
  C:3F9BH         PUBLIC        ?C?ISTOPTR
  -------         ENDMOD        ?C?ISTOPTR

  -------         MODULE        ?C?LMUL
  C:3FC8H         PUBLIC        ?C?LMUL
  -------         ENDMOD        ?C?LMUL

  -------         MODULE        ?C?ULDIV
  C:4053H         PUBLIC        ?C?ULDIV
  -------         ENDMOD        ?C?ULDIV

  -------         MODULE        ?C?LNEG
  C:40E5H         PUBLIC        ?C?LNEG
  -------         ENDMOD        ?C?LNEG

  -------         MODULE        ?C?SLCMP
  C:40F3H         PUBLIC        ?C?SLCMP
  -------         ENDMOD        ?C?SLCMP

  -------         MODULE        ?C?ULCMP
  C:4109H         PUBLIC        ?C?ULCMP
  -------         ENDMOD        ?C?ULCMP

  -------         MODULE        ?C?ULSHR
  C:411AH         PUBLIC        ?C?ULSHR
  -------         ENDMOD        ?C?ULSHR

  -------         MODULE        ?C?LSHL
  C:412DH         PUBLIC        ?C?LSHL
  -------         ENDMOD        ?C?LSHL

  -------         MODULE        ?C?LLDPTR
  C:4140H         PUBLIC        ?C?LLDPTR
  -------         ENDMOD        ?C?LLDPTR

  -------         MODULE        ?C?LSTPTR
  C:4160H         PUBLIC        ?C?LSTPTR
  -------         ENDMOD        ?C?LSTPTR

  -------         MODULE        ?C?LSTXDATA
  C:417AH         PUBLIC        ?C?LSTXDATA
  -------         ENDMOD        ?C?LSTXDATA

  -------         MODULE        ?C?LSTKXDATA
  C:4186H         PUBLIC        ?C?LSTKXDATA
  -------         ENDMOD        ?C?LSTKXDATA

  -------         MODULE        ?C?OFFXADD
  C:41B7H         PUBLIC        ?C?OFFXADD
  -------         ENDMOD        ?C?OFFXADD

  -------         MODULE        ?C?PLDIXDATA
  C:41C3H         PUBLIC        ?C?PLDIXDATA
BL51 BANKED LINKER/LOCATER V6.22.2.0                                                  06/18/2026  09:22:45  PAGE 166


  -------         ENDMOD        ?C?PLDIXDATA

  -------         MODULE        ?C?PSTXDATA
  C:41DAH         PUBLIC        ?C?PSTXDATA
  -------         ENDMOD        ?C?PSTXDATA

  -------         MODULE        ?C?CCASE
  C:41E3H         PUBLIC        ?C?CCASE
  -------         ENDMOD        ?C?CCASE

  -------         MODULE        ?C?ICASE
  C:4209H         PUBLIC        ?C?ICASE
  -------         ENDMOD        ?C?ICASE

  -------         MODULE        ?C?LIMUL
  C:4236H         PUBLIC        ?C?LIMUL
  -------         ENDMOD        ?C?LIMUL

  -------         MODULE        STRTOUL
  X:8C5CH         PUBLIC        ?_strtoul?BYTE
  C:781AH         PUBLIC        _strtoul
  -------         ENDMOD        STRTOUL

  -------         MODULE        ?C?LLDIDATA
  C:4263H         PUBLIC        ?C?LLDIDATA
  -------         ENDMOD        ?C?LLDIDATA

  -------         MODULE        ?C?LLDXDATA
  C:426FH         PUBLIC        ?C?LLDXDATA
  -------         ENDMOD        ?C?LLDXDATA

  -------         MODULE        ?C?LLDPDATA
  C:427BH         PUBLIC        ?C?LLDPDATA
  -------         ENDMOD        ?C?LLDPDATA

  -------         MODULE        ?C?LLDCODE
  C:4287H         PUBLIC        ?C?LLDCODE
  -------         ENDMOD        ?C?LLDCODE

  -------         MODULE        ?C?LSTIDATA
  C:4297H         PUBLIC        ?C?LSTIDATA
  -------         ENDMOD        ?C?LSTIDATA

  -------         MODULE        ?C?LSTPDATA
  C:42A3H         PUBLIC        ?C?LSTPDATA
  -------         ENDMOD        ?C?LSTPDATA

  -------         MODULE        ?C?PSTPTR
  C:42AFH         PUBLIC        ?C?PSTPTR
  -------         ENDMOD        ?C?PSTPTR

  -------         MODULE        ?C?PSTIDATA
  C:42FEH         PUBLIC        ?C?PSTIDATA
  -------         ENDMOD        ?C?PSTIDATA

  -------         MODULE        ?C?PSTPDATA
  C:4307H         PUBLIC        ?C?PSTPDATA
BL51 BANKED LINKER/LOCATER V6.22.2.0                                                  06/18/2026  09:22:45  PAGE 167


  -------         ENDMOD        ?C?PSTPDATA

*** WARNING L16: UNCALLED SEGMENT, IGNORED FOR OVERLAY PROCESS
    SEGMENT: ?PR?MODBUSCHANELCONTROL?MAIN

*** WARNING L16: UNCALLED SEGMENT, IGNORED FOR OVERLAY PROCESS
    SEGMENT: ?PR?_DGUS_WAITEN?SYS

*** WARNING L16: UNCALLED SEGMENT, IGNORED FOR OVERLAY PROCESS
    SEGMENT: ?PR?SAVE_DATA_HANDLER?SYS

*** WARNING L16: UNCALLED SEGMENT, IGNORED FOR OVERLAY PROCESS
    SEGMENT: ?PR?_DELAYUS?SYS

*** WARNING L16: UNCALLED SEGMENT, IGNORED FOR OVERLAY PROCESS
    SEGMENT: ?PR?_DELAYMS?SYS

*** WARNING L16: UNCALLED SEGMENT, IGNORED FOR OVERLAY PROCESS
    SEGMENT: ?PR?TIMERRUNNING?CONTROL

*** WARNING L16: UNCALLED SEGMENT, IGNORED FOR OVERLAY PROCESS
    SEGMENT: ?PR?HOMEPAGE_ICON?CONTROL

*** WARNING L16: UNCALLED SEGMENT, IGNORED FOR OVERLAY PROCESS
    SEGMENT: ?PR?OTARELOAD_DELAYPAGE?CONTROL

*** WARNING L16: UNCALLED SEGMENT, IGNORED FOR OVERLAY PROCESS
    SEGMENT: ?PR?SCREENSAVER_PRO?CONTROL

*** WARNING L16: UNCALLED SEGMENT, IGNORED FOR OVERLAY PROCESS
    SEGMENT: ?PR?UART2_RXENABLE?UART

*** WARNING L16: UNCALLED SEGMENT, IGNORED FOR OVERLAY PROCESS
    SEGMENT: ?PR?_MODBUS_ISFAULTACTIVE?MODBUS

*** WARNING L16: UNCALLED SEGMENT, IGNORED FOR OVERLAY PROCESS
    SEGMENT: ?PR?RTCUPDATE?RTC

*** WARNING L16: UNCALLED SEGMENT, IGNORED FOR OVERLAY PROCESS
    SEGMENT: ?PR?ERRORHISTORY_INIT?ERRORHISTORY

*** WARNING L16: UNCALLED SEGMENT, IGNORED FOR OVERLAY PROCESS
    SEGMENT: ?PR?DECODEERRORHISTORY?ERRORHISTORY

*** WARNING L16: UNCALLED SEGMENT, IGNORED FOR OVERLAY PROCESS
    SEGMENT: ?PR?UPLOAD_TIMESTAMP_BOOT_ONCE?UPLOAD

*** WARNING L16: UNCALLED SEGMENT, IGNORED FOR OVERLAY PROCESS
    SEGMENT: ?PR?UPLOAD_ALL_TIMERS?UPLOAD

*** WARNING L16: UNCALLED SEGMENT, IGNORED FOR OVERLAY PROCESS
    SEGMENT: ?PR?UPLOAD_REPORT_POLL?UPLOAD

*** WARNING L16: UNCALLED SEGMENT, IGNORED FOR OVERLAY PROCESS
    SEGMENT: ?PR?UPLOAD_REPORT_FORCE_SYNC?UPLOAD

*** WARNING L16: UNCALLED SEGMENT, IGNORED FOR OVERLAY PROCESS
BL51 BANKED LINKER/LOCATER V6.22.2.0                                                  06/18/2026  09:22:45  PAGE 168


    SEGMENT: ?PR?_HEX_TO_BCD?MCU_API

*** WARNING L16: UNCALLED SEGMENT, IGNORED FOR OVERLAY PROCESS
    SEGMENT: ?PR?_MY_MEMSET?MCU_API

*** WARNING L16: UNCALLED SEGMENT, IGNORED FOR OVERLAY PROCESS
    SEGMENT: ?PR?_MY_STRCPY?MCU_API

*** WARNING L16: UNCALLED SEGMENT, IGNORED FOR OVERLAY PROCESS
    SEGMENT: ?PR?_MY_STRCMP?MCU_API

*** WARNING L16: UNCALLED SEGMENT, IGNORED FOR OVERLAY PROCESS
    SEGMENT: ?PR?_INT_TO_BYTE?MCU_API

*** WARNING L16: UNCALLED SEGMENT, IGNORED FOR OVERLAY PROCESS
    SEGMENT: ?PR?_MCU_DP_FAULT_UPDATE?MCU_API

*** WARNING L16: UNCALLED SEGMENT, IGNORED FOR OVERLAY PROCESS
    SEGMENT: ?PR?_UART_RECEIVE_BUFF_INPUT?MCU_API

*** WARNING L16: UNCALLED SEGMENT, IGNORED FOR OVERLAY PROCESS
    SEGMENT: ?PR?MCU_GET_WIFIMODE_FLAG?MCU_API

*** WARNING L16: UNCALLED SEGMENT, IGNORED FOR OVERLAY PROCESS
    SEGMENT: ?PR?_MCU_SET_WIFI_MODE?MCU_API

*** WARNING L16: UNCALLED SEGMENT, IGNORED FOR OVERLAY PROCESS
    SEGMENT: ?PR?MCU_START_WIFITEST?MCU_API

*** WARNING L1: UNRESOLVED EXTERNAL SYMBOL
    SYMBOL:  READY_TO_SAVE_REPORT
    MODULE:  .\obj\control.obj (CONTROL)

*** WARNING L2: REFERENCE MADE TO UNRESOLVED EXTERNAL
    SYMBOL:  READY_TO_SAVE_REPORT
    MODULE:  .\obj\control.obj (CONTROL)
    ADDRESS: 1605H

*** WARNING L2: REFERENCE MADE TO UNRESOLVED EXTERNAL
    SYMBOL:  READY_TO_SAVE_REPORT
    MODULE:  .\obj\control.obj (CONTROL)
    ADDRESS: 177EH

*** WARNING L2: REFERENCE MADE TO UNRESOLVED EXTERNAL
    SYMBOL:  READY_TO_SAVE_REPORT
    MODULE:  .\obj\control.obj (CONTROL)
    ADDRESS: 1888H

*** WARNING L2: REFERENCE MADE TO UNRESOLVED EXTERNAL
    SYMBOL:  READY_TO_SAVE_REPORT
    MODULE:  .\obj\control.obj (CONTROL)
    ADDRESS: 1A67H

*** WARNING L2: REFERENCE MADE TO UNRESOLVED EXTERNAL
    SYMBOL:  READY_TO_SAVE_REPORT
    MODULE:  .\obj\control.obj (CONTROL)
    ADDRESS: 6F4EH
BL51 BANKED LINKER/LOCATER V6.22.2.0                                                  06/18/2026  09:22:45  PAGE 169



*** WARNING L2: REFERENCE MADE TO UNRESOLVED EXTERNAL
    SYMBOL:  READY_TO_SAVE_REPORT
    MODULE:  .\obj\control.obj (CONTROL)
    ADDRESS: 6FDDH

*** WARNING L2: REFERENCE MADE TO UNRESOLVED EXTERNAL
    SYMBOL:  READY_TO_SAVE_REPORT
    MODULE:  .\obj\control.obj (CONTROL)
    ADDRESS: 7048H

*** WARNING L2: REFERENCE MADE TO UNRESOLVED EXTERNAL
    SYMBOL:  READY_TO_SAVE_REPORT
    MODULE:  .\obj\control.obj (CONTROL)
    ADDRESS: 70B3H

*** WARNING L1: UNRESOLVED EXTERNAL SYMBOL
    SYMBOL:  OTALENGTH
    MODULE:  .\obj\OTA.obj (OTA)

*** WARNING L2: REFERENCE MADE TO UNRESOLVED EXTERNAL
    SYMBOL:  OTALENGTH
    MODULE:  .\obj\OTA.obj (OTA)
    ADDRESS: 63D2H

*** WARNING L2: REFERENCE MADE TO UNRESOLVED EXTERNAL
    SYMBOL:  OTALENGTH
    MODULE:  .\obj\OTA.obj (OTA)
    ADDRESS: 63FDH

*** WARNING L2: REFERENCE MADE TO UNRESOLVED EXTERNAL
    SYMBOL:  OTALENGTH
    MODULE:  .\obj\OTA.obj (OTA)
    ADDRESS: 642AH

*** WARNING L2: REFERENCE MADE TO UNRESOLVED EXTERNAL
    SYMBOL:  OTALENGTH
    MODULE:  .\obj\OTA.obj (OTA)
    ADDRESS: 6455H

*** WARNING L2: REFERENCE MADE TO UNRESOLVED EXTERNAL
    SYMBOL:  OTALENGTH
    MODULE:  .\obj\OTA.obj (OTA)
    ADDRESS: 648DH

*** WARNING L1: UNRESOLVED EXTERNAL SYMBOL
    SYMBOL:  READY_TO_SAVE_REPORT
    MODULE:  .\obj\protocol.obj (PROTOCOL)

*** WARNING L2: REFERENCE MADE TO UNRESOLVED EXTERNAL
    SYMBOL:  READY_TO_SAVE_REPORT
    MODULE:  .\obj\protocol.obj (PROTOCOL)
    ADDRESS: BBB2H

*** WARNING L2: REFERENCE MADE TO UNRESOLVED EXTERNAL
    SYMBOL:  READY_TO_SAVE_REPORT
    MODULE:  .\obj\protocol.obj (PROTOCOL)
BL51 BANKED LINKER/LOCATER V6.22.2.0                                                  06/18/2026  09:22:45  PAGE 170


    ADDRESS: C039H

Program Size: data=22.4 xdata=5129 code=62576
LINK/LOCATE RUN COMPLETE.  46 WARNING(S),  0 ERROR(S)
