BL51 BANKED LINKER/LOCATER V6.22.2.0                                                    06/30/2026  14:47:53  PAGE 1


BL51 BANKED LINKER/LOCATER V6.22.2.0, INVOKED BY:
D:\KEIL_V5\C51\C51\BIN\BL51.EXE .\obj\STARTUP_M5.obj, .\obj\main.obj, .\obj\sys.obj, .\obj\control.obj, .\obj\uart.obj, 
>> .\obj\modbus.obj, .\obj\rtc.obj, .\obj\ErrorHistory.obj, .\obj\upload.obj, .\obj\Wifipro.obj, .\obj\OTA.obj, .\obj\mc
>> u_api.obj, .\obj\protocol.obj, .\obj\system.obj TO .\obj\T5L51 PRINT (.\Listings\T5L51.m51) RAMSIZE (256) CODE (0X010
>> 0-0XFFFF) XDATA (0X8000-0XFFFF)




PROGRAM RECURSIONS REMOVED FROM CALL TREE
=========================================
+--> ?PR?WIFI_UART_PARSE_CMD6_PRIORITY?MCU_API
|  | ?PR?_DATA_HANDLE?SYSTEM
|  | ?PR?_DATA_POINT_HANDLE?SYSTEM
|  | ?PR?_DP_DOWNLOAD_HANDLE?PROTOCOL
|  | ?PR?_DP_DOWNLOAD_INDOOR_UNIT_HANDLE?PROTOCOL
|  | ?PR?UPLOAD_INDOOR_UNIT?UPLOAD
|  | ?PR?UPLOAD_YIELDWIFI?UPLOAD
<--+ ?PR?WIFI_UART_PROCESS_DOWNLOAD?MCU_API



MEMORY MODEL: LARGE WITH FLOATING POINT ARITHMETIC


INPUT MODULES INCLUDED:
  .\obj\STARTUP_M5.obj (?C_STARTUP)
  .\obj\main.obj (MAIN)
  .\obj\sys.obj (SYS)
  .\obj\control.obj (CONTROL)
  .\obj\uart.obj (UART)
  .\obj\modbus.obj (MODBUS)
  .\obj\rtc.obj (RTC)
  .\obj\ErrorHistory.obj (ERRORHISTORY)
  .\obj\upload.obj (UPLOAD)
  .\obj\Wifipro.obj (WIFIPRO)
  .\obj\OTA.obj (OTA)
  .\obj\mcu_api.obj (MCU_API)
  .\obj\protocol.obj (PROTOCOL)
  .\obj\system.obj (SYSTEM)
  D:\KEIL_V5\C51\C51\LIB\C51FPL.LIB (?C?FPMUL)
  D:\KEIL_V5\C51\C51\LIB\C51FPL.LIB (?C?FPDIV)
  D:\KEIL_V5\C51\C51\LIB\C51FPL.LIB (?C?FPCMP)
  D:\KEIL_V5\C51\C51\LIB\C51FPL.LIB (?C?FCAST)
  D:\KEIL_V5\C51\C51\LIB\C51FPL.LIB (?C?CASTF)
  D:\KEIL_V5\C51\C51\LIB\C51FPL.LIB (PRINTF)
  D:\KEIL_V5\C51\C51\LIB\C51FPL.LIB (?C?FPGETOPN)
  D:\KEIL_V5\C51\C51\LIB\C51FPL.LIB (?C?FPROUND)
  D:\KEIL_V5\C51\C51\LIB\C51FPL.LIB (?C?FPCONVERT)
  D:\KEIL_V5\C51\C51\LIB\C51FPL.LIB (?C?FPADD)
  D:\KEIL_V5\C51\C51\LIB\C51FPL.LIB (?C?FTNPWR)
  D:\KEIL_V5\C51\C51\LIB\C51L.LIB (?C_INIT)
  D:\KEIL_V5\C51\C51\LIB\C51L.LIB (?C?COPY)
  D:\KEIL_V5\C51\C51\LIB\C51L.LIB (?C?CLDPTR)
  D:\KEIL_V5\C51\C51\LIB\C51L.LIB (?C?CLDOPTR)
  D:\KEIL_V5\C51\C51\LIB\C51L.LIB (?C?CILDOPTR)
  D:\KEIL_V5\C51\C51\LIB\C51L.LIB (?C?CSTPTR)
  D:\KEIL_V5\C51\C51\LIB\C51L.LIB (?C?CSTOPTR)
BL51 BANKED LINKER/LOCATER V6.22.2.0                                                  06/30/2026  14:47:53  PAGE 2


  D:\KEIL_V5\C51\C51\LIB\C51L.LIB (?C?IMUL)
  D:\KEIL_V5\C51\C51\LIB\C51L.LIB (?C?UIDIV)
  D:\KEIL_V5\C51\C51\LIB\C51L.LIB (?C?SIDIV)
  D:\KEIL_V5\C51\C51\LIB\C51L.LIB (?C?IILDX)
  D:\KEIL_V5\C51\C51\LIB\C51L.LIB (?C?ILDIX)
  D:\KEIL_V5\C51\C51\LIB\C51L.LIB (?C?ILDIPTR)
  D:\KEIL_V5\C51\C51\LIB\C51L.LIB (?C?ILDOPTR)
  D:\KEIL_V5\C51\C51\LIB\C51L.LIB (?C?ISTPTR)
  D:\KEIL_V5\C51\C51\LIB\C51L.LIB (?C?ISTOPTR)
  D:\KEIL_V5\C51\C51\LIB\C51L.LIB (?C?LMUL)
  D:\KEIL_V5\C51\C51\LIB\C51L.LIB (?C?ULDIV)
  D:\KEIL_V5\C51\C51\LIB\C51L.LIB (?C?LNEG)
  D:\KEIL_V5\C51\C51\LIB\C51L.LIB (?C?SLCMP)
  D:\KEIL_V5\C51\C51\LIB\C51L.LIB (?C?ULCMP)
  D:\KEIL_V5\C51\C51\LIB\C51L.LIB (?C?ULSHR)
  D:\KEIL_V5\C51\C51\LIB\C51L.LIB (?C?LSHL)
  D:\KEIL_V5\C51\C51\LIB\C51L.LIB (?C?LLDPTR)
  D:\KEIL_V5\C51\C51\LIB\C51L.LIB (?C?LSTPTR)
  D:\KEIL_V5\C51\C51\LIB\C51L.LIB (?C?LSTXDATA)
  D:\KEIL_V5\C51\C51\LIB\C51L.LIB (?C?LSTKXDATA)
  D:\KEIL_V5\C51\C51\LIB\C51L.LIB (?C?OFFXADD)
  D:\KEIL_V5\C51\C51\LIB\C51L.LIB (?C?PLDIXDATA)
  D:\KEIL_V5\C51\C51\LIB\C51L.LIB (?C?PSTXDATA)
  D:\KEIL_V5\C51\C51\LIB\C51L.LIB (?C?CCASE)
  D:\KEIL_V5\C51\C51\LIB\C51L.LIB (?C?ICASE)
  D:\KEIL_V5\C51\C51\LIB\C51L.LIB (?C?LIMUL)
  D:\KEIL_V5\C51\C51\LIB\C51L.LIB (STRTOUL)
  D:\KEIL_V5\C51\C51\LIB\C51L.LIB (?C?LLDIDATA)
  D:\KEIL_V5\C51\C51\LIB\C51L.LIB (?C?LLDXDATA)
  D:\KEIL_V5\C51\C51\LIB\C51L.LIB (?C?LLDPDATA)
  D:\KEIL_V5\C51\C51\LIB\C51L.LIB (?C?LLDCODE)
  D:\KEIL_V5\C51\C51\LIB\C51L.LIB (?C?LSTIDATA)
  D:\KEIL_V5\C51\C51\LIB\C51L.LIB (?C?LSTPDATA)
  D:\KEIL_V5\C51\C51\LIB\C51L.LIB (?C?PSTPTR)
  D:\KEIL_V5\C51\C51\LIB\C51L.LIB (?C?PSTIDATA)
  D:\KEIL_V5\C51\C51\LIB\C51L.LIB (?C?PSTPDATA)


LINK MAP OF MODULE:  .\obj\T5L51 (?C_STARTUP)


            TYPE    BASE      LENGTH    RELOCATION   SEGMENT NAME
            -----------------------------------------------------

            * * * * * * *   D A T A   M E M O R Y   * * * * * * *
            REG     0000H     0008H     ABSOLUTE     "REG BANK 0"
            DATA    0008H     0005H     UNIT         _DATA_GROUP_
            DATA    000DH     0002H     UNIT         ?DT?SYS
                    000FH     0011H                  *** GAP ***
            BIT     0020H.0   0003H.1   UNIT         ?BI?MODBUS
            BIT     0023H.1   0001H.1   UNIT         _BIT_GROUP_
            BIT     0024H.2   0000H.7   UNIT         ?BI?UPLOAD
            BIT     0025H.1   0000H.5   UNIT         ?BI?CONTROL
            BIT     0025H.6   0000H.4   UNIT         ?BI?OTA
            BIT     0026H.2   0000H.1   UNIT         ?BI?MAIN
            BIT     0026H.3   0000H.1   UNIT         ?BI?PROTOCOL
                    0026H.4   0000H.4                *** GAP ***
BL51 BANKED LINKER/LOCATER V6.22.2.0                                                  06/30/2026  14:47:53  PAGE 3


            IDATA   0027H     0001H     UNIT         ?STACK

            * * * * * * *  X D A T A   M E M O R Y  * * * * * * *
                    0000H     8000H                  *** GAP ***
            XDATA   8000H     0475H     UNIT         ?XD?MODBUS
            XDATA   8475H     0323H     UNIT         ?XD?SYSTEM
            XDATA   8798H     0301H     UNIT         ?XD?SYS
            XDATA   8A99H     0227H     UNIT         _XDATA_GROUP_
            XDATA   8CC0H     0205H     UNIT         ?XD?ERRORHISTORY
            XDATA   8EC5H     019EH     UNIT         ?XD?UART
            XDATA   9063H     0199H     UNIT         ?XD?_ERRORHISTORY_FLASHREAD?ERRORHISTORY
            XDATA   91FCH     0132H     UNIT         ?XD?PROTOCOL
            XDATA   932EH     00B7H     UNIT         ?XD?UPLOAD
            XDATA   93E5H     0057H     UNIT         ?XD?CONTROL
            XDATA   943CH     004CH     UNIT         ?XD?UPLOAD_CHECK_STATUS?UPLOAD
            XDATA   9488H     003AH     UNIT         ?XD?_MEMORY_WRITETIMERSLOT?SYS
            XDATA   94C2H     003AH     UNIT         ?XD?_MEMORY_READTIMERSLOT?SYS
            XDATA   94FCH     001BH     UNIT         ?XD?RTC
            XDATA   9517H     0019H     UNIT         ?XD?MCU_API
            XDATA   9530H     0010H     UNIT         ?XD?UPLOAD_ELECTRICITY_STATISTICS?UPLOAD
            XDATA   9540H     000CH     UNIT         ?XD?_ERRORHISTORY_UNPACKRECLEGACY?ERRORHISTORY
            XDATA   954CH     000BH     UNIT         ?XD?OTA
            XDATA   9557H     000AH     UNIT         ?XD?_ERRORHISTORY_UNPACKREC?ERRORHISTORY
            XDATA   9561H     0009H     UNIT         ?XD?_MY_MEMSET?MCU_API
            XDATA   956AH     0009H     UNIT         ?XD?_MY_STRCPY?MCU_API
            XDATA   9573H     0007H     UNIT         ?XD?_MCU_DP_FAULT_UPDATE?MCU_API
            XDATA   957AH     0007H     UNIT         ?XD?_UART_RECEIVE_BUFF_INPUT?MCU_API
            XDATA   9581H     0006H     UNIT         ?XD?_MODBUS_GETUSERPOWERMODE?MODBUS
            XDATA   9587H     0006H     UNIT         ?XD?_MY_STRCMP?MCU_API
            XDATA   958DH     0004H     UNIT         ?XD?_DGUS_WAITEN?SYS
            XDATA   9591H     0004H     UNIT         ?XD?_INT_TO_BYTE?MCU_API
            XDATA   9595H     0003H     UNIT         ?XD?_MODBUS_GETCHECKSTATUS?MODBUS
            XDATA   9598H     0002H     UNIT         ?XD?MAIN
            XDATA   959AH     0001H     UNIT         ?XD?_MODBUS_ISFAULTACTIVE?MODBUS
            XDATA   959BH     0001H     UNIT         ?XD?_ERRORHISTORY_CONVERTLEGACYRAWREC?ERRORHISTORY
            XDATA   959CH     0001H     UNIT         ?XD?WIFI_UART_DRAIN?MCU_API

            * * * * * * *   C O D E   M E M O R Y   * * * * * * *
            CODE    0000H     0003H     ABSOLUTE     
                    0003H     0008H                  *** GAP ***
            CODE    000BH     0003H     ABSOLUTE     
                    000EH     000DH                  *** GAP ***
            CODE    001BH     0003H     ABSOLUTE     
                    001EH     0005H                  *** GAP ***
            CODE    0023H     0003H     ABSOLUTE     
                    0026H     0005H                  *** GAP ***
            CODE    002BH     0003H     ABSOLUTE     
                    002EH     0035H                  *** GAP ***
            CODE    0063H     0003H     ABSOLUTE     
                    0066H     0005H                  *** GAP ***
            CODE    006BH     0003H     ABSOLUTE     
                    006EH     008AH                  *** GAP ***
            CODE    00F8H     0008H     ABSOLUTE     
            CODE    0100H     199DH     UNIT         ?PR?CONTROL_FUNCTION1?CONTROL
            CODE    1A9DH     12BCH     UNIT         ?PR?MODBUS_ANALYSIS_DATA1?MODBUS
            CODE    2D59H     0E1AH     UNIT         ?PR?MODBUS_SALVE_HANDLER1?MODBUS
            CODE    3B73H     0BF5H     UNIT         ?C?LIB_CODE
BL51 BANKED LINKER/LOCATER V6.22.2.0                                                  06/30/2026  14:47:53  PAGE 4


            CODE    4768H     0A32H     UNIT         ?C_INITSEG
            CODE    519AH     080FH     UNIT         ?PR?_DATA_HANDLE?SYSTEM
            CODE    59A9H     0483H     UNIT         ?PR?PRINTF?PRINTF
            CODE    5E2CH     038EH     UNIT         ?PR?OTAENCODEPRO?OTA
            CODE    61BAH     02F7H     UNIT         ?PR?TEMPUNIT_REFRESHALL?CONTROL
            CODE    64B1H     02E3H     UNIT         ?PR?_DP_DOWNLOAD_INSIDE_TIME_OPEN_HANDLE?PROTOCOL
            CODE    6794H     02BAH     UNIT         ?PR?TIMERRUNNING?CONTROL
            CODE    6A4EH     02B5H     UNIT         ?PR?_TEMP_LIMIT?CONTROL
            CODE    6D03H     0286H     UNIT         ?PR?_DP_DOWNLOAD_INDOOR_UNIT_HANDLE?PROTOCOL
            CODE    6F89H     026AH     UNIT         ?PR?_TIMESTAMP_TO_YMDHMS?PROTOCOL
            CODE    71F3H     0260H     UNIT         ?PR?_ERRORHISTORY_FLASHREAD?ERRORHISTORY
            CODE    7453H     0252H     UNIT         ?PR?_STRTOUL?STRTOUL
            CODE    76A5H     023CH     UNIT         ?PR?_ERRORHISTORY_PACKREC?ERRORHISTORY
            CODE    78E1H     022BH     UNIT         ?PR?SYNCTIMERFROMVP?CONTROL
            CODE    7B0CH     0227H     UNIT         ?PR?UPLOAD_INDOOR_UNIT?UPLOAD
            CODE    7D33H     020EH     UNIT         ?PR?_MODBUS_FILLINDOORUNITREGS?MODBUS
            CODE    7F41H     01FBH     UNIT         ?PR?_MODBUS_APPLYINDOORTIMERVPTOUNITS?MODBUS
            CODE    813CH     01EDH     UNIT         ?PR?_READ_DGUS_VP?SYS
            CODE    8329H     01ECH     UNIT         ?PR?UPLOAD_INSIDE_TIME_OPEN?UPLOAD
            CODE    8515H     01E7H     UNIT         ?PR?_DP_DOWNLOAD_EXTERNAL_TIME_OPEN_HANDLE?PROTOCOL
            CODE    86FCH     01D6H     UNIT         ?PR?_DP_DOWNLOAD_TIMESTAMP_HANDLE?PROTOCOL
            CODE    88D2H     01BEH     UNIT         ?PR?RDTIME?RTC
            CODE    8A90H     01BBH     UNIT         ?PR?DEFROST_CHECKEXIT?CONTROL
            CODE    8C4BH     01B9H     UNIT         ?PR?UPLOAD_EXTERNAL_TIME_OPEN?UPLOAD
            CODE    8E04H     01B4H     UNIT         ?PR?_WRITE_DGUS_VP?SYS
            CODE    8FB8H     01ABH     UNIT         ?PR?RTC_GETUNIXLOCAL?RTC
            CODE    9163H     01A2H     UNIT         ?PR?_WIFI_UART_TRY_FRAME_LEN?MCU_API
            CODE    9305H     0197H     UNIT         ?PR?_ERRORHISTORY_UNPACKRECLEGACY?ERRORHISTORY
            CODE    949CH     0193H     UNIT         ?PR?_ERRORHISTORY_UNPACKREC?ERRORHISTORY
            CODE    962FH     0187H     UNIT         ?PR?_DP_DOWNLOAD_HANDLE?PROTOCOL
            CODE    97B6H     016DH     UNIT         ?PR?MAIN?MAIN
            CODE    9923H     016CH     UNIT         ?PR?MODBUS_REFRESHCHECKPARAMDISPLAY?MODBUS
            CODE    9A8FH     0167H     UNIT         ?PR?CHECK_RTC_SET?RTC
            CODE    9BF6H     0167H     UNIT         ?PR?_MY_MEMCPY?MCU_API
            CODE    9D5DH     015FH     UNIT         ?PR?_MCU_DP_FAULT_UPDATE?MCU_API
            CODE    9EBCH     015EH     UNIT         ?PR?_UPDATEERRORHISTORY?ERRORHISTORY
            CODE    A01AH     0153H     UNIT         ?PR?SCREENSAVER_PRO?CONTROL
            CODE    A16DH     0140H     UNIT         ?PR?_FLASHCHECKSUMCALCULATE?SYS
            CODE    A2ADH     013CH     UNIT         ?PR?HOMEPAGE_ICON?CONTROL
            CODE    A3E9H     0139H     UNIT         ?PR?_DP_DOWNLOAD_SWITCH_HANDLE?PROTOCOL
            CODE    A522H     0138H     UNIT         ?PR?_BYTE_TO_INT?MCU_API
            CODE    A65AH     0126H     UNIT         ?PR?TIMER_APPLYINDOORON?CONTROL
            CODE    A780H     0121H     UNIT         ?PR?PRODUCT_INFO_UPDATE?SYSTEM
            CODE    A8A1H     011BH     UNIT         ?PR?_UPLOAD_ULTOSTR?UPLOAD
            CODE    A9BCH     0116H     UNIT         ?PR?T0_ISR_PC?SYS
            CODE    AAD2H     0113H     UNIT         ?PR?RTCDISPLAY4CHANGE?CONTROL
            CODE    ABE5H     0110H     UNIT         ?PR?_MODBUS_FILLGROUPCONTROLREGS?MODBUS
            CODE    ACF5H     010FH     UNIT         ?PR?_ERRORHISTORY_READTIME?ERRORHISTORY
            CODE    AE04H     010EH     UNIT         ?PR?PREFILLSETTEMPEDITPAGE?CONTROL
            CODE    AF12H     010BH     UNIT         ?PR?UART5_RX_ISR_PC?UART
            CODE    B01DH     010AH     UNIT         ?PR?UPLOAD_HISTORY_FAULTS?UPLOAD
            CODE    B127H     0106H     UNIT         ?PR?HOMEPAGE_SYNCINDOORDISPLAY?CONTROL
            CODE    B22DH     0104H     UNIT         ?PR?_SYNCHOMEDISPLAYIFFIRSTINDOORMODECHANGED?CONTROL
            CODE    B331H     0102H     UNIT         ?PR?ERRORHISTORYDISPLAY?ERRORHISTORY
            CODE    B433H     00FBH     UNIT         ?PR?_HOMEPAGE_UPDATEMODEANIMATION?CONTROL
            CODE    B52EH     00F6H     UNIT         ?PR?_KEYADJUSTSETTEMPFORMODE?CONTROL
            CODE    B624H     00F4H     UNIT         ?PR?READY4WRITERTC?CONTROL
BL51 BANKED LINKER/LOCATER V6.22.2.0                                                  06/30/2026  14:47:53  PAGE 5


            CODE    B718H     00EDH     UNIT         ?PR?UPLOAD_INSIDE_TIME_CLOSE?UPLOAD
            CODE    B805H     00EDH     UNIT         ?PR?UPLOAD_EXTERNAL_TIME_CLOSE?UPLOAD
            CODE    B8F2H     00E9H     UNIT         ?PR?_UPLOAD_SHADOW_VALUE?UPLOAD
            CODE    B9DBH     00E9H     UNIT         ?PR?_DP_DOWNLOAD_MODE_HANDLE?PROTOCOL
            CODE    BAC4H     00E4H     UNIT         ?PR?_RTC_CONFIG?RTC
            CODE    BBA8H     00D8H     UNIT         ?PR?MODBUS_TRIGGERUSERWRITE?MODBUS
            CODE    BC80H     00D4H     UNIT         ?PR?_DP_DOWNLOAD_EXTERNAL_TIME_CLOSE_HANDLE?PROTOCOL
            CODE    BD54H     00D2H     UNIT         ?PR?_MODBUS_SYNCHOMEINDOORMODEFROMUNIT?MODBUS
            CODE    BE26H     00D1H     UNIT         ?PR?_UART_RECEIVE_INPUT?MCU_API
            CODE    BEF7H     00D1H     UNIT         ?PR?_DP_DOWNLOAD_INSIDE_TIME_CLOSE_HANDLE?PROTOCOL
            CODE    BFC8H     00CFH     UNIT         ?PR?WIFI_UART_PARSE_FRAMES?MCU_API
            CODE    C097H     00C8H     UNIT         ?PR?_MODBUS_WRITEFLOATTEMPPAIR?MODBUS
            CODE    C15FH     00C7H     UNIT         ?PR?_TEMPUNITTRANS?CONTROL
            CODE    C226H     00C4H     UNIT         ?PR?_DP_DOWNLOAD_TEMP_SET_HANDLE?PROTOCOL
            CODE    C2EAH     00C3H     UNIT         ?PR?INIT_RTC?RTC
            CODE    C3ADH     00BFH     UNIT         ?PR?_MEMORY_WRITETIMERSLOT?SYS
            CODE    C46CH     00BFH     UNIT         ?CO?MODBUS
            CODE    C52BH     00B9H     UNIT         ?PR?_CALCULATEMODBUSCRC?MODBUS
            CODE    C5E4H     00B6H     UNIT         ?PR?UART2_ISR_PC?UART
            CODE    C69AH     00B5H     UNIT         ?PR?_MCU_DP_VALUE_UPDATE?MCU_API
            CODE    C74FH     00ACH     UNIT         ?PR?_MODBUS_PACKCHECKSTATUSBLOCK?MODBUS
            CODE    C7FBH     00ABH     UNIT         ?PR?_ERRORHISTORY_FLASHWRITE?ERRORHISTORY
            CODE    C8A6H     00A7H     UNIT         ?PR?_TIMER_ISINDOORWEEKDAYMATCH?CONTROL
            CODE    C94DH     00A6H     UNIT         ?PR?_TIMER_ISEXTERNALWEEKDAYMATCH?CONTROL
            CODE    C9F3H     00A6H     UNIT         ?PR?UPLOAD_CHECK_STATUS?UPLOAD
            CODE    CA99H     00A4H     UNIT         ?PR?RTCUPDATE?RTC
            CODE    CB3DH     00A1H     UNIT         ?C_C51STARTUP
            CODE    CBDEH     00A0H     UNIT         ?PR?_MEMORY_READTIMERSLOT?SYS
            CODE    CC7EH     009FH     UNIT         ?PR?_MCU_FIRM_UPDATE_HANDLE?PROTOCOL
            CODE    CD1DH     009BH     UNIT         ?PR?_SYNCSETTEMPCACHESFROMC?CONTROL
            CODE    CDB8H     009AH     UNIT         ?PR?_DATA_POINT_HANDLE?SYSTEM
            CODE    CE52H     0094H     UNIT         ?PR?_RTC_GET_WEEK?RTC
            CODE    CEE6H     0091H     UNIT         ?PR?UART5_TX_ISR_PC?UART
            CODE    CF77H     0091H     UNIT         ?PR?_RTC_WRITEDISPLAYTIME?RTC
            CODE    D008H     0091H     UNIT         ?PR?_RTC_WRITEEDITTIME?RTC
            CODE    D099H     0091H     UNIT         ?PR?_WIFI_UART_REMOVE_FRAME?MCU_API
            CODE    D12AH     008EH     UNIT         ?PR?_MODBUS_DBGLOGTX?MODBUS
            CODE    D1B8H     008AH     UNIT         ?PR?ERRORHISTORY_TRYMIGRATEFLASH?ERRORHISTORY
            CODE    D242H     008AH     UNIT         ?PR?_MY_STRCPY?MCU_API
            CODE    D2CCH     008AH     UNIT         ?PR?WIFI_UART_PARSE_CMD6_PRIORITY?MCU_API
            CODE    D356H     0086H     UNIT         ?CO?MAIN
            CODE    D3DCH     0083H     UNIT         ?PR?_READTIMERTEMPC?CONTROL
            CODE    D45FH     0083H     UNIT         ?PR?_MODBUS_APPENDMODESETTEMPREG?MODBUS
            CODE    D4E2H     0083H     UNIT         ?PR?_MCU_DP_RAW_UPDATE?MCU_API
            CODE    D565H     0083H     UNIT         ?PR?_MCU_DP_STRING_UPDATE?MCU_API
            CODE    D5E8H     0080H     UNIT         ?PR?_MODBUS_INDOORREGSCHANGED?MODBUS
            CODE    D668H     007DH     UNIT         ?PR?_MODBUS_DBGLOGRX?MODBUS
            CODE    D6E5H     007DH     UNIT         ?PR?UPLOAD_PACKTIMERROOMBYTE?UPLOAD
            CODE    D762H     007BH     UNIT         ?PR?OTADECODEPRO?OTA
            CODE    D7DDH     0079H     UNIT         ?PR?_GETTIMEDIFF?RTC
            CODE    D856H     0078H     UNIT         ?PR?TIMER_APPLYINDOOROFF?CONTROL
            CODE    D8CEH     0078H     UNIT         ?PR?_UART5_SENDSTR?UART
            CODE    D946H     0077H     UNIT         ?PR?MODBUSCHANELCONTROL?MAIN
            CODE    D9BDH     0075H     UNIT         ?PR?_MY_STRLEN?MCU_API
            CODE    DA32H     0073H     UNIT         ?PR?MODBUS_ADVANCEPOLLONTIMEOUT?MODBUS
            CODE    DAA5H     0073H     UNIT         ?PR?_MY_STRCMP?MCU_API
            CODE    DB18H     0072H     UNIT         ?PR?UPLOAD_DP_TEMP_TOP?UPLOAD
BL51 BANKED LINKER/LOCATER V6.22.2.0                                                  06/30/2026  14:47:53  PAGE 6


            CODE    DB8AH     0072H     UNIT         ?PR?UPLOAD_DP_EFFLUENT_TEMP?UPLOAD
            CODE    DBFCH     0072H     UNIT         ?PR?UPLOAD_DP_AROUND_TEMP?UPLOAD
            CODE    DC6EH     0072H     UNIT         ?PR?UPLOAD_DP_EVAPORATOR_TEMP?UPLOAD
            CODE    DCE0H     0072H     UNIT         ?PR?UPLOAD_DP_DEFROST_OUT_TEMP?UPLOAD
            CODE    DD52H     0071H     UNIT         ?PR?UPLOAD_DP_TEMP_CURRENT?UPLOAD
            CODE    DDC3H     0071H     UNIT         ?PR?_HEX_TO_BCD?MCU_API
            CODE    DE34H     006DH     UNIT         ?PR?TEMPUNIT_REFRESHACTIVESETFROMMODE?CONTROL
            CODE    DEA1H     006DH     UNIT         ?PR?_ERRORHISTORY_CONVERTLEGACYRAWREC?ERRORHISTORY
            CODE    DF0EH     006CH     UNIT         ?PR?_SET_WIFI_UART_BUFFER?SYSTEM
            CODE    DF7AH     0069H     UNIT         ?PR?INIT_CPU?SYS
            CODE    DFE3H     0069H     UNIT         ?PR?UPLOAD_STATE_QUERY_REPLY?UPLOAD
            CODE    E04CH     0069H     UNIT         ?PR?_WIFI_UART_WRITE_FRAME?SYSTEM
            CODE    E0B5H     0067H     UNIT         ?PR?_UPLOAD_VALUEIFCHANGED?UPLOAD
            CODE    E11CH     0066H     UNIT         ?PR?_SYNCINDOORSETTEMPVPPAIR?CONTROL
            CODE    E182H     0066H     UNIT         ?PR?_MODBUS_GROUPREGSCHANGED?MODBUS
            CODE    E1E8H     0066H     UNIT         ?PR?UPLOAD_TIMESTAMP_FROM_RTC?UPLOAD
            CODE    E24EH     0065H     UNIT         ?PR?GETVALUE0F00?CONTROL
            CODE    E2B3H     0065H     UNIT         ?PR?_MODBUS_SAVEINDOORSENTREGS?MODBUS
            CODE    E318H     0064H     UNIT         ?PR?_SETTEMPINTVPBYMODE?CONTROL
            CODE    E37CH     0063H     UNIT         ?PR?TAKE_BYTE_RXBUFF?SYSTEM
            CODE    E3DFH     0060H     UNIT         ?PR?_INT_TO_BYTE?MCU_API
            CODE    E43FH     005FH     UNIT         ?PR?_SYNCTIMERTEMPVPPAIR?CONTROL
            CODE    E49EH     005FH     UNIT         ?PR?_DP_DOWNLOAD_DEFROST_HANDLE?PROTOCOL
            CODE    E4FDH     005CH     UNIT         ?PR?_TEMPUNIT_REFRESHFLOATPAIR?CONTROL
            CODE    E559H     0058H     UNIT         ?PR?_MY_MEMSET?MCU_API
            CODE    E5B1H     0058H     UNIT         ?CO?SYSTEM
            CODE    E609H     0057H     UNIT         ?PR?_UART_RECEIVE_BUFF_INPUT?MCU_API
            CODE    E660H     0055H     UNIT         ?PR?T1_ISR_PC?SYS
            CODE    E6B5H     0054H     UNIT         ?PR?_MODBUS_ISFAULTACTIVE?MODBUS
            CODE    E709H     0054H     UNIT         ?PR?DECODEERRORHISTORY?ERRORHISTORY
            CODE    E75DH     0054H     UNIT         ?PR?_WIFI_UART_WRITE_DATA?SYSTEM
            CODE    E7B1H     0052H     UNIT         ?CO?SYS
            CODE    E803H     0052H     UNIT         ?PR?_MCU_DP_BOOL_UPDATE?MCU_API
            CODE    E855H     0051H     UNIT         ?PR?_MODBUS_TRIGGERINDOORUNITWRITE?MODBUS
            CODE    E8A6H     0051H     UNIT         ?PR?_DP_DOWNLOAD_TEMP_UNIT_CONVERT_HANDLE?PROTOCOL
            CODE    E8F7H     0050H     UNIT         ?PR?ERRORHISTORY_SANITIZE?ERRORHISTORY
            CODE    E947H     004FH     UNIT         ?CO?PROTOCOL
            CODE    E996H     004EH     UNIT         ?PR?SAVE_DATA_HANDLER?SYS
            CODE    E9E4H     004EH     UNIT         ?PR?_WIFI_UART_RX_BYTE_SCAN?MCU_API
            CODE    EA32H     004EH     UNIT         ?PR?_DP_DOWNLOAD_CHILD_LOCK_HANDLE?PROTOCOL
            CODE    EA80H     004CH     UNIT         ?PR?_MODBUS_SAVEGROUPSENTREGS?MODBUS
            CODE    EACCH     004CH     UNIT         ?PR?_MCU_DP_ENUM_UPDATE?MCU_API
            CODE    EB18H     004BH     UNIT         ?PR?_MODBUS_APPENDU16?MODBUS
            CODE    EB63H     004AH     UNIT         ?PR?_GETMODBUSREG?MODBUS
            CODE    EBADH     004AH     UNIT         ?PR?_GET_CHECK_SUM?SYSTEM
            CODE    EBF7H     0049H     UNIT         ?PR?_MODBUS_GETCHECKSTATUS?MODBUS
            CODE    EC40H     0049H     UNIT         ?PR?_DP_DOWNLOAD_RELAY_STATUS_HANDLE?PROTOCOL
            CODE    EC89H     0047H     UNIT         ?PR?MODBUS_STARTMANUALDEFROST?MODBUS
            CODE    ECD0H     0047H     UNIT         ?PR?WIFI_UART_DRAIN?MCU_API
            CODE    ED17H     0045H     UNIT         ?PR?_DGUS_WAITEN?SYS
            CODE    ED5CH     0045H     UNIT         ?PR?SCREENTIMEOUT_SET?SYS
            CODE    EDA1H     0045H     UNIT         ?PR?_SETTEMPFLOATWRITEC?CONTROL
            CODE    EDE6H     0044H     UNIT         ?PR?SYSTEM_PARM_INIT?SYS
            CODE    EE2AH     0044H     UNIT         ?PR?HOMEPAGE?CONTROL
            CODE    EE6EH     0044H     UNIT         ?PR?ERRORHISTORY_FLASHCOMMITNOW?ERRORHISTORY
            CODE    EEB2H     0044H     UNIT         ?PR?CLEARERRORHISTORY?ERRORHISTORY
            CODE    EEF6H     0041H     UNIT         ?PR?_PAGE_CHANGE_HANDLER?SYS
BL51 BANKED LINKER/LOCATER V6.22.2.0                                                  06/30/2026  14:47:53  PAGE 7


            CODE    EF37H     003EH     UNIT         ?PR?_MODBUS_ENCODEINDOORRUNMODE?MODBUS
            CODE    EF75H     003EH     UNIT         ?PR?_RTCI2CBW?RTC
            CODE    EFB3H     003DH     UNIT         ?PR?_MODBUS_DECODEINDOORFAN?MODBUS
            CODE    EFF0H     003DH     UNIT         ?PR?UPLOAD_DP_TEMP_SET?UPLOAD
            CODE    F02DH     003DH     UNIT         ?PR?UPLOAD_DP_FAULT?UPLOAD
            CODE    F06AH     003DH     UNIT         ?PR?UPLOAD_DP_DEFROST_FREQ?UPLOAD
            CODE    F0A7H     003DH     UNIT         ?PR?UPLOAD_DP_DEFROST_TIME?UPLOAD
            CODE    F0E4H     003BH     UNIT         ?PR?MODBUS_STARTNEXTTIMERWRITE?MODBUS
            CODE    F11FH     003BH     UNIT         ?PR?UPLOAD_ELECTRICITY_STATISTICS?UPLOAD
            CODE    F15AH     003AH     UNIT         ?PR?WIFI_UART_RX_PULL?MCU_API
            CODE    F194H     0039H     UNIT         ?PR?READY_TO_SAVE?SYS
            CODE    F1CDH     0038H     UNIT         ?CO?UPLOAD
            CODE    F205H     0035H     UNIT         ?PR?_RTC_DAYS_IN_MONTH?RTC
            CODE    F23AH     0035H     UNIT         ?PR?WITH_DATA_RXBUFF?SYSTEM
            CODE    F26FH     0033H     UNIT         ?PR?_ERRORHISTORY_PAGECHANGE?ERRORHISTORY
            CODE    F2A2H     0032H     UNIT         ?PR?_MODBUS_TXU16?MODBUS
            CODE    F2D4H     0032H     UNIT         ?PR?_DELAY_US?RTC
            CODE    F306H     0032H     UNIT         ?PR?RTCI2CBR?RTC
            CODE    F338H     0031H     UNIT         ?PR?WIFI_RESTING_PRO?CONTROL
            CODE    F369H     0030H     UNIT         ?PR?_SETTEMPINTREAD?CONTROL
            CODE    F399H     0030H     UNIT         ?PR?_SETTEMPINTWRITE?CONTROL
            CODE    F3C9H     0030H     UNIT         ?PR?_IS_LEAP_YEAR?PROTOCOL
            CODE    F3F9H     002FH     UNIT         ?PR?UPLOAD_DP_MODE?UPLOAD
            CODE    F428H     002FH     UNIT         ?PR?_GET_DOWMLOAD_DPID_INDEX?SYSTEM
            CODE    F457H     002EH     UNIT         ?PR?UPLOAD_DP_WORK_STATE?UPLOAD
            CODE    F485H     002DH     UNIT         ?PR?_MODBUS_ENCODEINDOORFAN?MODBUS
            CODE    F4B2H     002DH     UNIT         ?PR?_MODBUS_DECODEINDOORMODEBITS?MODBUS
            CODE    F4DFH     002CH     UNIT         ?PR?_SET_WIFI_UART_BYTE?SYSTEM
            CODE    F50BH     002BH     UNIT         ?PR?_ERRORHISTORY_ISVALIDCODE?ERRORHISTORY
            CODE    F536H     002AH     UNIT         ?PR?UPLOAD_DP_SWITCH?UPLOAD
            CODE    F560H     002AH     UNIT         ?PR?UPLOAD_DP_TEMP_UNIT?UPLOAD
            CODE    F58AH     002AH     UNIT         ?PR?UPLOAD_DP_CHILD_LOCK?UPLOAD
            CODE    F5B4H     002AH     UNIT         ?PR?UPLOAD_DP_DEFROST?UPLOAD
            CODE    F5DEH     002AH     UNIT         ?PR?UPLOAD_DP_RELAY_STATUS?UPLOAD
            CODE    F608H     0029H     UNIT         ?PR?RTCCACK?RTC
            CODE    F631H     0029H     UNIT         ?PR?_UPLOAD_SHADOW_ENUM?UPLOAD
            CODE    F65AH     0029H     UNIT         ?PR?_MODE_MAP_TO_DGUS?PROTOCOL
            CODE    F683H     0028H     UNIT         ?PR?_LANGUAGE_CHANGE?SYS
            CODE    F6ABH     0028H     UNIT         ?PR?OTARELOAD_DELAYPAGE?CONTROL
            CODE    F6D3H     0028H     UNIT         ?PR?_RTC_IS_LEAP?RTC
            CODE    F6FBH     0028H     UNIT         ?PR?WIFI_PROTOCOL_INIT?MCU_API
            CODE    F723H     0028H     UNIT         ?PR?MCU_GET_WIFI_WORK_STATE?MCU_API
            CODE    F74BH     0027H     UNIT         ?PR?UI_OPENPAGE?MAIN
            CODE    F772H     0027H     UNIT         ?PR?_MODBUS_QUEUEINDOORTIMERWRITE?MODBUS
            CODE    F799H     0027H     UNIT         ?PR?HEAT_BEAT_CHECK?SYSTEM
            CODE    F7C0H     0026H     UNIT         ?PR?_ISITHOMEPAGE?CONTROL
            CODE    F7E6H     0026H     UNIT         ?PR?UPLOAD_GETUNIT?UPLOAD
            CODE    F80CH     0026H     UNIT         ?PR?OTAINIT?OTA
            CODE    F832H     0025H     UNIT         ?PR?_MODBUS_GETUSERPOWERMODE?MODBUS
            CODE    F857H     0024H     UNIT         ?PR?_MODBUS_REPORTFAULTCODE?MODBUS
            CODE    F87BH     0022H     UNIT         ?PR?GETPAGEID?CONTROL
            CODE    F89DH     0022H     UNIT         ?PR?UNITCHANGEPRO?CONTROL
            CODE    F8BFH     0022H     UNIT         ?PR?ERRORHISTORY_GETCOUNT?ERRORHISTORY
            CODE    F8E1H     0022H     UNIT         ?PR?_DP_DOWNLOAD_HISTORY_FAULT_EMPTY_HANDLE?PROTOCOL
            CODE    F903H     0021H     UNIT         ?PR?_UPLOAD_CLAMPINDOORTEMP?UPLOAD
            CODE    F924H     0021H     UNIT         ?PR?_UPLOAD_DGUSINDOORMODETODP?UPLOAD
            CODE    F945H     0020H     UNIT         ?PR?_BRIGHTNESS_HANDLER?SYS
BL51 BANKED LINKER/LOCATER V6.22.2.0                                                  06/30/2026  14:47:53  PAGE 8


            CODE    F965H     0020H     UNIT         ?PR?_DELAYUS?SYS
            CODE    F985H     0020H     UNIT         ?PR?_DELAYMS?SYS
            CODE    F9A5H     0020H     UNIT         ?PR?_SETMODEPROCESS?CONTROL
            CODE    F9C5H     0020H     UNIT         ?PR?_PUTCHAR?UART
            CODE    F9E5H     0020H     UNIT         ?PR?OTARECVPRO?OTA
            CODE    FA05H     001FH     UNIT         ?PR?_UPLOAD_DGUSMODETODP116?UPLOAD
            CODE    FA24H     001FH     UNIT         ?PR?_UPLOAD_SHADOW_BOOL?UPLOAD
            CODE    FA43H     001EH     UNIT         ?PR?_UPLOAD_WORKSTATETODP?UPLOAD
            CODE    FA61H     001DH     UNIT         ?PR?UART2_INIT?UART
            CODE    FA7EH     001DH     UNIT         ?PR?_UART2SENDDATA?UART
            CODE    FA9BH     001DH     UNIT         ?PR?MODBUS_TRIGGERGROUPCONTROLWRITE?MODBUS
            CODE    FAB8H     001DH     UNIT         ?PR?_MODBUS_RXU16?MODBUS
            CODE    FAD5H     001DH     UNIT         ?PR?WIFI_UART_SERVICE?MCU_API
            CODE    FAF2H     001DH     UNIT         ?PR?_DP117_MODE_TO_DGUS?PROTOCOL
            CODE    FB0FH     0019H     UNIT         ?PR?_MODBUS_SCALEINDOORSETTEMP?MODBUS
            CODE    FB28H     0019H     UNIT         ?PR?_MODBUS_UNSCALEINDOORSETTEMP?MODBUS
            CODE    FB41H     0018H     UNIT         ?PR?RTCI2CSTART?RTC
            CODE    FB59H     0018H     UNIT         ?PR?_UPLOAD_MODETODP101?UPLOAD
            CODE    FB71H     0018H     UNIT         ?PR?OTA_MODBUSPRO?OTA
            CODE    FB89H     0017H     UNIT         ?PR?RTCI2CSTOP?RTC
            CODE    FBA0H     0017H     UNIT         ?PR?_UPLOAD_BOOLIFCHANGED?UPLOAD
            CODE    FBB7H     0017H     UNIT         ?PR?_UPLOAD_ENUMIFCHANGED?UPLOAD
            CODE    FBCEH     0017H     UNIT         ?PR?_MCU_SET_WIFI_MODE?MCU_API
            CODE    FBE5H     0016H     UNIT         ?PR?T2_INIT?SYS
            CODE    FBFBH     0016H     UNIT         ?PR?_MODBUS_PACKCHECKSTATUSBYTE?MODBUS
            CODE    FC11H     0016H     UNIT         ?PR?_MODBUS_TRIGGERDEFROSTPARAMWRITE?MODBUS
            CODE    FC27H     0016H     UNIT         ?PR?WIFI_UART_PROCESS_DOWNLOAD?MCU_API
            CODE    FC3DH     0015H     UNIT         ?PR?UART5_INIT?UART
            CODE    FC52H     0015H     UNIT         ?PR?MODBUS_USERHOLDACTIVE?MODBUS
            CODE    FC67H     0014H     UNIT         ?PR?READ_NOR_FLASH?SYS
            CODE    FC7BH     0014H     UNIT         ?PR?WRITE_NOR_FLASH?SYS
            CODE    FC8FH     0013H     UNIT         ?PR?T2_ISR_PC?SYS
            CODE    FCA2H     0013H     UNIT         ?PR?_BCD?RTC
            CODE    FCB5H     0013H     UNIT         ?PR?_ERRORHISTORY_CLAMPBYTE?ERRORHISTORY
            CODE    FCC8H     0013H     UNIT         ?PR?_UPGRADE_PACKAGE_CHOOSE?PROTOCOL
            CODE    FCDBH     0013H     UNIT         ?PR?_FILE_DOWNLOAD_PACKAGE_CHOOSE?PROTOCOL
            CODE    FCEEH     0012H     UNIT         ?PR?UART4_INIT?UART
            CODE    FD00H     0012H     UNIT         ?PR?RTCMACK?RTC
            CODE    FD12H     0012H     UNIT         ?PR?_FILE_DOWNLOAD_HANDLE?PROTOCOL
            CODE    FD24H     0010H     UNIT         ?PR?T0_INIT?SYS
            CODE    FD34H     0010H     UNIT         ?PR?T1_INIT?SYS
            CODE    FD44H     0010H     UNIT         ?PR?RTCMNAK?RTC
            CODE    FD54H     0010H     UNIT         ?CO?RTC
            CODE    FD64H     0010H     UNIT         ?PR?ERRORHISTORY_GETMAXPAGE?ERRORHISTORY
            CODE    FD74H     0010H     UNIT         ?PR?UPLOAD_YIELDWIFI?UPLOAD
            CODE    FD84H     000FH     UNIT         ?PR?_DELAY_MS?SYS
            CODE    FD93H     000FH     UNIT         ?PR?GETSYSTICKTIME?RTC
            CODE    FDA2H     000FH     UNIT         ?PR?_UPLOAD_SET_BOOT_READY?UPLOAD
            CODE    FDB1H     000EH     UNIT         ?PR?ERRORHISTORY_INIT?ERRORHISTORY
            CODE    FDBFH     000EH     UNIT         ?PR?MCU_RESET_WIFI?MCU_API
            CODE    FDCDH     000DH     UNIT         ?PR?_MODBUS_RXRELREG?MODBUS
            CODE    FDDAH     000DH     UNIT         ?PR?_RTC_MONTHFROMDISPLAYVP?RTC
            CODE    FDE7H     000DH     UNIT         ?PR?_MCU_GET_DP_DOWNLOAD_BOOL?MCU_API
            CODE    FDF4H     000DH     UNIT         ?PR?_MCU_GET_DP_DOWNLOAD_ENUM?MCU_API
            CODE    FE01H     000DH     UNIT         ?PR?_WIFI_UART_FRAME_VERSION_OK?MCU_API
            CODE    FE0EH     000DH     UNIT         ?CO?MCU_API
            CODE    FE1BH     000CH     UNIT         ?CO?ERRORHISTORY
BL51 BANKED LINKER/LOCATER V6.22.2.0                                                  06/30/2026  14:47:53  PAGE 9


            CODE    FE27H     000BH     UNIT         ?PR?_MCU_GET_DP_DOWNLOAD_VALUE?MCU_API
            CODE    FE32H     000AH     UNIT         ?PR?PORT_INIT?SYS
            CODE    FE3CH     000AH     UNIT         ?PR?MODBUS_CLEARMANUALDEFROST?MODBUS
            CODE    FE46H     000AH     UNIT         ?PR?MCU_START_WIFITEST?MCU_API
            CODE    FE50H     000AH     UNIT         ?PR?GET_MCU_WIFI_MODE?SYSTEM
            CODE    FE5AH     0009H     UNIT         ?PR?MODBUS_YIELDWIFI?MODBUS
            CODE    FE63H     0009H     UNIT         ?PR?UPLOAD_TIMESTAMP_BOOT_ONCE?UPLOAD
            CODE    FE6CH     0009H     UNIT         ?PR?_WIFI_TEST_RESULT?PROTOCOL
            CODE    FE75H     0008H     UNIT         ?PR?ERRORHISTORY_FLASHVPADDR?ERRORHISTORY
            CODE    FE7DH     0006H     UNIT         ?CO?CONTROL
            CODE    FE83H     0006H     UNIT         ?PR?RTC_GET_WEEKDAY?RTC
            CODE    FE89H     0006H     UNIT         ?PR?ERRORHISTORY_RESETPAGE?ERRORHISTORY
            CODE    FE8FH     0006H     UNIT         ?PR?UPLOAD_IS_BOOT_READY?UPLOAD
            CODE    FE95H     0006H     UNIT         ?PR?WIFI_INIT?WIFIPRO
            CODE    FE9BH     0006H     UNIT         ?PR?MCU_GET_RESET_WIFI_FLAG?MCU_API
            CODE    FEA1H     0006H     UNIT         ?PR?MCU_GET_WIFIMODE_FLAG?MCU_API
            CODE    FEA7H     0003H     UNIT         ?PR?READY_TO_SAVE_REPORT?SYS
            CODE    FEAAH     0003H     UNIT         ?PR?MODBUS_INIT?MODBUS
            CODE    FEADH     0003H     UNIT         ?PR?_UART_TRANSMIT_OUTPUT?PROTOCOL
            CODE    FEB0H     0003H     UNIT         ?PR?ALL_DATA_UPDATE?PROTOCOL
            CODE    FEB3H     0003H     UNIT         ?PR?GET_DOWNLOAD_CMD_TOTAL?PROTOCOL
            CODE    FEB6H     0001H     UNIT         ?PR?WRITE_MEMORY?SYS
            CODE    FEB7H     0001H     UNIT         ?PR?READ_MEMORY?SYS
            CODE    FEB8H     0001H     UNIT         ?PR?READ_MEMORY_ERROR?SYS
            CODE    FEB9H     0001H     UNIT         ?PR?_UWOERRORCODEPROCESS?ERRORHISTORY
            CODE    FEBAH     0001H     UNIT         ?PR?UPLOAD_ALL_TIMERS?UPLOAD
            CODE    FEBBH     0001H     UNIT         ?PR?UPLOAD_MODBUS_POLL_REPORT?UPLOAD



OVERLAY MAP OF MODULE:   .\obj\T5L51 (?C_STARTUP)


SEGMENT                                             BIT_GROUP          DATA_GROUP          XDATA_GROUP
  +--> CALLED SEGMENT                            START    LENGTH     START    LENGTH     START    LENGTH
--------------------------------------------------------------------------------------------------------
?C_C51STARTUP                                    -----    -----      -----    -----      -----    -----
  +--> ?PR?MAIN?MAIN
  +--> ?C_INITSEG

?PR?MAIN?MAIN                                    -----    -----      -----    -----      -----    -----
  +--> ?PR?INIT_CPU?SYS
  +--> ?PR?PORT_INIT?SYS
  +--> ?PR?T0_INIT?SYS
  +--> ?PR?T1_INIT?SYS
  +--> ?PR?T2_INIT?SYS
  +--> ?PR?MODBUS_INIT?MODBUS
  +--> ?PR?UART4_INIT?UART
  +--> ?PR?WIFI_INIT?WIFIPRO
  +--> ?PR?INIT_RTC?RTC
  +--> ?PR?SYSTEM_PARM_INIT?SYS
  +--> ?PR?WIFI_UART_SERVICE?MCU_API
  +--> ?PR?MODBUS_SALVE_HANDLER1?MODBUS
  +--> ?PR?CONTROL_FUNCTION1?CONTROL
  +--> ?PR?SAVE_DATA_HANDLER?SYS
  +--> ?PR?MODBUSCHANELCONTROL?MAIN
  +--> ?PR?RTCUPDATE?RTC
BL51 BANKED LINKER/LOCATER V6.22.2.0                                                  06/30/2026  14:47:53  PAGE 10


  +--> ?PR?HOMEPAGE_ICON?CONTROL
  +--> ?PR?DECODEERRORHISTORY?ERRORHISTORY
  +--> ?CO?MAIN
  +--> ?PR?PRINTF?PRINTF
  +--> ?PR?MCU_GET_WIFI_WORK_STATE?MCU_API
  +--> ?PR?UI_OPENPAGE?MAIN
  +--> ?PR?TIMERRUNNING?CONTROL
  +--> ?PR?WIFI_RESTING_PRO?CONTROL
  +--> ?PR?OTARELOAD_DELAYPAGE?CONTROL
  +--> ?PR?SCREENSAVER_PRO?CONTROL

?PR?MODBUS_INIT?MODBUS                           -----    -----      -----    -----      -----    -----
  +--> ?PR?UART5_INIT?UART

?PR?WIFI_INIT?WIFIPRO                            -----    -----      -----    -----      -----    -----
  +--> ?PR?UART2_INIT?UART
  +--> ?PR?WIFI_PROTOCOL_INIT?MCU_API

?PR?INIT_RTC?RTC                                 -----    -----      -----    -----      8A99H    0002H
  +--> ?PR?RTCI2CSTART?RTC
  +--> ?PR?_RTCI2CBW?RTC
  +--> ?PR?RTCI2CSTOP?RTC
  +--> ?PR?RTCI2CBR?RTC
  +--> ?PR?RTCMACK?RTC
  +--> ?PR?RTCMNAK?RTC

?PR?RTCI2CSTART?RTC                              -----    -----      -----    -----      -----    -----
  +--> ?PR?_DELAY_US?RTC

?PR?_DELAY_US?RTC                                -----    -----      0008H    0004H      -----    -----

?PR?_RTCI2CBW?RTC                                -----    -----      -----    -----      -----    -----
  +--> ?PR?_DELAY_US?RTC
  +--> ?PR?RTCCACK?RTC

?PR?RTCCACK?RTC                                  -----    -----      -----    -----      -----    -----
  +--> ?PR?_DELAY_US?RTC

?PR?RTCI2CSTOP?RTC                               -----    -----      -----    -----      -----    -----
  +--> ?PR?_DELAY_US?RTC

?PR?RTCI2CBR?RTC                                 -----    -----      -----    -----      -----    -----
  +--> ?PR?_DELAY_US?RTC

?PR?RTCMACK?RTC                                  -----    -----      -----    -----      -----    -----
  +--> ?PR?_DELAY_US?RTC

?PR?RTCMNAK?RTC                                  -----    -----      -----    -----      -----    -----
  +--> ?PR?_DELAY_US?RTC

?PR?SYSTEM_PARM_INIT?SYS                         -----    -----      -----    -----      8A99H    0002H
  +--> ?PR?READ_NOR_FLASH?SYS
  +--> ?PR?_DELAY_MS?SYS
  +--> ?PR?_READ_DGUS_VP?SYS
  +--> ?PR?_FLASHCHECKSUMCALCULATE?SYS
  +--> ?PR?READ_MEMORY_ERROR?SYS
  +--> ?PR?READ_MEMORY?SYS
BL51 BANKED LINKER/LOCATER V6.22.2.0                                                  06/30/2026  14:47:53  PAGE 11



?PR?READ_NOR_FLASH?SYS                           -----    -----      -----    -----      -----    -----
  +--> ?CO?SYS
  +--> ?PR?_WRITE_DGUS_VP?SYS
  +--> ?PR?_DELAY_MS?SYS
  +--> ?PR?_READ_DGUS_VP?SYS

?PR?_WRITE_DGUS_VP?SYS                           -----    -----      -----    -----      8CAEH    000FH

?PR?_READ_DGUS_VP?SYS                            -----    -----      -----    -----      8B5EH    0015H

?PR?_FLASHCHECKSUMCALCULATE?SYS                  -----    -----      -----    -----      8A9BH    002AH
  +--> ?CO?SYS
  +--> ?PR?_READ_DGUS_VP?SYS

?PR?WIFI_UART_SERVICE?MCU_API                    -----    -----      -----    -----      -----    -----
  +--> ?PR?WIFI_UART_RX_PULL?MCU_API
  +--> ?PR?WIFI_UART_PARSE_FRAMES?MCU_API

?PR?WIFI_UART_RX_PULL?MCU_API                    -----    -----      -----    -----      -----    -----
  +--> ?PR?WITH_DATA_RXBUFF?SYSTEM
  +--> ?PR?TAKE_BYTE_RXBUFF?SYSTEM

?PR?WIFI_UART_PARSE_FRAMES?MCU_API               -----    -----      -----    -----      8AE9H    0004H
  +--> ?PR?WIFI_UART_PARSE_CMD6_PRIORITY?MCU...
  +--> ?PR?_WIFI_UART_TRY_FRAME_LEN?MCU_API
  +--> ?PR?_DATA_HANDLE?SYSTEM
  +--> ?PR?_MY_MEMCPY?MCU_API

?PR?WIFI_UART_PARSE_CMD6_PRIORITY?MCU...         -----    -----      -----    -----      8AEDH    0004H
  +--> ?PR?_WIFI_UART_TRY_FRAME_LEN?MCU_API
  +--> ?PR?_DATA_HANDLE?SYSTEM
  +--> ?PR?_WIFI_UART_REMOVE_FRAME?MCU_API

?PR?_WIFI_UART_TRY_FRAME_LEN?MCU_API             -----    -----      -----    -----      8AF1H    0008H
  +--> ?PR?_WIFI_UART_FRAME_VERSION_OK?MCU_API
  +--> ?PR?_GET_CHECK_SUM?SYSTEM

?PR?_GET_CHECK_SUM?SYSTEM                        -----    -----      -----    -----      8B9BH    0006H

?PR?_DATA_HANDLE?SYSTEM                          -----    -----      -----    -----      8AF1H    0014H
  +--> ?PR?HEAT_BEAT_CHECK?SYSTEM
  +--> ?PR?PRODUCT_INFO_UPDATE?SYSTEM
  +--> ?PR?GET_MCU_WIFI_MODE?SYSTEM
  +--> ?CO?SYSTEM
  +--> ?PR?PRINTF?PRINTF
  +--> ?PR?_DATA_POINT_HANDLE?SYSTEM
  +--> ?PR?ALL_DATA_UPDATE?PROTOCOL
  +--> ?PR?_UPGRADE_PACKAGE_CHOOSE?PROTOCOL
  +--> ?PR?_MCU_FIRM_UPDATE_HANDLE?PROTOCOL
  +--> ?PR?_WIFI_UART_WRITE_FRAME?SYSTEM
  +--> ?PR?_WIFI_TEST_RESULT?PROTOCOL
  +--> ?PR?_FILE_DOWNLOAD_PACKAGE_CHOOSE?PRO...
  +--> ?PR?_FILE_DOWNLOAD_HANDLE?PROTOCOL

?PR?HEAT_BEAT_CHECK?SYSTEM                       -----    -----      -----    -----      -----    -----
  +--> ?PR?_SET_WIFI_UART_BYTE?SYSTEM
BL51 BANKED LINKER/LOCATER V6.22.2.0                                                  06/30/2026  14:47:53  PAGE 12


  +--> ?PR?_WIFI_UART_WRITE_FRAME?SYSTEM

?PR?_SET_WIFI_UART_BYTE?SYSTEM                   -----    -----      -----    -----      8B99H    0002H

?PR?_WIFI_UART_WRITE_FRAME?SYSTEM                -----    -----      -----    -----      8B99H    0002H
  +--> ?PR?_GET_CHECK_SUM?SYSTEM
  +--> ?PR?_WIFI_UART_WRITE_DATA?SYSTEM

?PR?_WIFI_UART_WRITE_DATA?SYSTEM                 -----    -----      -----    -----      8B9BH    0005H
  +--> ?PR?_UART_TRANSMIT_OUTPUT?PROTOCOL

?PR?_UART_TRANSMIT_OUTPUT?PROTOCOL               -----    -----      -----    -----      -----    -----
  +--> ?PR?_UART2SENDDATA?UART

?PR?_UART2SENDDATA?UART                          -----    -----      -----    -----      -----    -----
  +--> ?PR?WIFI_UART_RX_PULL?MCU_API

?PR?PRODUCT_INFO_UPDATE?SYSTEM                   -----    -----      -----    -----      8B05H    000DH
  +--> ?CO?SYSTEM
  +--> ?PR?_MY_STRLEN?MCU_API
  +--> ?PR?_SET_WIFI_UART_BUFFER?SYSTEM
  +--> ?PR?_WIFI_UART_WRITE_FRAME?SYSTEM

?PR?_MY_STRLEN?MCU_API                           -----    -----      -----    -----      8B12H    0007H

?PR?_SET_WIFI_UART_BUFFER?SYSTEM                 -----    -----      -----    -----      8B99H    0007H
  +--> ?PR?_MY_MEMCPY?MCU_API

?PR?_MY_MEMCPY?MCU_API                           -----    -----      -----    -----      8BA0H    0010H

?PR?GET_MCU_WIFI_MODE?SYSTEM                     -----    -----      -----    -----      -----    -----
  +--> ?PR?_WIFI_UART_WRITE_FRAME?SYSTEM

?PR?PRINTF?PRINTF                                0023H.1  0001H.1    0008H    0005H      8B3EH    0030H
  +--> ?PR?_PUTCHAR?UART

?PR?_DATA_POINT_HANDLE?SYSTEM                    -----    -----      -----    -----      8B05H    0008H
  +--> ?PR?_GET_DOWMLOAD_DPID_INDEX?SYSTEM
  +--> ?PR?GET_DOWNLOAD_CMD_TOTAL?PROTOCOL
  +--> ?PR?_DP_DOWNLOAD_HANDLE?PROTOCOL

?PR?_GET_DOWMLOAD_DPID_INDEX?SYSTEM              -----    -----      -----    -----      8B0DH    0001H
  +--> ?PR?GET_DOWNLOAD_CMD_TOTAL?PROTOCOL

?PR?_DP_DOWNLOAD_HANDLE?PROTOCOL                 -----    -----      -----    -----      8B0DH    0007H
  +--> ?PR?_DP_DOWNLOAD_SWITCH_HANDLE?PROTOCOL
  +--> ?PR?_DP_DOWNLOAD_MODE_HANDLE?PROTOCOL
  +--> ?PR?_DP_DOWNLOAD_CHILD_LOCK_HANDLE?PR...
  +--> ?PR?_DP_DOWNLOAD_TEMP_SET_HANDLE?PROT...
  +--> ?PR?_DP_DOWNLOAD_TEMP_UNIT_CONVERT_HA...
  +--> ?PR?_DP_DOWNLOAD_DEFROST_HANDLE?PROTOCOL
  +--> ?PR?_DP_DOWNLOAD_RELAY_STATUS_HANDLE?...
  +--> ?PR?_DP_DOWNLOAD_TIMESTAMP_HANDLE?PRO...
  +--> ?PR?_DP_DOWNLOAD_INDOOR_UNIT_HANDLE?P...
  +--> ?PR?_DP_DOWNLOAD_HISTORY_FAULT_EMPTY_...
  +--> ?PR?_DP_DOWNLOAD_INSIDE_TIME_OPEN_HAN...
  +--> ?PR?_DP_DOWNLOAD_EXTERNAL_TIME_OPEN_H...
BL51 BANKED LINKER/LOCATER V6.22.2.0                                                  06/30/2026  14:47:53  PAGE 13


  +--> ?PR?_DP_DOWNLOAD_INSIDE_TIME_CLOSE_HA...
  +--> ?PR?_DP_DOWNLOAD_EXTERNAL_TIME_CLOSE_...

?PR?_DP_DOWNLOAD_SWITCH_HANDLE?PROTOCOL          -----    -----      -----    -----      8B14H    0006H
  +--> ?PR?_MCU_GET_DP_DOWNLOAD_BOOL?MCU_API
  +--> ?PR?_MCU_DP_BOOL_UPDATE?MCU_API
  +--> ?PR?_UPLOAD_SHADOW_BOOL?UPLOAD
  +--> ?CO?PROTOCOL
  +--> ?PR?PRINTF?PRINTF
  +--> ?PR?_READ_DGUS_VP?SYS
  +--> ?PR?_WRITE_DGUS_VP?SYS
  +--> ?PR?MODBUS_TRIGGERUSERWRITE?MODBUS
  +--> ?PR?READY_TO_SAVE?SYS

?PR?_MCU_GET_DP_DOWNLOAD_BOOL?MCU_API            -----    -----      -----    -----      8B1AH    0002H

?PR?_MCU_DP_BOOL_UPDATE?MCU_API                  -----    -----      -----    -----      8B1AH    0001H
  +--> ?PR?_SET_WIFI_UART_BYTE?SYSTEM
  +--> ?PR?_WIFI_UART_WRITE_FRAME?SYSTEM

?PR?MODBUS_TRIGGERUSERWRITE?MODBUS               -----    -----      -----    -----      8B1AH    0004H
  +--> ?PR?_READ_DGUS_VP?SYS
  +--> ?CO?MODBUS
  +--> ?PR?PRINTF?PRINTF

?PR?READY_TO_SAVE?SYS                            -----    -----      -----    -----      8B34H    0002H
  +--> ?PR?_READ_DGUS_VP?SYS

?PR?_DP_DOWNLOAD_MODE_HANDLE?PROTOCOL            -----    -----      -----    -----      8B14H    0004H
  +--> ?PR?_MCU_GET_DP_DOWNLOAD_ENUM?MCU_API
  +--> ?PR?_WRITE_DGUS_VP?SYS
  +--> ?PR?MODBUS_TRIGGERUSERWRITE?MODBUS
  +--> ?PR?READY_TO_SAVE?SYS
  +--> ?PR?_READ_DGUS_VP?SYS
  +--> ?PR?_MCU_DP_ENUM_UPDATE?MCU_API
  +--> ?PR?_UPLOAD_SHADOW_ENUM?UPLOAD

?PR?_MCU_GET_DP_DOWNLOAD_ENUM?MCU_API            -----    -----      -----    -----      8B18H    0002H

?PR?_MCU_DP_ENUM_UPDATE?MCU_API                  -----    -----      -----    -----      8B18H    0001H
  +--> ?PR?_SET_WIFI_UART_BYTE?SYSTEM
  +--> ?PR?_WIFI_UART_WRITE_FRAME?SYSTEM

?PR?_DP_DOWNLOAD_CHILD_LOCK_HANDLE?PR...         -----    -----      -----    -----      8B14H    0002H
  +--> ?PR?_MCU_GET_DP_DOWNLOAD_BOOL?MCU_API
  +--> ?PR?HOMEPAGE?CONTROL
  +--> ?PR?_WRITE_DGUS_VP?SYS
  +--> ?PR?_MCU_DP_BOOL_UPDATE?MCU_API
  +--> ?PR?_UPLOAD_SHADOW_BOOL?UPLOAD

?PR?HOMEPAGE?CONTROL                             0023H.1  0000H.1    -----    -----      8B16H    0002H
  +--> ?PR?GETPAGEID?CONTROL
  +--> ?PR?_ISITHOMEPAGE?CONTROL
  +--> ?PR?_READ_DGUS_VP?SYS
  +--> ?PR?_PAGE_CHANGE_HANDLER?SYS
  +--> ?PR?HOMEPAGE_SYNCINDOORDISPLAY?CONTROL

BL51 BANKED LINKER/LOCATER V6.22.2.0                                                  06/30/2026  14:47:53  PAGE 14


?PR?GETPAGEID?CONTROL                            -----    -----      -----    -----      8B18H    0002H
  +--> ?PR?_READ_DGUS_VP?SYS

?PR?_ISITHOMEPAGE?CONTROL                        0023H.2  0000H.1    -----    -----      -----    -----

?PR?_PAGE_CHANGE_HANDLER?SYS                     -----    -----      -----    -----      -----    -----
  +--> ?PR?_WRITE_DGUS_VP?SYS
  +--> ?PR?_DELAY_MS?SYS
  +--> ?PR?_READ_DGUS_VP?SYS

?PR?HOMEPAGE_SYNCINDOORDISPLAY?CONTROL           -----    -----      -----    -----      8B33H    0004H
  +--> ?PR?_READ_DGUS_VP?SYS
  +--> ?PR?_WRITE_DGUS_VP?SYS
  +--> ?PR?_HOMEPAGE_UPDATEMODEANIMATION?CON...

?PR?_HOMEPAGE_UPDATEMODEANIMATION?CON...         -----    -----      -----    -----      8B37H    0006H
  +--> ?PR?_WRITE_DGUS_VP?SYS

?PR?_DP_DOWNLOAD_TEMP_SET_HANDLE?PROT...         -----    -----      -----    -----      8B14H    000BH
  +--> ?PR?_MCU_GET_DP_DOWNLOAD_VALUE?MCU_API
  +--> ?PR?_WRITE_DGUS_VP?SYS
  +--> ?PR?_READ_DGUS_VP?SYS
  +--> ?PR?_SETTEMPINTWRITE?CONTROL
  +--> ?PR?_SYNCSETTEMPCACHESFROMC?CONTROL
  +--> ?PR?READY_TO_SAVE?SYS
  +--> ?PR?_MCU_DP_VALUE_UPDATE?MCU_API
  +--> ?PR?_UPLOAD_SHADOW_VALUE?UPLOAD

?PR?_MCU_GET_DP_DOWNLOAD_VALUE?MCU_API           -----    -----      -----    -----      8B1FH    0002H
  +--> ?PR?_BYTE_TO_INT?MCU_API

?PR?_BYTE_TO_INT?MCU_API                         -----    -----      -----    -----      8B21H    0007H

?PR?_SETTEMPINTWRITE?CONTROL                     -----    -----      -----    -----      8B2DH    0002H
  +--> ?PR?_SETTEMPINTVPBYMODE?CONTROL
  +--> ?PR?_WRITE_DGUS_VP?SYS

?PR?_SETTEMPINTVPBYMODE?CONTROL                  -----    -----      -----    -----      8B2FH    0001H

?PR?_SYNCSETTEMPCACHESFROMC?CONTROL              -----    -----      -----    -----      8B27H    0006H
  +--> ?PR?_TEMPUNITTRANS?CONTROL
  +--> ?PR?_WRITE_DGUS_VP?SYS
  +--> ?PR?_READ_DGUS_VP?SYS
  +--> ?PR?_SETTEMPINTWRITE?CONTROL

?PR?_TEMPUNITTRANS?CONTROL                       -----    -----      -----    -----      8B34H    0003H

?PR?_MCU_DP_VALUE_UPDATE?MCU_API                 -----    -----      -----    -----      8B1FH    0005H
  +--> ?PR?_SET_WIFI_UART_BYTE?SYSTEM
  +--> ?PR?_WIFI_UART_WRITE_FRAME?SYSTEM

?PR?_UPLOAD_SHADOW_VALUE?UPLOAD                  -----    -----      -----    -----      8B1FH    0005H

?PR?_DP_DOWNLOAD_TEMP_UNIT_CONVERT_HA...         -----    -----      -----    -----      8B14H    0002H
  +--> ?PR?_MCU_GET_DP_DOWNLOAD_ENUM?MCU_API
  +--> ?PR?_WRITE_DGUS_VP?SYS
  +--> ?PR?UNITCHANGEPRO?CONTROL
BL51 BANKED LINKER/LOCATER V6.22.2.0                                                  06/30/2026  14:47:53  PAGE 15


  +--> ?PR?HOMEPAGE?CONTROL
  +--> ?PR?READY_TO_SAVE?SYS
  +--> ?PR?_MCU_DP_ENUM_UPDATE?MCU_API
  +--> ?PR?_UPLOAD_SHADOW_ENUM?UPLOAD

?PR?UNITCHANGEPRO?CONTROL                        -----    -----      -----    -----      8B16H    0002H
  +--> ?PR?_READ_DGUS_VP?SYS
  +--> ?PR?TEMPUNIT_REFRESHALL?CONTROL

?PR?TEMPUNIT_REFRESHALL?CONTROL                  -----    -----      -----    -----      8B18H    000BH
  +--> ?PR?_READ_DGUS_VP?SYS
  +--> ?PR?_TEMPUNITTRANS?CONTROL
  +--> ?PR?_SYNCSETTEMPCACHESFROMC?CONTROL
  +--> ?PR?_WRITE_DGUS_VP?SYS
  +--> ?PR?TEMPUNIT_REFRESHACTIVESETFROMMODE...
  +--> ?PR?_TEMPUNIT_REFRESHFLOATPAIR?CONTROL
  +--> ?PR?_SETTEMPINTREAD?CONTROL
  +--> ?PR?_SETTEMPINTWRITE?CONTROL
  +--> ?PR?_SYNCINDOORSETTEMPVPPAIR?CONTROL
  +--> ?PR?_SYNCTIMERTEMPVPPAIR?CONTROL
  +--> ?PR?MODBUS_REFRESHCHECKPARAMDISPLAY?M...

?PR?TEMPUNIT_REFRESHACTIVESETFROMMODE...         -----    -----      -----    -----      8B23H    0004H
  +--> ?PR?_READ_DGUS_VP?SYS
  +--> ?PR?_SETTEMPINTREAD?CONTROL
  +--> ?PR?_TEMPUNITTRANS?CONTROL
  +--> ?PR?_SYNCSETTEMPCACHESFROMC?CONTROL

?PR?_SETTEMPINTREAD?CONTROL                      -----    -----      -----    -----      8B27H    0002H
  +--> ?PR?_SETTEMPINTVPBYMODE?CONTROL
  +--> ?PR?_READ_DGUS_VP?SYS

?PR?_TEMPUNIT_REFRESHFLOATPAIR?CONTROL           -----    -----      -----    -----      8B23H    0010H
  +--> ?PR?_READ_DGUS_VP?SYS
  +--> ?PR?_TEMPUNITTRANS?CONTROL
  +--> ?PR?_WRITE_DGUS_VP?SYS

?PR?_SYNCINDOORSETTEMPVPPAIR?CONTROL             -----    -----      -----    -----      8B23H    0005H
  +--> ?PR?_TEMPUNITTRANS?CONTROL
  +--> ?PR?_WRITE_DGUS_VP?SYS

?PR?_SYNCTIMERTEMPVPPAIR?CONTROL                 -----    -----      -----    -----      8B23H    000CH
  +--> ?PR?_TEMPUNITTRANS?CONTROL
  +--> ?PR?_WRITE_DGUS_VP?SYS

?PR?MODBUS_REFRESHCHECKPARAMDISPLAY?M...         -----    -----      -----    -----      8B23H    0009H
  +--> ?PR?_READ_DGUS_VP?SYS
  +--> ?PR?_TEMPUNITTRANS?CONTROL
  +--> ?PR?_WRITE_DGUS_VP?SYS

?PR?_DP_DOWNLOAD_DEFROST_HANDLE?PROTOCOL         -----    -----      -----    -----      8B14H    0004H
  +--> ?PR?_MCU_GET_DP_DOWNLOAD_BOOL?MCU_API
  +--> ?PR?MODBUS_STARTMANUALDEFROST?MODBUS
  +--> ?PR?_WRITE_DGUS_VP?SYS
  +--> ?PR?MODBUS_CLEARMANUALDEFROST?MODBUS
  +--> ?PR?_MCU_DP_BOOL_UPDATE?MCU_API
  +--> ?PR?_UPLOAD_SHADOW_BOOL?UPLOAD
BL51 BANKED LINKER/LOCATER V6.22.2.0                                                  06/30/2026  14:47:53  PAGE 16



?PR?MODBUS_STARTMANUALDEFROST?MODBUS             -----    -----      -----    -----      8B18H    0002H
  +--> ?PR?_WRITE_DGUS_VP?SYS

?PR?_DP_DOWNLOAD_RELAY_STATUS_HANDLE?...         -----    -----      -----    -----      8B14H    0002H
  +--> ?PR?_MCU_GET_DP_DOWNLOAD_ENUM?MCU_API
  +--> ?PR?_WRITE_DGUS_VP?SYS
  +--> ?PR?READY_TO_SAVE?SYS
  +--> ?PR?_MCU_DP_ENUM_UPDATE?MCU_API
  +--> ?PR?_UPLOAD_SHADOW_ENUM?UPLOAD

?PR?_DP_DOWNLOAD_TIMESTAMP_HANDLE?PRO...         -----    -----      -----    -----      8B14H    0015H
  +--> ?CO?PROTOCOL
  +--> ?PR?_STRTOUL?STRTOUL
  +--> ?PR?_TIMESTAMP_TO_YMDHMS?PROTOCOL
  +--> ?PR?PRINTF?PRINTF
  +--> ?PR?_RTC_WRITEDISPLAYTIME?RTC
  +--> ?PR?_RTC_WRITEEDITTIME?RTC
  +--> ?PR?_WRITE_DGUS_VP?SYS
  +--> ?PR?_MCU_DP_STRING_UPDATE?MCU_API

?PR?_STRTOUL?STRTOUL                             -----    -----      -----    -----      8B29H    0012H

?PR?_TIMESTAMP_TO_YMDHMS?PROTOCOL                -----    -----      -----    -----      8B29H    0015H
  +--> ?CO?PROTOCOL
  +--> ?PR?PRINTF?PRINTF
  +--> ?PR?_IS_LEAP_YEAR?PROTOCOL

?PR?_RTC_WRITEDISPLAYTIME?RTC                    -----    -----      -----    -----      8B29H    000AH
  +--> ?PR?_WRITE_DGUS_VP?SYS

?PR?_RTC_WRITEEDITTIME?RTC                       -----    -----      -----    -----      8B29H    000AH
  +--> ?PR?_WRITE_DGUS_VP?SYS

?PR?_MCU_DP_STRING_UPDATE?MCU_API                -----    -----      -----    -----      8B29H    0006H
  +--> ?PR?_SET_WIFI_UART_BYTE?SYSTEM
  +--> ?PR?_SET_WIFI_UART_BUFFER?SYSTEM
  +--> ?PR?_WIFI_UART_WRITE_FRAME?SYSTEM

?PR?_DP_DOWNLOAD_INDOOR_UNIT_HANDLE?P...         -----    -----      -----    -----      8B14H    001FH
  +--> ?PR?_MODE_MAP_TO_DGUS?PROTOCOL
  +--> ?PR?_WRITE_DGUS_VP?SYS
  +--> ?PR?_TEMPUNITTRANS?CONTROL
  +--> ?PR?HOMEPAGE_SYNCINDOORDISPLAY?CONTROL
  +--> ?PR?_MODBUS_TRIGGERINDOORUNITWRITE?MO...
  +--> ?PR?UPLOAD_INDOOR_UNIT?UPLOAD

?PR?_MODBUS_TRIGGERINDOORUNITWRITE?MO...         -----    -----      -----    -----      8B33H    0002H
  +--> ?PR?_MODBUS_FILLINDOORUNITREGS?MODBUS
  +--> ?PR?_MODBUS_INDOORREGSCHANGED?MODBUS

?PR?_MODBUS_FILLINDOORUNITREGS?MODBUS            -----    -----      -----    -----      8B35H    0010H
  +--> ?PR?_READ_DGUS_VP?SYS
  +--> ?PR?_MODBUS_ENCODEINDOORRUNMODE?MODBUS
  +--> ?PR?_MODBUS_ENCODEINDOORFAN?MODBUS
  +--> ?PR?_MODBUS_SCALEINDOORSETTEMP?MODBUS

BL51 BANKED LINKER/LOCATER V6.22.2.0                                                  06/30/2026  14:47:53  PAGE 17


?PR?_MODBUS_INDOORREGSCHANGED?MODBUS             -----    -----      -----    -----      8B35H    0005H

?PR?UPLOAD_INDOOR_UNIT?UPLOAD                    -----    -----      -----    -----      8B33H    002BH
  +--> ?CO?UPLOAD
  +--> ?PR?_READ_DGUS_VP?SYS
  +--> ?PR?_UPLOAD_CLAMPINDOORTEMP?UPLOAD
  +--> ?PR?_UPLOAD_DGUSINDOORMODETODP?UPLOAD
  +--> ?PR?_MCU_DP_RAW_UPDATE?MCU_API
  +--> ?PR?UPLOAD_YIELDWIFI?UPLOAD

?PR?_MCU_DP_RAW_UPDATE?MCU_API                   -----    -----      -----    -----      8B93H    0006H
  +--> ?PR?_SET_WIFI_UART_BYTE?SYSTEM
  +--> ?PR?_SET_WIFI_UART_BUFFER?SYSTEM
  +--> ?PR?_WIFI_UART_WRITE_FRAME?SYSTEM

?PR?UPLOAD_YIELDWIFI?UPLOAD                      -----    -----      -----    -----      -----    -----
  +--> ?PR?WIFI_UART_RX_PULL?MCU_API
  +--> ?PR?WIFI_UART_PROCESS_DOWNLOAD?MCU_API

?PR?WIFI_UART_PROCESS_DOWNLOAD?MCU_API           -----    -----      -----    -----      -----    -----
  +--> ?PR?WIFI_UART_RX_PULL?MCU_API

?PR?_DP_DOWNLOAD_HISTORY_FAULT_EMPTY_...         -----    -----      -----    -----      8B14H    0001H
  +--> ?PR?_MCU_GET_DP_DOWNLOAD_BOOL?MCU_API
  +--> ?PR?CLEARERRORHISTORY?ERRORHISTORY
  +--> ?PR?_MCU_DP_BOOL_UPDATE?MCU_API

?PR?CLEARERRORHISTORY?ERRORHISTORY               -----    -----      -----    -----      -----    -----
  +--> ?PR?ERRORHISTORY_FLASHCOMMITNOW?ERROR...
  +--> ?PR?UPLOAD_HISTORY_FAULTS?UPLOAD

?PR?ERRORHISTORY_FLASHCOMMITNOW?ERROR...         -----    -----      -----    -----      8B15H    0002H
  +--> ?PR?ERRORHISTORY_FLASHVPADDR?ERRORHIS...
  +--> ?PR?_ERRORHISTORY_FLASHWRITE?ERRORHIS...
  +--> ?PR?_READ_DGUS_VP?SYS
  +--> ?PR?WRITE_MEMORY?SYS
  +--> ?PR?WRITE_NOR_FLASH?SYS

?PR?_ERRORHISTORY_FLASHWRITE?ERRORHIS...         -----    -----      -----    -----      8B17H    0197H
  +--> ?PR?_ERRORHISTORY_PACKREC?ERRORHISTORY
  +--> ?PR?_WRITE_DGUS_VP?SYS

?PR?_ERRORHISTORY_PACKREC?ERRORHISTORY           -----    -----      -----    -----      8CAEH    000AH
  +--> ?PR?_ERRORHISTORY_ISVALIDCODE?ERRORHI...
  +--> ?PR?_ERRORHISTORY_CLAMPBYTE?ERRORHISTORY

?PR?WRITE_NOR_FLASH?SYS                          -----    -----      -----    -----      -----    -----
  +--> ?CO?SYS
  +--> ?PR?_WRITE_DGUS_VP?SYS
  +--> ?PR?_DELAY_MS?SYS
  +--> ?PR?_READ_DGUS_VP?SYS

?PR?UPLOAD_HISTORY_FAULTS?UPLOAD                 -----    -----      -----    -----      8B15H    007EH
  +--> ?PR?_MCU_DP_RAW_UPDATE?MCU_API
  +--> ?PR?UPLOAD_YIELDWIFI?UPLOAD

?PR?_DP_DOWNLOAD_INSIDE_TIME_OPEN_HAN...         -----    -----      -----    -----      8B14H    0020H
BL51 BANKED LINKER/LOCATER V6.22.2.0                                                  06/30/2026  14:47:53  PAGE 18


  +--> ?PR?_WRITE_DGUS_VP?SYS
  +--> ?PR?_TEMPUNITTRANS?CONTROL
  +--> ?PR?_MODBUS_APPLYINDOORTIMERVPTOUNITS...
  +--> ?PR?READY_TO_SAVE?SYS
  +--> ?PR?_MCU_DP_RAW_UPDATE?MCU_API

?PR?_MODBUS_APPLYINDOORTIMERVPTOUNITS...         -----    -----      -----    -----      8B34H    0016H
  +--> ?PR?_READ_DGUS_VP?SYS
  +--> ?PR?_WRITE_DGUS_VP?SYS
  +--> ?PR?_MODBUS_QUEUEINDOORTIMERWRITE?MODBUS

?PR?_MODBUS_QUEUEINDOORTIMERWRITE?MODBUS         -----    -----      -----    -----      -----    -----
  +--> ?PR?MODBUS_STARTNEXTTIMERWRITE?MODBUS

?PR?_DP_DOWNLOAD_EXTERNAL_TIME_OPEN_H...         -----    -----      -----    -----      8B14H    0019H
  +--> ?PR?_WRITE_DGUS_VP?SYS
  +--> ?PR?_TEMPUNITTRANS?CONTROL
  +--> ?PR?_DP117_MODE_TO_DGUS?PROTOCOL
  +--> ?PR?READY_TO_SAVE?SYS
  +--> ?PR?_MCU_DP_RAW_UPDATE?MCU_API

?PR?_DP_DOWNLOAD_INSIDE_TIME_CLOSE_HA...         -----    -----      -----    -----      8B14H    000EH
  +--> ?PR?_WRITE_DGUS_VP?SYS
  +--> ?PR?_MCU_DP_RAW_UPDATE?MCU_API

?PR?_DP_DOWNLOAD_EXTERNAL_TIME_CLOSE_...         -----    -----      -----    -----      8B14H    000EH
  +--> ?PR?_WRITE_DGUS_VP?SYS
  +--> ?PR?READY_TO_SAVE?SYS
  +--> ?PR?_MCU_DP_RAW_UPDATE?MCU_API

?PR?ALL_DATA_UPDATE?PROTOCOL                     -----    -----      -----    -----      -----    -----
  +--> ?PR?UPLOAD_STATE_QUERY_REPLY?UPLOAD

?PR?UPLOAD_STATE_QUERY_REPLY?UPLOAD              -----    -----      -----    -----      -----    -----
  +--> ?PR?UPLOAD_DP_SWITCH?UPLOAD
  +--> ?PR?UPLOAD_DP_MODE?UPLOAD
  +--> ?PR?UPLOAD_DP_TEMP_SET?UPLOAD
  +--> ?PR?UPLOAD_DP_TEMP_UNIT?UPLOAD
  +--> ?PR?UPLOAD_DP_CHILD_LOCK?UPLOAD
  +--> ?PR?UPLOAD_DP_DEFROST?UPLOAD
  +--> ?PR?UPLOAD_DP_RELAY_STATUS?UPLOAD
  +--> ?PR?UPLOAD_DP_WORK_STATE?UPLOAD

?PR?UPLOAD_DP_SWITCH?UPLOAD                      -----    -----      -----    -----      8B05H    0002H
  +--> ?PR?_READ_DGUS_VP?SYS
  +--> ?PR?_UPLOAD_BOOLIFCHANGED?UPLOAD

?PR?_UPLOAD_BOOLIFCHANGED?UPLOAD                 -----    -----      -----    -----      -----    -----
  +--> ?PR?_MCU_DP_BOOL_UPDATE?MCU_API
  +--> ?PR?UPLOAD_YIELDWIFI?UPLOAD

?PR?UPLOAD_DP_MODE?UPLOAD                        -----    -----      -----    -----      8B05H    0002H
  +--> ?PR?_READ_DGUS_VP?SYS
  +--> ?PR?_UPLOAD_MODETODP101?UPLOAD
  +--> ?PR?_UPLOAD_ENUMIFCHANGED?UPLOAD

?PR?_UPLOAD_ENUMIFCHANGED?UPLOAD                 -----    -----      -----    -----      -----    -----
BL51 BANKED LINKER/LOCATER V6.22.2.0                                                  06/30/2026  14:47:53  PAGE 19


  +--> ?PR?_MCU_DP_ENUM_UPDATE?MCU_API
  +--> ?PR?UPLOAD_YIELDWIFI?UPLOAD

?PR?UPLOAD_DP_TEMP_SET?UPLOAD                    -----    -----      -----    -----      8B05H    0002H
  +--> ?PR?_READ_DGUS_VP?SYS
  +--> ?PR?_UPLOAD_VALUEIFCHANGED?UPLOAD

?PR?_UPLOAD_VALUEIFCHANGED?UPLOAD                -----    -----      -----    -----      8B07H    0008H
  +--> ?PR?_MCU_DP_VALUE_UPDATE?MCU_API
  +--> ?PR?UPLOAD_YIELDWIFI?UPLOAD

?PR?UPLOAD_DP_TEMP_UNIT?UPLOAD                   -----    -----      -----    -----      8B05H    0002H
  +--> ?PR?_READ_DGUS_VP?SYS
  +--> ?PR?_UPLOAD_ENUMIFCHANGED?UPLOAD

?PR?UPLOAD_DP_CHILD_LOCK?UPLOAD                  -----    -----      -----    -----      8B05H    0002H
  +--> ?PR?_READ_DGUS_VP?SYS
  +--> ?PR?_UPLOAD_BOOLIFCHANGED?UPLOAD

?PR?UPLOAD_DP_DEFROST?UPLOAD                     -----    -----      -----    -----      8B05H    0002H
  +--> ?PR?_READ_DGUS_VP?SYS
  +--> ?PR?_UPLOAD_BOOLIFCHANGED?UPLOAD

?PR?UPLOAD_DP_RELAY_STATUS?UPLOAD                -----    -----      -----    -----      8B05H    0002H
  +--> ?PR?_READ_DGUS_VP?SYS
  +--> ?PR?_UPLOAD_ENUMIFCHANGED?UPLOAD

?PR?UPLOAD_DP_WORK_STATE?UPLOAD                  -----    -----      -----    -----      8B05H    0002H
  +--> ?PR?_READ_DGUS_VP?SYS
  +--> ?PR?_UPLOAD_WORKSTATETODP?UPLOAD
  +--> ?PR?_UPLOAD_ENUMIFCHANGED?UPLOAD

?PR?_UPGRADE_PACKAGE_CHOOSE?PROTOCOL             -----    -----      -----    -----      -----    -----
  +--> ?PR?_SET_WIFI_UART_BYTE?SYSTEM
  +--> ?PR?_WIFI_UART_WRITE_FRAME?SYSTEM

?PR?_MCU_FIRM_UPDATE_HANDLE?PROTOCOL             -----    -----      -----    -----      8B05H    0009H

?PR?_WIFI_TEST_RESULT?PROTOCOL                   -----    -----      -----    -----      8B05H    0002H

?PR?_FILE_DOWNLOAD_PACKAGE_CHOOSE?PRO...         -----    -----      -----    -----      -----    -----
  +--> ?PR?_SET_WIFI_UART_BYTE?SYSTEM
  +--> ?PR?_WIFI_UART_WRITE_FRAME?SYSTEM

?PR?_FILE_DOWNLOAD_HANDLE?PROTOCOL               -----    -----      -----    -----      8B05H    0009H

?PR?_WIFI_UART_REMOVE_FRAME?MCU_API              -----    -----      -----    -----      8AF1H    0006H
  +--> ?PR?_MY_MEMCPY?MCU_API

?PR?MODBUS_SALVE_HANDLER1?MODBUS                 -----    -----      -----    -----      8A99H    0015H
  +--> ?PR?MODBUS_ANALYSIS_DATA1?MODBUS
  +--> ?PR?MODBUS_ADVANCEPOLLONTIMEOUT?MODBUS
  +--> ?PR?_MODBUS_FILLGROUPCONTROLREGS?MODBUS
  +--> ?PR?_MODBUS_APPENDU16?MODBUS
  +--> ?PR?_MODBUS_FILLINDOORUNITREGS?MODBUS
  +--> ?PR?_READ_DGUS_VP?SYS
  +--> ?PR?_MODBUS_APPENDMODESETTEMPREG?MODBUS
BL51 BANKED LINKER/LOCATER V6.22.2.0                                                  06/30/2026  14:47:53  PAGE 20


  +--> ?PR?_CALCULATEMODBUSCRC?MODBUS
  +--> ?PR?_MODBUS_DBGLOGTX?MODBUS
  +--> ?PR?_UART5_SENDSTR?UART
  +--> ?PR?_MODBUS_REPORTFAULTCODE?MODBUS
  +--> ?PR?MODBUS_YIELDWIFI?MODBUS

?PR?MODBUS_ANALYSIS_DATA1?MODBUS                 -----    -----      -----    -----      8AAEH    003BH
  +--> ?CO?MODBUS
  +--> ?PR?MODBUS_YIELDWIFI?MODBUS
  +--> ?PR?_CALCULATEMODBUSCRC?MODBUS
  +--> ?PR?_MODBUS_DBGLOGRX?MODBUS
  +--> ?PR?PRINTF?PRINTF
  +--> ?PR?_WRITE_DGUS_VP?SYS
  +--> ?PR?_READ_DGUS_VP?SYS
  +--> ?PR?READY_TO_SAVE?SYS
  +--> ?PR?UPLOAD_DP_MODE?UPLOAD
  +--> ?PR?_SETTEMPINTWRITE?CONTROL
  +--> ?PR?_TEMPUNITTRANS?CONTROL
  +--> ?PR?_SYNCSETTEMPCACHESFROMC?CONTROL
  +--> ?PR?UPLOAD_DP_TEMP_SET?UPLOAD
  +--> ?PR?_MODBUS_PACKCHECKSTATUSBLOCK?MODBUS
  +--> ?PR?_GETMODBUSREG?MODBUS
  +--> ?PR?_MODBUS_WRITEFLOATTEMPPAIR?MODBUS
  +--> ?PR?UPLOAD_IS_BOOT_READY?UPLOAD
  +--> ?PR?UPLOAD_DP_AROUND_TEMP?UPLOAD
  +--> ?PR?UPLOAD_DP_TEMP_CURRENT?UPLOAD
  +--> ?PR?UPLOAD_DP_TEMP_TOP?UPLOAD
  +--> ?PR?UPLOAD_DP_DEFROST?UPLOAD
  +--> ?PR?UPLOAD_DP_FAULT?UPLOAD
  +--> ?PR?UPLOAD_DP_EVAPORATOR_TEMP?UPLOAD
  +--> ?PR?UPLOAD_DP_EFFLUENT_TEMP?UPLOAD
  +--> ?PR?UPLOAD_DP_DEFROST_FREQ?UPLOAD
  +--> ?PR?UPLOAD_DP_DEFROST_TIME?UPLOAD
  +--> ?PR?UPLOAD_DP_DEFROST_OUT_TEMP?UPLOAD
  +--> ?PR?_MODBUS_PACKCHECKSTATUSBYTE?MODBUS
  +--> ?PR?_MODBUS_TRIGGERINDOORUNITWRITE?MO...
  +--> ?PR?_MODBUS_RXRELREG?MODBUS
  +--> ?PR?_MODBUS_DECODEINDOORMODEBITS?MODBUS
  +--> ?PR?_MODBUS_SYNCHOMEINDOORMODEFROMUNI...
  +--> ?PR?_MODBUS_UNSCALEINDOORSETTEMP?MODBUS
  +--> ?PR?_MODBUS_DECODEINDOORFAN?MODBUS
  +--> ?PR?_MODBUS_SAVEGROUPSENTREGS?MODBUS
  +--> ?PR?_MODBUS_SAVEINDOORSENTREGS?MODBUS
  +--> ?PR?MODBUS_STARTNEXTTIMERWRITE?MODBUS

?PR?MODBUS_YIELDWIFI?MODBUS                      -----    -----      -----    -----      -----    -----
  +--> ?PR?WIFI_UART_RX_PULL?MCU_API
  +--> ?PR?WIFI_UART_SERVICE?MCU_API

?PR?_CALCULATEMODBUSCRC?MODBUS                   -----    -----      -----    -----      8AE9H    0009H

?PR?_MODBUS_DBGLOGRX?MODBUS                      -----    -----      -----    -----      8AE9H    0007H
  +--> ?PR?_MODBUS_RXU16?MODBUS
  +--> ?CO?MODBUS
  +--> ?PR?PRINTF?PRINTF

?PR?_MODBUS_PACKCHECKSTATUSBLOCK?MODBUS          -----    -----      -----    -----      8AE9H    000DH
BL51 BANKED LINKER/LOCATER V6.22.2.0                                                  06/30/2026  14:47:53  PAGE 21


  +--> ?PR?_MODBUS_PACKCHECKSTATUSBYTE?MODBUS

?PR?_GETMODBUSREG?MODBUS                         -----    -----      -----    -----      8AE9H    0003H

?PR?_MODBUS_WRITEFLOATTEMPPAIR?MODBUS            -----    -----      -----    -----      8AE9H    0014H
  +--> ?PR?_READ_DGUS_VP?SYS
  +--> ?PR?_TEMPUNITTRANS?CONTROL
  +--> ?PR?_WRITE_DGUS_VP?SYS

?PR?UPLOAD_DP_AROUND_TEMP?UPLOAD                 -----    -----      -----    -----      8AE9H    0008H
  +--> ?PR?UPLOAD_GETUNIT?UPLOAD
  +--> ?PR?_READ_DGUS_VP?SYS
  +--> ?PR?_UPLOAD_VALUEIFCHANGED?UPLOAD

?PR?UPLOAD_GETUNIT?UPLOAD                        -----    -----      -----    -----      8AF1H    0002H
  +--> ?PR?_READ_DGUS_VP?SYS

?PR?UPLOAD_DP_TEMP_CURRENT?UPLOAD                -----    -----      -----    -----      8AE9H    0008H
  +--> ?PR?UPLOAD_GETUNIT?UPLOAD
  +--> ?PR?_READ_DGUS_VP?SYS
  +--> ?PR?_UPLOAD_VALUEIFCHANGED?UPLOAD

?PR?UPLOAD_DP_TEMP_TOP?UPLOAD                    -----    -----      -----    -----      8AE9H    0008H
  +--> ?PR?UPLOAD_GETUNIT?UPLOAD
  +--> ?PR?_READ_DGUS_VP?SYS
  +--> ?PR?_UPLOAD_VALUEIFCHANGED?UPLOAD

?PR?UPLOAD_DP_FAULT?UPLOAD                       -----    -----      -----    -----      8AE9H    0002H
  +--> ?PR?_READ_DGUS_VP?SYS
  +--> ?PR?_UPLOAD_VALUEIFCHANGED?UPLOAD

?PR?UPLOAD_DP_EVAPORATOR_TEMP?UPLOAD             -----    -----      -----    -----      8AE9H    0008H
  +--> ?PR?UPLOAD_GETUNIT?UPLOAD
  +--> ?PR?_READ_DGUS_VP?SYS
  +--> ?PR?_UPLOAD_VALUEIFCHANGED?UPLOAD

?PR?UPLOAD_DP_EFFLUENT_TEMP?UPLOAD               -----    -----      -----    -----      8AE9H    0008H
  +--> ?PR?UPLOAD_GETUNIT?UPLOAD
  +--> ?PR?_READ_DGUS_VP?SYS
  +--> ?PR?_UPLOAD_VALUEIFCHANGED?UPLOAD

?PR?UPLOAD_DP_DEFROST_FREQ?UPLOAD                -----    -----      -----    -----      8AE9H    0002H
  +--> ?PR?_READ_DGUS_VP?SYS
  +--> ?PR?_UPLOAD_VALUEIFCHANGED?UPLOAD

?PR?UPLOAD_DP_DEFROST_TIME?UPLOAD                -----    -----      -----    -----      8AE9H    0002H
  +--> ?PR?_READ_DGUS_VP?SYS
  +--> ?PR?_UPLOAD_VALUEIFCHANGED?UPLOAD

?PR?UPLOAD_DP_DEFROST_OUT_TEMP?UPLOAD            -----    -----      -----    -----      8AE9H    0008H
  +--> ?PR?UPLOAD_GETUNIT?UPLOAD
  +--> ?PR?_READ_DGUS_VP?SYS
  +--> ?PR?_UPLOAD_VALUEIFCHANGED?UPLOAD

?PR?_MODBUS_RXRELREG?MODBUS                      -----    -----      -----    -----      -----    -----
  +--> ?PR?_MODBUS_RXU16?MODBUS

BL51 BANKED LINKER/LOCATER V6.22.2.0                                                  06/30/2026  14:47:53  PAGE 22


?PR?_MODBUS_SYNCHOMEINDOORMODEFROMUNI...         -----    -----      -----    -----      8AE9H    0007H
  +--> ?PR?_WRITE_DGUS_VP?SYS
  +--> ?PR?_READ_DGUS_VP?SYS

?PR?_MODBUS_SAVEGROUPSENTREGS?MODBUS             -----    -----      -----    -----      8AE9H    0003H

?PR?_MODBUS_SAVEINDOORSENTREGS?MODBUS            -----    -----      -----    -----      8AE9H    0004H

?PR?_MODBUS_FILLGROUPCONTROLREGS?MODBUS          -----    -----      -----    -----      8AAEH    0005H
  +--> ?PR?_READ_DGUS_VP?SYS
  +--> ?PR?_MODBUS_ENCODEINDOORRUNMODE?MODBUS
  +--> ?PR?_MODBUS_ENCODEINDOORFAN?MODBUS

?PR?_MODBUS_APPENDU16?MODBUS                     -----    -----      -----    -----      8AB3H    0002H

?PR?_MODBUS_APPENDMODESETTEMPREG?MODBUS          -----    -----      -----    -----      8AAEH    0005H
  +--> ?PR?_READ_DGUS_VP?SYS
  +--> ?PR?_MODBUS_APPENDU16?MODBUS

?PR?_MODBUS_DBGLOGTX?MODBUS                      -----    -----      -----    -----      8AAEH    0006H
  +--> ?CO?MODBUS
  +--> ?PR?_MODBUS_TXU16?MODBUS
  +--> ?PR?PRINTF?PRINTF

?PR?_MODBUS_TXU16?MODBUS                         -----    -----      -----    -----      8AB4H    0003H

?PR?_UART5_SENDSTR?UART                          -----    -----      -----    -----      8AAEH    0003H

?PR?_MODBUS_REPORTFAULTCODE?MODBUS               -----    -----      -----    -----      8AAEH    0002H
  +--> ?PR?_WRITE_DGUS_VP?SYS
  +--> ?PR?UPLOAD_DP_FAULT?UPLOAD

?PR?CONTROL_FUNCTION1?CONTROL                    -----    -----      -----    -----      8A99H    0011H
  +--> ?PR?_READ_DGUS_VP?SYS
  +--> ?PR?GETVALUE0F00?CONTROL
  +--> ?PR?_ISITHOMEPAGE?CONTROL
  +--> ?PR?HOMEPAGE?CONTROL
  +--> ?PR?_ERRORHISTORY_PAGECHANGE?ERRORHIS...
  +--> ?PR?_WRITE_DGUS_VP?SYS
  +--> ?PR?_SETTEMPINTREAD?CONTROL
  +--> ?PR?_SYNCSETTEMPCACHESFROMC?CONTROL
  +--> ?PR?READY_TO_SAVE_REPORT?SYS
  +--> ?PR?UPLOAD_DP_MODE?UPLOAD
  +--> ?PR?UPLOAD_DP_SWITCH?UPLOAD
  +--> ?PR?UNITCHANGEPRO?CONTROL
  +--> ?PR?UPLOAD_DP_TEMP_UNIT?UPLOAD
  +--> ?PR?UPLOAD_DP_TEMP_SET?UPLOAD
  +--> ?PR?UPLOAD_DP_TEMP_CURRENT?UPLOAD
  +--> ?PR?MODBUS_TRIGGERUSERWRITE?MODBUS
  +--> ?PR?_PAGE_CHANGE_HANDLER?SYS
  +--> ?PR?UPLOAD_INSIDE_TIME_OPEN?UPLOAD
  +--> ?PR?UPLOAD_EXTERNAL_TIME_OPEN?UPLOAD
  +--> ?PR?UPLOAD_INDOOR_UNIT?UPLOAD
  +--> ?PR?_MODBUS_TRIGGERINDOORUNITWRITE?MO...
  +--> ?PR?_SYNCHOMEDISPLAYIFFIRSTINDOORMODE...
  +--> ?PR?_KEYADJUSTSETTEMPFORMODE?CONTROL
  +--> ?PR?PREFILLSETTEMPEDITPAGE?CONTROL
BL51 BANKED LINKER/LOCATER V6.22.2.0                                                  06/30/2026  14:47:53  PAGE 23


  +--> ?PR?_TEMPUNITTRANS?CONTROL
  +--> ?PR?_SETTEMPINTWRITE?CONTROL
  +--> ?PR?_SETTEMPFLOATWRITEC?CONTROL
  +--> ?PR?_SETMODEPROCESS?CONTROL
  +--> ?PR?UPLOAD_DP_WORK_STATE?UPLOAD
  +--> ?PR?RTCDISPLAY4CHANGE?CONTROL
  +--> ?PR?_LANGUAGE_CHANGE?SYS
  +--> ?PR?RTC_GETUNIXLOCAL?RTC
  +--> ?PR?MODBUS_STARTMANUALDEFROST?MODBUS
  +--> ?PR?UPLOAD_DP_DEFROST?UPLOAD
  +--> ?PR?_BRIGHTNESS_HANDLER?SYS
  +--> ?PR?ERRORHISTORY_TRYMIGRATEFLASH?ERRO...
  +--> ?PR?UPLOAD_DP_RELAY_STATUS?UPLOAD
  +--> ?PR?UPLOAD_EXTERNAL_TIME_CLOSE?UPLOAD
  +--> ?PR?UPLOAD_INSIDE_TIME_CLOSE?UPLOAD
  +--> ?PR?UPLOAD_DP_CHILD_LOCK?UPLOAD
  +--> ?PR?MODBUS_TRIGGERGROUPCONTROLWRITE?M...
  +--> ?PR?ERRORHISTORY_RESETPAGE?ERRORHISTORY
  +--> ?PR?ERRORHISTORYDISPLAY?ERRORHISTORY
  +--> ?PR?CLEARERRORHISTORY?ERRORHISTORY
  +--> ?PR?_MODBUS_TRIGGERDEFROSTPARAMWRITE?...
  +--> ?PR?UPLOAD_DP_DEFROST_FREQ?UPLOAD
  +--> ?PR?UPLOAD_DP_DEFROST_TIME?UPLOAD
  +--> ?PR?UPLOAD_DP_DEFROST_OUT_TEMP?UPLOAD
  +--> ?PR?_TEMP_LIMIT?CONTROL
  +--> ?PR?MCU_RESET_WIFI?MCU_API
  +--> ?PR?_MODBUS_APPLYINDOORTIMERVPTOUNITS...
  +--> ?PR?SCREENTIMEOUT_SET?SYS
  +--> ?PR?READY4WRITERTC?CONTROL

?PR?GETVALUE0F00?CONTROL                         -----    -----      -----    -----      8AAAH    0004H
  +--> ?CO?CONTROL
  +--> ?PR?_READ_DGUS_VP?SYS
  +--> ?PR?_WRITE_DGUS_VP?SYS

?PR?_ERRORHISTORY_PAGECHANGE?ERRORHIS...         -----    -----      -----    -----      -----    -----
  +--> ?PR?ERRORHISTORY_GETMAXPAGE?ERRORHISTORY
  +--> ?PR?ERRORHISTORYDISPLAY?ERRORHISTORY

?PR?ERRORHISTORY_GETMAXPAGE?ERRORHISTORY         -----    -----      -----    -----      -----    -----
  +--> ?PR?ERRORHISTORY_GETCOUNT?ERRORHISTORY

?PR?ERRORHISTORYDISPLAY?ERRORHISTORY             -----    -----      -----    -----      8AAAH    000EH
  +--> ?CO?ERRORHISTORY
  +--> ?PR?_WRITE_DGUS_VP?SYS

?PR?READY_TO_SAVE_REPORT?SYS                     -----    -----      -----    -----      -----    -----
  +--> ?PR?READY_TO_SAVE?SYS

?PR?UPLOAD_INSIDE_TIME_OPEN?UPLOAD               -----    -----      -----    -----      8AAAH    000BH
  +--> ?CO?UPLOAD
  +--> ?PR?_READ_DGUS_VP?SYS
  +--> ?PR?_UPLOAD_DGUSMODETODP116?UPLOAD
  +--> ?PR?UPLOAD_PACKTIMERROOMBYTE?UPLOAD
  +--> ?PR?_MCU_DP_RAW_UPDATE?MCU_API
  +--> ?PR?UPLOAD_YIELDWIFI?UPLOAD

BL51 BANKED LINKER/LOCATER V6.22.2.0                                                  06/30/2026  14:47:53  PAGE 24


?PR?UPLOAD_PACKTIMERROOMBYTE?UPLOAD              -----    -----      -----    -----      8AB5H    0006H
  +--> ?PR?_READ_DGUS_VP?SYS

?PR?UPLOAD_EXTERNAL_TIME_OPEN?UPLOAD             -----    -----      -----    -----      8AAAH    0009H
  +--> ?CO?UPLOAD
  +--> ?PR?_READ_DGUS_VP?SYS
  +--> ?PR?_MCU_DP_RAW_UPDATE?MCU_API
  +--> ?PR?UPLOAD_YIELDWIFI?UPLOAD

?PR?_SYNCHOMEDISPLAYIFFIRSTINDOORMODE...         -----    -----      -----    -----      8AAAH    0007H
  +--> ?PR?_READ_DGUS_VP?SYS
  +--> ?PR?_WRITE_DGUS_VP?SYS
  +--> ?PR?_HOMEPAGE_UPDATEMODEANIMATION?CON...

?PR?_KEYADJUSTSETTEMPFORMODE?CONTROL             -----    -----      -----    -----      8AAAH    000BH
  +--> ?PR?_READ_DGUS_VP?SYS
  +--> ?PR?_SETTEMPINTVPBYMODE?CONTROL
  +--> ?PR?_WRITE_DGUS_VP?SYS
  +--> ?PR?_TEMP_LIMIT?CONTROL
  +--> ?PR?_TEMPUNITTRANS?CONTROL
  +--> ?PR?_SYNCSETTEMPCACHESFROMC?CONTROL
  +--> ?PR?READY_TO_SAVE_REPORT?SYS
  +--> ?PR?UPLOAD_DP_TEMP_SET?UPLOAD

?PR?_TEMP_LIMIT?CONTROL                          -----    -----      -----    -----      8AB5H    0009H
  +--> ?PR?_READ_DGUS_VP?SYS
  +--> ?PR?_TEMPUNITTRANS?CONTROL
  +--> ?PR?_WRITE_DGUS_VP?SYS
  +--> ?PR?_SYNCINDOORSETTEMPVPPAIR?CONTROL
  +--> ?PR?_SYNCSETTEMPCACHESFROMC?CONTROL
  +--> ?PR?_SETTEMPINTWRITE?CONTROL

?PR?PREFILLSETTEMPEDITPAGE?CONTROL               -----    -----      -----    -----      8AAAH    0008H
  +--> ?PR?_READ_DGUS_VP?SYS
  +--> ?PR?_SETTEMPINTREAD?CONTROL
  +--> ?PR?_TEMPUNITTRANS?CONTROL
  +--> ?PR?_WRITE_DGUS_VP?SYS
  +--> ?PR?_PAGE_CHANGE_HANDLER?SYS

?PR?_SETTEMPFLOATWRITEC?CONTROL                  -----    -----      -----    -----      8AAAH    0009H
  +--> ?PR?_TEMPUNITTRANS?CONTROL
  +--> ?PR?_SETTEMPINTWRITE?CONTROL

?PR?_SETMODEPROCESS?CONTROL                      -----    -----      -----    -----      8AAAH    0002H
  +--> ?PR?_WRITE_DGUS_VP?SYS

?PR?RTCDISPLAY4CHANGE?CONTROL                    -----    -----      -----    -----      8AAAH    0008H
  +--> ?PR?_READ_DGUS_VP?SYS
  +--> ?PR?_WRITE_DGUS_VP?SYS
  +--> ?PR?_RTC_MONTHFROMDISPLAYVP?RTC

?PR?_RTC_MONTHFROMDISPLAYVP?RTC                  -----    -----      -----    -----      8AB2H    0002H

?PR?_LANGUAGE_CHANGE?SYS                         -----    -----      -----    -----      8AAAH    0004H
  +--> ?PR?_WRITE_DGUS_VP?SYS

?PR?RTC_GETUNIXLOCAL?RTC                         -----    -----      -----    -----      8AD2H    0009H
BL51 BANKED LINKER/LOCATER V6.22.2.0                                                  06/30/2026  14:47:53  PAGE 25


  +--> ?PR?_RTC_IS_LEAP?RTC
  +--> ?PR?_RTC_DAYS_IN_MONTH?RTC

?PR?_RTC_DAYS_IN_MONTH?RTC                       -----    -----      -----    -----      -----    -----
  +--> ?PR?_RTC_IS_LEAP?RTC

?PR?_BRIGHTNESS_HANDLER?SYS                      -----    -----      -----    -----      8AAAH    0002H
  +--> ?PR?_WRITE_DGUS_VP?SYS

?PR?ERRORHISTORY_TRYMIGRATEFLASH?ERRO...         -----    -----      -----    -----      8AAAH    0008H
  +--> ?PR?ERRORHISTORY_FLASHVPADDR?ERRORHIS...
  +--> ?PR?_READ_DGUS_VP?SYS
  +--> ?PR?ERRORHISTORY_SANITIZE?ERRORHISTORY
  +--> ?PR?_ERRORHISTORY_FLASHWRITE?ERRORHIS...
  +--> ?PR?WRITE_MEMORY?SYS
  +--> ?PR?WRITE_NOR_FLASH?SYS

?PR?ERRORHISTORY_SANITIZE?ERRORHISTORY           -----    -----      -----    -----      -----    -----
  +--> ?PR?_ERRORHISTORY_ISVALIDCODE?ERRORHI...

?PR?UPLOAD_EXTERNAL_TIME_CLOSE?UPLOAD            -----    -----      -----    -----      8AAAH    0005H
  +--> ?CO?UPLOAD
  +--> ?PR?_READ_DGUS_VP?SYS
  +--> ?PR?_MCU_DP_RAW_UPDATE?MCU_API
  +--> ?PR?UPLOAD_YIELDWIFI?UPLOAD

?PR?UPLOAD_INSIDE_TIME_CLOSE?UPLOAD              -----    -----      -----    -----      8AAAH    0005H
  +--> ?CO?UPLOAD
  +--> ?PR?_READ_DGUS_VP?SYS
  +--> ?PR?_MCU_DP_RAW_UPDATE?MCU_API
  +--> ?PR?UPLOAD_YIELDWIFI?UPLOAD

?PR?MODBUS_TRIGGERGROUPCONTROLWRITE?M...         -----    -----      -----    -----      -----    -----
  +--> ?PR?_MODBUS_FILLGROUPCONTROLREGS?MODBUS
  +--> ?PR?_MODBUS_GROUPREGSCHANGED?MODBUS

?PR?_MODBUS_GROUPREGSCHANGED?MODBUS              -----    -----      -----    -----      8AAAH    0004H

?PR?MCU_RESET_WIFI?MCU_API                       -----    -----      -----    -----      -----    -----
  +--> ?PR?_WIFI_UART_WRITE_FRAME?SYSTEM

?PR?SCREENTIMEOUT_SET?SYS                        0023H.1  0000H.1    -----    -----      8AAAH    0004H
  +--> ?PR?_READ_DGUS_VP?SYS
  +--> ?PR?_WRITE_DGUS_VP?SYS

?PR?READY4WRITERTC?CONTROL                       -----    -----      -----    -----      8AAAH    0012H
  +--> ?PR?_READ_DGUS_VP?SYS
  +--> ?PR?_WRITE_DGUS_VP?SYS

?PR?SAVE_DATA_HANDLER?SYS                        -----    -----      -----    -----      8A99H    0002H
  +--> ?PR?WRITE_MEMORY?SYS
  +--> ?PR?WRITE_NOR_FLASH?SYS

?PR?MODBUSCHANELCONTROL?MAIN                     -----    -----      -----    -----      -----    -----
  +--> ?PR?OTAINIT?OTA
  +--> ?PR?_PAGE_CHANGE_HANDLER?SYS
  +--> ?PR?OTA_MODBUSPRO?OTA
BL51 BANKED LINKER/LOCATER V6.22.2.0                                                  06/30/2026  14:47:53  PAGE 26


  +--> ?PR?_UPGRADE_PACKAGE_CHOOSE?PROTOCOL
  +--> ?PR?_WIFI_UART_WRITE_FRAME?SYSTEM

?PR?OTA_MODBUSPRO?OTA                            -----    -----      -----    -----      -----    -----
  +--> ?PR?OTAENCODEPRO?OTA
  +--> ?PR?OTARECVPRO?OTA
  +--> ?PR?OTADECODEPRO?OTA

?PR?OTAENCODEPRO?OTA                             -----    -----      -----    -----      8A99H    0004H
  +--> ?PR?_CALCULATEMODBUSCRC?MODBUS
  +--> ?PR?_UART5_SENDSTR?UART

?PR?OTADECODEPRO?OTA                             -----    -----      -----    -----      -----    -----
  +--> ?PR?_CALCULATEMODBUSCRC?MODBUS

?PR?RTCUPDATE?RTC                                -----    -----      -----    -----      8A99H    0006H
  +--> ?PR?GETSYSTICKTIME?RTC
  +--> ?PR?_GETTIMEDIFF?RTC
  +--> ?PR?RDTIME?RTC
  +--> ?PR?_RTC_WRITEDISPLAYTIME?RTC

?PR?_GETTIMEDIFF?RTC                             -----    -----      -----    -----      8A9FH    0008H

?PR?RDTIME?RTC                                   -----    -----      -----    -----      8A9FH    0011H
  +--> ?PR?RTCI2CSTART?RTC
  +--> ?PR?_RTCI2CBW?RTC
  +--> ?PR?RTCI2CSTOP?RTC
  +--> ?PR?RTCI2CBR?RTC
  +--> ?PR?RTCMACK?RTC
  +--> ?PR?RTCMNAK?RTC
  +--> ?PR?_WRITE_DGUS_VP?SYS
  +--> ?PR?CHECK_RTC_SET?RTC

?PR?CHECK_RTC_SET?RTC                            -----    -----      -----    -----      8AB0H    0012H
  +--> ?CO?RTC
  +--> ?PR?_READ_DGUS_VP?SYS
  +--> ?PR?_BCD?RTC
  +--> ?PR?_RTC_GET_WEEK?RTC
  +--> ?PR?_RTC_CONFIG?RTC
  +--> ?PR?_RTC_WRITEDISPLAYTIME?RTC
  +--> ?PR?_RTC_WRITEEDITTIME?RTC
  +--> ?PR?_WRITE_DGUS_VP?SYS
  +--> ?PR?UPLOAD_TIMESTAMP_FROM_RTC?UPLOAD

?PR?_RTC_GET_WEEK?RTC                            -----    -----      -----    -----      8AC2H    0005H

?PR?_RTC_CONFIG?RTC                              -----    -----      -----    -----      8AC2H    0005H
  +--> ?PR?RTCI2CSTART?RTC
  +--> ?PR?_RTCI2CBW?RTC
  +--> ?PR?RTCI2CSTOP?RTC

?PR?UPLOAD_TIMESTAMP_FROM_RTC?UPLOAD             -----    -----      -----    -----      8AC2H    0010H
  +--> ?PR?RTC_GETUNIXLOCAL?RTC
  +--> ?PR?_UPLOAD_ULTOSTR?UPLOAD
  +--> ?PR?_MY_STRLEN?MCU_API
  +--> ?PR?_MCU_DP_STRING_UPDATE?MCU_API

BL51 BANKED LINKER/LOCATER V6.22.2.0                                                  06/30/2026  14:47:53  PAGE 27


?PR?_UPLOAD_ULTOSTR?UPLOAD                       -----    -----      -----    -----      8AD2H    0013H

?PR?HOMEPAGE_ICON?CONTROL                        -----    -----      -----    -----      8A99H    0003H
  +--> ?PR?MCU_GET_WIFI_WORK_STATE?MCU_API
  +--> ?PR?_WRITE_DGUS_VP?SYS
  +--> ?PR?_READ_DGUS_VP?SYS
  +--> ?PR?_HOMEPAGE_UPDATEMODEANIMATION?CON...

?PR?MCU_GET_WIFI_WORK_STATE?MCU_API              -----    -----      -----    -----      -----    -----
  +--> ?CO?MCU_API
  +--> ?PR?PRINTF?PRINTF

?PR?DECODEERRORHISTORY?ERRORHISTORY              -----    -----      -----    -----      8A99H    0001H
  +--> ?PR?_UPDATEERRORHISTORY?ERRORHISTORY
  +--> ?PR?GETPAGEID?CONTROL
  +--> ?PR?ERRORHISTORYDISPLAY?ERRORHISTORY

?PR?_UPDATEERRORHISTORY?ERRORHISTORY             -----    -----      -----    -----      8A9AH    0009H
  +--> ?PR?_ERRORHISTORY_READTIME?ERRORHISTORY
  +--> ?PR?_UWOERRORCODEPROCESS?ERRORHISTORY
  +--> ?PR?READY_TO_SAVE?SYS
  +--> ?PR?UPLOAD_HISTORY_FAULTS?UPLOAD

?PR?_ERRORHISTORY_READTIME?ERRORHISTORY          -----    -----      -----    -----      8AA3H    000DH
  +--> ?PR?_READ_DGUS_VP?SYS
  +--> ?PR?_RTC_MONTHFROMDISPLAYVP?RTC
  +--> ?PR?_ERRORHISTORY_CLAMPBYTE?ERRORHISTORY

?PR?UI_OPENPAGE?MAIN                             -----    -----      -----    -----      -----    -----
  +--> ?PR?HOMEPAGE?CONTROL
  +--> ?PR?_UPLOAD_SET_BOOT_READY?UPLOAD

?PR?TIMERRUNNING?CONTROL                         -----    -----      -----    -----      8A99H    0007H
  +--> ?PR?_READ_DGUS_VP?SYS
  +--> ?PR?SYNCTIMERFROMVP?CONTROL
  +--> ?PR?RTC_GET_WEEKDAY?RTC
  +--> ?PR?_TIMER_ISEXTERNALWEEKDAYMATCH?CON...
  +--> ?PR?_WRITE_DGUS_VP?SYS
  +--> ?PR?_SETTEMPINTWRITE?CONTROL
  +--> ?PR?_SYNCSETTEMPCACHESFROMC?CONTROL
  +--> ?PR?READY_TO_SAVE_REPORT?SYS
  +--> ?PR?UPLOAD_DP_SWITCH?UPLOAD
  +--> ?PR?UPLOAD_DP_MODE?UPLOAD
  +--> ?PR?UPLOAD_DP_TEMP_SET?UPLOAD
  +--> ?PR?_TIMER_ISINDOORWEEKDAYMATCH?CONTROL
  +--> ?PR?TIMER_APPLYINDOORON?CONTROL
  +--> ?PR?UPLOAD_INDOOR_UNIT?UPLOAD
  +--> ?PR?TIMER_APPLYINDOOROFF?CONTROL
  +--> ?PR?DEFROST_CHECKEXIT?CONTROL

?PR?SYNCTIMERFROMVP?CONTROL                      -----    -----      -----    -----      8AA0H    0002H
  +--> ?CO?CONTROL
  +--> ?PR?_READ_DGUS_VP?SYS
  +--> ?PR?_READTIMERTEMPC?CONTROL

?PR?_READTIMERTEMPC?CONTROL                      -----    -----      -----    -----      8AA2H    000EH
  +--> ?PR?_READ_DGUS_VP?SYS
BL51 BANKED LINKER/LOCATER V6.22.2.0                                                  06/30/2026  14:47:53  PAGE 28


  +--> ?PR?_TEMPUNITTRANS?CONTROL

?PR?_TIMER_ISEXTERNALWEEKDAYMATCH?CON...         -----    -----      -----    -----      8AA0H    0005H
  +--> ?PR?_READ_DGUS_VP?SYS

?PR?_TIMER_ISINDOORWEEKDAYMATCH?CONTROL          -----    -----      -----    -----      8AA0H    0005H
  +--> ?PR?_READ_DGUS_VP?SYS

?PR?TIMER_APPLYINDOORON?CONTROL                  -----    -----      -----    -----      8AA0H    000BH
  +--> ?PR?_READ_DGUS_VP?SYS
  +--> ?PR?_WRITE_DGUS_VP?SYS
  +--> ?PR?_MODBUS_TRIGGERINDOORUNITWRITE?MO...
  +--> ?PR?UPLOAD_INDOOR_UNIT?UPLOAD

?PR?TIMER_APPLYINDOOROFF?CONTROL                 -----    -----      -----    -----      8AA0H    0005H
  +--> ?PR?_READ_DGUS_VP?SYS
  +--> ?PR?_WRITE_DGUS_VP?SYS
  +--> ?PR?_MODBUS_TRIGGERINDOORUNITWRITE?MO...
  +--> ?PR?UPLOAD_INDOOR_UNIT?UPLOAD

?PR?DEFROST_CHECKEXIT?CONTROL                    -----    -----      -----    -----      8AA0H    000EH
  +--> ?PR?_READ_DGUS_VP?SYS
  +--> ?PR?RTC_GETUNIXLOCAL?RTC
  +--> ?PR?MODBUS_CLEARMANUALDEFROST?MODBUS
  +--> ?PR?_WRITE_DGUS_VP?SYS
  +--> ?PR?UPLOAD_DP_DEFROST?UPLOAD

?PR?WIFI_RESTING_PRO?CONTROL                     -----    -----      -----    -----      -----    -----
  +--> ?PR?MCU_GET_RESET_WIFI_FLAG?MCU_API
  +--> ?PR?_PAGE_CHANGE_HANDLER?SYS

?PR?OTARELOAD_DELAYPAGE?CONTROL                  -----    -----      -----    -----      -----    -----
  +--> ?PR?HOMEPAGE?CONTROL

?PR?SCREENSAVER_PRO?CONTROL                      -----    -----      -----    -----      8A99H    000CH
  +--> ?PR?GETPAGEID?CONTROL
  +--> ?PR?_PAGE_CHANGE_HANDLER?SYS
  +--> ?PR?_READ_DGUS_VP?SYS
  +--> ?PR?_WRITE_DGUS_VP?SYS

*** NEW ROOT ***************************************************

?PR?UART2_ISR_PC?UART                            -----    -----      -----    -----      -----    -----
  +--> ?PR?_UART_RECEIVE_INPUT?MCU_API

?PR?_UART_RECEIVE_INPUT?MCU_API                  -----    -----      -----    -----      8CBDH    0001H
  +--> ?PR?_WIFI_UART_RX_BYTE_SCAN?MCU_API

*** NEW ROOT ***************************************************

?PR?UART5_TX_ISR_PC?UART                         -----    -----      -----    -----      8CBEH    0002H



UNRESOLVED EXTERNAL SYMBOLS:
   OTALENGTH

BL51 BANKED LINKER/LOCATER V6.22.2.0                                                  06/30/2026  14:47:53  PAGE 29




SYMBOL TABLE OF MODULE:  .\obj\T5L51 (?C_STARTUP)

  VALUE           TYPE          NAME
  ----------------------------------

  -------         MODULE        ?C_STARTUP
  C:CB3DH         SEGMENT       ?C_C51STARTUP
  I:0027H         SEGMENT       ?STACK
  C:0000H         PUBLIC        ?C_STARTUP
  D:00E0H         SYMBOL        ACC
  D:00F0H         SYMBOL        B
  D:008EH         SYMBOL        CKCON
  D:0094H         SYMBOL        DAGESEL
  D:0093H         SYMBOL        DPC
  D:0083H         SYMBOL        DPH
  D:0082H         SYMBOL        DPL
  D:0095H         SYMBOL        D_PAGESEL
  N:0000H         SYMBOL        IBPSTACK
  N:0100H         SYMBOL        IBPSTACKTOP
  N:0080H         SYMBOL        IDATALEN
  C:CB55H         SYMBOL        IDATALOOP
  D:00C9H         SYMBOL        MUX_SEL
  N:0000H         SYMBOL        PBPSTACK
  N:0100H         SYMBOL        PBPSTACKTOP
  N:0000H         SYMBOL        PDATALEN
  N:0000H         SYMBOL        PDATASTART
  N:0000H         SYMBOL        PPAGE
  N:0000H         SYMBOL        PPAGEENABLE
  D:00A0H         SYMBOL        PPAGE_SFR
  D:00F8H         SYMBOL        RAMMODE
  D:0081H         SYMBOL        SP
  C:CB3DH         SYMBOL        STARTUP1
  D:00C8H         SYMBOL        T2CON
  N:0000H         SYMBOL        XBPSTACK
  N:0000H         SYMBOL        XBPSTACKTOP
  N:0000H         SYMBOL        XDATALEN
  N:0000H         SYMBOL        XDATASTART
  C:0000H         LINE#         133
  C:CB3DH         LINE#         143
  C:CB40H         LINE#         144
  C:CB43H         LINE#         145
  C:CB46H         LINE#         146
  C:CB49H         LINE#         147
  C:CB4CH         LINE#         148
  C:CB4FH         LINE#         149
  C:CB52H         LINE#         152
  C:CB54H         LINE#         153
  C:CB55H         LINE#         154
  C:CB56H         LINE#         155
  C:CB58H         LINE#         204
  C:CB5BH         LINE#         215
  -------         ENDMOD        ?C_STARTUP

  -------         MODULE        MAIN
  C:0000H         SYMBOL        _ICE_DUMMY_
BL51 BANKED LINKER/LOCATER V6.22.2.0                                                  06/30/2026  14:47:53  PAGE 30


  D:0080H         PUBLIC        P0
  D:00B0H         PUBLIC        P3
  D:00F8H         PUBLIC        RAMMODE
  D:00A8H         PUBLIC        IEN0
  D:00B8H         PUBLIC        IEN1
  C:F74BH         PUBLIC        UI_OpenPage
  C:D946H         PUBLIC        ModbusChanelControl
  C:97B6H         PUBLIC        main
  B:0026H.2       PUBLIC        OldTuyaOTAState
  D:0088H         PUBLIC        TCON
  D:00C9H         PUBLIC        MUX_SEL
  D:0098H         PUBLIC        SCON0
  D:00C8H         PUBLIC        T2CON
  D:00D0H         PUBLIC        PSW
  D:00C0H         PUBLIC        IRCON
  -------         PROC          UI_OPENPAGE
  -------         DO            
  X:9598H         SYMBOL        WaitingTime
  X:9599H         SYMBOL        AlreadyRunning
  -------         ENDDO         
  C:F74BH         LINE#         46
  C:F74BH         LINE#         47
  C:F74BH         LINE#         51
  C:F751H         LINE#         52
  C:F751H         LINE#         53
  C:F757H         LINE#         54
  C:F757H         LINE#         55
  C:F759H         LINE#         56
  C:F75CH         LINE#         57
  C:F75CH         LINE#         58
  C:F761H         LINE#         59
  C:F768H         LINE#         60
  C:F76DH         LINE#         61
  C:F771H         LINE#         62
  C:F771H         LINE#         63
  C:F771H         LINE#         64
  C:F771H         LINE#         65
  -------         ENDPROC       UI_OPENPAGE
  -------         PROC          MODBUSCHANELCONTROL
  C:D946H         LINE#         66
  C:D946H         LINE#         67
  C:D946H         LINE#         68
  C:D94EH         LINE#         69
  C:D94EH         LINE#         70
  C:D952H         LINE#         71
  C:D955H         LINE#         72
  C:D955H         LINE#         73
  C:D958H         LINE#         74
  C:D95DH         LINE#         75
  C:D95FH         LINE#         77
  C:D95FH         LINE#         78
  C:D961H         LINE#         79
  C:D963H         LINE#         80
  C:D965H         LINE#         81
  C:D967H         LINE#         82
  C:D967H         LINE#         83
  C:D967H         LINE#         84
BL51 BANKED LINKER/LOCATER V6.22.2.0                                                  06/30/2026  14:47:53  PAGE 31


  C:D96AH         LINE#         85
  C:D96AH         LINE#         86
  C:D96DH         LINE#         87
  C:D992H         LINE#         88
  C:D992H         LINE#         89
  C:D9A1H         LINE#         90
  C:D9A3H         LINE#         92
  C:D9A6H         LINE#         93
  C:D9A6H         LINE#         94
  C:D9A8H         LINE#         95
  C:D9ADH         LINE#         96
  C:D9ADH         LINE#         97
  C:D9B0H         LINE#         98
  C:D9B0H         LINE#         99
  C:D9BAH         LINE#         100
  C:D9BCH         LINE#         101
  C:D9BCH         LINE#         102
  -------         ENDPROC       MODBUSCHANELCONTROL
  -------         PROC          MAIN
  C:97B6H         LINE#         104
  C:97B6H         LINE#         105
  C:97B6H         LINE#         106
  C:97B9H         LINE#         107
  C:97BCH         LINE#         108
  C:97BFH         LINE#         109
  C:97C2H         LINE#         110
  C:97C5H         LINE#         112
  C:97C8H         LINE#         113
  C:97CBH         LINE#         114
  C:97CEH         LINE#         116
  C:97D1H         LINE#         120
  C:97D4H         LINE#         121
  C:97D7H         LINE#         123
  C:97D7H         LINE#         124
  C:97D7H         LINE#         125
  C:97DAH         LINE#         126
  C:97DDH         LINE#         127
  C:97E0H         LINE#         128
  C:97E3H         LINE#         129
  C:97E6H         LINE#         131
  C:97F5H         LINE#         132
  C:97F5H         LINE#         133
  C:97F9H         LINE#         134
  C:97FCH         LINE#         135
  C:97FFH         LINE#         136
  C:9802H         LINE#         137
  C:9805H         LINE#         138
  C:9805H         LINE#         140
  C:9817H         LINE#         141
  C:9817H         LINE#         142
  C:981BH         LINE#         144
  C:981EH         LINE#         145
  C:9821H         LINE#         149
  C:9861H         LINE#         156
  C:98F8H         LINE#         157
  C:98F8H         LINE#         159
  C:990AH         LINE#         160
BL51 BANKED LINKER/LOCATER V6.22.2.0                                                  06/30/2026  14:47:53  PAGE 32


  C:990AH         LINE#         161
  C:990EH         LINE#         162
  C:9911H         LINE#         163
  C:9914H         LINE#         164
  C:9917H         LINE#         165
  C:991AH         LINE#         166
  C:991DH         LINE#         167
  C:9920H         LINE#         168
  C:9920H         LINE#         169
  -------         ENDPROC       MAIN
  -------         ENDMOD        MAIN

  -------         MODULE        SYS
  C:0000H         SYMBOL        _ICE_DUMMY_
  C:DF7AH         PUBLIC        INIT_CPU
  D:00F1H         PUBLIC        ADR_H
  D:0080H         PUBLIC        P0
  D:0090H         PUBLIC        P1
  D:00A0H         PUBLIC        P2
  D:00B0H         PUBLIC        P3
  D:00F3H         PUBLIC        ADR_L
  D:00F2H         PUBLIC        ADR_M
  C:CBDEH         SYMBOL        _Memory_ReadTimerSlot
  B:00A8H.7       PUBLIC        EA
  D:00F8H         PUBLIC        RAMMODE
  C:8E17H         PUBLIC        _write_dgus_vp
  D:00B7H         PUBLIC        P0MDOUT
  D:00BCH         PUBLIC        P1MDOUT
  D:00A8H         PUBLIC        IEN0
  C:F194H         PUBLIC        Ready_To_Save
  D:00BDH         PUBLIC        P2MDOUT
  D:00B8H         PUBLIC        IEN1
  D:00BEH         PUBLIC        P3MDOUT
  D:009AH         PUBLIC        IEN2
  C:E7CFH         PUBLIC        read_flash
  C:E996H         PUBLIC        Save_Data_Handler
  B:00F8H.4       PUBLIC        APP_ACK
  D:00F4H         PUBLIC        ADR_INC
  X:8798H         PUBLIC        TempSensorData
  C:C3ADH         SYMBOL        _Memory_WriteTimerSlot
  X:8A60H         PUBLIC        read_flash_status
  C:A16DH         PUBLIC        _FlashCheckSumCalculate
  C:E7D7H         PUBLIC        write_flash
  X:8A68H         PUBLIC        Page_Change
  D:00BAH         PUBLIC        SREL0H
  C:F985H         PUBLIC        _DelayMs
  D:00F9H         PUBLIC        PORTDRV
  D:00AAH         PUBLIC        SREL0L
  D:0089H         PUBLIC        TMOD
  D:0088H         PUBLIC        TCON
  C:E7C3H         PUBLIC        mon_table
  D:0097H         PUBLIC        SCON2R
  D:00ABH         PUBLIC        SCON3R
  D:00D9H         PUBLIC        BODE2_DIV_H
  C:F965H         PUBLIC        _DelayUs
  D:00AEH         PUBLIC        BODE3_DIV_H
  D:0096H         PUBLIC        SCON2T
BL51 BANKED LINKER/LOCATER V6.22.2.0                                                  06/30/2026  14:47:53  PAGE 33


  D:00A7H         PUBLIC        SCON3T
  C:FE32H         PUBLIC        PORT_Init
  C:ED5CH         PUBLIC        ScreenTimeOut_Set
  D:00E7H         PUBLIC        BODE2_DIV_L
  C:E7DFH         PUBLIC        Soft_Ver_Num
  X:8A7CH         PUBLIC        Save_Flash_Flag
  D:00AFH         PUBLIC        BODE3_DIV_L
  D:00C9H         PUBLIC        MUX_SEL
  C:ED17H         SYMBOL        _Dgus_WaitEn
  C:E7E3H         SYMBOL        _?ix1000
  C:F945H         PUBLIC        _Brightness_Handler
  C:A9BCH         PUBLIC        T0_ISR_PC
  C:E660H         PUBLIC        T1_ISR_PC
  X:8A7DH         PUBLIC        Modbus_Error_Count
  C:FC8FH         PUBLIC        T2_ISR_PC
  C:FEB8H         PUBLIC        Read_Memory_Error
  D:00A9H         PUBLIC        IP0
  B:00A8H.1       PUBLIC        ET0
  D:00B9H         PUBLIC        IP1
  B:00A8H.3       PUBLIC        ET1
  D:00FDH         PUBLIC        DATA0
  C:EEF6H         PUBLIC        _Page_Change_Handler
  D:00FCH         PUBLIC        DATA1
  B:00C0H.6       PUBLIC        TF2
  D:008CH         PUBLIC        TH0
  X:8A7FH         PUBLIC        page_set
  D:00FBH         PUBLIC        DATA2
  D:008DH         PUBLIC        TH1
  D:000DH         SYMBOL        SysTick
  D:00FAH         PUBLIC        DATA3
  D:00CDH         PUBLIC        TH2
  X:8A83H         PUBLIC        Flash_Save_Count
  D:008AH         PUBLIC        TL0
  D:008BH         PUBLIC        TL1
  D:00CCH         PUBLIC        TL2
  C:FD88H         PUBLIC        _delay_ms
  C:F683H         PUBLIC        _Language_Change
  B:00F8H.6       PUBLIC        APP_EN
  B:00D0H.3       PUBLIC        RS0
  B:00D0H.4       PUBLIC        RS1
  B:0088H.4       PUBLIC        TR0
  B:0088H.6       PUBLIC        TR1
  X:8A85H         PUBLIC        Password
  B:00C8H.0       PUBLIC        TR2
  C:FEB7H         PUBLIC        Read_Memory
  X:8A89H         PUBLIC        adc_average_channel7
  C:FC67H         PUBLIC        Read_Nor_Flash
  D:0098H         PUBLIC        SCON0
  X:8A8BH         PUBLIC        task_10ms_count
  D:00D8H         PUBLIC        ADCON
  X:8A8DH         PUBLIC        Temp_Indoor
  D:00C8H         PUBLIC        T2CON
  C:FEB6H         PUBLIC        Write_Memory
  D:00CBH         PUBLIC        TRL2H
  C:FEA7H         PUBLIC        Ready_To_Save_Report
  C:FC7BH         PUBLIC        Write_Nor_Flash
  X:8A8FH         PUBLIC        AD_Count
BL51 BANKED LINKER/LOCATER V6.22.2.0                                                  06/30/2026  14:47:53  PAGE 34


  D:00CAH         PUBLIC        TRL2L
  C:EDE6H         PUBLIC        System_Parm_Init
  X:8A91H         PUBLIC        APP_1000ms_count
  X:8A93H         PUBLIC        task_10000ms_count
  X:8A95H         PUBLIC        Send_Count
  X:8A97H         PUBLIC        rx485_Count
  C:FD24H         PUBLIC        T0_Init
  D:00D0H         PUBLIC        PSW
  C:8153H         PUBLIC        _read_dgus_vp
  C:FD34H         PUBLIC        T1_Init
  C:FBE5H         PUBLIC        T2_Init
  D:00C0H         PUBLIC        IRCON
  -------         PROC          _DGUS_WAITEN
  X:958DH         SYMBOL        addr
  X:958FH         SYMBOL        limit
  C:ED17H         LINE#         30
  C:ED25H         LINE#         31
  C:ED25H         LINE#         32
  C:ED28H         LINE#         33
  C:ED28H         LINE#         34
  C:ED36H         LINE#         35
  C:ED36H         LINE#         36
  C:ED4EH         LINE#         37
  C:ED51H         LINE#         38
  C:ED53H         LINE#         39
  C:ED55H         LINE#         40
  C:ED55H         LINE#         41
  C:ED58H         LINE#         42
  C:ED5AH         LINE#         43
  C:ED5BH         LINE#         44
  -------         ENDPROC       _DGUS_WAITEN
  -------         PROC          _MEMORY_WRITETIMERSLOT
  X:9488H         SYMBOL        flash_addr
  X:948CH         SYMBOL        vp_addr
  X:9490H         SYMBOL        struct_bytes
  -------         DO            
  X:9492H         SYMBOL        slot
  D:0007H         SYMBOL        i
  X:94B2H         SYMBOL        temp
  -------         ENDDO         
  C:C3ADH         LINE#         46
  C:C3B3H         LINE#         47
  C:C3B3H         LINE#         52
  C:C3BFH         LINE#         53
  C:C3D2H         LINE#         54
  C:C3DEH         LINE#         55
  C:C3EDH         LINE#         56
  C:C41FH         LINE#         57
  C:C431H         LINE#         58
  C:C44CH         LINE#         59
  -------         ENDPROC       _MEMORY_WRITETIMERSLOT
  -------         PROC          _MEMORY_READTIMERSLOT
  X:94C2H         SYMBOL        flash_addr
  X:94C6H         SYMBOL        vp_addr
  X:94CAH         SYMBOL        struct_bytes
  -------         DO            
  X:94CCH         SYMBOL        slot
BL51 BANKED LINKER/LOCATER V6.22.2.0                                                  06/30/2026  14:47:53  PAGE 35


  D:0007H         SYMBOL        i
  X:94ECH         SYMBOL        temp
  -------         ENDDO         
  C:CBDEH         LINE#         62
  C:CBE4H         LINE#         63
  C:CBE4H         LINE#         68
  C:CBF0H         LINE#         69
  C:CBFFH         LINE#         70
  C:CC1FH         LINE#         71
  C:CC31H         LINE#         72
  C:CC4CH         LINE#         73
  -------         ENDPROC       _MEMORY_READTIMERSLOT
  -------         PROC          INIT_CPU
  C:DF7AH         LINE#         146
  C:DF7AH         LINE#         147
  C:DF7AH         LINE#         148
  C:DF7CH         LINE#         149
  C:DF7EH         LINE#         150
  C:DF80H         LINE#         152
  C:DF83H         LINE#         153
  C:DF86H         LINE#         154
  C:DF88H         LINE#         155
  C:DF8AH         LINE#         158
  C:DF8DH         LINE#         159
  C:DF90H         LINE#         161
  C:DF93H         LINE#         164
  C:DF95H         LINE#         165
  C:DF97H         LINE#         166
  C:DF99H         LINE#         167
  C:DF9BH         LINE#         168
  C:DF9EH         LINE#         169
  C:DFA0H         LINE#         170
  C:DFA2H         LINE#         171
  C:DFA4H         LINE#         174
  C:DFA7H         LINE#         175
  C:DFAAH         LINE#         176
  C:DFADH         LINE#         177
  C:DFB0H         LINE#         182
  C:DFB3H         LINE#         183
  C:DFB6H         LINE#         184
  C:DFB8H         LINE#         185
  C:DFBBH         LINE#         188
  C:DFBEH         LINE#         189
  C:DFC1H         LINE#         190
  C:DFC3H         LINE#         191
  C:DFC6H         LINE#         196
  C:DFC9H         LINE#         198
  C:DFCBH         LINE#         199
  C:DFCDH         LINE#         200
  C:DFCFH         LINE#         203
  C:DFD1H         LINE#         204
  C:DFD3H         LINE#         205
  C:DFD5H         LINE#         209
  C:DFD8H         LINE#         210
  C:DFDAH         LINE#         211
  C:DFDCH         LINE#         212
  C:DFDFH         LINE#         213
BL51 BANKED LINKER/LOCATER V6.22.2.0                                                  06/30/2026  14:47:53  PAGE 36


  C:DFE2H         LINE#         214
  -------         ENDPROC       INIT_CPU
  -------         PROC          PORT_INIT
  C:FE32H         LINE#         226
  C:FE32H         LINE#         227
  C:FE32H         LINE#         228
  C:FE35H         LINE#         229
  C:FE38H         LINE#         230
  C:FE3BH         LINE#         231
  -------         ENDPROC       PORT_INIT
  -------         PROC          _FLASHCHECKSUMCALCULATE
  X:8A9BH         SYMBOL        StartAddr
  X:8A9DH         SYMBOL        Length
  -------         DO            
  X:8A9FH         SYMBOL        i
  X:8AA0H         SYMBOL        j
  X:8AA1H         SYMBOL        Page
  X:8AA2H         SYMBOL        Num
  X:8AA3H         SYMBOL        FlashCheckSum_Add
  X:8AA5H         SYMBOL        FlashCheckSum_Buff
  -------         ENDDO         
  C:A16DH         LINE#         234
  C:A17BH         LINE#         235
  C:A17BH         LINE#         237
  C:A182H         LINE#         238
  C:A194H         LINE#         240
  C:A1A7H         LINE#         241
  C:A1BAH         LINE#         242
  C:A1BAH         LINE#         243
  C:A1E1H         LINE#         244
  C:A1F4H         LINE#         245
  C:A1F4H         LINE#         246
  C:A211H         LINE#         247
  C:A219H         LINE#         248
  C:A221H         LINE#         249
  C:A22BH         LINE#         250
  C:A25EH         LINE#         251
  C:A271H         LINE#         252
  C:A271H         LINE#         253
  C:A28EH         LINE#         254
  C:A296H         LINE#         255
  C:A2A4H         LINE#         256
  C:A2ACH         LINE#         257
  -------         ENDPROC       _FLASHCHECKSUMCALCULATE
  -------         PROC          SYSTEM_PARM_INIT
  -------         DO            
  X:8A99H         SYMBOL        FlashCheckSum
  -------         ENDDO         
  C:EDE6H         LINE#         269
  C:EDE6H         LINE#         270
  C:EDE6H         LINE#         271
  C:EDEDH         LINE#         273
  C:EDF0H         LINE#         274
  C:EDF7H         LINE#         275
  C:EE0CH         LINE#         276
  C:EE23H         LINE#         277
  C:EE23H         LINE#         278
BL51 BANKED LINKER/LOCATER V6.22.2.0                                                  06/30/2026  14:47:53  PAGE 37


  C:EE26H         LINE#         279
  C:EE26H         LINE#         281
  C:EE26H         LINE#         282
  C:EE29H         LINE#         283
  C:EE29H         LINE#         284
  -------         ENDPROC       SYSTEM_PARM_INIT
  -------         PROC          READ_NOR_FLASH
  C:FC67H         LINE#         297
  C:FC67H         LINE#         298
  C:FC67H         LINE#         299
  C:FC6EH         LINE#         301
  C:FC6EH         LINE#         302
  C:FC71H         LINE#         303
  C:FC74H         LINE#         305
  C:FC7AH         LINE#         306
  -------         ENDPROC       READ_NOR_FLASH
  -------         PROC          WRITE_NOR_FLASH
  C:FC7BH         LINE#         319
  C:FC7BH         LINE#         320
  C:FC7BH         LINE#         321
  C:FC82H         LINE#         323
  C:FC82H         LINE#         324
  C:FC85H         LINE#         325
  C:FC88H         LINE#         326
  C:FC8EH         LINE#         327
  -------         ENDPROC       WRITE_NOR_FLASH
  -------         PROC          SAVE_DATA_HANDLER
  -------         DO            
  X:8A99H         SYMBOL        temp
  -------         ENDDO         
  C:E996H         LINE#         339
  C:E996H         LINE#         340
  C:E996H         LINE#         341
  C:E99DH         LINE#         343
  C:E9A5H         LINE#         344
  C:E9A5H         LINE#         345
  C:E9B4H         LINE#         346
  C:E9B4H         LINE#         347
  C:E9B7H         LINE#         348
  C:E9BAH         LINE#         349
  C:E9BFH         LINE#         350
  C:E9C5H         LINE#         351
  C:E9C5H         LINE#         352
  C:E9C5H         LINE#         354
  C:E9DCH         LINE#         355
  C:E9DCH         LINE#         356
  C:E9E3H         LINE#         357
  C:E9E3H         LINE#         358
  -------         ENDPROC       SAVE_DATA_HANDLER
  -------         PROC          READY_TO_SAVE
  -------         DO            
  X:8B34H         SYMBOL        Enable_Memory
  -------         ENDDO         
  C:F194H         LINE#         371
  C:F194H         LINE#         372
  C:F194H         LINE#         373
  C:F19BH         LINE#         374
BL51 BANKED LINKER/LOCATER V6.22.2.0                                                  06/30/2026  14:47:53  PAGE 38


  C:F1ADH         LINE#         375
  C:F1B9H         LINE#         376
  C:F1B9H         LINE#         377
  C:F1BEH         LINE#         378
  C:F1BFH         LINE#         379
  C:F1C1H         LINE#         381
  C:F1C1H         LINE#         382
  C:F1C6H         LINE#         383
  C:F1CCH         LINE#         384
  C:F1CCH         LINE#         385
  -------         ENDPROC       READY_TO_SAVE
  -------         PROC          READY_TO_SAVE_REPORT
  C:FEA7H         LINE#         387
  C:FEA7H         LINE#         388
  C:FEA7H         LINE#         389
  -------         ENDPROC       READY_TO_SAVE_REPORT
  -------         PROC          _BRIGHTNESS_HANDLER
  D:0007H         SYMBOL        LEDBrightness
  -------         DO            
  X:8AAAH         SYMBOL        Brightness_Handler_u8temp
  -------         ENDDO         
  C:F945H         LINE#         392
  C:F945H         LINE#         393
  C:F945H         LINE#         396
  C:F94AH         LINE#         397
  C:F94DH         LINE#         398
  -------         ENDPROC       _BRIGHTNESS_HANDLER
  -------         PROC          WRITE_MEMORY
  C:FEB6H         LINE#         413
  C:FEB6H         LINE#         414
  C:FEB6H         LINE#         458
  -------         ENDPROC       WRITE_MEMORY
  -------         PROC          READ_MEMORY
  C:FEB7H         LINE#         469
  C:FEB7H         LINE#         470
  C:FEB7H         LINE#         540
  -------         ENDPROC       READ_MEMORY
  -------         PROC          READ_MEMORY_ERROR
  C:FEB8H         LINE#         541
  C:FEB8H         LINE#         542
  C:FEB8H         LINE#         582
  -------         ENDPROC       READ_MEMORY_ERROR
  -------         PROC          T0_INIT
  C:FD24H         LINE#         593
  C:FD24H         LINE#         594
  C:FD24H         LINE#         595
  C:FD27H         LINE#         596
  C:FD2AH         LINE#         597
  C:FD2DH         LINE#         598
  C:FD2FH         LINE#         599
  C:FD31H         LINE#         600
  C:FD33H         LINE#         601
  -------         ENDPROC       T0_INIT
  -------         PROC          T1_INIT
  C:FD34H         LINE#         614
  C:FD34H         LINE#         615
  C:FD34H         LINE#         616
BL51 BANKED LINKER/LOCATER V6.22.2.0                                                  06/30/2026  14:47:53  PAGE 39


  C:FD37H         LINE#         617
  C:FD3AH         LINE#         618
  C:FD3DH         LINE#         619
  C:FD3FH         LINE#         620
  C:FD41H         LINE#         621
  C:FD43H         LINE#         622
  -------         ENDPROC       T1_INIT
  -------         PROC          T2_INIT
  C:FBE5H         LINE#         636
  C:FBE5H         LINE#         637
  C:FBE5H         LINE#         638
  C:FBE8H         LINE#         639
  C:FBEBH         LINE#         640
  C:FBEDH         LINE#         641
  C:FBF0H         LINE#         642
  C:FBF3H         LINE#         643
  C:FBF6H         LINE#         644
  C:FBF8H         LINE#         645
  C:FBFAH         LINE#         646
  -------         ENDPROC       T2_INIT
  C:814DH         SYMBOL        L?0150
  C:814FH         SYMBOL        L?0151
  -------         PROC          L?0149
  -------         ENDPROC       L?0149
  C:814DH         SYMBOL        L?0150
  C:814FH         SYMBOL        L?0151
  -------         PROC          _READ_DGUS_VP
  X:8B5EH         SYMBOL        addr
  X:8B62H         SYMBOL        buf
  X:8B65H         SYMBOL        len
  -------         DO            
  X:8B67H         SYMBOL        OS_addr
  X:8B69H         SYMBOL        OS_addr_offset
  X:8B6BH         SYMBOL        OS_len
  X:8B6DH         SYMBOL        OS_len_offset
  X:8B6FH         SYMBOL        LenLimit
  -------         ENDDO         
  C:8153H         LINE#         663
  C:8164H         LINE#         664
  C:8164H         LINE#         665
  C:816BH         LINE#         666
  C:816FH         LINE#         667
  C:8177H         LINE#         669
  C:8184H         LINE#         671
  C:81A6H         LINE#         672
  C:81C5H         LINE#         673
  C:81C5H         LINE#         674
  C:81D6H         LINE#         675
  C:81D6H         LINE#         676
  C:81F1H         LINE#         677
  C:8203H         LINE#         681
  C:8206H         LINE#         682
  C:8211H         LINE#         683
  C:8213H         LINE#         685
  C:8216H         LINE#         686
  C:8219H         LINE#         688
  C:821CH         LINE#         689
BL51 BANKED LINKER/LOCATER V6.22.2.0                                                  06/30/2026  14:47:53  PAGE 40


  C:8226H         LINE#         690
  C:8226H         LINE#         691
  C:8228H         LINE#         692
  C:822BH         LINE#         693
  C:8240H         LINE#         694
  C:8255H         LINE#         695
  C:8263H         LINE#         696
  C:8263H         LINE#         697
  C:8279H         LINE#         698
  C:8283H         LINE#         699
  C:8291H         LINE#         700
  C:8291H         LINE#         701
  C:8293H         LINE#         702
  C:8296H         LINE#         703
  C:82ABH         LINE#         704
  C:82C0H         LINE#         705
  C:82D5H         LINE#         706
  C:82EAH         LINE#         707
  C:82ECH         LINE#         708
  C:82F6H         LINE#         709
  C:82F6H         LINE#         710
  C:82F8H         LINE#         711
  C:82FBH         LINE#         712
  C:8310H         LINE#         713
  C:8325H         LINE#         714
  C:8325H         LINE#         715
  C:8328H         LINE#         765
  -------         ENDPROC       _READ_DGUS_VP
  C:8E11H         SYMBOL        L?0153
  -------         PROC          L?0152
  -------         ENDPROC       L?0152
  C:8E11H         SYMBOL        L?0153
  -------         PROC          _WRITE_DGUS_VP
  X:8CAEH         SYMBOL        addr
  X:8CB2H         SYMBOL        buf
  X:8CB5H         SYMBOL        len
  -------         DO            
  D:0002H         SYMBOL        OS_addr
  X:8CB7H         SYMBOL        OS_addr_offset
  X:8CB9H         SYMBOL        OS_len
  X:8CBBH         SYMBOL        OS_len_offset
  D:0006H         SYMBOL        LenLimit
  -------         ENDDO         
  C:8E17H         LINE#         779
  C:8E28H         LINE#         780
  C:8E28H         LINE#         781
  C:8E2BH         LINE#         782
  C:8E31H         LINE#         783
  C:8E39H         LINE#         785
  C:8E46H         LINE#         787
  C:8E57H         LINE#         788
  C:8E64H         LINE#         789
  C:8E64H         LINE#         790
  C:8E69H         LINE#         791
  C:8E69H         LINE#         792
  C:8E80H         LINE#         793
  C:8E92H         LINE#         798
BL51 BANKED LINKER/LOCATER V6.22.2.0                                                  06/30/2026  14:47:53  PAGE 41


  C:8E95H         LINE#         799
  C:8E98H         LINE#         800
  C:8E9CH         LINE#         802
  C:8E9FH         LINE#         803
  C:8EA2H         LINE#         853
  C:8EA5H         LINE#         854
  C:8EAFH         LINE#         855
  C:8EAFH         LINE#         856
  C:8EC4H         LINE#         857
  C:8ED9H         LINE#         858
  C:8EDBH         LINE#         859
  C:8EDEH         LINE#         860
  C:8EECH         LINE#         861
  C:8EECH         LINE#         862
  C:8F02H         LINE#         863
  C:8F0CH         LINE#         864
  C:8F0FH         LINE#         865
  C:8F1DH         LINE#         866
  C:8F1DH         LINE#         867
  C:8F32H         LINE#         868
  C:8F47H         LINE#         869
  C:8F5CH         LINE#         870
  C:8F71H         LINE#         871
  C:8F73H         LINE#         872
  C:8F78H         LINE#         873
  C:8F78H         LINE#         874
  C:8F82H         LINE#         875
  C:8F82H         LINE#         876
  C:8F85H         LINE#         877
  C:8F9AH         LINE#         878
  C:8FAFH         LINE#         879
  C:8FB1H         LINE#         880
  C:8FB4H         LINE#         881
  C:8FB4H         LINE#         882
  C:8FB7H         LINE#         887
  -------         ENDPROC       _WRITE_DGUS_VP
  -------         PROC          T0_ISR_PC
  C:A9BCH         LINE#         902
  C:A9D9H         LINE#         904
  C:A9DBH         LINE#         905
  C:A9DEH         LINE#         906
  C:A9E1H         LINE#         908
  C:A9EFH         LINE#         909
  C:A9FDH         LINE#         910
  C:AA0BH         LINE#         911
  C:AA19H         LINE#         912
  C:AA27H         LINE#         914
  C:AA35H         LINE#         915
  C:AA43H         LINE#         916
  C:AA46H         LINE#         917
  C:AA46H         LINE#         918
  C:AA5DH         LINE#         919
  C:AA6BH         LINE#         920
  C:AA6BH         LINE#         921
  C:AA75H         LINE#         922
  C:AA75H         LINE#         923
  C:AA8CH         LINE#         924
BL51 BANKED LINKER/LOCATER V6.22.2.0                                                  06/30/2026  14:47:53  PAGE 42


  C:AA9AH         LINE#         925
  C:AA9AH         LINE#         926
  C:AAA9H         LINE#         927
  C:AAB5H         LINE#         929
  C:AAB7H         LINE#         930
  -------         ENDPROC       T0_ISR_PC
  -------         PROC          T1_ISR_PC
  C:E660H         LINE#         943
  C:E677H         LINE#         945
  C:E679H         LINE#         946
  C:E67CH         LINE#         947
  C:E67FH         LINE#         949
  C:E69EH         LINE#         950
  C:E6A0H         LINE#         951
  -------         ENDPROC       T1_ISR_PC
  C:FD84H         SYMBOL        L?0155
  -------         PROC          L?0154
  -------         ENDPROC       L?0154
  C:FD84H         SYMBOL        L?0155
  -------         PROC          _DELAY_MS
  D:0006H         SYMBOL        n
  C:FD88H         LINE#         965
  C:FD88H         LINE#         966
  C:FD88H         LINE#         967
  C:FD8CH         LINE#         968
  C:FD92H         LINE#         969
  -------         ENDPROC       _DELAY_MS
  -------         PROC          T2_ISR_PC
  C:FC8FH         LINE#         981
  C:FC91H         LINE#         983
  C:FC93H         LINE#         984
  C:FC95H         LINE#         985
  C:FC9DH         LINE#         986
  C:FC9FH         LINE#         987
  -------         ENDPROC       T2_ISR_PC
  -------         PROC          _DELAYUS
  D:0006H         SYMBOL        n
  -------         DO            
  D:0004H         SYMBOL        i
  D:0002H         SYMBOL        j
  -------         ENDDO         
  C:F965H         LINE#         991
  C:F965H         LINE#         992
  C:F965H         LINE#         994
  C:F96FH         LINE#         995
  C:F984H         LINE#         996
  -------         ENDPROC       _DELAYUS
  -------         PROC          _DELAYMS
  D:0006H         SYMBOL        n
  -------         DO            
  D:0004H         SYMBOL        i
  D:0002H         SYMBOL        j
  -------         ENDDO         
  C:F985H         LINE#         999
  C:F985H         LINE#         1000
  C:F985H         LINE#         1002
  C:F98FH         LINE#         1003
BL51 BANKED LINKER/LOCATER V6.22.2.0                                                  06/30/2026  14:47:53  PAGE 43


  C:F9A4H         LINE#         1004
  -------         ENDPROC       _DELAYMS
  -------         PROC          _PAGE_CHANGE_HANDLER
  D:0007H         SYMBOL        n
  C:EEF6H         LINE#         1016
  C:EEF6H         LINE#         1017
  C:EEF6H         LINE#         1035
  C:EEFCH         LINE#         1036
  C:EF00H         LINE#         1037
  C:EF03H         LINE#         1038
  C:EF06H         LINE#         1039
  C:EF1AH         LINE#         1041
  C:EF1AH         LINE#         1042
  C:EF1DH         LINE#         1043
  C:EF30H         LINE#         1044
  C:EF36H         LINE#         1045
  -------         ENDPROC       _PAGE_CHANGE_HANDLER
  -------         PROC          _LANGUAGE_CHANGE
  D:0007H         SYMBOL        num
  -------         DO            
  X:8AAAH         SYMBOL        Language_Change_Buffer
  -------         ENDDO         
  C:F683H         LINE#         1047
  C:F683H         LINE#         1048
  C:F683H         LINE#         1051
  C:F689H         LINE#         1052
  C:F68CH         LINE#         1053
  C:F68EH         LINE#         1054
  C:F691H         LINE#         1055
  -------         ENDPROC       _LANGUAGE_CHANGE
  -------         PROC          SCREENTIMEOUT_SET
  B:0023H.1       SYMBOL        enable
  -------         DO            
  X:8AAAH         SYMBOL        ScreenTimeOut_Set_Temp
  -------         ENDDO         
  C:ED5CH         LINE#         1057
  C:ED5CH         LINE#         1058
  C:ED5CH         LINE#         1061
  C:ED72H         LINE#         1062
  C:ED79H         LINE#         1063
  C:ED7EH         LINE#         1065
  C:ED81H         LINE#         1066
  C:ED87H         LINE#         1067
  -------         ENDPROC       SCREENTIMEOUT_SET
  -------         ENDMOD        SYS

  -------         MODULE        CONTROL
  C:0000H         SYMBOL        _ICE_DUMMY_
  X:93F5H         PUBLIC        ExternTimer
  X:93FEH         SYMBOL        s_defrost_start_sec
  C:E318H         PUBLIC        _SetTempIntVpByMode
  X:9402H         PUBLIC        set_send_type
  D:0080H         PUBLIC        P0
  C:B433H         PUBLIC        _HomePage_UpdateModeAnimation
  C:78E1H         SYMBOL        SyncTimerFromVp
  C:F3A6H         PUBLIC        _SetTempIntWrite
  D:00B0H         PUBLIC        P3
BL51 BANKED LINKER/LOCATER V6.22.2.0                                                  06/30/2026  14:47:53  PAGE 44


  C:AAD2H         PUBLIC        RTCdisplay4change
  C:F7C0H         PUBLIC        _IsItHomePage
  D:00F8H         PUBLIC        RAMMODE
  C:61BAH         PUBLIC        TempUnit_RefreshAll
  C:EE2AH         PUBLIC        HomePage
  X:9403H         PUBLIC        getDar1
  C:CD1DH         PUBLIC        _SyncSetTempCachesFromC
  D:00A8H         PUBLIC        IEN0
  D:00B8H         PUBLIC        IEN1
  B:0025H.1       PUBLIC        LockKeyCountEnalbe
  X:9405H         PUBLIC        SetTempOld_HeatC
  C:B52EH         SYMBOL        _KeyAdjustSetTempForMode
  C:EDA1H         PUBLIC        _SetTempFloatWriteC
  C:F6ABH         PUBLIC        OTAReload_DelayPage
  B:0025H.2       PUBLIC        OTAReload_Delay
  X:9406H         PUBLIC        SetTempOld_HeatF
  C:E445H         SYMBOL        _SyncTimerTempVpPair
  X:9407H         PUBLIC        HomePageID
  C:F9A5H         PUBLIC        _SetModeProcess
  X:940FH         PUBLIC        SetTempOld_CoolC
  C:A65AH         SYMBOL        Timer_ApplyIndoorOn
  X:9410H         PUBLIC        Defrosting
  C:DE34H         SYMBOL        TempUnit_RefreshActiveSetFromMode
  B:0025H.3       PUBLIC        WiFi_Tuya_Reseting
  X:9412H         PUBLIC        SetTempOld_CoolF
  C:F89DH         PUBLIC        UnitChangePro
  C:AE04H         SYMBOL        PrefillSetTempEditPage
  C:B624H         PUBLIC        Ready4WriteRTC
  X:9413H         PUBLIC        SetTempOld_AutoC
  X:9414H         PUBLIC        SetTempOld_AutoF
  C:C94DH         SYMBOL        _Timer_IsExternalWeekdayMatch
  C:E11CH         SYMBOL        _SyncIndoorSetTempVpPair
  C:F87BH         PUBLIC        GetPageID
  X:9415H         PUBLIC        ExternTimer1
  B:0025H.4       PUBLIC        Screensaver_Enable
  D:0088H         PUBLIC        TCON
  C:8A90H         SYMBOL        Defrost_CheckExit
  X:941FH         PUBLIC        Language_Num
  X:9421H         PUBLIC        Return_key_Set
  D:00C9H         PUBLIC        MUX_SEL
  C:FE7DH         SYMBOL        _?ix1000
  C:0100H         PUBLIC        Control_Function1
  X:9423H         PUBLIC        LockKeyCount
  C:FE81H         SYMBOL        _?ix1001
  C:C169H         PUBLIC        _TempUnitTrans
  X:9425H         PUBLIC        BeforeScreenSavePage
  B:0025H.5       PUBLIC        TimerEnable
  C:C8A6H         SYMBOL        _Timer_IsIndoorWeekdayMatch
  X:9426H         PUBLIC        Electric_Heating
  C:B127H         PUBLIC        HomePage_SyncIndoorDisplay
  X:9428H         PUBLIC        key_down_delay
  X:942AH         PUBLIC        SetTemp_HeatLower_C
  X:942BH         PUBLIC        SetTemp_HeatLower_F
  X:942CH         PUBLIC        SetTemp_HeatUpper_C
  C:D3E2H         SYMBOL        _ReadTimerTempC
  X:942DH         PUBLIC        SetTemp_HeatUpper_F
  X:942EH         PUBLIC        key_dowm
BL51 BANKED LINKER/LOCATER V6.22.2.0                                                  06/30/2026  14:47:53  PAGE 45


  D:0098H         PUBLIC        SCON0
  C:F338H         PUBLIC        Wifi_Resting_Pro
  X:9430H         PUBLIC        SetTemp_CoolLower_C
  D:00C8H         PUBLIC        T2CON
  X:9431H         PUBLIC        SetTemp_CoolLower_F
  X:9432H         PUBLIC        SetTemp_CoolUpper_C
  C:B22DH         SYMBOL        _SyncHomeDisplayIfFirstIndoorModeChanged
  C:6794H         PUBLIC        TimerRunning
  X:9433H         PUBLIC        SetTemp_CoolUpper_F
  X:9434H         PUBLIC        APP_down_delay
  C:F36FH         PUBLIC        _SetTempIntRead
  X:9436H         PUBLIC        Screensaver_Count
  C:A2ADH         PUBLIC        HomePage_Icon
  X:9438H         PUBLIC        value0F00
  C:E503H         SYMBOL        _TempUnit_RefreshFloatPair
  C:E24EH         PUBLIC        GetValue0F00
  C:D856H         SYMBOL        Timer_ApplyIndoorOff
  C:6A58H         PUBLIC        _Temp_Limit
  D:00D0H         PUBLIC        PSW
  C:A01AH         PUBLIC        ScreenSaver_Pro
  D:00C0H         PUBLIC        IRCON
  -------         PROC          _SETTEMPINTVPBYMODE
  X:8B2FH         SYMBOL        mode
  D:0005H         SYMBOL        unit_f
  C:E318H         LINE#         51
  C:E31DH         LINE#         52
  C:E31DH         LINE#         53
  C:E330H         LINE#         54
  C:E336H         LINE#         55
  C:E33CH         LINE#         56
  C:E357H         LINE#         57
  C:E37BH         LINE#         58
  -------         ENDPROC       _SETTEMPINTVPBYMODE
  -------         PROC          PREFILLSETTEMPEDITPAGE
  -------         DO            
  X:8AAAH         SYMBOL        mode
  X:8AACH         SYMBOL        unit
  X:8AAEH         SYMBOL        temp_c
  X:8AB0H         SYMBOL        temp_f
  -------         ENDDO         
  C:AE04H         LINE#         63
  C:AE04H         LINE#         64
  C:AE04H         LINE#         70
  C:AE1DH         LINE#         71
  C:AE30H         LINE#         72
  C:AE43H         LINE#         73
  C:AE58H         LINE#         74
  C:AE65H         LINE#         75
  C:AE7AH         LINE#         76
  C:AE87H         LINE#         77
  C:AEA0H         LINE#         78
  C:AEB9H         LINE#         79
  C:AED2H         LINE#         80
  C:AEDCH         LINE#         81
  C:AEDCH         LINE#         82
  C:AEE1H         LINE#         83
  C:AEF1H         LINE#         84
BL51 BANKED LINKER/LOCATER V6.22.2.0                                                  06/30/2026  14:47:53  PAGE 46


  C:AEF3H         LINE#         86
  C:AEF3H         LINE#         87
  C:AEF8H         LINE#         88
  C:AF11H         LINE#         89
  C:AF11H         LINE#         90
  -------         ENDPROC       PREFILLSETTEMPEDITPAGE
  -------         PROC          DEFROST_CHECKEXIT
  -------         DO            
  X:8AA0H         SYMBOL        defrost_en
  X:8AA2H         SYMBOL        duration_min
  X:8AA4H         SYMBOL        evap_c
  X:8AA8H         SYMBOL        t3_c
  C:8C12H         SYMBOL        defrost_exit
  -------         DO            
  X:8AACH         SYMBOL        zero
  -------         ENDDO         
  -------         ENDDO         
  C:8A90H         LINE#         92
  C:8A90H         LINE#         93
  C:8A90H         LINE#         99
  C:8A9DH         LINE#         102
  C:8AB6H         LINE#         103
  C:8AC0H         LINE#         104
  C:8AC0H         LINE#         105
  C:8AC7H         LINE#         107
  C:8AC7H         LINE#         109
  C:8AE0H         LINE#         110
  C:8AEAH         LINE#         111
  C:8B02H         LINE#         112
  C:8B2AH         LINE#         113
  C:8B2AH         LINE#         114
  C:8B78H         LINE#         115
  C:8B78H         LINE#         116
  C:8B78H         LINE#         118
  C:8B92H         LINE#         119
  C:8BACH         LINE#         120
  C:8BEFH         LINE#         122
  C:8C12H         LINE#         123
  C:8C12H         LINE#         126
  C:8C12H         LINE#         127
  C:8C12H         LINE#         128
  C:8C19H         LINE#         130
  C:8C1FH         LINE#         131
  C:8C29H         LINE#         132
  C:8C2CH         LINE#         133
  C:8C45H         LINE#         134
  C:8C47H         LINE#         135
  C:8C4AH         LINE#         136
  C:8C4AH         LINE#         137
  -------         ENDPROC       DEFROST_CHECKEXIT
  -------         PROC          L?0720
  -------         ENDPROC       L?0720
  -------         PROC          _SETTEMPINTREAD
  D:0007H         SYMBOL        mode
  D:0005H         SYMBOL        unit_f
  -------         DO            
  X:8B27H         SYMBOL        temp
BL51 BANKED LINKER/LOCATER V6.22.2.0                                                  06/30/2026  14:47:53  PAGE 47


  D:0004H         SYMBOL        vp
  -------         ENDDO         
  C:F36FH         LINE#         139
  C:F36FH         LINE#         140
  C:F36FH         LINE#         141
  C:F376H         LINE#         142
  C:F379H         LINE#         144
  C:F37FH         LINE#         145
  C:F390H         LINE#         146
  C:F398H         LINE#         147
  -------         ENDPROC       _SETTEMPINTREAD
  C:F39EH         SYMBOL        L?0714
  C:F39FH         SYMBOL        L?0715
  -------         PROC          L?0713
  -------         ENDPROC       L?0713
  C:F39EH         SYMBOL        L?0714
  C:F39FH         SYMBOL        L?0715
  -------         PROC          _SETTEMPINTWRITE
  D:0007H         SYMBOL        mode
  D:0005H         SYMBOL        unit_f
  X:8B2DH         SYMBOL        temp
  -------         DO            
  D:0004H         SYMBOL        vp
  -------         ENDDO         
  C:F3A6H         LINE#         149
  C:F3AEH         LINE#         150
  C:F3AEH         LINE#         151
  C:F3B1H         LINE#         153
  C:F3B7H         LINE#         154
  C:F3C8H         LINE#         155
  -------         ENDPROC       _SETTEMPINTWRITE
  -------         PROC          _SETTEMPFLOATWRITEC
  X:8AAAH         SYMBOL        mode
  X:8AABH         SYMBOL        temp_c
  -------         DO            
  X:8AAFH         SYMBOL        temp_f
  X:8AB1H         SYMBOL        ic
  -------         ENDDO         
  C:EDA1H         LINE#         157
  C:EDA6H         LINE#         158
  C:EDA6H         LINE#         162
  C:EDBDH         LINE#         163
  C:EDCAH         LINE#         164
  C:EDD4H         LINE#         165
  -------         ENDPROC       _SETTEMPFLOATWRITEC
  C:E4FDH         SYMBOL        L?0717
  C:E4FFH         SYMBOL        L?0718
  -------         PROC          L?0716
  -------         ENDPROC       L?0716
  C:E4FDH         SYMBOL        L?0717
  C:E4FFH         SYMBOL        L?0718
  -------         PROC          _TEMPUNIT_REFRESHFLOATPAIR
  D:0004H         SYMBOL        vp_c
  X:8B27H         SYMBOL        vp_f
  -------         DO            
  X:8B2BH         SYMBOL        fc
  X:8B2FH         SYMBOL        ff
BL51 BANKED LINKER/LOCATER V6.22.2.0                                                  06/30/2026  14:47:53  PAGE 48


  -------         ENDDO         
  C:E503H         LINE#         168
  C:E503H         LINE#         169
  C:E503H         LINE#         173
  C:E515H         LINE#         174
  C:E539H         LINE#         175
  -------         ENDPROC       _TEMPUNIT_REFRESHFLOATPAIR
  -------         PROC          _SYNCINDOORSETTEMPVPPAIR
  X:8B23H         SYMBOL        index
  X:8B24H         SYMBOL        temp_c
  -------         DO            
  X:8B26H         SYMBOL        temp_f
  -------         ENDDO         
  C:E11CH         LINE#         178
  C:E129H         LINE#         179
  C:E129H         LINE#         182
  C:E132H         LINE#         184
  C:E145H         LINE#         185
  C:E163H         LINE#         186
  C:E181H         LINE#         187
  -------         ENDPROC       _SYNCINDOORSETTEMPVPPAIR
  -------         PROC          L?0721
  -------         ENDPROC       L?0721
  -------         PROC          _SYNCTIMERTEMPVPPAIR
  X:8B23H         SYMBOL        vp_c
  X:8B27H         SYMBOL        vp_f
  X:8B2BH         SYMBOL        temp_c
  -------         DO            
  X:8B2DH         SYMBOL        temp_f
  -------         ENDDO         
  C:E445H         LINE#         189
  C:E44BH         LINE#         190
  C:E44BH         LINE#         193
  C:E460H         LINE#         194
  C:E47FH         LINE#         195
  -------         ENDPROC       _SYNCTIMERTEMPVPPAIR
  -------         PROC          L?0722
  -------         ENDPROC       L?0722
  -------         PROC          _READTIMERTEMPC
  X:8AA2H         SYMBOL        vp_c
  X:8AA6H         SYMBOL        vp_f
  -------         DO            
  X:8AAAH         SYMBOL        unit
  X:8AACH         SYMBOL        temp_c
  X:8AAEH         SYMBOL        temp_f
  -------         ENDDO         
  C:D3E2H         LINE#         198
  C:D3E8H         LINE#         199
  C:D3E8H         LINE#         204
  C:D401H         LINE#         205
  C:D40BH         LINE#         206
  C:D40BH         LINE#         207
  C:D42AH         LINE#         208
  C:D437H         LINE#         209
  C:D437H         LINE#         210
  C:D456H         LINE#         211
  C:D45EH         LINE#         212
BL51 BANKED LINKER/LOCATER V6.22.2.0                                                  06/30/2026  14:47:53  PAGE 49


  -------         ENDPROC       _READTIMERTEMPC
  -------         PROC          _KEYADJUSTSETTEMPFORMODE
  X:8AAAH         SYMBOL        mode
  X:8AABH         SYMBOL        delta
  -------         DO            
  X:8AADH         SYMBOL        unit
  X:8AAFH         SYMBOL        temp
  X:8AB1H         SYMBOL        vp
  -------         ENDDO         
  C:B52EH         LINE#         214
  C:B539H         LINE#         215
  C:B539H         LINE#         220
  C:B552H         LINE#         221
  C:B566H         LINE#         222
  C:B57DH         LINE#         224
  C:B58EH         LINE#         225
  C:B5A8H         LINE#         226
  C:B5C5H         LINE#         227
  C:B5E2H         LINE#         228
  C:B601H         LINE#         229
  C:B60EH         LINE#         230
  C:B613H         LINE#         232
  C:B61BH         LINE#         233
  C:B61DH         LINE#         234
  C:B620H         LINE#         235
  C:B623H         LINE#         236
  -------         ENDPROC       _KEYADJUSTSETTEMPFORMODE
  -------         PROC          _HOMEPAGE_UPDATEMODEANIMATION
  D:0007H         SYMBOL        mode
  -------         DO            
  X:8B37H         SYMBOL        icon_start
  X:8B39H         SYMBOL        icon_end
  X:8B3BH         SYMBOL        anim_val
  -------         ENDDO         
  C:B433H         LINE#         238
  C:B433H         LINE#         239
  C:B433H         LINE#         244
  C:B43DH         LINE#         245
  C:B43FH         LINE#         246
  C:B44DH         LINE#         247
  C:B44DH         LINE#         248
  C:B44DH         LINE#         249
  C:B456H         LINE#         250
  C:B45DH         LINE#         251
  C:B45FH         LINE#         252
  C:B45FH         LINE#         253
  C:B468H         LINE#         254
  C:B46FH         LINE#         255
  C:B471H         LINE#         256
  C:B471H         LINE#         257
  C:B47AH         LINE#         258
  C:B481H         LINE#         259
  C:B483H         LINE#         260
  C:B483H         LINE#         261
  C:B48BH         LINE#         262
  C:B492H         LINE#         263
  C:B494H         LINE#         264
BL51 BANKED LINKER/LOCATER V6.22.2.0                                                  06/30/2026  14:47:53  PAGE 50


  C:B494H         LINE#         265
  C:B49DH         LINE#         266
  C:B4A4H         LINE#         267
  C:B4A4H         LINE#         268
  C:B4A4H         LINE#         270
  C:B4BDH         LINE#         271
  C:B4D6H         LINE#         272
  C:B4EFH         LINE#         274
  C:B4F7H         LINE#         275
  C:B50FH         LINE#         276
  C:B516H         LINE#         277
  -------         ENDPROC       _HOMEPAGE_UPDATEMODEANIMATION
  -------         PROC          _SYNCHOMEDISPLAYIFFIRSTINDOORMODECHANGED
  X:8AAAH         SYMBOL        unit_idx
  -------         DO            
  X:8AABH         SYMBOL        i
  X:8AACH         SYMBOL        first_on
  X:8AADH         SYMBOL        power
  X:8AAFH         SYMBOL        mode
  -------         ENDDO         
  C:B22DH         LINE#         280
  C:B232H         LINE#         281
  C:B232H         LINE#         283
  C:B238H         LINE#         287
  C:B245H         LINE#         289
  C:B258H         LINE#         290
  C:B258H         LINE#         291
  C:B273H         LINE#         292
  C:B27FH         LINE#         293
  C:B27FH         LINE#         294
  C:B285H         LINE#         295
  C:B287H         LINE#         296
  C:B287H         LINE#         297
  C:B28FH         LINE#         298
  C:B2A5H         LINE#         301
  C:B2C0H         LINE#         302
  C:B2CFH         LINE#         303
  C:B2D3H         LINE#         304
  C:B2F6H         LINE#         305
  C:B30EH         LINE#         306
  C:B327H         LINE#         307
  C:B330H         LINE#         308
  -------         ENDPROC       _SYNCHOMEDISPLAYIFFIRSTINDOORMODECHANGED
  -------         PROC          GETVALUE0F00
  -------         DO            
  X:8AAAH         SYMBOL        cleanData
  -------         ENDDO         
  C:E24EH         LINE#         363
  C:E24EH         LINE#         364
  C:E24EH         LINE#         365
  C:E261H         LINE#         366
  C:E27BH         LINE#         367
  C:E283H         LINE#         368
  C:E283H         LINE#         369
  C:E293H         LINE#         370
  C:E2ADH         LINE#         371
  C:E2B0H         LINE#         372
BL51 BANKED LINKER/LOCATER V6.22.2.0                                                  06/30/2026  14:47:53  PAGE 51


  C:E2B0H         LINE#         373
  C:E2B2H         LINE#         374
  -------         ENDPROC       GETVALUE0F00
  -------         PROC          GETPAGEID
  -------         DO            
  X:8B18H         SYMBOL        usPID
  -------         ENDDO         
  C:F87BH         LINE#         375
  C:F87BH         LINE#         376
  C:F87BH         LINE#         378
  C:F894H         LINE#         379
  C:F89CH         LINE#         380
  -------         ENDPROC       GETPAGEID
  -------         PROC          CONTROL_FUNCTION1
  -------         DO            
  X:8A99H         SYMBOL        LockFlag
  X:8A9BH         SYMBOL        Control_u16temp
  X:8A9DH         SYMBOL        Control_s16temp
  X:8A9FH         SYMBOL        i
  -------         DO            
  X:8AA0H         SYMBOL        unit
  X:8AA2H         SYMBOL        temp_c
  X:8AA4H         SYMBOL        power_mode
  X:8AA0H         SYMBOL        mode
  X:93E5H         SYMBOL        s_4021_last_cmd
  X:8AA0H         SYMBOL        i
  X:8AA1H         SYMBOL        CF
  X:8AA0H         SYMBOL        unit_sel
  -------         ENDDO         
  -------         DO            
  X:8AA0H         SYMBOL        mode
  X:93E5H         SYMBOL        s_4021_last_cmd
  X:8AA0H         SYMBOL        i
  X:8AA1H         SYMBOL        CF
  X:8AA0H         SYMBOL        unit_sel
  -------         ENDDO         
  -------         DO            
  X:8AA0H         SYMBOL        i
  X:8AA1H         SYMBOL        CF
  X:8AA0H         SYMBOL        unit_sel
  -------         ENDDO         
  -------         DO            
  X:8AA0H         SYMBOL        unit_sel
  -------         ENDDO         
  -------         DO            
  X:8AA0H         SYMBOL        SaveSetTemp_u16tempC
  X:8AA2H         SYMBOL        SaveSetTemp_u16tempF
  X:8AA4H         SYMBOL        SaveSetTemp_u16temp
  X:8AA6H         SYMBOL        SaveSetTemp_u16mode
  X:8AA0H         SYMBOL        Enable_Memory
  X:8AA0H         SYMBOL        SaveSetTemp_u16mode
  X:8AA2H         SYMBOL        SaveSetTemp_u16mode1
  X:8AA0H         SYMBOL        idx
  X:8AA1H         SYMBOL        temp_f
  X:8AA3H         SYMBOL        temp_c
  X:8AA0H         SYMBOL        temp_f
  X:8AA2H         SYMBOL        temp_c
BL51 BANKED LINKER/LOCATER V6.22.2.0                                                  06/30/2026  14:47:53  PAGE 52


  X:8AA0H         SYMBOL        temp_f
  X:8AA2H         SYMBOL        temp_c
  -------         DO            
  X:8AA8H         SYMBOL        save_mode
  -------         ENDDO         
  -------         ENDDO         
  -------         DO            
  X:8AA0H         SYMBOL        Enable_Memory
  X:8AA0H         SYMBOL        SaveSetTemp_u16mode
  X:8AA2H         SYMBOL        SaveSetTemp_u16mode1
  X:8AA0H         SYMBOL        idx
  X:8AA1H         SYMBOL        temp_f
  X:8AA3H         SYMBOL        temp_c
  X:8AA0H         SYMBOL        temp_f
  X:8AA2H         SYMBOL        temp_c
  X:8AA0H         SYMBOL        temp_f
  X:8AA2H         SYMBOL        temp_c
  -------         ENDDO         
  -------         DO            
  X:8AA0H         SYMBOL        SaveSetTemp_u16mode
  X:8AA2H         SYMBOL        SaveSetTemp_u16mode1
  X:8AA0H         SYMBOL        idx
  X:8AA1H         SYMBOL        temp_f
  X:8AA3H         SYMBOL        temp_c
  X:8AA0H         SYMBOL        temp_f
  X:8AA2H         SYMBOL        temp_c
  X:8AA0H         SYMBOL        temp_f
  X:8AA2H         SYMBOL        temp_c
  -------         ENDDO         
  -------         DO            
  X:8AA0H         SYMBOL        idx
  X:8AA1H         SYMBOL        temp_f
  X:8AA3H         SYMBOL        temp_c
  X:8AA0H         SYMBOL        temp_f
  X:8AA2H         SYMBOL        temp_c
  X:8AA0H         SYMBOL        temp_f
  X:8AA2H         SYMBOL        temp_c
  -------         ENDDO         
  -------         DO            
  X:8AA0H         SYMBOL        temp_f
  X:8AA2H         SYMBOL        temp_c
  X:8AA0H         SYMBOL        temp_f
  X:8AA2H         SYMBOL        temp_c
  -------         ENDDO         
  -------         DO            
  X:8AA0H         SYMBOL        temp_f
  X:8AA2H         SYMBOL        temp_c
  -------         ENDDO         
  -------         DO            
  X:8AA0H         SYMBOL        para_idx
  -------         ENDDO         
  -------         ENDDO         
  C:0100H         LINE#         382
  C:0100H         LINE#         383
  C:0100H         LINE#         388
  C:0119H         LINE#         389
  C:0128H         LINE#         390
BL51 BANKED LINKER/LOCATER V6.22.2.0                                                  06/30/2026  14:47:53  PAGE 53


  C:012EH         LINE#         391
  C:012EH         LINE#         392
  C:0135H         LINE#         393
  C:02F9H         LINE#         394
  C:02F9H         LINE#         395
  C:02F9H         LINE#         396
  C:02F9H         LINE#         397
  C:02FCH         LINE#         398
  C:02FCH         LINE#         399
  C:0309H         LINE#         400
  C:0309H         LINE#         401
  C:0321H         LINE#         402
  C:032BH         LINE#         403
  C:032EH         LINE#         405
  C:0330H         LINE#         406
  C:0330H         LINE#         407
  C:0333H         LINE#         408
  C:0333H         LINE#         409
  C:0340H         LINE#         410
  C:0358H         LINE#         411
  C:0362H         LINE#         412
  C:0367H         LINE#         414
  C:0369H         LINE#         415
  C:0369H         LINE#         416
  C:036CH         LINE#         417
  C:036CH         LINE#         418
  C:0379H         LINE#         419
  C:037BH         LINE#         420
  C:037EH         LINE#         421
  C:037EH         LINE#         422
  C:0388H         LINE#         423
  C:0390H         LINE#         425
  C:0395H         LINE#         426
  C:0398H         LINE#         427
  C:0398H         LINE#         428
  C:03B1H         LINE#         429
  C:03C7H         LINE#         430
  C:03C7H         LINE#         431
  C:03CAH         LINE#         432
  C:03D1H         LINE#         433
  C:03E2H         LINE#         434
  C:03E2H         LINE#         435
  C:03E5H         LINE#         436
  C:03E5H         LINE#         437
  C:03E5H         LINE#         438
  C:03E5H         LINE#         439
  C:03E5H         LINE#         440
  C:03E8H         LINE#         441
  C:03E8H         LINE#         445
  C:03EAH         LINE#         446
  C:0403H         LINE#         447
  C:0416H         LINE#         448
  C:0416H         LINE#         449
  C:0416H         LINE#         450
  C:0416H         LINE#         451
  C:041DH         LINE#         452
  C:041DH         LINE#         453
BL51 BANKED LINKER/LOCATER V6.22.2.0                                                  06/30/2026  14:47:53  PAGE 54


  C:0420H         LINE#         454
  C:0429H         LINE#         455
  C:042BH         LINE#         457
  C:042BH         LINE#         458
  C:0430H         LINE#         459
  C:0448H         LINE#         460
  C:0448H         LINE#         461
  C:0461H         LINE#         462
  C:046DH         LINE#         463
  C:046DH         LINE#         464
  C:047AH         LINE#         465
  C:047DH         LINE#         466
  C:048BH         LINE#         467
  C:0496H         LINE#         468
  C:0496H         LINE#         469
  C:0498H         LINE#         470
  C:04A4H         LINE#         471
  C:04A4H         LINE#         472
  C:04B1H         LINE#         473
  C:04B4H         LINE#         474
  C:04C2H         LINE#         475
  C:04CDH         LINE#         476
  C:04CDH         LINE#         477
  C:04CFH         LINE#         478
  C:04DBH         LINE#         479
  C:04DBH         LINE#         480
  C:04EEH         LINE#         481
  C:04F1H         LINE#         482
  C:04FFH         LINE#         483
  C:050AH         LINE#         484
  C:050DH         LINE#         485
  C:050DH         LINE#         486
  C:0510H         LINE#         487
  C:0513H         LINE#         488
  C:0516H         LINE#         489
  C:0516H         LINE#         490
  C:0516H         LINE#         491
  C:0519H         LINE#         492
  C:0519H         LINE#         493
  C:051CH         LINE#         494
  C:0521H         LINE#         495
  C:0524H         LINE#         496
  C:0527H         LINE#         497
  C:052AH         LINE#         498
  C:052DH         LINE#         499
  C:0530H         LINE#         500
  C:0530H         LINE#         504
  C:0549H         LINE#         505
  C:055CH         LINE#         506
  C:055CH         LINE#         507
  C:055CH         LINE#         508
  C:055CH         LINE#         509
  C:056FH         LINE#         510
  C:056FH         LINE#         511
  C:0577H         LINE#         512
  C:0590H         LINE#         513
  C:059AH         LINE#         514
BL51 BANKED LINKER/LOCATER V6.22.2.0                                                  06/30/2026  14:47:53  PAGE 55


  C:059AH         LINE#         515
  C:05A0H         LINE#         516
  C:05A9H         LINE#         517
  C:05ABH         LINE#         518
  C:05B5H         LINE#         519
  C:05B5H         LINE#         520
  C:05BCH         LINE#         521
  C:05D4H         LINE#         522
  C:05D4H         LINE#         523
  C:05D7H         LINE#         524
  C:05DAH         LINE#         525
  C:05DDH         LINE#         526
  C:05DDH         LINE#         527
  C:05DDH         LINE#         528
  C:05E0H         LINE#         529
  C:05E0H         LINE#         530
  C:05E5H         LINE#         531
  C:05FEH         LINE#         532
  C:060AH         LINE#         533
  C:0622H         LINE#         534
  C:063BH         LINE#         536
  C:0642H         LINE#         537
  C:065AH         LINE#         538
  C:066CH         LINE#         539
  C:066FH         LINE#         540
  C:067BH         LINE#         541
  C:0692H         LINE#         542
  C:06ABH         LINE#         544
  C:06C4H         LINE#         545
  C:06D6H         LINE#         546
  C:06D9H         LINE#         547
  C:06E5H         LINE#         548
  C:06FDH         LINE#         549
  C:0716H         LINE#         551
  C:072FH         LINE#         552
  C:0741H         LINE#         553
  C:0744H         LINE#         554
  C:0750H         LINE#         555
  C:0768H         LINE#         556
  C:0781H         LINE#         558
  C:079AH         LINE#         559
  C:07ACH         LINE#         560
  C:07AFH         LINE#         561
  C:07BBH         LINE#         562
  C:07D3H         LINE#         563
  C:07ECH         LINE#         565
  C:0805H         LINE#         566
  C:0817H         LINE#         567
  C:081AH         LINE#         568
  C:0829H         LINE#         569
  C:0841H         LINE#         570
  C:085AH         LINE#         572
  C:0873H         LINE#         573
  C:0885H         LINE#         574
  C:0885H         LINE#         577
  C:0888H         LINE#         578
  C:0888H         LINE#         579
BL51 BANKED LINKER/LOCATER V6.22.2.0                                                  06/30/2026  14:47:53  PAGE 56


  C:088AH         LINE#         580
  C:088DH         LINE#         581
  C:088DH         LINE#         582
  C:0892H         LINE#         584
  C:08AAH         LINE#         585
  C:08C3H         LINE#         586
  C:08CFH         LINE#         587
  C:08CFH         LINE#         588
  C:08E1H         LINE#         589
  C:08FCH         LINE#         590
  C:091AH         LINE#         591
  C:0922H         LINE#         592
  C:092EH         LINE#         593
  C:0933H         LINE#         595
  C:0935H         LINE#         596
  C:0938H         LINE#         597
  C:0938H         LINE#         598
  C:094BH         LINE#         599
  C:0966H         LINE#         600
  C:0984H         LINE#         601
  C:098CH         LINE#         602
  C:0998H         LINE#         603
  C:099DH         LINE#         605
  C:099FH         LINE#         606
  C:099FH         LINE#         607
  C:099FH         LINE#         608
  C:09A2H         LINE#         609
  C:09A2H         LINE#         610
  C:09A5H         LINE#         611
  C:09A8H         LINE#         612
  C:09A8H         LINE#         613
  C:09ABH         LINE#         614
  C:09AEH         LINE#         615
  C:09AEH         LINE#         616
  C:09C7H         LINE#         617
  C:09D3H         LINE#         618
  C:09EBH         LINE#         619
  C:09F7H         LINE#         620
  C:09FCH         LINE#         622
  C:09FEH         LINE#         623
  C:0A01H         LINE#         624
  C:0A10H         LINE#         625
  C:0A28H         LINE#         626
  C:0A34H         LINE#         627
  C:0A39H         LINE#         629
  C:0A3BH         LINE#         630
  C:0A3BH         LINE#         631
  C:0A3EH         LINE#         632
  C:0A3EH         LINE#         633
  C:0A43H         LINE#         634
  C:0A5CH         LINE#         635
  C:0A75H         LINE#         637
  C:0A8EH         LINE#         638
  C:0AA0H         LINE#         639
  C:0AA3H         LINE#         640
  C:0AA3H         LINE#         641
  C:0AA3H         LINE#         643
BL51 BANKED LINKER/LOCATER V6.22.2.0                                                  06/30/2026  14:47:53  PAGE 57


  C:0ABCH         LINE#         644
  C:0AC7H         LINE#         645
  C:0ACCH         LINE#         646
  C:0AD1H         LINE#         647
  C:0AEAH         LINE#         648
  C:0B03H         LINE#         650
  C:0B1CH         LINE#         651
  C:0B2CH         LINE#         652
  C:0B3BH         LINE#         653
  C:0B40H         LINE#         654
  C:0B59H         LINE#         655
  C:0B71H         LINE#         657
  C:0B8AH         LINE#         658
  C:0B9AH         LINE#         659
  C:0BA9H         LINE#         660
  C:0BAEH         LINE#         661
  C:0BC7H         LINE#         662
  C:0BE0H         LINE#         664
  C:0BF9H         LINE#         665
  C:0C09H         LINE#         666
  C:0C18H         LINE#         667
  C:0C1DH         LINE#         668
  C:0C36H         LINE#         669
  C:0C4FH         LINE#         671
  C:0C68H         LINE#         672
  C:0C78H         LINE#         673
  C:0C87H         LINE#         674
  C:0C8CH         LINE#         675
  C:0CA5H         LINE#         676
  C:0CBEH         LINE#         678
  C:0CD7H         LINE#         679
  C:0CE7H         LINE#         680
  C:0CF5H         LINE#         681
  C:0CFAH         LINE#         682
  C:0D13H         LINE#         683
  C:0D2CH         LINE#         685
  C:0D45H         LINE#         686
  C:0D5EH         LINE#         687
  C:0D5EH         LINE#         688
  C:0D61H         LINE#         689
  C:0D81H         LINE#         690
  C:0D81H         LINE#         691
  C:0D8BH         LINE#         692
  C:0D96H         LINE#         693
  C:0D96H         LINE#         694
  C:0D96H         LINE#         695
  C:0D99H         LINE#         696
  C:0D99H         LINE#         697
  C:0DB2H         LINE#         698
  C:0DC1H         LINE#         699
  C:0DC3H         LINE#         700
  C:0DC5H         LINE#         701
  C:0DC5H         LINE#         702
  C:0DDEH         LINE#         703
  C:0DEDH         LINE#         704
  C:0DF3H         LINE#         705
  C:0DF6H         LINE#         706
BL51 BANKED LINKER/LOCATER V6.22.2.0                                                  06/30/2026  14:47:53  PAGE 58


  C:0DF6H         LINE#         707
  C:0E0FH         LINE#         708
  C:0E1EH         LINE#         709
  C:0E24H         LINE#         710
  C:0E27H         LINE#         711
  C:0E27H         LINE#         712
  C:0E40H         LINE#         713
  C:0E4FH         LINE#         714
  C:0E54H         LINE#         715
  C:0E56H         LINE#         716
  C:0E56H         LINE#         717
  C:0E6FH         LINE#         718
  C:0E7EH         LINE#         719
  C:0E83H         LINE#         720
  C:0E85H         LINE#         721
  C:0E85H         LINE#         722
  C:0E9EH         LINE#         723
  C:0EADH         LINE#         724
  C:0EB6H         LINE#         725
  C:0EB9H         LINE#         730
  C:0EB9H         LINE#         731
  C:0EBCH         LINE#         732
  C:0EBFH         LINE#         733
  C:0EBFH         LINE#         740
  C:0ED8H         LINE#         741
  C:0EE7H         LINE#         742
  C:0EE7H         LINE#         743
  C:0EFDH         LINE#         744
  C:0F16H         LINE#         745
  C:0F2BH         LINE#         746
  C:0F44H         LINE#         747
  C:0F5DH         LINE#         748
  C:0F63H         LINE#         749
  C:0F76H         LINE#         750
  C:0F95H         LINE#         751
  C:0F97H         LINE#         752
  C:0F9AH         LINE#         754
  C:0F9AH         LINE#         756
  C:0FB1H         LINE#         757
  C:0FCAH         LINE#         758
  C:0FD8H         LINE#         759
  C:0FF1H         LINE#         760
  C:100AH         LINE#         761
  C:1010H         LINE#         762
  C:1023H         LINE#         763
  C:1042H         LINE#         764
  C:1047H         LINE#         765
  C:1047H         LINE#         766
  C:1049H         LINE#         767
  C:104CH         LINE#         768
  C:104FH         LINE#         769
  C:104FH         LINE#         770
  C:1052H         LINE#         771
  C:1052H         LINE#         772
  C:106BH         LINE#         773
  C:1076H         LINE#         774
  C:1078H         LINE#         775
BL51 BANKED LINKER/LOCATER V6.22.2.0                                                  06/30/2026  14:47:53  PAGE 59


  C:107BH         LINE#         776
  C:107EH         LINE#         777
  C:1081H         LINE#         792
  C:1081H         LINE#         793
  C:1086H         LINE#         794
  C:1089H         LINE#         795
  C:108CH         LINE#         796
  C:108CH         LINE#         797
  C:10A5H         LINE#         798
  C:10B5H         LINE#         799
  C:10B8H         LINE#         800
  C:10B8H         LINE#         801
  C:10BBH         LINE#         815
  C:10BBH         LINE#         816
  C:10C4H         LINE#         817
  C:10C7H         LINE#         818
  C:10CAH         LINE#         819
  C:10CDH         LINE#         828
  C:10CDH         LINE#         829
  C:10E6H         LINE#         830
  C:10FFH         LINE#         831
  C:1108H         LINE#         832
  C:1108H         LINE#         833
  C:110BH         LINE#         834
  C:110BH         LINE#         835
  C:1112H         LINE#         836
  C:112AH         LINE#         837
  C:1143H         LINE#         838
  C:1146H         LINE#         839
  C:1149H         LINE#         840
  C:114CH         LINE#         841
  C:114CH         LINE#         842
  C:114FH         LINE#         843
  C:114FH         LINE#         844
  C:1151H         LINE#         845
  C:1154H         LINE#         846
  C:1154H         LINE#         847
  C:1157H         LINE#         848
  C:115AH         LINE#         849
  C:115DH         LINE#         850
  C:115FH         LINE#         851
  C:1162H         LINE#         852
  C:1162H         LINE#         853
  C:1164H         LINE#         854
  C:1167H         LINE#         855
  C:1167H         LINE#         856
  C:1180H         LINE#         857
  C:118AH         LINE#         858
  C:118FH         LINE#         860
  C:1191H         LINE#         861
  C:1194H         LINE#         862
  C:1194H         LINE#         863
  C:11ADH         LINE#         864
  C:11B7H         LINE#         865
  C:11BCH         LINE#         867
  C:11BEH         LINE#         868
  C:11C1H         LINE#         869
BL51 BANKED LINKER/LOCATER V6.22.2.0                                                  06/30/2026  14:47:53  PAGE 60


  C:11C1H         LINE#         870
  C:11DAH         LINE#         871
  C:11E4H         LINE#         872
  C:11E9H         LINE#         874
  C:11EBH         LINE#         875
  C:11EEH         LINE#         876
  C:11EEH         LINE#         877
  C:1207H         LINE#         878
  C:1216H         LINE#         879
  C:122EH         LINE#         880
  C:123AH         LINE#         881
  C:123AH         LINE#         882
  C:1252H         LINE#         883
  C:126BH         LINE#         884
  C:1284H         LINE#         885
  C:129DH         LINE#         886
  C:12A0H         LINE#         887
  C:12A0H         LINE#         888
  C:12A2H         LINE#         889
  C:12A5H         LINE#         890
  C:12B4H         LINE#         891
  C:12CCH         LINE#         892
  C:12D8H         LINE#         893
  C:12D8H         LINE#         894
  C:12F0H         LINE#         895
  C:1309H         LINE#         896
  C:1322H         LINE#         897
  C:133BH         LINE#         898
  C:133EH         LINE#         899
  C:133EH         LINE#         900
  C:1340H         LINE#         901
  C:1343H         LINE#         902
  C:1352H         LINE#         903
  C:136AH         LINE#         904
  C:1376H         LINE#         905
  C:1376H         LINE#         906
  C:138EH         LINE#         907
  C:13A7H         LINE#         908
  C:13C0H         LINE#         909
  C:13D9H         LINE#         910
  C:13D9H         LINE#         911
  C:13DBH         LINE#         912
  C:13DEH         LINE#         913
  C:13EDH         LINE#         914
  C:1405H         LINE#         915
  C:1411H         LINE#         916
  C:1411H         LINE#         917
  C:1429H         LINE#         918
  C:1442H         LINE#         919
  C:145BH         LINE#         920
  C:1474H         LINE#         921
  C:1477H         LINE#         922
  C:1477H         LINE#         923
  C:1479H         LINE#         924
  C:1479H         LINE#         925
  C:147CH         LINE#         926
  C:147CH         LINE#         927
BL51 BANKED LINKER/LOCATER V6.22.2.0                                                  06/30/2026  14:47:53  PAGE 61


  C:1495H         LINE#         928
  C:149FH         LINE#         929
  C:14A4H         LINE#         931
  C:14A6H         LINE#         932
  C:14A9H         LINE#         933
  C:14A9H         LINE#         934
  C:14C2H         LINE#         935
  C:14CCH         LINE#         936
  C:14CCH         LINE#         937
  C:14DBH         LINE#         938
  C:14DBH         LINE#         939
  C:14F4H         LINE#         940
  C:150EH         LINE#         941
  C:1527H         LINE#         942
  C:152AH         LINE#         943
  C:152DH         LINE#         944
  C:152DH         LINE#         945
  C:152FH         LINE#         946
  C:1536H         LINE#         947
  C:1539H         LINE#         949
  C:1539H         LINE#         950
  C:153BH         LINE#         951
  C:153BH         LINE#         952
  C:153EH         LINE#         953
  C:153EH         LINE#         956
  C:1557H         LINE#         957
  C:156AH         LINE#         958
  C:1584H         LINE#         959
  C:158CH         LINE#         960
  C:15AAH         LINE#         961
  C:15B2H         LINE#         963
  C:15CBH         LINE#         964
  C:15DEH         LINE#         965
  C:1601H         LINE#         967
  C:161AH         LINE#         968
  C:162DH         LINE#         969
  C:1650H         LINE#         970
  C:1653H         LINE#         971
  C:165AH         LINE#         972
  C:165DH         LINE#         973
  C:1660H         LINE#         974
  C:1662H         LINE#         975
  C:1662H         LINE#         976
  C:1665H         LINE#         977
  C:1665H         LINE#         978
  C:167EH         LINE#         979
  C:1697H         LINE#         980
  C:1699H         LINE#         981
  C:169CH         LINE#         982
  C:169FH         LINE#         983
  C:16A2H         LINE#         984
  C:16A2H         LINE#         985
  C:16A5H         LINE#         986
  C:16AAH         LINE#         987
  C:16ADH         LINE#         988
  C:16B0H         LINE#         989
  C:16B0H         LINE#         990
BL51 BANKED LINKER/LOCATER V6.22.2.0                                                  06/30/2026  14:47:53  PAGE 62


  C:16C9H         LINE#         991
  C:16D8H         LINE#         992
  C:16D8H         LINE#         993
  C:16DBH         LINE#         994
  C:16DEH         LINE#         995
  C:16E5H         LINE#         996
  C:16FDH         LINE#         997
  C:16FDH         LINE#         998
  C:1700H         LINE#         999
  C:1700H         LINE#         1000
  C:1700H         LINE#         1001
  C:1700H         LINE#         1002
  C:1700H         LINE#         1003
  C:1700H         LINE#         1004
  C:170BH         LINE#         1005
  C:170EH         LINE#         1006
  C:1711H         LINE#         1007
  C:1714H         LINE#         1008
  C:1717H         LINE#         1009
  C:171AH         LINE#         1010
  C:171AH         LINE#         1011
  C:171AH         LINE#         1012
  C:171AH         LINE#         1013
  C:171AH         LINE#         1014
  C:171AH         LINE#         1015
  C:171AH         LINE#         1016
  C:172AH         LINE#         1017
  C:1733H         LINE#         1018
  C:1733H         LINE#         1019
  C:1733H         LINE#         1020
  C:1736H         LINE#         1021
  C:1736H         LINE#         1022
  C:1736H         LINE#         1023
  C:1736H         LINE#         1024
  C:1736H         LINE#         1025
  C:1736H         LINE#         1026
  C:1736H         LINE#         1027
  C:1744H         LINE#         1028
  C:1749H         LINE#         1029
  C:1749H         LINE#         1030
  C:1749H         LINE#         1031
  C:174CH         LINE#         1032
  C:174CH         LINE#         1033
  C:174CH         LINE#         1034
  C:174CH         LINE#         1035
  C:174CH         LINE#         1036
  C:174CH         LINE#         1037
  C:174CH         LINE#         1038
  C:175CH         LINE#         1039
  C:1765H         LINE#         1040
  C:1765H         LINE#         1041
  C:1765H         LINE#         1042
  C:1768H         LINE#         1043
  C:1768H         LINE#         1044
  C:1768H         LINE#         1045
  C:1768H         LINE#         1046
  C:1768H         LINE#         1047
BL51 BANKED LINKER/LOCATER V6.22.2.0                                                  06/30/2026  14:47:53  PAGE 63


  C:1768H         LINE#         1048
  C:1768H         LINE#         1049
  C:1768H         LINE#         1050
  C:1768H         LINE#         1051
  C:1775H         LINE#         1052
  C:1785H         LINE#         1053
  C:178EH         LINE#         1054
  C:178EH         LINE#         1055
  C:178EH         LINE#         1056
  C:1790H         LINE#         1057
  C:1790H         LINE#         1058
  C:1790H         LINE#         1059
  C:1790H         LINE#         1060
  C:1790H         LINE#         1061
  C:1790H         LINE#         1062
  C:1790H         LINE#         1063
  C:1790H         LINE#         1068
  C:1793H         LINE#         1069
  C:17A1H         LINE#         1070
  C:17B8H         LINE#         1071
  C:17C6H         LINE#         1072
  C:17E4H         LINE#         1073
  C:17EEH         LINE#         1074
  C:17F1H         LINE#         1075
  C:17F4H         LINE#         1076
  C:17F4H         LINE#         1077
  C:17F7H         LINE#         1078
  C:17F7H         LINE#         1079
  C:17FAH         LINE#         1080
  C:17FFH         LINE#         1081
  C:1801H         LINE#         1082
  C:1804H         LINE#         1086
  C:1804H         LINE#         1087
  C:1804H         LINE#         1088
  C:1804H         LINE#         1089
  C:1804H         LINE#         1090
  C:1804H         LINE#         1094
  C:1804H         LINE#         1095
  C:1804H         LINE#         1099
  C:181FH         LINE#         1100
  C:182DH         LINE#         1101
  C:1846H         LINE#         1102
  C:1849H         LINE#         1103
  C:1849H         LINE#         1104
  C:1849H         LINE#         1105
  C:184CH         LINE#         1106
  C:184CH         LINE#         1107
  C:1853H         LINE#         1108
  C:1856H         LINE#         1109
  C:1856H         LINE#         1110
  C:1859H         LINE#         1111
  C:1859H         LINE#         1112
  C:1859H         LINE#         1116
  C:1874H         LINE#         1117
  C:1882H         LINE#         1118
  C:189BH         LINE#         1119
  C:18A2H         LINE#         1120
BL51 BANKED LINKER/LOCATER V6.22.2.0                                                  06/30/2026  14:47:53  PAGE 64


  C:18A5H         LINE#         1121
  C:18A5H         LINE#         1122
  C:18A5H         LINE#         1123
  C:18A7H         LINE#         1124
  C:18A7H         LINE#         1125
  C:18AEH         LINE#         1126
  C:18B1H         LINE#         1127
  C:18B1H         LINE#         1128
  C:18B3H         LINE#         1129
  C:18B3H         LINE#         1130
  C:18B3H         LINE#         1131
  C:18B3H         LINE#         1132
  C:18B6H         LINE#         1133
  C:18B6H         LINE#         1134
  C:18B8H         LINE#         1135
  C:18B8H         LINE#         1136
  C:18B8H         LINE#         1137
  C:18B8H         LINE#         1138
  C:18B8H         LINE#         1139
  C:18B8H         LINE#         1140
  C:18B8H         LINE#         1141
  C:18B8H         LINE#         1142
  C:18BBH         LINE#         1143
  C:18BBH         LINE#         1144
  C:18BDH         LINE#         1145
  C:18BDH         LINE#         1146
  C:18D6H         LINE#         1147
  C:18E0H         LINE#         1148
  C:18E4H         LINE#         1150
  C:18E6H         LINE#         1151
  C:18EEH         LINE#         1152
  C:18F1H         LINE#         1153
  C:18F3H         LINE#         1154
  C:18F3H         LINE#         1155
  C:18F3H         LINE#         1156
  C:18F3H         LINE#         1157
  C:18F3H         LINE#         1158
  C:18F3H         LINE#         1159
  C:18F6H         LINE#         1160
  C:18F8H         LINE#         1161
  C:18F8H         LINE#         1162
  C:18FBH         LINE#         1163
  C:18FEH         LINE#         1164
  C:1901H         LINE#         1165
  C:1906H         LINE#         1166
  C:1906H         LINE#         1167
  C:1906H         LINE#         1168
  C:1923H         LINE#         1169
  C:1923H         LINE#         1172
  C:1989H         LINE#         1175
  C:19A3H         LINE#         1176
  C:19A3H         LINE#         1177
  C:19A8H         LINE#         1178
  C:19ABH         LINE#         1179
  C:19AEH         LINE#         1180
  C:19AEH         LINE#         1181
  C:19CFH         LINE#         1182
BL51 BANKED LINKER/LOCATER V6.22.2.0                                                  06/30/2026  14:47:53  PAGE 65


  C:19CFH         LINE#         1183
  C:19D2H         LINE#         1184
  C:19D2H         LINE#         1185
  C:19D5H         LINE#         1187
  C:19D5H         LINE#         1188
  C:19F0H         LINE#         1189
  C:19F9H         LINE#         1190
  C:1A28H         LINE#         1191
  C:1A28H         LINE#         1192
  C:1A3CH         LINE#         1193
  C:1A55H         LINE#         1194
  C:1A76H         LINE#         1195
  C:1A7EH         LINE#         1196
  C:1A7EH         LINE#         1197
  C:1A99H         LINE#         1198
  C:1A9CH         LINE#         1199
  C:1A9CH         LINE#         1200
  C:1A9CH         LINE#         1201
  C:1A9CH         LINE#         1202
  -------         ENDPROC       CONTROL_FUNCTION1
  -------         PROC          _ISITHOMEPAGE
  D:0007H         SYMBOL        NowPage
  -------         DO            
  B:0023H.2       SYMBOL        IsHomePage
  D:0006H         SYMBOL        i
  -------         ENDDO         
  C:F7C0H         LINE#         1214
  C:F7C0H         LINE#         1215
  C:F7C0H         LINE#         1216
  C:F7C2H         LINE#         1219
  C:F7CEH         LINE#         1220
  C:F7CEH         LINE#         1221
  C:F7DCH         LINE#         1222
  C:F7DCH         LINE#         1223
  C:F7DEH         LINE#         1224
  C:F7E0H         LINE#         1225
  C:F7E0H         LINE#         1226
  C:F7E3H         LINE#         1227
  C:F7E5H         LINE#         1228
  -------         ENDPROC       _ISITHOMEPAGE
  -------         PROC          HOMEPAGE_SYNCINDOORDISPLAY
  -------         DO            
  X:8B33H         SYMBOL        HomePage_Power
  X:8B35H         SYMBOL        i
  X:8B36H         SYMBOL        first_one
  X:93E7H         SYMBOL        s_last_anim_mode
  -------         ENDDO         
  C:B127H         LINE#         1230
  C:B127H         LINE#         1231
  C:B127H         LINE#         1232
  C:B12EH         LINE#         1233
  C:B130H         LINE#         1234
  C:B134H         LINE#         1237
  C:B147H         LINE#         1238
  C:B147H         LINE#         1239
  C:B162H         LINE#         1240
  C:B16EH         LINE#         1241
BL51 BANKED LINKER/LOCATER V6.22.2.0                                                  06/30/2026  14:47:53  PAGE 66


  C:B16EH         LINE#         1242
  C:B174H         LINE#         1243
  C:B176H         LINE#         1244
  C:B176H         LINE#         1245
  C:B17EH         LINE#         1246
  C:B185H         LINE#         1247
  C:B193H         LINE#         1248
  C:B193H         LINE#         1249
  C:B1B3H         LINE#         1250
  C:B1C2H         LINE#         1251
  C:B1C2H         LINE#         1252
  C:B1E0H         LINE#         1253
  C:B1EFH         LINE#         1254
  C:B1F3H         LINE#         1255
  C:B1F3H         LINE#         1256
  C:B1F3H         LINE#         1257
  C:B20BH         LINE#         1258
  C:B21EH         LINE#         1259
  C:B21EH         LINE#         1260
  C:B223H         LINE#         1261
  C:B22CH         LINE#         1262
  C:B22CH         LINE#         1263
  -------         ENDPROC       HOMEPAGE_SYNCINDOORDISPLAY
  -------         PROC          HOMEPAGE
  B:0023H.1       SYMBOL        TurnPage
  -------         DO            
  X:8B16H         SYMBOL        HomePage_TempType
  -------         ENDDO         
  C:EE2AH         LINE#         1265
  C:EE2AH         LINE#         1266
  C:EE2AH         LINE#         1267
  C:EE31H         LINE#         1269
  C:EE34H         LINE#         1270
  C:EE34H         LINE#         1271
  C:EE3CH         LINE#         1273
  C:EE3EH         LINE#         1275
  C:EE3EH         LINE#         1277
  C:EE57H         LINE#         1278
  C:EE61H         LINE#         1279
  C:EE65H         LINE#         1281
  C:EE6AH         LINE#         1282
  C:EE6DH         LINE#         1283
  -------         ENDPROC       HOMEPAGE
  -------         PROC          L?0719
  -------         ENDPROC       L?0719
  -------         PROC          _TEMP_LIMIT
  X:8AB5H         SYMBOL        Addr
  X:8AB7H         SYMBOL        TempType
  -------         DO            
  X:8AB8H         SYMBOL        Temp_Limit_Temp
  X:8ABAH         SYMBOL        lo
  X:8ABCH         SYMBOL        hi
  -------         ENDDO         
  C:6A58H         LINE#         1285
  C:6A65H         LINE#         1286
  C:6A65H         LINE#         1290
  C:6A65H         LINE#         1291
BL51 BANKED LINKER/LOCATER V6.22.2.0                                                  06/30/2026  14:47:53  PAGE 67


  C:6A78H         LINE#         1292
  C:6A91H         LINE#         1293
  C:6A91H         LINE#         1294
  C:6A91H         LINE#         1295
  C:6A91H         LINE#         1296
  C:6A93H         LINE#         1297
  C:6AA5H         LINE#         1298
  C:6AA5H         LINE#         1299
  C:6AA5H         LINE#         1300
  C:6AA5H         LINE#         1301
  C:6AA7H         LINE#         1302
  C:6AB5H         LINE#         1303
  C:6AB5H         LINE#         1304
  C:6ABEH         LINE#         1305
  C:6AC5H         LINE#         1306
  C:6AC8H         LINE#         1307
  C:6ACEH         LINE#         1308
  C:6ACEH         LINE#         1309
  C:6ADFH         LINE#         1310
  C:6AE3H         LINE#         1311
  C:6AE6H         LINE#         1312
  C:6AF4H         LINE#         1313
  C:6AF4H         LINE#         1314
  C:6AFDH         LINE#         1315
  C:6B04H         LINE#         1316
  C:6B07H         LINE#         1317
  C:6B0DH         LINE#         1318
  C:6B0DH         LINE#         1319
  C:6B16H         LINE#         1320
  C:6B1DH         LINE#         1321
  C:6B20H         LINE#         1322
  C:6B26H         LINE#         1323
  C:6B26H         LINE#         1324
  C:6B2FH         LINE#         1325
  C:6B36H         LINE#         1326
  C:6B38H         LINE#         1327
  C:6B3EH         LINE#         1328
  C:6B3EH         LINE#         1329
  C:6B4FH         LINE#         1330
  C:6B53H         LINE#         1331
  C:6B55H         LINE#         1332
  C:6B61H         LINE#         1333
  C:6B61H         LINE#         1334
  C:6B72H         LINE#         1335
  C:6B76H         LINE#         1336
  C:6B78H         LINE#         1337
  C:6B89H         LINE#         1338
  C:6B89H         LINE#         1339
  C:6B99H         LINE#         1340
  C:6BAAH         LINE#         1341
  C:6BAAH         LINE#         1344
  C:6BC0H         LINE#         1345
  C:6BC2H         LINE#         1346
  C:6BD1H         LINE#         1347
  C:6BD9H         LINE#         1348
  C:6BF4H         LINE#         1349
  C:6C0DH         LINE#         1350
BL51 BANKED LINKER/LOCATER V6.22.2.0                                                  06/30/2026  14:47:53  PAGE 68


  C:6C12H         LINE#         1351
  C:6C2BH         LINE#         1352
  C:6C2BH         LINE#         1353
  C:6C36H         LINE#         1354
  C:6C49H         LINE#         1355
  C:6C49H         LINE#         1356
  C:6C55H         LINE#         1357
  C:6C5FH         LINE#         1358
  C:6C6BH         LINE#         1359
  C:6C71H         LINE#         1360
  C:6C96H         LINE#         1362
  C:6CBEH         LINE#         1363
  C:6CE3H         LINE#         1365
  C:6D02H         LINE#         1366
  -------         ENDPROC       _TEMP_LIMIT
  -------         PROC          _SETMODEPROCESS
  X:8AAAH         SYMBOL        NewMode
  C:F9A5H         LINE#         1367
  C:F9ADH         LINE#         1368
  C:F9ADH         LINE#         1369
  -------         ENDPROC       _SETMODEPROCESS
  -------         PROC          RTCDISPLAY4CHANGE
  -------         DO            
  X:8AAAH         SYMBOL        RTCS2C_temp
  X:8AACH         SYMBOL        year
  X:8AAEH         SYMBOL        month_vp
  X:8AB0H         SYMBOL        month
  -------         ENDDO         
  C:AAD2H         LINE#         1371
  C:AAD2H         LINE#         1372
  C:AAD2H         LINE#         1376
  C:AAEBH         LINE#         1377
  C:AB04H         LINE#         1378
  C:AB1DH         LINE#         1379
  C:AB36H         LINE#         1380
  C:AB4FH         LINE#         1381
  C:AB68H         LINE#         1382
  C:AB81H         LINE#         1383
  C:AB9AH         LINE#         1384
  C:ABB3H         LINE#         1385
  C:ABCCH         LINE#         1386
  -------         ENDPROC       RTCDISPLAY4CHANGE
  -------         PROC          READY4WRITERTC
  -------         DO            
  X:8AAAH         SYMBOL        RTCC2W_write
  X:8AB0H         SYMBOL        year_full
  X:8AB2H         SYMBOL        month
  X:8AB4H         SYMBOL        day
  X:8AB6H         SYMBOL        hour
  X:8AB8H         SYMBOL        minute
  X:8ABAH         SYMBOL        year
  -------         ENDDO         
  C:B624H         LINE#         1388
  C:B624H         LINE#         1389
  C:B624H         LINE#         1393
  C:B63DH         LINE#         1394
  C:B656H         LINE#         1395
BL51 BANKED LINKER/LOCATER V6.22.2.0                                                  06/30/2026  14:47:53  PAGE 69


  C:B66FH         LINE#         1396
  C:B688H         LINE#         1397
  C:B6A1H         LINE#         1398
  C:B6B1H         LINE#         1399
  C:B6BDH         LINE#         1401
  C:B6CCH         LINE#         1402
  C:B6E0H         LINE#         1403
  C:B6F4H         LINE#         1404
  C:B6FFH         LINE#         1405
  -------         ENDPROC       READY4WRITERTC
  -------         PROC          _SYNCSETTEMPCACHESFROMC
  X:8B27H         SYMBOL        temp_c
  -------         DO            
  X:8B29H         SYMBOL        temp_f
  X:8B2BH         SYMBOL        mode
  -------         ENDDO         
  C:CD1DH         LINE#         1408
  C:CD25H         LINE#         1409
  C:CD25H         LINE#         1413
  C:CD3AH         LINE#         1414
  C:CD53H         LINE#         1415
  C:CD6CH         LINE#         1416
  C:CD85H         LINE#         1417
  C:CD9EH         LINE#         1418
  C:CD9EH         LINE#         1419
  C:CDA4H         LINE#         1420
  C:CDB7H         LINE#         1421
  C:CDB7H         LINE#         1422
  -------         ENDPROC       _SYNCSETTEMPCACHESFROMC
  -------         PROC          TEMPUNIT_REFRESHACTIVESETFROMMODE
  -------         DO            
  X:8B23H         SYMBOL        mode
  X:8B25H         SYMBOL        unit
  D:0006H         SYMBOL        temp_c
  -------         ENDDO         
  C:DE34H         LINE#         1424
  C:DE34H         LINE#         1425
  C:DE34H         LINE#         1430
  C:DE4DH         LINE#         1431
  C:DE66H         LINE#         1432
  C:DE7FH         LINE#         1434
  C:DE86H         LINE#         1435
  C:DE94H         LINE#         1436
  C:DE99H         LINE#         1437
  C:DE9DH         LINE#         1438
  C:DEA0H         LINE#         1439
  -------         ENDPROC       TEMPUNIT_REFRESHACTIVESETFROMMODE
  -------         PROC          TEMPUNIT_REFRESHALL
  -------         DO            
  X:8B18H         SYMBOL        unit
  X:8B1AH         SYMBOL        temp_c
  X:8B1CH         SYMBOL        temp_f
  X:8B1EH         SYMBOL        i
  -------         DO            
  X:8B1FH         SYMBOL        room_c
  -------         ENDDO         
  -------         ENDDO         
BL51 BANKED LINKER/LOCATER V6.22.2.0                                                  06/30/2026  14:47:53  PAGE 70


  C:61BAH         LINE#         1441
  C:61BAH         LINE#         1442
  C:61BAH         LINE#         1448
  C:61D3H         LINE#         1449
  C:61ECH         LINE#         1450
  C:6205H         LINE#         1451
  C:620FH         LINE#         1452
  C:620FH         LINE#         1453
  C:621AH         LINE#         1454
  C:621CH         LINE#         1455
  C:6227H         LINE#         1456
  C:6227H         LINE#         1457
  C:6229H         LINE#         1459
  C:6229H         LINE#         1460
  C:6234H         LINE#         1461
  C:623EH         LINE#         1462
  C:6249H         LINE#         1463
  C:6256H         LINE#         1464
  C:6256H         LINE#         1465
  C:6261H         LINE#         1466
  C:6263H         LINE#         1467
  C:626EH         LINE#         1468
  C:626EH         LINE#         1469
  C:627BH         LINE#         1470
  C:6286H         LINE#         1471
  C:6286H         LINE#         1472
  C:629FH         LINE#         1473
  C:62B8H         LINE#         1474
  C:62BBH         LINE#         1476
  C:62CAH         LINE#         1477
  C:62D9H         LINE#         1478
  C:62E8H         LINE#         1479
  C:62F7H         LINE#         1480
  C:630BH         LINE#         1481
  C:630BH         LINE#         1482
  C:6318H         LINE#         1483
  C:6323H         LINE#         1484
  C:6323H         LINE#         1485
  C:6330H         LINE#         1486
  C:6340H         LINE#         1487
  C:6340H         LINE#         1488
  C:6343H         LINE#         1489
  C:634BH         LINE#         1490
  C:635CH         LINE#         1491
  C:636DH         LINE#         1493
  C:6383H         LINE#         1494
  C:6383H         LINE#         1497
  C:639EH         LINE#         1498
  C:63AEH         LINE#         1499
  C:63D4H         LINE#         1500
  C:63EEH         LINE#         1503
  C:642CH         LINE#         1504
  C:642FH         LINE#         1505
  C:6438H         LINE#         1507
  C:6451H         LINE#         1508
  C:645CH         LINE#         1509
  C:6473H         LINE#         1510
BL51 BANKED LINKER/LOCATER V6.22.2.0                                                  06/30/2026  14:47:53  PAGE 71


  C:648CH         LINE#         1511
  C:6497H         LINE#         1512
  C:64AEH         LINE#         1514
  -------         ENDPROC       TEMPUNIT_REFRESHALL
  C:C15FH         SYMBOL        L?0711
  C:C162H         SYMBOL        L?0712
  -------         PROC          L?0710
  -------         ENDPROC       L?0710
  C:C15FH         SYMBOL        L?0711
  C:C162H         SYMBOL        L?0712
  -------         PROC          _TEMPUNITTRANS
  D:0006H         SYMBOL        temp
  X:8B34H         SYMBOL        type
  -------         DO            
  X:8B35H         SYMBOL        Cache
  -------         ENDDO         
  C:C169H         LINE#         1517
  C:C16EH         LINE#         1518
  C:C16EH         LINE#         1521
  C:C172H         LINE#         1522
  C:C172H         LINE#         1523
  C:C17DH         LINE#         1524
  C:C183H         LINE#         1525
  C:C18EH         LINE#         1526
  C:C192H         LINE#         1527
  C:C1AAH         LINE#         1528
  C:C1ACH         LINE#         1529
  C:C1B4H         LINE#         1530
  C:C1B4H         LINE#         1531
  C:C1BFH         LINE#         1532
  C:C1C5H         LINE#         1533
  C:C1D0H         LINE#         1534
  C:C1D4H         LINE#         1535
  C:C1EEH         LINE#         1536
  C:C1EEH         LINE#         1538
  C:C225H         LINE#         1539
  C:C225H         LINE#         1540
  -------         ENDPROC       _TEMPUNITTRANS
  -------         PROC          UNITCHANGEPRO
  -------         DO            
  X:8B16H         SYMBOL        UnitChange_TempType
  -------         ENDDO         
  C:F89DH         LINE#         1541
  C:F89DH         LINE#         1542
  C:F89DH         LINE#         1543
  C:F8A4H         LINE#         1545
  C:F8BCH         LINE#         1546
  -------         ENDPROC       UNITCHANGEPRO
  -------         PROC          SYNCTIMERFROMVP
  -------         DO            
  X:8AA0H         SYMBOL        u8tou16
  -------         ENDDO         
  C:78E1H         LINE#         1588
  C:78E1H         LINE#         1589
  C:78E1H         LINE#         1590
  C:78F4H         LINE#         1592
  C:790DH         LINE#         1593
BL51 BANKED LINKER/LOCATER V6.22.2.0                                                  06/30/2026  14:47:53  PAGE 72


  C:7915H         LINE#         1594
  C:792EH         LINE#         1595
  C:7936H         LINE#         1596
  C:794FH         LINE#         1597
  C:7957H         LINE#         1598
  C:7970H         LINE#         1599
  C:7978H         LINE#         1600
  C:7991H         LINE#         1601
  C:7999H         LINE#         1602
  C:79B2H         LINE#         1603
  C:79BAH         LINE#         1604
  C:79D3H         LINE#         1605
  C:79DBH         LINE#         1606
  C:79EFH         LINE#         1608
  C:7A08H         LINE#         1609
  C:7A10H         LINE#         1610
  C:7A29H         LINE#         1611
  C:7A31H         LINE#         1612
  C:7A4AH         LINE#         1613
  C:7A52H         LINE#         1614
  C:7A6BH         LINE#         1615
  C:7A73H         LINE#         1616
  C:7A8CH         LINE#         1617
  C:7A94H         LINE#         1618
  C:7AADH         LINE#         1619
  C:7AB5H         LINE#         1620
  C:7ACEH         LINE#         1621
  C:7AD6H         LINE#         1622
  C:7AEFH         LINE#         1623
  C:7AF7H         LINE#         1624
  C:7B0BH         LINE#         1625
  -------         ENDPROC       SYNCTIMERFROMVP
  -------         PROC          _TIMER_ISINDOORWEEKDAYMATCH
  D:0007H         SYMBOL        rtc_week
  -------         DO            
  X:8AA0H         SYMBOL        bit_idx
  X:8AA1H         SYMBOL        week_en
  X:8AA2H         SYMBOL        week_mask
  X:8AA4H         SYMBOL        i
  -------         ENDDO         
  C:C8A6H         LINE#         1627
  C:C8A6H         LINE#         1628
  C:C8A6H         LINE#         1630
  C:C8ADH         LINE#         1633
  C:C8BEH         LINE#         1634
  C:C8D1H         LINE#         1635
  C:C8D1H         LINE#         1636
  C:C8ECH         LINE#         1637
  C:C8F2H         LINE#         1638
  C:C912H         LINE#         1639
  C:C91AH         LINE#         1640
  C:C925H         LINE#         1641
  C:C928H         LINE#         1642
  C:C94CH         LINE#         1643
  -------         ENDPROC       _TIMER_ISINDOORWEEKDAYMATCH
  -------         PROC          _TIMER_ISEXTERNALWEEKDAYMATCH
  D:0007H         SYMBOL        rtc_week
BL51 BANKED LINKER/LOCATER V6.22.2.0                                                  06/30/2026  14:47:53  PAGE 73


  -------         DO            
  X:8AA0H         SYMBOL        bit_idx
  X:8AA1H         SYMBOL        week_en
  X:8AA2H         SYMBOL        week_mask
  X:8AA4H         SYMBOL        i
  -------         ENDDO         
  C:C94DH         LINE#         1645
  C:C94DH         LINE#         1646
  C:C94DH         LINE#         1648
  C:C954H         LINE#         1651
  C:C965H         LINE#         1652
  C:C978H         LINE#         1653
  C:C978H         LINE#         1654
  C:C992H         LINE#         1655
  C:C998H         LINE#         1656
  C:C9B8H         LINE#         1657
  C:C9C0H         LINE#         1658
  C:C9CBH         LINE#         1659
  C:C9CEH         LINE#         1660
  C:C9F2H         LINE#         1661
  -------         ENDPROC       _TIMER_ISEXTERNALWEEKDAYMATCH
  -------         PROC          TIMER_APPLYINDOORON
  -------         DO            
  X:8AA0H         SYMBOL        i
  X:8AA1H         SYMBOL        power
  X:8AA3H         SYMBOL        mode
  X:8AA5H         SYMBOL        temp
  X:8AA7H         SYMBOL        fan
  -------         DO            
  X:8AA9H         SYMBOL        sel
  -------         ENDDO         
  -------         ENDDO         
  C:A65AH         LINE#         1663
  C:A65AH         LINE#         1664
  C:A65AH         LINE#         1668
  C:A673H         LINE#         1669
  C:A68CH         LINE#         1670
  C:A6A5H         LINE#         1671
  C:A6BBH         LINE#         1672
  C:A6BBH         LINE#         1673
  C:A6C2H         LINE#         1674
  C:A6DDH         LINE#         1675
  C:A6EAH         LINE#         1676
  C:A6EAH         LINE#         1677
  C:A6F2H         LINE#         1678
  C:A710H         LINE#         1679
  C:A72EH         LINE#         1680
  C:A74CH         LINE#         1681
  C:A76AH         LINE#         1682
  C:A774H         LINE#         1683
  C:A77DH         LINE#         1684
  -------         ENDPROC       TIMER_APPLYINDOORON
  -------         PROC          TIMER_APPLYINDOOROFF
  -------         DO            
  X:8AA0H         SYMBOL        i
  X:8AA1H         SYMBOL        power
  -------         DO            
BL51 BANKED LINKER/LOCATER V6.22.2.0                                                  06/30/2026  14:47:53  PAGE 74


  X:8AA3H         SYMBOL        sel
  -------         ENDDO         
  -------         ENDDO         
  C:D856H         LINE#         1687
  C:D856H         LINE#         1688
  C:D856H         LINE#         1690
  C:D85DH         LINE#         1692
  C:D86FH         LINE#         1693
  C:D86FH         LINE#         1694
  C:D876H         LINE#         1695
  C:D891H         LINE#         1696
  C:D89BH         LINE#         1697
  C:D89BH         LINE#         1698
  C:D8B9H         LINE#         1699
  C:D8C3H         LINE#         1700
  C:D8CBH         LINE#         1701
  -------         ENDPROC       TIMER_APPLYINDOOROFF
  -------         PROC          TIMERRUNNING
  -------         DO            
  X:8A99H         SYMBOL        Timer_ReadRtc
  X:8A9BH         SYMBOL        Timer_Power
  X:8A9DH         SYMBOL        rtc_week
  X:8A9EH         SYMBOL        time_key
  X:93E8H         SYMBOL        s_last_ext_on
  X:93EAH         SYMBOL        s_last_ext_off
  X:93ECH         SYMBOL        s_last_in_on
  X:93EEH         SYMBOL        s_last_in_off
  -------         ENDDO         
  C:6794H         LINE#         1704
  C:6794H         LINE#         1705
  C:6794H         LINE#         1715
  C:67ADH         LINE#         1716
  C:67B0H         LINE#         1717
  C:67B8H         LINE#         1718
  C:67CAH         LINE#         1720
  C:67E1H         LINE#         1721
  C:67E1H         LINE#         1722
  C:67FFH         LINE#         1723
  C:67FFH         LINE#         1724
  C:6816H         LINE#         1725
  C:6816H         LINE#         1726
  C:681EH         LINE#         1727
  C:6836H         LINE#         1728
  C:684FH         LINE#         1729
  C:6857H         LINE#         1730
  C:6862H         LINE#         1731
  C:686AH         LINE#         1732
  C:6875H         LINE#         1733
  C:687DH         LINE#         1734
  C:6889H         LINE#         1735
  C:6893H         LINE#         1736
  C:6895H         LINE#         1737
  C:6898H         LINE#         1738
  C:689BH         LINE#         1739
  C:689EH         LINE#         1740
  C:68A1H         LINE#         1741
  C:68B0H         LINE#         1742
BL51 BANKED LINKER/LOCATER V6.22.2.0                                                  06/30/2026  14:47:53  PAGE 75


  C:68B0H         LINE#         1743
  C:68B2H         LINE#         1744
  C:68C6H         LINE#         1745
  C:68CEH         LINE#         1746
  C:68CEH         LINE#         1747
  C:68E5H         LINE#         1748
  C:68E5H         LINE#         1749
  C:68FDH         LINE#         1750
  C:68FDH         LINE#         1751
  C:6911H         LINE#         1752
  C:6911H         LINE#         1753
  C:6918H         LINE#         1754
  C:6930H         LINE#         1755
  C:6932H         LINE#         1756
  C:6935H         LINE#         1757
  C:6938H         LINE#         1758
  C:6947H         LINE#         1759
  C:6947H         LINE#         1760
  C:6949H         LINE#         1761
  C:695DH         LINE#         1762
  C:6965H         LINE#         1763
  C:6965H         LINE#         1764
  C:6976H         LINE#         1765
  C:6976H         LINE#         1766
  C:698EH         LINE#         1767
  C:698EH         LINE#         1768
  C:69A2H         LINE#         1769
  C:69A2H         LINE#         1770
  C:69A5H         LINE#         1771
  C:69A8H         LINE#         1772
  C:69ABH         LINE#         1773
  C:69BAH         LINE#         1774
  C:69BAH         LINE#         1775
  C:69BCH         LINE#         1776
  C:69D0H         LINE#         1777
  C:69D8H         LINE#         1778
  C:69D8H         LINE#         1779
  C:69E9H         LINE#         1780
  C:69E9H         LINE#         1781
  C:6A01H         LINE#         1782
  C:6A01H         LINE#         1783
  C:6A15H         LINE#         1784
  C:6A15H         LINE#         1785
  C:6A18H         LINE#         1786
  C:6A1BH         LINE#         1787
  C:6A1EH         LINE#         1788
  C:6A2DH         LINE#         1789
  C:6A2DH         LINE#         1790
  C:6A2FH         LINE#         1791
  C:6A43H         LINE#         1792
  C:6A4BH         LINE#         1793
  C:6A4BH         LINE#         1794
  -------         ENDPROC       TIMERRUNNING
  -------         PROC          HOMEPAGE_ICON
  -------         DO            
  X:8A99H         SYMBOL        HomePage_Icon_u16temp
  X:93F0H         SYMBOL        s_last_home_mode
BL51 BANKED LINKER/LOCATER V6.22.2.0                                                  06/30/2026  14:47:53  PAGE 76


  X:93F1H         SYMBOL        s_last_wifi_st
  X:8A9BH         SYMBOL        cur_mode
  D:0007H         SYMBOL        wifi_st
  -------         ENDDO         
  C:A2ADH         LINE#         1796
  C:A2ADH         LINE#         1797
  C:A2ADH         LINE#         1804
  C:A2B0H         LINE#         1805
  C:A2C4H         LINE#         1806
  C:A2C6H         LINE#         1807
  C:A2D1H         LINE#         1808
  C:A2D3H         LINE#         1809
  C:A2D8H         LINE#         1810
  C:A2D8H         LINE#         1811
  C:A2D8H         LINE#         1812
  C:A2E0H         LINE#         1813
  C:A2E2H         LINE#         1814
  C:A2E2H         LINE#         1815
  C:A2E9H         LINE#         1816
  C:A2E9H         LINE#         1817
  C:A2E9H         LINE#         1818
  C:A302H         LINE#         1820
  C:A309H         LINE#         1821
  C:A321H         LINE#         1822
  C:A32BH         LINE#         1823
  C:A343H         LINE#         1824
  C:A34DH         LINE#         1825
  C:A365H         LINE#         1826
  C:A36FH         LINE#         1827
  C:A387H         LINE#         1828
  C:A3A0H         LINE#         1830
  C:A3B8H         LINE#         1831
  C:A3C5H         LINE#         1832
  C:A3C5H         LINE#         1833
  C:A3C8H         LINE#         1834
  C:A3D0H         LINE#         1835
  C:A3D0H         LINE#         1837
  -------         ENDPROC       HOMEPAGE_ICON
  -------         PROC          WIFI_RESTING_PRO
  -------         DO            
  X:93F2H         SYMBOL        Wifi_Resting_Pro_Count
  -------         ENDDO         
  C:F338H         LINE#         1840
  C:F338H         LINE#         1841
  C:F338H         LINE#         1844
  C:F33BH         LINE#         1845
  C:F33BH         LINE#         1846
  C:F33DH         LINE#         1848
  C:F33DH         LINE#         1850
  C:F343H         LINE#         1851
  C:F343H         LINE#         1852
  C:F348H         LINE#         1853
  C:F34AH         LINE#         1854
  C:F34CH         LINE#         1856
  C:F34CH         LINE#         1858
  C:F352H         LINE#         1859
  C:F35CH         LINE#         1860
BL51 BANKED LINKER/LOCATER V6.22.2.0                                                  06/30/2026  14:47:53  PAGE 77


  C:F35CH         LINE#         1861
  C:F361H         LINE#         1862
  C:F363H         LINE#         1863
  C:F368H         LINE#         1864
  C:F368H         LINE#         1865
  -------         ENDPROC       WIFI_RESTING_PRO
  -------         PROC          OTARELOAD_DELAYPAGE
  -------         DO            
  X:93F3H         SYMBOL        OTAReloadDelayCount
  -------         ENDDO         
  C:F6ABH         LINE#         1866
  C:F6ABH         LINE#         1867
  C:F6ABH         LINE#         1870
  C:F6AEH         LINE#         1871
  C:F6AEH         LINE#         1872
  C:F6BBH         LINE#         1873
  C:F6BFH         LINE#         1875
  C:F6BFH         LINE#         1876
  C:F6C1H         LINE#         1877
  C:F6C6H         LINE#         1878
  C:F6CBH         LINE#         1879
  C:F6D2H         LINE#         1880
  C:F6D2H         LINE#         1881
  C:F6D2H         LINE#         1882
  -------         ENDPROC       OTARELOAD_DELAYPAGE
  -------         PROC          SCREENSAVER_PRO
  -------         DO            
  X:93F4H         SYMBOL        ScreenSaveType_Old
  X:8A99H         SYMBOL        i
  X:8A9AH         SYMBOL        ScreenSaveType
  X:8A9BH         SYMBOL        ScreenSaver_Pro_SetMode
  X:8A9DH         SYMBOL        ScreenSaver_Pro_Power
  X:8A9FH         SYMBOL        ScreenSaver_Pro_Error
  X:8AA1H         SYMBOL        ScreenSaver_Pro_Temp
  X:8AA3H         SYMBOL        ScreenSaver_Pro_TempA
  -------         ENDDO         
  C:A01AH         LINE#         1883
  C:A01AH         LINE#         1884
  C:A01AH         LINE#         1889
  C:A026H         LINE#         1890
  C:A026H         LINE#         1891
  C:A03EH         LINE#         1892
  C:A03EH         LINE#         1893
  C:A047H         LINE#         1894
  C:A047H         LINE#         1895
  C:A04FH         LINE#         1896
  C:A054H         LINE#         1897
  C:A054H         LINE#         1898
  C:A06DH         LINE#         1899
  C:A085H         LINE#         1900
  C:A09EH         LINE#         1901
  C:A0A8H         LINE#         1902
  C:A0B0H         LINE#         1903
  C:A0BAH         LINE#         1904
  C:A0C0H         LINE#         1906
  C:A0C0H         LINE#         1907
  C:A0D3H         LINE#         1908
BL51 BANKED LINKER/LOCATER V6.22.2.0                                                  06/30/2026  14:47:53  PAGE 78


  C:A0D3H         LINE#         1909
  C:A0D3H         LINE#         1910
  C:A0D9H         LINE#         1911
  C:A0DBH         LINE#         1912
  C:A0DBH         LINE#         1913
  C:A0E1H         LINE#         1914
  C:A0E3H         LINE#         1915
  C:A0E3H         LINE#         1916
  C:A0E3H         LINE#         1917
  C:A0E9H         LINE#         1918
  C:A0E9H         LINE#         1919
  C:A0E9H         LINE#         1920
  C:A0E9H         LINE#         1921
  C:A0F5H         LINE#         1922
  C:A0F5H         LINE#         1923
  C:A108H         LINE#         1924
  C:A108H         LINE#         1925
  C:A10DH         LINE#         1926
  C:A10DH         LINE#         1927
  C:A116H         LINE#         1928
  C:A11AH         LINE#         1930
  C:A12AH         LINE#         1931
  C:A12CH         LINE#         1933
  C:A12CH         LINE#         1934
  C:A143H         LINE#         1935
  C:A149H         LINE#         1937
  C:A15CH         LINE#         1938
  C:A15CH         LINE#         1939
  C:A164H         LINE#         1940
  C:A16CH         LINE#         1941
  C:A16CH         LINE#         1942
  C:A16CH         LINE#         1943
  C:A16CH         LINE#         1944
  -------         ENDPROC       SCREENSAVER_PRO
  -------         ENDMOD        CONTROL

  -------         MODULE        UART
  C:0000H         SYMBOL        _ICE_DUMMY_
  X:8EC5H         PUBLIC        Uart5_Rx
  D:0080H         PUBLIC        P0
  X:8FC5H         PUBLIC        modbus_send_finish
  B:00A8H.7       PUBLIC        EA
  D:00F8H         PUBLIC        RAMMODE
  X:8FC6H         PUBLIC        nUart0Sending
  D:00B7H         PUBLIC        P0MDOUT
  D:00A8H         PUBLIC        IEN0
  B:0080H.0       PUBLIC        RS485_UART4_EN
  D:00B8H         PUBLIC        IEN1
  X:8FC7H         PUBLIC        nUart5Sending
  X:8FC8H         PUBLIC        uart2_busy
  C:D8CEH         PUBLIC        _UART5_SendStr
  X:8FC9H         PUBLIC        wifi_rx_byte_total
  X:8FCDH         PUBLIC        modbus_error
  B:00B8H.5       PUBLIC        ES3R
  X:8FCFH         PUBLIC        modbus_res_finish
  B:00B8H.4       PUBLIC        ES3T
  X:8FD0H         PUBLIC        wifi_rx_drop_count
BL51 BANKED LINKER/LOCATER V6.22.2.0                                                  06/30/2026  14:47:53  PAGE 79


  D:00BAH         PUBLIC        SREL0H
  D:0087H         PUBLIC        PCON
  C:C5E4H         PUBLIC        UART2_ISR_PC
  D:00AAH         PUBLIC        SREL0L
  D:0088H         PUBLIC        TCON
  D:0097H         PUBLIC        SCON2R
  D:00ABH         PUBLIC        SCON3R
  D:00D9H         PUBLIC        BODE2_DIV_H
  D:00AEH         PUBLIC        BODE3_DIV_H
  D:0096H         PUBLIC        SCON2T
  D:00A7H         PUBLIC        SCON3T
  D:00E7H         PUBLIC        BODE2_DIV_L
  D:00AFH         PUBLIC        BODE3_DIV_L
  D:00C9H         PUBLIC        MUX_SEL
  C:AF12H         PUBLIC        UART5_RX_ISR_PC
  C:CEE6H         PUBLIC        UART5_TX_ISR_PC
  X:8FD2H         PUBLIC        nUart0SendIndex
  B:0080H.1       PUBLIC        RS485_TX_EN
  B:00A8H.4       PUBLIC        ES0
  X:8FD4H         PUBLIC        uart2_rx_count
  X:8FD6H         PUBLIC        pUart0SendAddr
  X:8FD9H         PUBLIC        nUart5SendIndex
  B:0098H.0       PUBLIC        RI0
  X:8FDBH         PUBLIC        uart5_rx_count
  B:0098H.1       PUBLIC        TI0
  X:8FDDH         PUBLIC        pUart5SendAddr
  C:FA7EH         PUBLIC        _Uart2SendData
  D:0099H         PUBLIC        SBUF0
  X:8FE0H         PUBLIC        modbus_rx_status
  D:0098H         PUBLIC        SCON0
  C:FA61H         PUBLIC        UART2_Init
  D:00D8H         PUBLIC        ADCON
  D:00C8H         PUBLIC        T2CON
  C:FCEEH         PUBLIC        UART4_Init
  C:FC3DH         PUBLIC        UART5_Init
  D:00ADH         PUBLIC        SBUF3_RX
  D:009EH         PUBLIC        SBUF2_TX
  D:00ACH         PUBLIC        SBUF3_TX
  X:8FE2H         PUBLIC        wifi_send_en
  D:00D0H         PUBLIC        PSW
  X:8FE3H         PUBLIC        Uart2_Rx
  C:F9C5H         PUBLIC        _putchar
  D:00C0H         PUBLIC        IRCON
  -------         PROC          UART2_INIT
  C:FA61H         LINE#         63
  C:FA61H         LINE#         64
  C:FA61H         LINE#         65
  C:FA64H         LINE#         66
  C:FA67H         LINE#         67
  C:FA6AH         LINE#         68
  C:FA6DH         LINE#         69
  C:FA70H         LINE#         70
  C:FA73H         LINE#         72
  C:FA76H         LINE#         73
  C:FA79H         LINE#         75
  C:FA7BH         LINE#         76
  C:FA7DH         LINE#         77
BL51 BANKED LINKER/LOCATER V6.22.2.0                                                  06/30/2026  14:47:53  PAGE 80


  -------         ENDPROC       UART2_INIT
  -------         PROC          _UART2SENDDATA
  D:0007H         SYMBOL        byte
  C:FA7EH         LINE#         80
  C:FA7EH         LINE#         81
  C:FA7EH         LINE#         82
  C:FA84H         LINE#         83
  C:FA86H         LINE#         84
  C:FA88H         LINE#         85
  C:FA8BH         LINE#         86
  C:FA8EH         LINE#         87
  C:FA91H         LINE#         88
  C:FA93H         LINE#         89
  C:FA95H         LINE#         90
  C:FA9AH         LINE#         91
  -------         ENDPROC       _UART2SENDDATA
  -------         PROC          UART2_ISR_PC
  -------         DO            
  D:0003H         SYMBOL        res
  -------         ENDDO         
  C:C5E4H         LINE#         94
  C:C601H         LINE#         97
  C:C603H         LINE#         99
  C:C606H         LINE#         100
  C:C606H         LINE#         101
  C:C608H         LINE#         102
  C:C60AH         LINE#         103
  C:C629H         LINE#         104
  C:C62EH         LINE#         105
  C:C62EH         LINE#         107
  C:C631H         LINE#         108
  C:C631H         LINE#         109
  C:C637H         LINE#         110
  C:C637H         LINE#         111
  C:C639H         LINE#         112
  C:C648H         LINE#         113
  C:C648H         LINE#         114
  C:C658H         LINE#         115
  C:C662H         LINE#         116
  C:C670H         LINE#         117
  C:C676H         LINE#         118
  C:C678H         LINE#         120
  C:C678H         LINE#         121
  C:C67DH         LINE#         122
  C:C67DH         LINE#         123
  C:C67DH         LINE#         124
  C:C67DH         LINE#         125
  C:C67FH         LINE#         126
  -------         ENDPROC       UART2_ISR_PC
  -------         PROC          UART5_INIT
  C:FC3DH         LINE#         136
  C:FC3DH         LINE#         137
  C:FC3DH         LINE#         138
  C:FC40H         LINE#         139
  C:FC43H         LINE#         145
  C:FC46H         LINE#         146
  C:FC49H         LINE#         149
BL51 BANKED LINKER/LOCATER V6.22.2.0                                                  06/30/2026  14:47:53  PAGE 81


  C:FC4BH         LINE#         150
  C:FC4DH         LINE#         152
  C:FC4FH         LINE#         153
  C:FC51H         LINE#         154
  -------         ENDPROC       UART5_INIT
  -------         PROC          _UART5_SENDSTR
  X:8AAEH         SYMBOL        pstr
  D:0004H         SYMBOL        strlen
  C:D8CEH         LINE#         166
  C:D8D9H         LINE#         167
  C:D8D9H         LINE#         168
  C:D8F0H         LINE#         171
  C:D8F7H         LINE#         172
  C:D909H         LINE#         173
  C:D913H         LINE#         175
  C:D915H         LINE#         177
  C:D925H         LINE#         178
  C:D92FH         LINE#         179
  C:D93DH         LINE#         180
  C:D943H         LINE#         181
  C:D945H         LINE#         182
  -------         ENDPROC       _UART5_SENDSTR
  -------         PROC          UART5_TX_ISR_PC
  -------         DO            
  X:8CBEH         SYMBOL        i
  -------         ENDDO         
  C:CEE6H         LINE#         188
  C:CEFBH         LINE#         190
  C:CEFDH         LINE#         191
  C:CF00H         LINE#         193
  C:CF0FH         LINE#         194
  C:CF0FH         LINE#         195
  C:CF1FH         LINE#         196
  C:CF29H         LINE#         197
  C:CF37H         LINE#         198
  C:CF39H         LINE#         200
  C:CF39H         LINE#         203
  C:CF3EH         LINE#         204
  C:CF40H         LINE#         205
  C:CF60H         LINE#         206
  C:CF62H         LINE#         207
  C:CF62H         LINE#         208
  C:CF64H         LINE#         209
  -------         ENDPROC       UART5_TX_ISR_PC
  -------         PROC          UART5_RX_ISR_PC
  -------         DO            
  D:0005H         SYMBOL        res
  D:0006H         SYMBOL        modbus_len
  -------         ENDDO         
  C:AF12H         LINE#         215
  C:AF2DH         LINE#         218
  C:AF30H         LINE#         220
  C:AF32H         LINE#         222
  C:AF3DH         LINE#         223
  C:AF3DH         LINE#         224
  C:AF3FH         LINE#         225
  C:AF42H         LINE#         227
BL51 BANKED LINKER/LOCATER V6.22.2.0                                                  06/30/2026  14:47:53  PAGE 82


  C:AF4BH         LINE#         228
  C:AF4FH         LINE#         230
  C:AF61H         LINE#         233
  C:AF61H         LINE#         234
  C:AF79H         LINE#         236
  C:AF88H         LINE#         237
  C:AF88H         LINE#         238
  C:AF90H         LINE#         239
  C:AF99H         LINE#         240
  C:AFA5H         LINE#         241
  C:AFAFH         LINE#         242
  C:AFBAH         LINE#         243
  C:AFBCH         LINE#         245
  C:AFC0H         LINE#         247
  C:AFC9H         LINE#         248
  C:AFCDH         LINE#         249
  C:AFD6H         LINE#         250
  C:AFDCH         LINE#         251
  C:AFE9H         LINE#         252
  C:AFE9H         LINE#         253
  C:AFEFH         LINE#         254
  C:AFF6H         LINE#         255
  C:AFFCH         LINE#         256
  C:B002H         LINE#         257
  C:B002H         LINE#         258
  C:B002H         LINE#         259
  C:B002H         LINE#         260
  C:B002H         LINE#         261
  C:B004H         LINE#         262
  -------         ENDPROC       UART5_RX_ISR_PC
  -------         PROC          UART4_INIT
  C:FCEEH         LINE#         268
  C:FCEEH         LINE#         269
  C:FCEEH         LINE#         270
  C:FCF1H         LINE#         271
  C:FCF4H         LINE#         275
  C:FCF7H         LINE#         276
  C:FCFAH         LINE#         279
  C:FCFDH         LINE#         280
  C:FCFFH         LINE#         281
  -------         ENDPROC       UART4_INIT
  -------         PROC          _PUTCHAR
  D:0007H         SYMBOL        c
  -------         DO            
  D:0004H         SYMBOL        i
  -------         ENDDO         
  C:F9C5H         LINE#         288
  C:F9C5H         LINE#         289
  C:F9C5H         LINE#         291
  C:F9C7H         LINE#         293
  C:F9C9H         LINE#         294
  C:F9CEH         LINE#         295
  C:F9D1H         LINE#         299
  C:F9DFH         LINE#         301
  C:F9E1H         LINE#         303
  C:F9E4H         LINE#         304
  C:F9E4H         LINE#         305
BL51 BANKED LINKER/LOCATER V6.22.2.0                                                  06/30/2026  14:47:53  PAGE 83


  -------         ENDPROC       _PUTCHAR
  -------         ENDMOD        UART

  -------         MODULE        MODBUS
  C:0000H         SYMBOL        _ICE_DUMMY_
  C:C09DH         SYMBOL        _Modbus_WriteFloatTempPair
  C:7D39H         SYMBOL        _Modbus_FillIndoorUnitRegs
  D:0080H         PUBLIC        P0
  C:E2B3H         SYMBOL        _Modbus_SaveIndoorSentRegs
  C:D5E8H         SYMBOL        _Modbus_IndoorRegsChanged
  X:8005H         PUBLIC        FirstQueryMember
  D:00B0H         PUBLIC        P3
  C:FC11H         PUBLIC        _Modbus_TriggerDefrostParamWrite
  D:00F8H         PUBLIC        RAMMODE
  X:8011H         PUBLIC        En_change_Controller
  X:8013H         SYMBOL        s_defrost_param_vp
  D:00A8H         PUBLIC        IEN0
  B:0020H.0       PUBLIC        Modbus_Write_DefrostParam
  B:0020H.1       PUBLIC        Modbus_Read_Check
  D:00B8H         PUBLIC        IEN1
  X:8015H         PUBLIC        Read_Or_Write
  B:0020H.2       PUBLIC        First_Write600
  X:8016H         SYMBOL        s_indoor_sent_regs
  X:8076H         SYMBOL        s_group_sent_valid
  C:F0E4H         SYMBOL        Modbus_StartNextTimerWrite
  X:8077H         SYMBOL        s_group_regs
  B:0020H.3       PUBLIC        Modbus_Write_Defrost
  C:D465H         SYMBOL        _Modbus_AppendModeSetTempReg
  B:0020H.4       SYMBOL        Modbus_Write_5_Pending
  B:0020H.5       SYMBOL        Modbus_Write_6_Pending
  C:EFB3H         SYMBOL        _Modbus_DecodeIndoorFan
  C:C52BH         PUBLIC        _CalculateModbusCrc
  C:EC89H         PUBLIC        Modbus_StartManualDefrost
  X:80A7H         PUBLIC        Modbus_Dbg_LastTxAddr
  B:0020H.6       PUBLIC        Modbus_Read_Check_2
  B:0020H.7       PUBLIC        Modbus_Read_Check_3
  C:2D59H         PUBLIC        Modbus_Salve_Handler1
  C:EA80H         SYMBOL        _Modbus_SaveGroupSentRegs
  C:E182H         SYMBOL        _Modbus_GroupRegsChanged
  B:0021H.0       PUBLIC        Modbus_Read_Check_4
  C:F4B2H         SYMBOL        _Modbus_DecodeIndoorModeBits
  B:0021H.1       PUBLIC        Modbus_Read_Check_5
  C:1A9DH         PUBLIC        Modbus_Analysis_Data1
  C:F485H         SYMBOL        _Modbus_EncodeIndoorFan
  X:80A9H         SYMBOL        s_user_hold_mode
  C:C755H         SYMBOL        _Modbus_PackCheckStatusBlock
  C:F832H         PUBLIC        _Modbus_GetUserPowerMode
  C:BD54H         SYMBOL        _Modbus_SyncHomeIndoorModeFromUnit
  X:80ABH         PUBLIC        Modbus_Buffer
  C:FA9BH         PUBLIC        Modbus_TriggerGroupControlWrite
  X:81D7H         SYMBOL        s_user_power_hold
  C:EB6BH         PUBLIC        _GetModbusReg
  X:81D9H         SYMBOL        Modbus_Timer_Unit_Index
  X:81DAH         PUBLIC        xuantest1
  X:81DCH         PUBLIC        xuantest2
  X:81DEH         SYMBOL        s_group_sent_regs
  D:0088H         PUBLIC        TCON
BL51 BANKED LINKER/LOCATER V6.22.2.0                                                  06/30/2026  14:47:53  PAGE 84


  B:0021H.2       SYMBOL        Modbus_Write_DefrostParam_Pending
  C:FE5AH         SYMBOL        Modbus_YieldWiFi
  B:0021H.3       PUBLIC        Modbus_Read_Error
  B:0021H.4       PUBLIC        Modbus_Read_LowerLimit
  B:0021H.5       PUBLIC        Modbus_Read_UpperLimit
  D:00C9H         PUBLIC        MUX_SEL
  B:0021H.6       PUBLIC        Modbus_Write_Timer
  C:C523H         SYMBOL        _?ix1000
  B:0021H.7       PUBLIC        Modbus_Read_Check_4_old
  X:820EH         SYMBOL        Modbus_Dbg_LastTxUnit
  B:0022H.0       PUBLIC        Modbus_Write_Ueser
  X:820FH         PUBLIC        Analysis_OK
  X:8210H         SYMBOL        s_timer_q
  X:8216H         SYMBOL        s_defrost_verify
  C:E855H         PUBLIC        _Modbus_TriggerIndoorUnitWrite
  X:8217H         PUBLIC        Modbus_Dbg_FuncCode
  C:DA32H         SYMBOL        Modbus_AdvancePollOnTimeout
  C:F857H         SYMBOL        _Modbus_ReportFaultCode
  C:D668H         SYMBOL        _Modbus_DbgLogRx
  X:8218H         PUBLIC        Indoor_Unit_Index
  C:D12AH         SYMBOL        _Modbus_DbgLogTx
  B:0022H.1       PUBLIC        Modbus_Read_User
  C:EF37H         SYMBOL        _Modbus_EncodeIndoorRunMode
  C:FC02H         SYMBOL        _Modbus_PackCheckStatusByte
  X:8219H         PUBLIC        send_type
  X:821AH         PUBLIC        Modbus_DefrostRetryLeft
  C:9923H         PUBLIC        Modbus_RefreshCheckParamDisplay
  C:FB28H         SYMBOL        _Modbus_UnscaleIndoorSetTemp
  C:FAB8H         SYMBOL        _Modbus_RxU16
  C:F2A8H         SYMBOL        _Modbus_TxU16
  C:BBA8H         PUBLIC        Modbus_TriggerUserWrite
  C:F772H         SYMBOL        _Modbus_QueueIndoorTimerWrite
  X:821BH         SYMBOL        s_user_hold_pwr
  C:FC52H         PUBLIC        Modbus_UserHoldActive
  C:EBF7H         PUBLIC        _Modbus_GetCheckStatus
  B:0022H.2       PUBLIC        Modbus_Read_Set
  X:821DH         SYMBOL        s_check_status
  X:8268H         PUBLIC        IsCheckParameterTemperature
  C:FDD3H         SYMBOL        _Modbus_RxRelReg
  C:ABEBH         SYMBOL        _Modbus_FillGroupControlRegs
  C:FEAAH         PUBLIC        Modbus_Init
  D:0098H         PUBLIC        SCON0
  X:8281H         PUBLIC        SetParameterLowerLimit
  C:EB25H         SYMBOL        _Modbus_AppendU16
  D:00C8H         PUBLIC        T2CON
  X:8341H         PUBLIC        SetParameterUpperLimit
  X:8401H         SYMBOL        s_timer_q_len
  C:E6B5H         SYMBOL        _Modbus_IsFaultActive
  X:8402H         SYMBOL        Modbus_Dbg_LastTxRw
  B:0022H.3       SYMBOL        Modbus_Write_Timer_Pending
  X:8403H         SYMBOL        s_defrost_want
  B:0022H.4       PUBLIC        Modbus_Write_6_All
  B:0022H.5       SYMBOL        Modbus_Write_Ueser_Pending
  X:8404H         PUBLIC        Modbus_Dbg_SendType
  X:8405H         PUBLIC        IsCheckParameterTemperature_2
  C:7F41H         PUBLIC        _Modbus_ApplyIndoorTimerVpToUnits
  C:FB0FH         SYMBOL        _Modbus_ScaleIndoorSetTemp
BL51 BANKED LINKER/LOCATER V6.22.2.0                                                  06/30/2026  14:47:53  PAGE 85


  B:0022H.6       PUBLIC        Modbus_Write_5
  B:0022H.7       PUBLIC        Modbus_Write_6
  X:8432H         SYMBOL        s_indoor_sent_valid
  X:8438H         SYMBOL        s_indoor_regs
  C:FE3CH         PUBLIC        Modbus_ClearManualDefrost
  D:00D0H         PUBLIC        PSW
  B:0023H.0       PUBLIC        Modbus_Read_Initial
  D:00C0H         PUBLIC        IRCON
  X:8474H         SYMBOL        s_timer_q_pos
  -------         PROC          MODBUS_YIELDWIFI
  C:FE5AH         LINE#         68
  C:FE5AH         LINE#         69
  C:FE5AH         LINE#         70
  C:FE5DH         LINE#         71
  C:FE60H         LINE#         72
  -------         ENDPROC       MODBUS_YIELDWIFI
  -------         PROC          _CALCULATEMODBUSCRC
  X:8AE9H         SYMBOL        pBuf
  X:8AECH         SYMBOL        nLen
  -------         DO            
  X:8AEEH         SYMBOL        i
  D:0005H         SYMBOL        j
  X:8AF0H         SYMBOL        nData
  D:0002H         SYMBOL        nFlag
  -------         ENDDO         
  C:C52BH         LINE#         119
  C:C53CH         LINE#         120
  C:C53CH         LINE#         126
  C:C544H         LINE#         127
  C:C560H         LINE#         128
  C:C560H         LINE#         129
  C:C583H         LINE#         130
  C:C58FH         LINE#         131
  C:C58FH         LINE#         132
  C:C596H         LINE#         133
  C:C5A9H         LINE#         134
  C:C5B3H         LINE#         136
  C:C5B8H         LINE#         137
  C:C5B8H         LINE#         138
  C:C5C4H         LINE#         139
  C:C5C4H         LINE#         140
  C:C5C7H         LINE#         141
  C:C5DBH         LINE#         143
  C:C5E3H         LINE#         144
  -------         ENDPROC       _CALCULATEMODBUSCRC
  -------         PROC          MODBUS_INIT
  C:FEAAH         LINE#         156
  C:FEAAH         LINE#         157
  C:FEAAH         LINE#         158
  -------         ENDPROC       MODBUS_INIT
  C:EB18H         SYMBOL        L?0466
  -------         PROC          L?0465
  -------         ENDPROC       L?0465
  C:EB18H         SYMBOL        L?0466
  -------         PROC          _MODBUS_APPENDU16
  D:0001H         SYMBOL        pLen
  X:8AB3H         SYMBOL        val
BL51 BANKED LINKER/LOCATER V6.22.2.0                                                  06/30/2026  14:47:53  PAGE 86


  C:EB25H         LINE#         161
  C:EB2DH         LINE#         162
  C:EB2DH         LINE#         163
  C:EB47H         LINE#         164
  C:EB62H         LINE#         165
  -------         ENDPROC       _MODBUS_APPENDU16
  -------         PROC          L?0470
  -------         ENDPROC       L?0470
  -------         PROC          _MODBUS_APPENDMODESETTEMPREG
  X:8AAEH         SYMBOL        pLen
  D:0005H         SYMBOL        mode
  -------         DO            
  X:8AB1H         SYMBOL        temp
  -------         ENDDO         
  C:D465H         LINE#         167
  C:D470H         LINE#         168
  C:D470H         LINE#         169
  C:D475H         LINE#         171
  C:D48CH         LINE#         172
  C:D4C1H         LINE#         173
  -------         ENDPROC       _MODBUS_APPENDMODESETTEMPREG
  -------         PROC          _MODBUS_ENCODEINDOORRUNMODE
  D:0006H         SYMBOL        power
  D:0004H         SYMBOL        dgus_mode
  -------         DO            
  D:0002H         SYMBOL        modbus_mode
  -------         ENDDO         
  C:EF37H         LINE#         176
  C:EF37H         LINE#         177
  C:EF37H         LINE#         179
  C:EF3BH         LINE#         180
  C:EF3EH         LINE#         181
  C:EF52H         LINE#         182
  C:EF52H         LINE#         183
  C:EF58H         LINE#         184
  C:EF5EH         LINE#         185
  C:EF64H         LINE#         186
  C:EF6AH         LINE#         187
  C:EF6AH         LINE#         188
  C:EF6EH         LINE#         189
  C:EF6EH         LINE#         190
  C:EF74H         LINE#         191
  -------         ENDPROC       _MODBUS_ENCODEINDOORRUNMODE
  -------         PROC          _MODBUS_ENCODEINDOORFAN
  D:0006H         SYMBOL        dgus_fan
  C:F485H         LINE#         193
  C:F485H         LINE#         194
  C:F485H         LINE#         195
  C:F497H         LINE#         196
  C:F497H         LINE#         197
  C:F499H         LINE#         198
  C:F49EH         LINE#         199
  C:F4A3H         LINE#         200
  C:F4A8H         LINE#         201
  C:F4ADH         LINE#         202
  C:F4B1H         LINE#         203
  C:F4B1H         LINE#         204
BL51 BANKED LINKER/LOCATER V6.22.2.0                                                  06/30/2026  14:47:53  PAGE 87


  -------         ENDPROC       _MODBUS_ENCODEINDOORFAN
  -------         PROC          _MODBUS_DECODEINDOORMODEBITS
  D:0006H         SYMBOL        reg
  C:F4B2H         LINE#         206
  C:F4B2H         LINE#         207
  C:F4B2H         LINE#         208
  C:F4C5H         LINE#         209
  C:F4C5H         LINE#         210
  C:F4C7H         LINE#         211
  C:F4CCH         LINE#         212
  C:F4D1H         LINE#         213
  C:F4D6H         LINE#         214
  C:F4DBH         LINE#         215
  C:F4DEH         LINE#         216
  C:F4DEH         LINE#         217
  -------         ENDPROC       _MODBUS_DECODEINDOORMODEBITS
  -------         PROC          _MODBUS_DECODEINDOORFAN
  D:0006H         SYMBOL        reg
  C:EFB3H         LINE#         219
  C:EFB3H         LINE#         220
  C:EFB3H         LINE#         221
  C:EFB9H         LINE#         222
  C:EFBCH         LINE#         223
  C:EFC0H         LINE#         224
  C:EFC3H         LINE#         225
  C:EFCCH         LINE#         226
  C:EFD1H         LINE#         227
  C:EFDAH         LINE#         228
  C:EFDFH         LINE#         229
  C:EFEAH         LINE#         230
  C:EFEDH         LINE#         231
  C:EFEFH         LINE#         232
  -------         ENDPROC       _MODBUS_DECODEINDOORFAN
  -------         PROC          _MODBUS_SCALEINDOORSETTEMP
  D:0007H         SYMBOL        index
  D:0002H         SYMBOL        temp_c
  C:FB0FH         LINE#         234
  C:FB13H         LINE#         235
  C:FB13H         LINE#         236
  C:FB16H         LINE#         237
  C:FB20H         LINE#         238
  C:FB27H         LINE#         239
  -------         ENDPROC       _MODBUS_SCALEINDOORSETTEMP
  -------         PROC          _MODBUS_UNSCALEINDOORSETTEMP
  D:0007H         SYMBOL        index
  D:0002H         SYMBOL        raw
  C:FB28H         LINE#         241
  C:FB2CH         LINE#         242
  C:FB2CH         LINE#         243
  C:FB2FH         LINE#         244
  C:FB39H         LINE#         245
  C:FB40H         LINE#         246
  -------         ENDPROC       _MODBUS_UNSCALEINDOORSETTEMP
  -------         PROC          _MODBUS_SYNCHOMEINDOORMODEFROMUNIT
  X:8AE9H         SYMBOL        uidx
  X:8AEAH         SYMBOL        dgus_mode
  -------         DO            
BL51 BANKED LINKER/LOCATER V6.22.2.0                                                  06/30/2026  14:47:53  PAGE 88


  X:8AECH         SYMBOL        i
  X:8AEDH         SYMBOL        first_on
  X:8AEEH         SYMBOL        power
  -------         ENDDO         
  C:BD54H         LINE#         248
  C:BD5FH         LINE#         249
  C:BD5FH         LINE#         251
  C:BD65H         LINE#         254
  C:BD74H         LINE#         255
  C:BD78H         LINE#         256
  C:BD9BH         LINE#         257
  C:BDAEH         LINE#         258
  C:BDAEH         LINE#         259
  C:BDC9H         LINE#         260
  C:BDD5H         LINE#         261
  C:BDD5H         LINE#         262
  C:BDDBH         LINE#         263
  C:BDDDH         LINE#         264
  C:BDDDH         LINE#         265
  C:BDE5H         LINE#         266
  C:BDF4H         LINE#         267
  C:BDF4H         LINE#         268
  C:BE0CH         LINE#         269
  C:BE25H         LINE#         270
  C:BE25H         LINE#         271
  -------         ENDPROC       _MODBUS_SYNCHOMEINDOORMODEFROMUNIT
  -------         PROC          L?0473
  -------         ENDPROC       L?0473
  -------         PROC          _MODBUS_FILLINDOORUNITREGS
  X:8B35H         SYMBOL        index
  X:8B36H         SYMBOL        regs
  -------         DO            
  D:0007H         SYMBOL        i
  X:8B39H         SYMBOL        power
  X:8B3BH         SYMBOL        mode
  X:8B3DH         SYMBOL        temp
  X:8B3FH         SYMBOL        fan
  X:8B41H         SYMBOL        vp_base
  -------         ENDDO         
  C:7D39H         LINE#         282
  C:7D47H         LINE#         283
  C:7D47H         LINE#         288
  C:7D65H         LINE#         289
  C:7D83H         LINE#         290
  C:7DA1H         LINE#         291
  C:7DBFH         LINE#         293
  C:7DE1H         LINE#         294
  C:7E00H         LINE#         295
  C:7E24H         LINE#         297
  C:7E46H         LINE#         298
  C:7E5AH         LINE#         299
  C:7E7AH         LINE#         300
  C:7EAEH         LINE#         301
  C:7EE2H         LINE#         302
  C:7F16H         LINE#         304
  C:7F22H         LINE#         305
  C:7F40H         LINE#         306
BL51 BANKED LINKER/LOCATER V6.22.2.0                                                  06/30/2026  14:47:53  PAGE 89


  -------         ENDPROC       _MODBUS_FILLINDOORUNITREGS
  -------         PROC          _MODBUS_INDOORREGSCHANGED
  X:8B35H         SYMBOL        idx
  X:8B36H         SYMBOL        regs
  -------         DO            
  X:8B39H         SYMBOL        i
  -------         ENDDO         
  C:D5E8H         LINE#         308
  C:D5F6H         LINE#         309
  C:D5F6H         LINE#         312
  C:D606H         LINE#         313
  C:D609H         LINE#         314
  C:D61BH         LINE#         315
  C:D61BH         LINE#         316
  C:D65AH         LINE#         317
  C:D65DH         LINE#         318
  C:D665H         LINE#         319
  C:D667H         LINE#         320
  -------         ENDPROC       _MODBUS_INDOORREGSCHANGED
  -------         PROC          _MODBUS_SAVEINDOORSENTREGS
  X:8AE9H         SYMBOL        idx
  X:8AEAH         SYMBOL        regs
  -------         DO            
  D:0007H         SYMBOL        i
  -------         ENDDO         
  C:E2B3H         LINE#         322
  C:E2C1H         LINE#         323
  C:E2C1H         LINE#         326
  C:E2CDH         LINE#         327
  C:E307H         LINE#         328
  C:E317H         LINE#         329
  -------         ENDPROC       _MODBUS_SAVEINDOORSENTREGS
  -------         PROC          L?0472
  -------         ENDPROC       L?0472
  -------         PROC          _MODBUS_FILLGROUPCONTROLREGS
  X:8AAEH         SYMBOL        regs
  -------         DO            
  D:0007H         SYMBOL        i
  X:8AB1H         SYMBOL        val
  -------         ENDDO         
  C:ABEBH         LINE#         338
  C:ABF6H         LINE#         339
  C:ABF6H         LINE#         343
  C:AC02H         LINE#         344
  C:AC21H         LINE#         346
  C:AC3AH         LINE#         347
  C:AC5DH         LINE#         349
  C:AC76H         LINE#         350
  C:AC92H         LINE#         352
  C:ACABH         LINE#         353
  C:ACCAH         LINE#         355
  C:ACD6H         LINE#         356
  C:ACF4H         LINE#         357
  -------         ENDPROC       _MODBUS_FILLGROUPCONTROLREGS
  -------         PROC          _MODBUS_GROUPREGSCHANGED
  X:8AAAH         SYMBOL        regs
  -------         DO            
BL51 BANKED LINKER/LOCATER V6.22.2.0                                                  06/30/2026  14:47:53  PAGE 90


  X:8AADH         SYMBOL        i
  -------         ENDDO         
  C:E182H         LINE#         359
  C:E18DH         LINE#         360
  C:E18DH         LINE#         363
  C:E193H         LINE#         364
  C:E196H         LINE#         365
  C:E1A9H         LINE#         366
  C:E1A9H         LINE#         367
  C:E1DAH         LINE#         368
  C:E1DDH         LINE#         369
  C:E1E5H         LINE#         370
  C:E1E7H         LINE#         371
  -------         ENDPROC       _MODBUS_GROUPREGSCHANGED
  -------         PROC          _MODBUS_SAVEGROUPSENTREGS
  X:8AE9H         SYMBOL        regs
  -------         DO            
  D:0007H         SYMBOL        i
  -------         ENDDO         
  C:EA80H         LINE#         373
  C:EA8BH         LINE#         374
  C:EA8BH         LINE#         377
  C:EA97H         LINE#         378
  C:EAC5H         LINE#         379
  C:EACBH         LINE#         380
  -------         ENDPROC       _MODBUS_SAVEGROUPSENTREGS
  -------         PROC          MODBUS_TRIGGERGROUPCONTROLWRITE
  C:FA9BH         LINE#         382
  C:FA9BH         LINE#         383
  C:FA9BH         LINE#         384
  C:FA9EH         LINE#         385
  C:FAAAH         LINE#         386
  C:FAAAH         LINE#         387
  C:FAACH         LINE#         388
  C:FAAEH         LINE#         389
  C:FAB7H         LINE#         390
  C:FAB7H         LINE#         391
  -------         ENDPROC       MODBUS_TRIGGERGROUPCONTROLWRITE
  -------         PROC          _MODBUS_REPORTFAULTCODE
  X:8AAEH         SYMBOL        fault_code
  C:F857H         LINE#         393
  C:F85FH         LINE#         394
  C:F85FH         LINE#         395
  C:F878H         LINE#         396
  -------         ENDPROC       _MODBUS_REPORTFAULTCODE
  -------         PROC          _MODBUS_ISFAULTACTIVE
  D:0004H         SYMBOL        err_code
  D:0001H         SYMBOL        err_words
  -------         DO            
  X:959AH         SYMBOL        wi
  D:0007H         SYMBOL        bi
  -------         ENDDO         
  C:E6B5H         LINE#         399
  C:E6B9H         LINE#         400
  C:E6B9H         LINE#         403
  C:E6BDH         LINE#         404
  C:E6BFH         LINE#         405
BL51 BANKED LINKER/LOCATER V6.22.2.0                                                  06/30/2026  14:47:53  PAGE 91


  C:E6D4H         LINE#         406
  C:E6DCH         LINE#         407
  C:E6E7H         LINE#         408
  C:E6EAH         LINE#         409
  C:E708H         LINE#         410
  -------         ENDPROC       _MODBUS_ISFAULTACTIVE
  -------         PROC          L?0471
  -------         ENDPROC       L?0471
  -------         PROC          _MODBUS_PACKCHECKSTATUSBYTE
  D:0002H         SYMBOL        val
  D:0005H         SYMBOL        is_temp
  -------         DO            
  D:0006H         SYMBOL        temp
  -------         ENDDO         
  C:FC02H         LINE#         412
  C:FC04H         LINE#         413
  C:FC04H         LINE#         416
  C:FC07H         LINE#         417
  C:FC07H         LINE#         418
  C:FC0EH         LINE#         419
  C:FC0EH         LINE#         420
  C:FC0EH         LINE#         421
  C:FC10H         LINE#         422
  -------         ENDPROC       _MODBUS_PACKCHECKSTATUSBYTE
  -------         PROC          L?0475
  -------         ENDPROC       L?0475
  -------         PROC          _MODBUS_PACKCHECKSTATUSBLOCK
  X:8AE9H         SYMBOL        rx
  X:8AECH         SYMBOL        count
  X:8AEDH         SYMBOL        is_temp_arr
  X:8AF0H         SYMBOL        dst_off
  -------         DO            
  X:8AF1H         SYMBOL        i
  X:8AF2H         SYMBOL        u8tou16
  -------         ENDDO         
  C:C755H         LINE#         424
  C:C763H         LINE#         425
  C:C763H         LINE#         429
  C:C779H         LINE#         430
  C:C779H         LINE#         431
  C:C799H         LINE#         432
  C:C7B9H         LINE#         433
  C:C7F1H         LINE#         434
  C:C7FAH         LINE#         435
  -------         ENDPROC       _MODBUS_PACKCHECKSTATUSBLOCK
  C:C097H         SYMBOL        L?0469
  -------         PROC          L?0468
  -------         ENDPROC       L?0468
  C:C097H         SYMBOL        L?0469
  -------         PROC          _MODBUS_WRITEFLOATTEMPPAIR
  X:8AE9H         SYMBOL        vp_c
  X:8AEDH         SYMBOL        vp_f
  X:8AF1H         SYMBOL        temp_c
  -------         DO            
  X:8AF5H         SYMBOL        old_c
  X:8AF9H         SYMBOL        temp_f
  -------         ENDDO         
BL51 BANKED LINKER/LOCATER V6.22.2.0                                                  06/30/2026  14:47:53  PAGE 92


  C:C09DH         LINE#         437
  C:C0A3H         LINE#         438
  C:C0A3H         LINE#         442
  C:C0C3H         LINE#         443
  C:C0F5H         LINE#         444
  C:C0F8H         LINE#         445
  C:C11CH         LINE#         446
  C:C13CH         LINE#         447
  C:C15CH         LINE#         448
  C:C15EH         LINE#         449
  -------         ENDPROC       _MODBUS_WRITEFLOATTEMPPAIR
  -------         PROC          _MODBUS_GETCHECKSTATUS
  X:9595H         SYMBOL        buf
  D:0005H         SYMBOL        len
  -------         DO            
  D:0006H         SYMBOL        i
  D:0007H         SYMBOL        n
  -------         ENDDO         
  C:EBF7H         LINE#         451
  C:EC02H         LINE#         452
  C:EC02H         LINE#         455
  C:EC05H         LINE#         457
  C:EC15H         LINE#         458
  C:EC1CH         LINE#         459
  C:EC3FH         LINE#         460
  -------         ENDPROC       _MODBUS_GETCHECKSTATUS
  -------         PROC          MODBUS_STARTMANUALDEFROST
  -------         DO            
  X:8B18H         SYMBOL        one
  -------         ENDDO         
  C:EC89H         LINE#         462
  C:EC89H         LINE#         463
  C:EC89H         LINE#         464
  C:EC91H         LINE#         466
  C:EC95H         LINE#         467
  C:EC9AH         LINE#         468
  C:ECA0H         LINE#         469
  C:ECA8H         LINE#         470
  C:ECC0H         LINE#         471
  C:ECC2H         LINE#         472
  C:ECC4H         LINE#         473
  C:ECC6H         LINE#         474
  C:ECCFH         LINE#         475
  -------         ENDPROC       MODBUS_STARTMANUALDEFROST
  -------         PROC          MODBUS_CLEARMANUALDEFROST
  C:FE3CH         LINE#         477
  C:FE3CH         LINE#         478
  C:FE3CH         LINE#         479
  C:FE41H         LINE#         480
  C:FE45H         LINE#         481
  -------         ENDPROC       MODBUS_CLEARMANUALDEFROST
  -------         PROC          MODBUS_STARTNEXTTIMERWRITE
  C:F0E4H         LINE#         483
  C:F0E4H         LINE#         484
  C:F0E4H         LINE#         485
  C:F0F1H         LINE#         486
  C:F0F1H         LINE#         487
BL51 BANKED LINKER/LOCATER V6.22.2.0                                                  06/30/2026  14:47:53  PAGE 93


  C:F0F6H         LINE#         488
  C:F0FBH         LINE#         490
  C:F0FBH         LINE#         491
  C:F111H         LINE#         492
  C:F113H         LINE#         493
  C:F115H         LINE#         494
  C:F11EH         LINE#         495
  -------         ENDPROC       MODBUS_STARTNEXTTIMERWRITE
  -------         PROC          _MODBUS_QUEUEINDOORTIMERWRITE
  D:0007H         SYMBOL        index
  C:F772H         LINE#         497
  C:F772H         LINE#         498
  C:F772H         LINE#         499
  C:F77FH         LINE#         500
  C:F78FH         LINE#         501
  C:F795H         LINE#         502
  C:F798H         LINE#         503
  -------         ENDPROC       _MODBUS_QUEUEINDOORTIMERWRITE
  -------         PROC          _MODBUS_APPLYINDOORTIMERVPTOUNITS
  X:8B34H         SYMBOL        update_on
  X:8B35H         SYMBOL        update_off
  -------         DO            
  X:8B36H         SYMBOL        i
  X:8B37H         SYMBOL        sel_count
  X:8B38H         SYMBOL        on_en
  X:8B3AH         SYMBOL        off_en
  X:8B3CH         SYMBOL        hour
  X:8B3EH         SYMBOL        minute
  X:8B40H         SYMBOL        on_time
  X:8B42H         SYMBOL        off_time
  X:8B44H         SYMBOL        sel
  X:8B46H         SYMBOL        vp_base
  -------         ENDDO         
  C:7F41H         LINE#         505
  C:7F4BH         LINE#         506
  C:7F4BH         LINE#         507
  C:7F50H         LINE#         511
  C:7F54H         LINE#         512
  C:7F58H         LINE#         514
  C:7F5BH         LINE#         515
  C:7F5BH         LINE#         516
  C:7F74H         LINE#         517
  C:7F8DH         LINE#         518
  C:7FA6H         LINE#         519
  C:7FB7H         LINE#         520
  C:7FB7H         LINE#         521
  C:7FBDH         LINE#         522
  C:7FBDH         LINE#         523
  C:7FD6H         LINE#         524
  C:7FEFH         LINE#         525
  C:8008H         LINE#         526
  C:801BH         LINE#         527
  C:801BH         LINE#         529
  C:8031H         LINE#         530
  C:8031H         LINE#         531
  C:804CH         LINE#         532
  C:8059H         LINE#         533
BL51 BANKED LINKER/LOCATER V6.22.2.0                                                  06/30/2026  14:47:53  PAGE 94


  C:8059H         LINE#         534
  C:805FH         LINE#         535
  C:8081H         LINE#         536
  C:8087H         LINE#         537
  C:8087H         LINE#         538
  C:80A6H         LINE#         539
  C:80D0H         LINE#         540
  C:80D0H         LINE#         541
  C:80D6H         LINE#         542
  C:80D6H         LINE#         543
  C:8100H         LINE#         544
  C:812AH         LINE#         545
  C:812AH         LINE#         546
  C:8132H         LINE#         547
  C:813BH         LINE#         548
  -------         ENDPROC       _MODBUS_APPLYINDOORTIMERVPTOUNITS
  -------         PROC          _MODBUS_TRIGGERINDOORUNITWRITE
  X:8B33H         SYMBOL        index
  X:8B34H         SYMBOL        write_all
  C:E855H         LINE#         550
  C:E85FH         LINE#         551
  C:E85FH         LINE#         552
  C:E868H         LINE#         553
  C:E868H         LINE#         554
  C:E86DH         LINE#         555
  C:E884H         LINE#         556
  C:E884H         LINE#         557
  C:E88CH         LINE#         558
  C:E898H         LINE#         559
  C:E89AH         LINE#         560
  C:E89CH         LINE#         561
  C:E8A5H         LINE#         562
  C:E8A5H         LINE#         563
  C:E8A5H         LINE#         564
  -------         ENDPROC       _MODBUS_TRIGGERINDOORUNITWRITE
  -------         PROC          _MODBUS_TRIGGERDEFROSTPARAMWRITE
  D:0006H         SYMBOL        vp
  C:FC11H         LINE#         566
  C:FC11H         LINE#         567
  C:FC11H         LINE#         568
  C:FC19H         LINE#         569
  C:FC1BH         LINE#         570
  C:FC1DH         LINE#         571
  C:FC26H         LINE#         572
  -------         ENDPROC       _MODBUS_TRIGGERDEFROSTPARAMWRITE
  -------         PROC          MODBUS_TRIGGERUSERWRITE
  -------         DO            
  X:8B1AH         SYMBOL        pwr
  X:8B1CH         SYMBOL        mode
  -------         ENDDO         
  C:BBA8H         LINE#         574
  C:BBA8H         LINE#         575
  C:BBA8H         LINE#         578
  C:BBC1H         LINE#         579
  C:BBDAH         LINE#         580
  C:BBEDH         LINE#         582
  C:BC15H         LINE#         584
BL51 BANKED LINKER/LOCATER V6.22.2.0                                                  06/30/2026  14:47:53  PAGE 95


  C:BC38H         LINE#         586
  C:BC48H         LINE#         587
  C:BC57H         LINE#         588
  C:BC61H         LINE#         589
  C:BC63H         LINE#         590
  C:BC65H         LINE#         591
  C:BC6EH         LINE#         593
  C:BC7FH         LINE#         595
  -------         ENDPROC       MODBUS_TRIGGERUSERWRITE
  -------         PROC          MODBUS_USERHOLDACTIVE
  C:FC52H         LINE#         597
  C:FC52H         LINE#         598
  C:FC52H         LINE#         599
  C:FC66H         LINE#         600
  -------         ENDPROC       MODBUS_USERHOLDACTIVE
  -------         PROC          _MODBUS_GETUSERPOWERMODE
  D:0001H         SYMBOL        pwr
  X:9584H         SYMBOL        mode
  C:F832H         LINE#         602
  C:F832H         LINE#         603
  C:F832H         LINE#         604
  C:F83FH         LINE#         605
  -------         ENDPROC       _MODBUS_GETUSERPOWERMODE
  -------         PROC          MODBUS_ADVANCEPOLLONTIMEOUT
  C:DA32H         LINE#         608
  C:DA32H         LINE#         609
  C:DA32H         LINE#         610
  C:DA4DH         LINE#         611
  C:DA4DH         LINE#         612
  C:DA4DH         LINE#         613
  C:DA4FH         LINE#         614
  C:DA51H         LINE#         615
  C:DA52H         LINE#         616
  C:DA52H         LINE#         617
  C:DA54H         LINE#         618
  C:DA56H         LINE#         619
  C:DA57H         LINE#         620
  C:DA57H         LINE#         621
  C:DA59H         LINE#         622
  C:DA5BH         LINE#         623
  C:DA60H         LINE#         624
  C:DA61H         LINE#         625
  C:DA61H         LINE#         626
  C:DA6EH         LINE#         627
  C:DA6EH         LINE#         628
  C:DA71H         LINE#         629
  C:DA73H         LINE#         630
  C:DA74H         LINE#         632
  C:DA74H         LINE#         633
  C:DA79H         LINE#         634
  C:DA7BH         LINE#         636
  C:DA7DH         LINE#         640
  C:DA7DH         LINE#         641
  C:DA7EH         LINE#         642
  C:DA7EH         LINE#         643
  C:DA8BH         LINE#         644
  C:DA8BH         LINE#         645
BL51 BANKED LINKER/LOCATER V6.22.2.0                                                  06/30/2026  14:47:53  PAGE 96


  C:DA8EH         LINE#         646
  C:DA90H         LINE#         647
  C:DA91H         LINE#         649
  C:DA91H         LINE#         650
  C:DA96H         LINE#         651
  C:DA98H         LINE#         652
  C:DA9AH         LINE#         653
  C:DA9AH         LINE#         654
  C:DA9BH         LINE#         655
  C:DA9BH         LINE#         656
  C:DA9DH         LINE#         657
  C:DAA2H         LINE#         658
  C:DAA4H         LINE#         659
  C:DAA4H         LINE#         660
  C:DAA4H         LINE#         661
  C:DAA4H         LINE#         662
  C:DAA4H         LINE#         663
  -------         ENDPROC       MODBUS_ADVANCEPOLLONTIMEOUT
  -------         PROC          MODBUS_SALVE_HANDLER1
  -------         DO            
  D:0006H         SYMBOL        Modbus_Crc
  X:8A99H         SYMBOL        Modbus_Len
  D:0004H         SYMBOL        Modbus_u16temp
  X:8A9BH         SYMBOL        Modbus_Power
  X:8A9DH         SYMBOL        Modbus_Mode
  D:0006H         SYMBOL        error
  D:0006H         SYMBOL        dbg_addr
  X:8000H         SYMBOL        s_modbus_depth
  C:3B6CH         SYMBOL        modbus_done
  -------         DO            
  X:8A9FH         SYMBOL        addr
  X:8A9FH         SYMBOL        addr
  X:8A9FH         SYMBOL        i
  X:8A9FH         SYMBOL        ri
  X:8AA0H         SYMBOL        addr
  X:8A9FH         SYMBOL        freq
  X:8AA1H         SYMBOL        dtime
  X:8AA3H         SYMBOL        t3c
  X:8AA5H         SYMBOL        reg
  X:8A9FH         SYMBOL        ti
  X:8AA0H         SYMBOL        addr
  X:8AA2H         SYMBOL        vp_base
  X:8AA6H         SYMBOL        treg
  -------         ENDDO         
  -------         DO            
  X:8A9FH         SYMBOL        addr
  X:8A9FH         SYMBOL        i
  X:8A9FH         SYMBOL        ri
  X:8AA0H         SYMBOL        addr
  X:8A9FH         SYMBOL        freq
  X:8AA1H         SYMBOL        dtime
  X:8AA3H         SYMBOL        t3c
  X:8AA5H         SYMBOL        reg
  X:8A9FH         SYMBOL        ti
  X:8AA0H         SYMBOL        addr
  X:8AA2H         SYMBOL        vp_base
  X:8AA6H         SYMBOL        treg
BL51 BANKED LINKER/LOCATER V6.22.2.0                                                  06/30/2026  14:47:53  PAGE 97


  -------         ENDDO         
  -------         DO            
  X:8A9FH         SYMBOL        i
  X:8A9FH         SYMBOL        ri
  X:8AA0H         SYMBOL        addr
  X:8A9FH         SYMBOL        freq
  X:8AA1H         SYMBOL        dtime
  X:8AA3H         SYMBOL        t3c
  X:8AA5H         SYMBOL        reg
  X:8A9FH         SYMBOL        ti
  X:8AA0H         SYMBOL        addr
  X:8AA2H         SYMBOL        vp_base
  X:8AA6H         SYMBOL        treg
  -------         ENDDO         
  -------         DO            
  X:8A9FH         SYMBOL        ri
  X:8AA0H         SYMBOL        addr
  X:8A9FH         SYMBOL        freq
  X:8AA1H         SYMBOL        dtime
  X:8AA3H         SYMBOL        t3c
  X:8AA5H         SYMBOL        reg
  X:8A9FH         SYMBOL        ti
  X:8AA0H         SYMBOL        addr
  X:8AA2H         SYMBOL        vp_base
  X:8AA6H         SYMBOL        treg
  -------         ENDDO         
  -------         DO            
  X:8A9FH         SYMBOL        freq
  X:8AA1H         SYMBOL        dtime
  X:8AA3H         SYMBOL        t3c
  X:8AA5H         SYMBOL        reg
  X:8A9FH         SYMBOL        ti
  X:8AA0H         SYMBOL        addr
  X:8AA2H         SYMBOL        vp_base
  X:8AA6H         SYMBOL        treg
  -------         ENDDO         
  -------         DO            
  X:8A9FH         SYMBOL        ti
  X:8AA0H         SYMBOL        addr
  X:8AA2H         SYMBOL        vp_base
  X:8AA6H         SYMBOL        treg
  -------         ENDDO         
  -------         ENDDO         
  C:2D59H         LINE#         665
  C:2D59H         LINE#         666
  C:2D59H         LINE#         668
  C:2D60H         LINE#         674
  C:2D70H         LINE#         676
  C:2D73H         LINE#         678
  C:2D81H         LINE#         679
  C:2D8DH         LINE#         680
  C:2D9FH         LINE#         681
  C:2DA6H         LINE#         683
  C:2DA9H         LINE#         685
  C:2DC8H         LINE#         686
  C:2DCFH         LINE#         688
  C:2DDFH         LINE#         689
BL51 BANKED LINKER/LOCATER V6.22.2.0                                                  06/30/2026  14:47:53  PAGE 98


  C:2DDFH         LINE#         690
  C:2DEEH         LINE#         691
  C:2DEEH         LINE#         692
  C:2DF5H         LINE#         693
  C:2DF8H         LINE#         694
  C:2DF8H         LINE#         695
  C:2DFAH         LINE#         696
  C:2DFCH         LINE#         697
  C:2DFEH         LINE#         698
  C:2E02H         LINE#         699
  C:2E04H         LINE#         700
  C:2E07H         LINE#         701
  C:2E0AH         LINE#         702
  C:2E0AH         LINE#         703
  C:2E0CH         LINE#         704
  C:2E0EH         LINE#         705
  C:2E10H         LINE#         706
  C:2E13H         LINE#         707
  C:2E16H         LINE#         708
  C:2E16H         LINE#         709
  C:2E18H         LINE#         710
  C:2E1AH         LINE#         711
  C:2E1DH         LINE#         712
  C:2E23H         LINE#         713
  C:2E23H         LINE#         714
  C:2E26H         LINE#         715
  C:2E26H         LINE#         716
  C:2E26H         LINE#         717
  C:2E26H         LINE#         718
  C:2E29H         LINE#         719
  C:2E29H         LINE#         721
  C:2E2BH         LINE#         722
  C:2E2EH         LINE#         723
  C:2E38H         LINE#         724
  C:2E42H         LINE#         725
  C:2E48H         LINE#         726
  C:2E4AH         LINE#         727
  C:2E4DH         LINE#         728
  C:2E55H         LINE#         729
  C:2E58H         LINE#         730
  C:2E60H         LINE#         731
  C:2E63H         LINE#         732
  C:2E6BH         LINE#         733
  C:2E6EH         LINE#         734
  C:2E76H         LINE#         735
  C:2E79H         LINE#         736
  C:2E7EH         LINE#         737
  C:2E81H         LINE#         738
  C:2E89H         LINE#         739
  C:2E8CH         LINE#         740
  C:2E94H         LINE#         741
  C:2E97H         LINE#         742
  C:2E9FH         LINE#         743
  C:2EA2H         LINE#         744
  C:2EAAH         LINE#         745
  C:2EB0H         LINE#         746
  C:2EB5H         LINE#         748
BL51 BANKED LINKER/LOCATER V6.22.2.0                                                  06/30/2026  14:47:53  PAGE 99


  C:2EB8H         LINE#         750
  C:2ED1H         LINE#         752
  C:2F11H         LINE#         753
  C:2F11H         LINE#         754
  C:2F11H         LINE#         755
  C:2F2AH         LINE#         756
  C:2F42H         LINE#         757
  C:2F5AH         LINE#         758
  C:2F72H         LINE#         759
  C:2F8AH         LINE#         761
  C:2F8DH         LINE#         762
  C:2F8DH         LINE#         763
  C:2FA6H         LINE#         764
  C:2FBEH         LINE#         765
  C:2FD6H         LINE#         766
  C:2FEEH         LINE#         767
  C:3006H         LINE#         769
  C:3009H         LINE#         771
  C:3009H         LINE#         772
  C:3022H         LINE#         773
  C:303BH         LINE#         774
  C:3054H         LINE#         775
  C:306CH         LINE#         776
  C:3084H         LINE#         777
  C:3087H         LINE#         779
  C:3087H         LINE#         780
  C:30A0H         LINE#         781
  C:30B9H         LINE#         782
  C:30D2H         LINE#         783
  C:30EAH         LINE#         784
  C:3102H         LINE#         785
  C:3105H         LINE#         786
  C:3105H         LINE#         787
  C:3105H         LINE#         788
  C:3121H         LINE#         789
  C:313AH         LINE#         790
  C:315CH         LINE#         791
  C:3174H         LINE#         792
  C:318CH         LINE#         793
  C:31A4H         LINE#         794
  C:31A4H         LINE#         795
  C:31A7H         LINE#         796
  C:31A7H         LINE#         797
  C:31A7H         LINE#         798
  C:31C3H         LINE#         799
  C:31DCH         LINE#         800
  C:31FEH         LINE#         801
  C:3216H         LINE#         802
  C:322EH         LINE#         803
  C:3246H         LINE#         804
  C:3246H         LINE#         805
  C:3249H         LINE#         806
  C:3249H         LINE#         809
  C:324CH         LINE#         810
  C:3265H         LINE#         811
  C:327EH         LINE#         812
  C:3297H         LINE#         813
BL51 BANKED LINKER/LOCATER V6.22.2.0                                                  06/30/2026  14:47:53  PAGE 100


  C:32AFH         LINE#         814
  C:32C7H         LINE#         815
  C:32E0H         LINE#         816
  C:32F6H         LINE#         817
  C:330BH         LINE#         818
  C:330BH         LINE#         819
  C:330BH         LINE#         820
  C:330BH         LINE#         821
  C:330BH         LINE#         823
  C:3328H         LINE#         825
  C:332DH         LINE#         826
  C:3346H         LINE#         827
  C:3368H         LINE#         828
  C:3380H         LINE#         829
  C:3398H         LINE#         830
  C:33B0H         LINE#         831
  C:33C9H         LINE#         833
  C:33DCH         LINE#         834
  C:33F1H         LINE#         835
  C:3406H         LINE#         836
  C:3406H         LINE#         837
  C:341EH         LINE#         838
  C:3435H         LINE#         839
  C:343DH         LINE#         840
  C:343DH         LINE#         841
  C:343DH         LINE#         842
  C:343DH         LINE#         843
  C:3456H         LINE#         844
  C:346EH         LINE#         845
  C:3486H         LINE#         846
  C:349EH         LINE#         847
  C:34B6H         LINE#         848
  C:34CFH         LINE#         850
  C:34E8H         LINE#         851
  C:34FEH         LINE#         852
  C:3518H         LINE#         853
  C:3530H         LINE#         855
  C:3549H         LINE#         856
  C:3549H         LINE#         857
  C:3551H         LINE#         862
  C:356BH         LINE#         863
  C:3583H         LINE#         865
  C:3588H         LINE#         866
  C:358DH         LINE#         868
  C:358FH         LINE#         869
  C:35A6H         LINE#         870
  C:35BDH         LINE#         872
  C:35BDH         LINE#         873
  C:35D4H         LINE#         874
  C:35EBH         LINE#         876
  C:3601H         LINE#         877
  C:3609H         LINE#         878
  C:3623H         LINE#         879
  C:363BH         LINE#         881
  C:363CH         LINE#         882
  C:3653H         LINE#         883
  C:366AH         LINE#         885
BL51 BANKED LINKER/LOCATER V6.22.2.0                                                  06/30/2026  14:47:53  PAGE 101


  C:366AH         LINE#         886
  C:3681H         LINE#         887
  C:3698H         LINE#         889
  C:36A3H         LINE#         891
  C:36A4H         LINE#         892
  C:36BBH         LINE#         893
  C:36D2H         LINE#         895
  C:36D2H         LINE#         896
  C:36E9H         LINE#         897
  C:3701H         LINE#         899
  C:3703H         LINE#         900
  C:371BH         LINE#         901
  C:3733H         LINE#         902
  C:3736H         LINE#         903
  C:3736H         LINE#         904
  C:3736H         LINE#         906
  C:3740H         LINE#         908
  C:3759H         LINE#         909
  C:3772H         LINE#         910
  C:378BH         LINE#         911
  C:37A2H         LINE#         913
  C:37BBH         LINE#         914
  C:37DDH         LINE#         915
  C:37F5H         LINE#         916
  C:380DH         LINE#         917
  C:3825H         LINE#         918
  C:383EH         LINE#         919
  C:384FH         LINE#         920
  C:385AH         LINE#         921
  C:3865H         LINE#         922
  C:3865H         LINE#         923
  C:3868H         LINE#         924
  C:3868H         LINE#         925
  C:3868H         LINE#         927
  C:3887H         LINE#         928
  C:38A2H         LINE#         931
  C:38C1H         LINE#         932
  C:38EBH         LINE#         933
  C:3915H         LINE#         934
  C:393FH         LINE#         936
  C:3958H         LINE#         937
  C:397AH         LINE#         938
  C:3992H         LINE#         939
  C:39AAH         LINE#         940
  C:39C2H         LINE#         941
  C:39DBH         LINE#         942
  C:39EEH         LINE#         943
  C:3A03H         LINE#         944
  C:3A03H         LINE#         945
  C:3A03H         LINE#         947
  C:3A03H         LINE#         948
  C:3A14H         LINE#         949
  C:3A2CH         LINE#         950
  C:3A46H         LINE#         952
  C:3A8FH         LINE#         953
  C:3A8FH         LINE#         954
  C:3A98H         LINE#         955
BL51 BANKED LINKER/LOCATER V6.22.2.0                                                  06/30/2026  14:47:53  PAGE 102


  C:3A98H         LINE#         956
  C:3AA1H         LINE#         957
  C:3AA8H         LINE#         959
  C:3AADH         LINE#         960
  C:3AB7H         LINE#         961
  C:3AC0H         LINE#         962
  C:3AC5H         LINE#         963
  C:3ACDH         LINE#         964
  C:3ADDH         LINE#         965
  C:3AE2H         LINE#         966
  C:3AEAH         LINE#         968
  C:3AFAH         LINE#         970
  C:3B0BH         LINE#         971
  C:3B0EH         LINE#         972
  C:3B10H         LINE#         973
  C:3B13H         LINE#         974
  C:3B15H         LINE#         975
  C:3B18H         LINE#         976
  C:3B1AH         LINE#         977
  C:3B1DH         LINE#         978
  C:3B1FH         LINE#         979
  C:3B22H         LINE#         980
  C:3B24H         LINE#         981
  C:3B2BH         LINE#         982
  C:3B32H         LINE#         983
  C:3B32H         LINE#         985
  C:3B32H         LINE#         987
  C:3B3CH         LINE#         988
  C:3B3CH         LINE#         989
  C:3B42H         LINE#         990
  C:3B44H         LINE#         991
  C:3B5BH         LINE#         992
  C:3B5BH         LINE#         993
  C:3B5FH         LINE#         994
  C:3B62H         LINE#         995
  C:3B69H         LINE#         996
  C:3B69H         LINE#         998
  C:3B6CH         LINE#         1000
  C:3B6CH         LINE#         1001
  C:3B72H         LINE#         1002
  -------         ENDPROC       MODBUS_SALVE_HANDLER1
  -------         PROC          L?0464
  -------         ENDPROC       L?0464
  -------         PROC          _GETMODBUSREG
  X:8AE9H         SYMBOL        rx
  D:0004H         SYMBOL        reg
  -------         DO            
  D:0004H         SYMBOL        index
  -------         ENDDO         
  C:EB6BH         LINE#         1004
  C:EB76H         LINE#         1005
  C:EB76H         LINE#         1006
  C:EB87H         LINE#         1009
  C:EBACH         LINE#         1010
  -------         ENDPROC       _GETMODBUSREG
  -------         PROC          _MODBUS_RXU16
  D:0001H         SYMBOL        rx
BL51 BANKED LINKER/LOCATER V6.22.2.0                                                  06/30/2026  14:47:53  PAGE 103


  D:0005H         SYMBOL        byte_off
  C:FAB8H         LINE#         1012
  C:FAB8H         LINE#         1013
  C:FAB8H         LINE#         1014
  C:FAD4H         LINE#         1015
  -------         ENDPROC       _MODBUS_RXU16
  -------         PROC          L?0467
  -------         ENDPROC       L?0467
  -------         PROC          _MODBUS_RXRELREG
  D:0001H         SYMBOL        rx
  D:0005H         SYMBOL        reg_index
  C:FDD3H         LINE#         1018
  C:FDD3H         LINE#         1019
  C:FDD3H         LINE#         1020
  -------         ENDPROC       _MODBUS_RXRELREG
  -------         PROC          L?0474
  -------         ENDPROC       L?0474
  -------         PROC          _MODBUS_TXU16
  X:8AB4H         SYMBOL        buf
  D:0005H         SYMBOL        byte_off
  C:F2A8H         LINE#         1023
  C:F2B3H         LINE#         1024
  C:F2B3H         LINE#         1025
  C:F2D3H         LINE#         1026
  -------         ENDPROC       _MODBUS_TXU16
  -------         PROC          _MODBUS_DBGLOGTX
  X:8AAEH         SYMBOL        addr
  D:0005H         SYMBOL        is_rd
  X:8AB0H         SYMBOL        len
  -------         DO            
  X:8AB2H         SYMBOL        d0
  D:0006H         SYMBOL        d1
  -------         ENDDO         
  C:D12AH         LINE#         1029
  C:D138H         LINE#         1030
  C:D138H         LINE#         1032
  C:D13BH         LINE#         1033
  C:D14EH         LINE#         1035
  C:D14EH         LINE#         1036
  C:D170H         LINE#         1037
  C:D18AH         LINE#         1038
  C:D1B7H         LINE#         1039
  C:D1B7H         LINE#         1040
  -------         ENDPROC       _MODBUS_DBGLOGTX
  -------         PROC          _MODBUS_DBGLOGRX
  X:8AE9H         SYMBOL        addr
  D:0005H         SYMBOL        is_rd
  X:8AEBH         SYMBOL        rx
  -------         DO            
  X:8AEEH         SYMBOL        d0
  D:0006H         SYMBOL        d1
  -------         ENDDO         
  C:D668H         LINE#         1042
  C:D679H         LINE#         1043
  C:D679H         LINE#         1045
  C:D67CH         LINE#         1046
  C:D67CH         LINE#         1047
BL51 BANKED LINKER/LOCATER V6.22.2.0                                                  06/30/2026  14:47:53  PAGE 104


  C:D694H         LINE#         1048
  C:D6A4H         LINE#         1049
  C:D6CAH         LINE#         1050
  C:D6CCH         LINE#         1052
  C:D6E4H         LINE#         1053
  -------         ENDPROC       _MODBUS_DBGLOGRX
  -------         PROC          MODBUS_ANALYSIS_DATA1
  -------         DO            
  X:8AAEH         SYMBOL        modbus_addr
  X:8AB0H         SYMBOL        u8tou16
  X:8AB4H         SYMBOL        u8tos16
  X:8AB6H         SYMBOL        Modbus_Analysis_TempType
  D:0006H         SYMBOL        Modbus_Analysis_Onoff
  X:8AB8H         SYMBOL        Modbus_Analysis_mode
  X:8ABAH         SYMBOL        Modbus_Analysis_ModeTemp
  X:8ABCH         SYMBOL        Modbus_Analysis_SetTemp
  X:8ABEH         SYMBOL        Modbus_Analysis_FanMode
  X:8AC0H         SYMBOL        Modbus_Temp1
  X:8001H         SYMBOL        SetTempOld
  X:8003H         SYMBOL        modeOld
  X:8AC2H         SYMBOL        i
  X:8AC4H         SYMBOL        j
  X:8AC6H         SYMBOL        modbus_rec_len
  X:8AC8H         SYMBOL        modbus_rec_CRC
  X:8ACAH         SYMBOL        modbus_calculate_CRC
  X:8ACCH         SYMBOL        ftemp
  X:8AD0H         SYMBOL        Error_Code
  X:8AD2H         SYMBOL        Error_Cnt
  X:8AD4H         SYMBOL        NewError
  X:8ADCH         SYMBOL        Error_Temp
  -------         DO            
  X:8ADEH         SYMBOL        power_vp
  X:8AE0H         SYMBOL        active_mode
  X:8ADEH         SYMBOL        old_e
  X:8ADEH         SYMBOL        temp_c
  X:8AE0H         SYMBOL        freq_raw
  X:8AE2H         SYMBOL        time_raw
  X:8AE4H         SYMBOL        t3_raw
  X:8AE6H         SYMBOL        vp_u16
  X:8ADEH         SYMBOL        temp_c
  X:8AE0H         SYMBOL        reg_val
  X:8AE2H         SYMBOL        dgus_mode
  X:8AE4H         SYMBOL        dgus_fan
  X:8AE6H         SYMBOL        dgus_power
  X:8AE8H         SYMBOL        uidx
  -------         ENDDO         
  -------         DO            
  X:8ADEH         SYMBOL        old_e
  X:8ADEH         SYMBOL        temp_c
  X:8AE0H         SYMBOL        freq_raw
  X:8AE2H         SYMBOL        time_raw
  X:8AE4H         SYMBOL        t3_raw
  X:8AE6H         SYMBOL        vp_u16
  X:8ADEH         SYMBOL        temp_c
  X:8AE0H         SYMBOL        reg_val
  X:8AE2H         SYMBOL        dgus_mode
  X:8AE4H         SYMBOL        dgus_fan
BL51 BANKED LINKER/LOCATER V6.22.2.0                                                  06/30/2026  14:47:53  PAGE 105


  X:8AE6H         SYMBOL        dgus_power
  X:8AE8H         SYMBOL        uidx
  -------         ENDDO         
  -------         DO            
  X:8ADEH         SYMBOL        temp_c
  X:8AE0H         SYMBOL        freq_raw
  X:8AE2H         SYMBOL        time_raw
  X:8AE4H         SYMBOL        t3_raw
  X:8AE6H         SYMBOL        vp_u16
  X:8ADEH         SYMBOL        temp_c
  X:8AE0H         SYMBOL        reg_val
  X:8AE2H         SYMBOL        dgus_mode
  X:8AE4H         SYMBOL        dgus_fan
  X:8AE6H         SYMBOL        dgus_power
  X:8AE8H         SYMBOL        uidx
  -------         ENDDO         
  -------         DO            
  X:8ADEH         SYMBOL        temp_c
  X:8AE0H         SYMBOL        reg_val
  X:8AE2H         SYMBOL        dgus_mode
  X:8AE4H         SYMBOL        dgus_fan
  X:8AE6H         SYMBOL        dgus_power
  X:8AE8H         SYMBOL        uidx
  -------         ENDDO         
  -------         ENDDO         
  C:1A9DH         LINE#         1056
  C:1A9DH         LINE#         1057
  C:1A9DH         LINE#         1058
  C:1AA4H         LINE#         1070
  C:1AAEH         LINE#         1072
  C:1AB2H         LINE#         1073
  C:1AB6H         LINE#         1074
  C:1ABAH         LINE#         1077
  C:1AC0H         LINE#         1078
  C:1AD2H         LINE#         1079
  C:1AD9H         LINE#         1080
  C:1AE4H         LINE#         1081
  C:1AE4H         LINE#         1082
  C:1AE5H         LINE#         1083
  C:1AE8H         LINE#         1089
  C:1AF0H         LINE#         1090
  C:1AF0H         LINE#         1091
  C:1B00H         LINE#         1092
  C:1B02H         LINE#         1094
  C:1B02H         LINE#         1095
  C:1B0BH         LINE#         1096
  C:1B0BH         LINE#         1099
  C:1B21H         LINE#         1100
  C:1B30H         LINE#         1101
  C:1B3FH         LINE#         1103
  C:1B5EH         LINE#         1106
  C:1B6AH         LINE#         1107
  C:1B6AH         LINE#         1108
  C:1B77H         LINE#         1109
  C:1B7CH         LINE#         1110
  C:1B85H         LINE#         1111
  C:1B85H         LINE#         1113
BL51 BANKED LINKER/LOCATER V6.22.2.0                                                  06/30/2026  14:47:53  PAGE 106


  C:1B92H         LINE#         1115
  C:1B94H         LINE#         1117
  C:1B94H         LINE#         1119
  C:1BA4H         LINE#         1121
  C:1BA4H         LINE#         1122
  C:1BA6H         LINE#         1124
  C:1BA6H         LINE#         1125
  C:1BAEH         LINE#         1127
  C:1BC5H         LINE#         1129
  C:1BD3H         LINE#         1130
  C:1BD3H         LINE#         1131
  C:1BD5H         LINE#         1132
  C:1BD7H         LINE#         1133
  C:1BD7H         LINE#         1134
  C:1BD7H         LINE#         1136
  C:1BE2H         LINE#         1137
  C:1BE2H         LINE#         1138
  C:1C1AH         LINE#         1139
  C:1C1AH         LINE#         1140
  C:1C1AH         LINE#         1141
  C:1C20H         LINE#         1142
  C:1C20H         LINE#         1146
  C:1C28H         LINE#         1147
  C:1C30H         LINE#         1148
  C:1C37H         LINE#         1149
  C:1C4AH         LINE#         1150
  C:1C63H         LINE#         1152
  C:1C77H         LINE#         1153
  C:1C7EH         LINE#         1156
  C:1C97H         LINE#         1157
  C:1C9FH         LINE#         1158
  C:1CA7H         LINE#         1159
  C:1CB6H         LINE#         1160
  C:1CD4H         LINE#         1161
  C:1CD4H         LINE#         1162
  C:1CEDH         LINE#         1163
  C:1CF0H         LINE#         1164
  C:1CF3H         LINE#         1165
  C:1CF3H         LINE#         1167
  C:1D0CH         LINE#         1168
  C:1D14H         LINE#         1169
  C:1D1CH         LINE#         1170
  C:1D33H         LINE#         1171
  C:1D47H         LINE#         1172
  C:1D4EH         LINE#         1173
  C:1D66H         LINE#         1174
  C:1D7FH         LINE#         1175
  C:1D8BH         LINE#         1176
  C:1D96H         LINE#         1177
  C:1D99H         LINE#         1178
  C:1DA5H         LINE#         1179
  C:1DA8H         LINE#         1180
  C:1DA8H         LINE#         1182
  C:1DC1H         LINE#         1183
  C:1DC9H         LINE#         1184
  C:1DD1H         LINE#         1185
  C:1DE8H         LINE#         1186
BL51 BANKED LINKER/LOCATER V6.22.2.0                                                  06/30/2026  14:47:53  PAGE 107


  C:1DFCH         LINE#         1187
  C:1E03H         LINE#         1188
  C:1E1BH         LINE#         1189
  C:1E34H         LINE#         1190
  C:1E40H         LINE#         1191
  C:1E4BH         LINE#         1192
  C:1E4EH         LINE#         1193
  C:1E5AH         LINE#         1194
  C:1E5DH         LINE#         1195
  C:1E5DH         LINE#         1197
  C:1E76H         LINE#         1198
  C:1E7EH         LINE#         1199
  C:1E86H         LINE#         1200
  C:1E9DH         LINE#         1201
  C:1EB1H         LINE#         1202
  C:1EB8H         LINE#         1203
  C:1ED0H         LINE#         1204
  C:1EE9H         LINE#         1205
  C:1EF5H         LINE#         1206
  C:1F00H         LINE#         1207
  C:1F03H         LINE#         1208
  C:1F0FH         LINE#         1209
  C:1F12H         LINE#         1210
  C:1F12H         LINE#         1212
  C:1F12H         LINE#         1214
  C:1F14H         LINE#         1215
  C:1F16H         LINE#         1216
  C:1F16H         LINE#         1217
  C:1F19H         LINE#         1218
  C:1F19H         LINE#         1219
  C:1F19H         LINE#         1220
  C:1F32H         LINE#         1221
  C:1F3FH         LINE#         1222
  C:1F3FH         LINE#         1226
  C:1F46H         LINE#         1227
  C:1F46H         LINE#         1228
  C:1F63H         LINE#         1229
  C:1F72H         LINE#         1230
  C:1F7FH         LINE#         1231
  C:1F7FH         LINE#         1232
  C:1F86H         LINE#         1233
  C:1F9DH         LINE#         1234
  C:1FB2H         LINE#         1235
  C:1FC5H         LINE#         1236
  C:1FC7H         LINE#         1238
  C:1FC7H         LINE#         1239
  C:1FEFH         LINE#         1240
  C:1FEFH         LINE#         1241
  C:1FF9H         LINE#         1242
  C:1FFCH         LINE#         1243
  C:201FH         LINE#         1244
  C:201FH         LINE#         1246
  C:201FH         LINE#         1249
  C:2026H         LINE#         1250
  C:2026H         LINE#         1251
  C:2043H         LINE#         1252
  C:2052H         LINE#         1254
BL51 BANKED LINKER/LOCATER V6.22.2.0                                                  06/30/2026  14:47:53  PAGE 108


  C:205FH         LINE#         1255
  C:205FH         LINE#         1256
  C:2066H         LINE#         1257
  C:207DH         LINE#         1258
  C:209AH         LINE#         1259
  C:209CH         LINE#         1261
  C:209CH         LINE#         1262
  C:20C4H         LINE#         1263
  C:20C4H         LINE#         1264
  C:20CEH         LINE#         1265
  C:20D1H         LINE#         1267
  C:20F1H         LINE#         1268
  C:20F1H         LINE#         1270
  C:2107H         LINE#         1272
  C:211DH         LINE#         1273
  C:2143H         LINE#         1275
  C:2146H         LINE#         1277
  C:215CH         LINE#         1278
  C:2182H         LINE#         1280
  C:2185H         LINE#         1282
  C:21A3H         LINE#         1283
  C:21C9H         LINE#         1285
  C:21CCH         LINE#         1287
  C:21E1H         LINE#         1288
  C:21FAH         LINE#         1290
  C:220FH         LINE#         1291
  C:2228H         LINE#         1294
  C:223DH         LINE#         1295
  C:2243H         LINE#         1296
  C:2243H         LINE#         1297
  C:224DH         LINE#         1298
  C:2253H         LINE#         1299
  C:2255H         LINE#         1301
  C:2255H         LINE#         1302
  C:226EH         LINE#         1303
  C:2282H         LINE#         1304
  C:2282H         LINE#         1305
  C:229BH         LINE#         1306
  C:22B5H         LINE#         1307
  C:22B8H         LINE#         1308
  C:22BBH         LINE#         1309
  C:22BBH         LINE#         1310
  C:22BBH         LINE#         1312
  C:22BDH         LINE#         1313
  C:22BFH         LINE#         1314
  C:22BFH         LINE#         1315
  C:22BFH         LINE#         1316
  C:22C2H         LINE#         1318
  C:22C2H         LINE#         1321
  C:22DBH         LINE#         1322
  C:22E8H         LINE#         1323
  C:22E8H         LINE#         1324
  C:22EFH         LINE#         1325
  C:22EFH         LINE#         1326
  C:230CH         LINE#         1327
  C:231BH         LINE#         1328
  C:2328H         LINE#         1329
BL51 BANKED LINKER/LOCATER V6.22.2.0                                                  06/30/2026  14:47:53  PAGE 109


  C:2328H         LINE#         1330
  C:232FH         LINE#         1331
  C:2346H         LINE#         1332
  C:235BH         LINE#         1333
  C:236FH         LINE#         1334
  C:2371H         LINE#         1336
  C:2371H         LINE#         1337
  C:239AH         LINE#         1338
  C:239AH         LINE#         1339
  C:23A4H         LINE#         1340
  C:23A7H         LINE#         1341
  C:23CAH         LINE#         1342
  C:23CAH         LINE#         1344
  C:23CAH         LINE#         1345
  C:23D1H         LINE#         1346
  C:23D1H         LINE#         1347
  C:23EEH         LINE#         1348
  C:23FDH         LINE#         1350
  C:240AH         LINE#         1351
  C:240AH         LINE#         1352
  C:2411H         LINE#         1353
  C:2428H         LINE#         1354
  C:2446H         LINE#         1355
  C:2448H         LINE#         1357
  C:2448H         LINE#         1358
  C:2471H         LINE#         1359
  C:2471H         LINE#         1360
  C:247BH         LINE#         1361
  C:247EH         LINE#         1362
  C:249EH         LINE#         1363
  C:249EH         LINE#         1366
  C:24A5H         LINE#         1367
  C:24BEH         LINE#         1368
  C:24BEH         LINE#         1369
  C:24D4H         LINE#         1370
  C:24E3H         LINE#         1371
  C:2501H         LINE#         1372
  C:2518H         LINE#         1375
  C:2522H         LINE#         1376
  C:2522H         LINE#         1377
  C:2530H         LINE#         1378
  C:2530H         LINE#         1379
  C:2541H         LINE#         1381
  C:2550H         LINE#         1382
  C:2550H         LINE#         1383
  C:2557H         LINE#         1384
  C:255FH         LINE#         1385
  C:2578H         LINE#         1386
  C:258FH         LINE#         1387
  C:258FH         LINE#         1388
  C:25A8H         LINE#         1389
  C:25B1H         LINE#         1390
  C:25B4H         LINE#         1391
  C:25B4H         LINE#         1392
  C:25B7H         LINE#         1394
  C:25B7H         LINE#         1395
  C:25BEH         LINE#         1396
BL51 BANKED LINKER/LOCATER V6.22.2.0                                                  06/30/2026  14:47:53  PAGE 110


  C:25BEH         LINE#         1397
  C:25D8H         LINE#         1398
  C:25D8H         LINE#         1399
  C:2603H         LINE#         1400
  C:2603H         LINE#         1401
  C:260AH         LINE#         1402
  C:2630H         LINE#         1403
  C:2649H         LINE#         1404
  C:265DH         LINE#         1405
  C:265DH         LINE#         1406
  C:2676H         LINE#         1407
  C:267CH         LINE#         1408
  C:267FH         LINE#         1409
  C:267FH         LINE#         1410
  C:267FH         LINE#         1411
  C:2690H         LINE#         1412
  C:26B0H         LINE#         1413
  C:26B0H         LINE#         1415
  C:26C7H         LINE#         1417
  C:26CFH         LINE#         1418
  C:26D7H         LINE#         1419
  C:26F3H         LINE#         1420
  C:26F3H         LINE#         1423
  C:270DH         LINE#         1424
  C:273FH         LINE#         1425
  C:273FH         LINE#         1426
  C:2759H         LINE#         1427
  C:277DH         LINE#         1428
  C:2797H         LINE#         1429
  C:279DH         LINE#         1430
  C:27A0H         LINE#         1431
  C:27A0H         LINE#         1432
  C:27A0H         LINE#         1434
  C:27A8H         LINE#         1435
  C:27B0H         LINE#         1436
  C:27E5H         LINE#         1438
  C:27E8H         LINE#         1441
  C:27EAH         LINE#         1442
  C:27ECH         LINE#         1443
  C:27EFH         LINE#         1444
  C:27EFH         LINE#         1445
  C:27EFH         LINE#         1446
  C:27EFH         LINE#         1451
  C:27F7H         LINE#         1452
  C:27FFH         LINE#         1453
  C:280EH         LINE#         1454
  C:2827H         LINE#         1455
  C:283BH         LINE#         1456
  C:283BH         LINE#         1457
  C:2843H         LINE#         1458
  C:285DH         LINE#         1459
  C:2876H         LINE#         1460
  C:287CH         LINE#         1461
  C:287FH         LINE#         1462
  C:287FH         LINE#         1464
  C:2887H         LINE#         1465
  C:288FH         LINE#         1466
BL51 BANKED LINKER/LOCATER V6.22.2.0                                                  06/30/2026  14:47:53  PAGE 111


  C:289EH         LINE#         1467
  C:28B7H         LINE#         1468
  C:28CBH         LINE#         1469
  C:28CBH         LINE#         1470
  C:28D3H         LINE#         1471
  C:28EDH         LINE#         1472
  C:2906H         LINE#         1473
  C:290CH         LINE#         1474
  C:290FH         LINE#         1475
  C:290FH         LINE#         1477
  C:2917H         LINE#         1478
  C:291FH         LINE#         1479
  C:292EH         LINE#         1480
  C:2945H         LINE#         1481
  C:295EH         LINE#         1482
  C:2972H         LINE#         1483
  C:2972H         LINE#         1484
  C:297CH         LINE#         1485
  C:2996H         LINE#         1486
  C:29B1H         LINE#         1487
  C:29CBH         LINE#         1488
  C:29E4H         LINE#         1489
  C:29EAH         LINE#         1490
  C:29EDH         LINE#         1491
  C:29EDH         LINE#         1492
  C:29F8H         LINE#         1493
  C:2A03H         LINE#         1494
  C:2A15H         LINE#         1495
  C:2A15H         LINE#         1496
  C:2A17H         LINE#         1497
  C:2A1CH         LINE#         1498
  C:2A21H         LINE#         1499
  C:2A21H         LINE#         1500
  C:2A21H         LINE#         1501
  C:2A21H         LINE#         1509
  C:2A31H         LINE#         1510
  C:2A47H         LINE#         1512
  C:2A4FH         LINE#         1513
  C:2A5CH         LINE#         1514
  C:2A5EH         LINE#         1516
  C:2A6BH         LINE#         1517
  C:2A7EH         LINE#         1518
  C:2A8FH         LINE#         1519
  C:2AADH         LINE#         1520
  C:2ACBH         LINE#         1522
  C:2AD8H         LINE#         1523
  C:2AE1H         LINE#         1524
  C:2AF1H         LINE#         1526
  C:2B06H         LINE#         1527
  C:2B16H         LINE#         1528
  C:2B2FH         LINE#         1529
  C:2B4DH         LINE#         1531
  C:2B60H         LINE#         1532
  C:2B6BH         LINE#         1533
  C:2B87H         LINE#         1536
  C:2B9AH         LINE#         1537
  C:2BA5H         LINE#         1538
BL51 BANKED LINKER/LOCATER V6.22.2.0                                                  06/30/2026  14:47:53  PAGE 112


  C:2BA5H         LINE#         1539
  C:2BC1H         LINE#         1542
  C:2C13H         LINE#         1544
  C:2C37H         LINE#         1545
  C:2C37H         LINE#         1547
  C:2C45H         LINE#         1548
  C:2C45H         LINE#         1549
  C:2C4BH         LINE#         1550
  C:2C4DH         LINE#         1551
  C:2C4EH         LINE#         1553
  C:2C4EH         LINE#         1554
  C:2C53H         LINE#         1555
  C:2C55H         LINE#         1557
  C:2C57H         LINE#         1561
  C:2C57H         LINE#         1562
  C:2C57H         LINE#         1563
  C:2C58H         LINE#         1564
  C:2C58H         LINE#         1568
  C:2C65H         LINE#         1569
  C:2C65H         LINE#         1570
  C:2C68H         LINE#         1571
  C:2C6AH         LINE#         1572
  C:2C6BH         LINE#         1574
  C:2C6BH         LINE#         1575
  C:2C70H         LINE#         1576
  C:2C72H         LINE#         1577
  C:2C74H         LINE#         1578
  C:2C74H         LINE#         1579
  C:2C74H         LINE#         1580
  C:2C75H         LINE#         1581
  C:2C75H         LINE#         1583
  C:2C75H         LINE#         1585
  C:2C75H         LINE#         1586
  C:2C7AH         LINE#         1587
  C:2C86H         LINE#         1588
  C:2C86H         LINE#         1589
  C:2C8DH         LINE#         1590
  C:2C9FH         LINE#         1591
  C:2C9FH         LINE#         1593
  C:2CEBH         LINE#         1594
  C:2CEBH         LINE#         1595
  C:2CEBH         LINE#         1596
  C:2CEDH         LINE#         1597
  C:2CEFH         LINE#         1598
  C:2CF1H         LINE#         1599
  C:2D00H         LINE#         1601
  C:2D02H         LINE#         1602
  C:2D03H         LINE#         1604
  C:2D03H         LINE#         1605
  C:2D05H         LINE#         1606
  C:2D07H         LINE#         1607
  C:2D10H         LINE#         1608
  C:2D10H         LINE#         1610
  C:2D10H         LINE#         1611
  C:2D10H         LINE#         1612
  C:2D10H         LINE#         1613
  C:2D10H         LINE#         1614
BL51 BANKED LINKER/LOCATER V6.22.2.0                                                  06/30/2026  14:47:53  PAGE 113


  C:2D10H         LINE#         1615
  C:2D10H         LINE#         1616
  C:2D1EH         LINE#         1617
  C:2D2EH         LINE#         1618
  C:2D2EH         LINE#         1619
  C:2D31H         LINE#         1620
  C:2D33H         LINE#         1621
  C:2D34H         LINE#         1623
  C:2D34H         LINE#         1624
  C:2D39H         LINE#         1625
  C:2D3BH         LINE#         1626
  C:2D3DH         LINE#         1627
  C:2D3FH         LINE#         1628
  C:2D3FH         LINE#         1629
  C:2D40H         LINE#         1631
  C:2D40H         LINE#         1632
  C:2D40H         LINE#         1633
  C:2D40H         LINE#         1634
  C:2D40H         LINE#         1635
  C:2D40H         LINE#         1636
  C:2D40H         LINE#         1637
  C:2D42H         LINE#         1638
  C:2D44H         LINE#         1639
  C:2D51H         LINE#         1640
  C:2D54H         LINE#         1642
  C:2D54H         LINE#         1644
  C:2D54H         LINE#         1645
  C:2D56H         LINE#         1646
  C:2D58H         LINE#         1647
  C:2D58H         LINE#         1648
  C:2D58H         LINE#         1649
  C:2D58H         LINE#         1650
  C:2D58H         LINE#         1651
  -------         ENDPROC       MODBUS_ANALYSIS_DATA1
  -------         PROC          MODBUS_REFRESHCHECKPARAMDISPLAY
  -------         DO            
  X:8B23H         SYMBOL        i
  X:8B24H         SYMBOL        raw
  X:8B26H         SYMBOL        temp_c
  X:8B28H         SYMBOL        temp_f
  X:8B2AH         SYMBOL        unit
  -------         ENDDO         
  C:9923H         LINE#         1653
  C:9923H         LINE#         1654
  C:9923H         LINE#         1660
  C:993CH         LINE#         1661
  C:9952H         LINE#         1662
  C:9952H         LINE#         1663
  C:9972H         LINE#         1664
  C:9982H         LINE#         1665
  C:9982H         LINE#         1666
  C:9997H         LINE#         1667
  C:99A4H         LINE#         1668
  C:99ACH         LINE#         1669
  C:99CFH         LINE#         1670
  C:99CFH         LINE#         1671
  C:99D9H         LINE#         1672
BL51 BANKED LINKER/LOCATER V6.22.2.0                                                  06/30/2026  14:47:53  PAGE 114


  C:99DCH         LINE#         1673
  C:99E5H         LINE#         1674
  C:99FBH         LINE#         1675
  C:99FBH         LINE#         1676
  C:9A1BH         LINE#         1677
  C:9A2BH         LINE#         1678
  C:9A2BH         LINE#         1679
  C:9A40H         LINE#         1680
  C:9A4DH         LINE#         1681
  C:9A55H         LINE#         1682
  C:9A78H         LINE#         1683
  C:9A78H         LINE#         1684
  C:9A82H         LINE#         1685
  C:9A85H         LINE#         1686
  C:9A8EH         LINE#         1687
  -------         ENDPROC       MODBUS_REFRESHCHECKPARAMDISPLAY
  -------         ENDMOD        MODBUS

  -------         MODULE        RTC
  C:0000H         SYMBOL        _ICE_DUMMY_
  C:F608H         PUBLIC        RTCcack
  D:0080H         PUBLIC        P0
  C:8FB8H         PUBLIC        RTC_GetUnixLocal
  D:00B0H         PUBLIC        P3
  D:00F8H         PUBLIC        RAMMODE
  C:88D2H         PUBLIC        rdtime
  C:FD00H         PUBLIC        RTCmack
  C:F6D3H         SYMBOL        _rtc_is_leap
  D:00A8H         PUBLIC        IEN0
  C:FDDAH         PUBLIC        _RTC_MonthFromDisplayVp
  D:00B8H         PUBLIC        IEN1
  D:00BEH         PUBLIC        P3MDOUT
  C:FD44H         PUBLIC        RTCmnak
  C:FB41H         PUBLIC        RTCi2cstart
  C:F205H         SYMBOL        _rtc_days_in_month
  C:FD93H         PUBLIC        GetSystickTime
  B:00B0H.3       PUBLIC        RTC_SDA
  C:BAC4H         PUBLIC        _rtc_config
  X:950CH         SYMBOL        s_rtc_month
  X:950DH         SYMBOL        s_rtc_week
  B:00B0H.2       PUBLIC        RTC_SCL
  C:D7DDH         PUBLIC        _GetTimeDiff
  X:950EH         SYMBOL        s_rtc_year
  C:FB89H         PUBLIC        RTCi2cstop
  D:0088H         PUBLIC        TCON
  X:950FH         SYMBOL        s_rtc_sec
  C:FE83H         PUBLIC        rtc_get_weekday
  X:9510H         SYMBOL        s_rtc_day
  X:9511H         SYMBOL        s_rtc_hour
  C:F306H         PUBLIC        RTCi2cbr
  C:FD54H         SYMBOL        _?ix1000
  C:FD5CH         SYMBOL        _?ix1001
  X:9512H         SYMBOL        s_rtc_min
  C:EF7AH         PUBLIC        _RTCi2cbw
  C:CF77H         PUBLIC        _RTC_WriteDisplayTime
  C:FCA2H         PUBLIC        _BCD
  C:CA99H         PUBLIC        RTCUpdate
BL51 BANKED LINKER/LOCATER V6.22.2.0                                                  06/30/2026  14:47:53  PAGE 115


  C:9A8FH         PUBLIC        check_rtc_set
  C:F2DAH         PUBLIC        _delay_us
  X:9513H         PUBLIC        ulSystickCount
  C:C2EAH         PUBLIC        init_rtc
  D:0098H         PUBLIC        SCON0
  D:00C8H         PUBLIC        T2CON
  C:D008H         PUBLIC        _RTC_WriteEditTime
  D:00D0H         PUBLIC        PSW
  C:CE52H         PUBLIC        _rtc_get_week
  D:00C0H         PUBLIC        IRCON
  -------         PROC          _RTC_MONTHFROMDISPLAYVP
  X:8AB2H         SYMBOL        year
  D:0004H         SYMBOL        month_vp
  C:FDDAH         LINE#         18
  C:FDE2H         LINE#         19
  C:FDE2H         LINE#         20
  C:FDE2H         LINE#         21
  C:FDE6H         LINE#         22
  -------         ENDPROC       _RTC_MONTHFROMDISPLAYVP
  -------         PROC          _RTC_WRITEDISPLAYTIME
  X:8B29H         SYMBOL        year
  X:8B2BH         SYMBOL        month
  X:8B2DH         SYMBOL        day
  X:8B2FH         SYMBOL        hour
  X:8B31H         SYMBOL        minute
  C:CF77H         LINE#         26
  C:CF8BH         LINE#         27
  C:CF8BH         LINE#         28
  C:CFA4H         LINE#         29
  C:CFBDH         LINE#         30
  C:CFD6H         LINE#         31
  C:CFEFH         LINE#         32
  -------         ENDPROC       _RTC_WRITEDISPLAYTIME
  -------         PROC          _RTC_WRITEEDITTIME
  X:8B29H         SYMBOL        year
  X:8B2BH         SYMBOL        month
  X:8B2DH         SYMBOL        day
  X:8B2FH         SYMBOL        hour
  X:8B31H         SYMBOL        minute
  C:D008H         LINE#         35
  C:D01CH         LINE#         36
  C:D01CH         LINE#         37
  C:D035H         LINE#         38
  C:D04EH         LINE#         39
  C:D067H         LINE#         40
  C:D080H         LINE#         41
  -------         ENDPROC       _RTC_WRITEEDITTIME
  -------         PROC          INIT_RTC
  -------         DO            
  X:8A99H         SYMBOL        dat1
  X:8A9AH         SYMBOL        dat2
  -------         ENDDO         
  C:C2EAH         LINE#         47
  C:C2EAH         LINE#         48
  C:C2EAH         LINE#         49
  C:C2EAH         LINE#         50
  C:C2EDH         LINE#         52
BL51 BANKED LINKER/LOCATER V6.22.2.0                                                  06/30/2026  14:47:53  PAGE 116


  C:C2F0H         LINE#         53
  C:C2F5H         LINE#         54
  C:C2FAH         LINE#         55
  C:C2FDH         LINE#         56
  C:C300H         LINE#         57
  C:C305H         LINE#         58
  C:C30DH         LINE#         59
  C:C310H         LINE#         60
  C:C313H         LINE#         61
  C:C316H         LINE#         62
  C:C319H         LINE#         63
  C:C326H         LINE#         64
  C:C326H         LINE#         66
  C:C329H         LINE#         67
  C:C32EH         LINE#         68
  C:C333H         LINE#         69
  C:C338H         LINE#         70
  C:C33BH         LINE#         71
  C:C33EH         LINE#         72
  C:C343H         LINE#         73
  C:C348H         LINE#         74
  C:C34DH         LINE#         75
  C:C352H         LINE#         76
  C:C357H         LINE#         77
  C:C35CH         LINE#         78
  C:C35FH         LINE#         79
  C:C362H         LINE#         80
  C:C367H         LINE#         81
  C:C36CH         LINE#         82
  C:C371H         LINE#         83
  C:C376H         LINE#         84
  C:C37BH         LINE#         85
  C:C380H         LINE#         86
  C:C385H         LINE#         87
  C:C38AH         LINE#         88
  C:C38FH         LINE#         89
  C:C392H         LINE#         90
  C:C395H         LINE#         91
  C:C39AH         LINE#         92
  C:C39FH         LINE#         93
  C:C3A4H         LINE#         94
  C:C3A9H         LINE#         95
  C:C3ACH         LINE#         96
  C:C3ACH         LINE#         97
  -------         ENDPROC       INIT_RTC
  C:F2D6H         SYMBOL        L?0090
  -------         PROC          L?0089
  -------         ENDPROC       L?0089
  C:F2D6H         SYMBOL        L?0090
  -------         PROC          _DELAY_US
  D:0006H         SYMBOL        n
  -------         DO            
  D:0008H         SYMBOL        ui
  D:000AH         SYMBOL        uj
  -------         ENDDO         
  C:F2DAH         LINE#         110
  C:F2DAH         LINE#         111
BL51 BANKED LINKER/LOCATER V6.22.2.0                                                  06/30/2026  14:47:53  PAGE 117


  C:F2DAH         LINE#         113
  C:F2E8H         LINE#         114
  C:F305H         LINE#         116
  -------         ENDPROC       _DELAY_US
  -------         PROC          _RTC_CONFIG
  X:8AC2H         SYMBOL        prtc_set
  -------         DO            
  X:8AC5H         SYMBOL        dat
  X:8AC6H         SYMBOL        dat1
  -------         ENDDO         
  C:BAC4H         LINE#         118
  C:BACFH         LINE#         119
  C:BACFH         LINE#         121
  C:BAD2H         LINE#         122
  C:BAD7H         LINE#         123
  C:BADCH         LINE#         124
  C:BAE1H         LINE#         125
  C:BAE4H         LINE#         126
  C:BAE7H         LINE#         127
  C:BAECH         LINE#         128
  C:BAF1H         LINE#         129
  C:BAF6H         LINE#         130
  C:BAFBH         LINE#         131
  C:BB00H         LINE#         132
  C:BB05H         LINE#         133
  C:BB08H         LINE#         134
  C:BB0BH         LINE#         135
  C:BB10H         LINE#         136
  C:BB15H         LINE#         137
  C:BB27H         LINE#         138
  C:BB37H         LINE#         139
  C:BB47H         LINE#         140
  C:BB58H         LINE#         141
  C:BB69H         LINE#         142
  C:BB7AH         LINE#         143
  C:BB8BH         LINE#         144
  C:BB8EH         LINE#         145
  C:BB91H         LINE#         146
  C:BB96H         LINE#         147
  C:BB9BH         LINE#         148
  C:BBA0H         LINE#         149
  C:BBA5H         LINE#         150
  -------         ENDPROC       _RTC_CONFIG
  -------         PROC          RDTIME
  -------         DO            
  X:8A9FH         SYMBOL        rtcdata
  X:8AA7H         SYMBOL        i
  X:8AA8H         SYMBOL        n
  X:8AA9H         SYMBOL        m
  -------         DO            
  X:8AAAH         SYMBOL        rtc_vp
  -------         ENDDO         
  -------         ENDDO         
  C:88D2H         LINE#         154
  C:88D2H         LINE#         155
  C:88D2H         LINE#         156
  C:88D2H         LINE#         158
BL51 BANKED LINKER/LOCATER V6.22.2.0                                                  06/30/2026  14:47:53  PAGE 118


  C:88D5H         LINE#         159
  C:88D8H         LINE#         160
  C:88DDH         LINE#         161
  C:88E2H         LINE#         162
  C:88E5H         LINE#         163
  C:88E8H         LINE#         164
  C:88EDH         LINE#         165
  C:8900H         LINE#         166
  C:8900H         LINE#         167
  C:8912H         LINE#         168
  C:8915H         LINE#         169
  C:891DH         LINE#         170
  C:8925H         LINE#         172
  C:8928H         LINE#         173
  C:892BH         LINE#         174
  C:893EH         LINE#         175
  C:893EH         LINE#         176
  C:8952H         LINE#         177
  C:8958H         LINE#         178
  C:896BH         LINE#         179
  C:8973H         LINE#         180
  C:8987H         LINE#         181
  C:8987H         LINE#         182
  C:899BH         LINE#         183
  C:89A1H         LINE#         184
  C:89B4H         LINE#         185
  C:89BCH         LINE#         187
  C:89C1H         LINE#         188
  C:89C9H         LINE#         189
  C:89DBH         LINE#         190
  C:89DBH         LINE#         191
  C:89E3H         LINE#         193
  C:89E9H         LINE#         194
  C:89EEH         LINE#         195
  C:89F6H         LINE#         196
  C:89FEH         LINE#         197
  C:8A03H         LINE#         198
  C:8A0BH         LINE#         199
  C:8A0BH         LINE#         202
  C:8A1DH         LINE#         203
  C:8A31H         LINE#         204
  C:8A43H         LINE#         205
  C:8A5DH         LINE#         206
  C:8A5DH         LINE#         207
  C:8A65H         LINE#         208
  C:8A6DH         LINE#         209
  C:8A75H         LINE#         210
  C:8A7DH         LINE#         211
  C:8A85H         LINE#         212
  C:8A8DH         LINE#         214
  -------         ENDPROC       RDTIME
  -------         PROC          _BCD
  D:0007H         SYMBOL        dat
  C:FCA2H         LINE#         239
  C:FCA2H         LINE#         240
  C:FCA2H         LINE#         241
  C:FCB4H         LINE#         242
BL51 BANKED LINKER/LOCATER V6.22.2.0                                                  06/30/2026  14:47:53  PAGE 119


  -------         ENDPROC       _BCD
  -------         PROC          _RTC_GET_WEEK
  D:0004H         SYMBOL        year
  D:0005H         SYMBOL        month
  X:8AC2H         SYMBOL        day
  -------         DO            
  D:0006H         SYMBOL        tmp
  X:8AC3H         SYMBOL        mon
  X:8AC5H         SYMBOL        y
  D:0007H         SYMBOL        week
  -------         ENDDO         
  C:CE52H         LINE#         249
  C:CE59H         LINE#         250
  C:CE59H         LINE#         253
  C:CE66H         LINE#         254
  C:CE66H         LINE#         255
  C:CE73H         LINE#         256
  C:CE7FH         LINE#         257
  C:CE81H         LINE#         259
  C:CE81H         LINE#         260
  C:CE8BH         LINE#         261
  C:CE93H         LINE#         262
  C:CE93H         LINE#         263
  C:CEDEH         LINE#         264
  C:CEE5H         LINE#         265
  C:CEE5H         LINE#         266
  -------         ENDPROC       _RTC_GET_WEEK
  -------         PROC          CHECK_RTC_SET
  -------         DO            
  X:8AB0H         SYMBOL        rtc_parm
  X:8AB8H         SYMBOL        rtc_set
  -------         DO            
  X:8AC0H         SYMBOL        yfull
  -------         ENDDO         
  -------         ENDDO         
  C:9A8FH         LINE#         268
  C:9A8FH         LINE#         269
  C:9A8FH         LINE#         270
  C:9AA2H         LINE#         271
  C:9AB5H         LINE#         272
  C:9ACFH         LINE#         273
  C:9AE3H         LINE#         274
  C:9AE3H         LINE#         275
  C:9AEEH         LINE#         276
  C:9AFBH         LINE#         277
  C:9B08H         LINE#         278
  C:9B25H         LINE#         279
  C:9B32H         LINE#         280
  C:9B3FH         LINE#         281
  C:9B4AH         LINE#         282
  C:9B53H         LINE#         283
  C:9B53H         LINE#         284
  C:9B62H         LINE#         286
  C:9B6AH         LINE#         287
  C:9B75H         LINE#         288
  C:9BA4H         LINE#         289
  C:9BD3H         LINE#         290
BL51 BANKED LINKER/LOCATER V6.22.2.0                                                  06/30/2026  14:47:53  PAGE 120


  C:9BD3H         LINE#         291
  C:9BD8H         LINE#         292
  C:9BDAH         LINE#         293
  C:9BF2H         LINE#         294
  C:9BF5H         LINE#         295
  C:9BF5H         LINE#         296
  -------         ENDPROC       CHECK_RTC_SET
  -------         PROC          RTCI2CSTART
  C:FB41H         LINE#         300
  C:FB41H         LINE#         301
  C:FB41H         LINE#         302
  C:FB44H         LINE#         303
  C:FB46H         LINE#         304
  C:FB48H         LINE#         305
  C:FB4FH         LINE#         306
  C:FB51H         LINE#         307
  C:FB54H         LINE#         308
  C:FB56H         LINE#         309
  -------         ENDPROC       RTCI2CSTART
  -------         PROC          RTCI2CSTOP
  C:FB89H         LINE#         312
  C:FB89H         LINE#         313
  C:FB89H         LINE#         314
  C:FB8CH         LINE#         315
  C:FB8EH         LINE#         316
  C:FB90H         LINE#         317
  C:FB97H         LINE#         318
  C:FB99H         LINE#         319
  C:FB9CH         LINE#         320
  C:FB9FH         LINE#         321
  -------         ENDPROC       RTCI2CSTOP
  -------         PROC          RTCMACK
  C:FD00H         LINE#         323
  C:FD00H         LINE#         324
  C:FD00H         LINE#         325
  C:FD03H         LINE#         326
  C:FD05H         LINE#         327
  C:FD08H         LINE#         328
  C:FD0AH         LINE#         329
  C:FD0DH         LINE#         330
  C:FD0FH         LINE#         331
  -------         ENDPROC       RTCMACK
  -------         PROC          RTCMNAK
  C:FD44H         LINE#         334
  C:FD44H         LINE#         335
  C:FD44H         LINE#         336
  C:FD47H         LINE#         337
  C:FD47H         LINE#         338
  C:FD4AH         LINE#         339
  C:FD4CH         LINE#         340
  C:FD4FH         LINE#         341
  C:FD51H         LINE#         342
  -------         ENDPROC       RTCMNAK
  -------         PROC          RTCCACK
  -------         DO            
  D:0005H         SYMBOL        i
  -------         ENDDO         
BL51 BANKED LINKER/LOCATER V6.22.2.0                                                  06/30/2026  14:47:53  PAGE 121


  C:F608H         LINE#         345
  C:F608H         LINE#         346
  C:F608H         LINE#         347
  C:F608H         LINE#         348
  C:F60BH         LINE#         349
  C:F60BH         LINE#         350
  C:F60EH         LINE#         351
  C:F610H         LINE#         352
  C:F613H         LINE#         353
  C:F61FH         LINE#         354
  C:F61FH         LINE#         355
  C:F622H         LINE#         356
  C:F622H         LINE#         357
  C:F622H         LINE#         358
  C:F622H         LINE#         359
  C:F625H         LINE#         360
  C:F628H         LINE#         361
  C:F62AH         LINE#         362
  C:F62DH         LINE#         363
  C:F630H         LINE#         364
  -------         ENDPROC       RTCCACK
  C:EF76H         SYMBOL        L?0092
  -------         PROC          L?0091
  -------         ENDPROC       L?0091
  C:EF76H         SYMBOL        L?0092
  -------         PROC          _RTCI2CBW
  D:0005H         SYMBOL        dat
  -------         DO            
  D:0004H         SYMBOL        i
  -------         ENDDO         
  C:EF7AH         LINE#         367
  C:EF7CH         LINE#         368
  C:EF7CH         LINE#         369
  C:EF7CH         LINE#         370
  C:EF7FH         LINE#         371
  C:EF92H         LINE#         372
  C:EF92H         LINE#         373
  C:EF96H         LINE#         374
  C:EF96H         LINE#         375
  C:EF98H         LINE#         376
  C:EF9AH         LINE#         378
  C:EF9AH         LINE#         379
  C:EF9CH         LINE#         380
  C:EF9CH         LINE#         381
  C:EFA0H         LINE#         382
  C:EFA3H         LINE#         383
  C:EFA5H         LINE#         384
  C:EFA8H         LINE#         385
  C:EFAAH         LINE#         386
  C:EFADH         LINE#         387
  C:EFB0H         LINE#         388
  -------         ENDPROC       _RTCI2CBW
  -------         PROC          RTCI2CBR
  -------         DO            
  D:0004H         SYMBOL        i
  D:0005H         SYMBOL        dat
  -------         ENDDO         
BL51 BANKED LINKER/LOCATER V6.22.2.0                                                  06/30/2026  14:47:53  PAGE 122


  C:F306H         LINE#         392
  C:F306H         LINE#         393
  C:F306H         LINE#         394
  C:F306H         LINE#         396
  C:F309H         LINE#         397
  C:F315H         LINE#         398
  C:F315H         LINE#         399
  C:F318H         LINE#         400
  C:F31AH         LINE#         401
  C:F31DH         LINE#         402
  C:F321H         LINE#         403
  C:F324H         LINE#         404
  C:F324H         LINE#         405
  C:F327H         LINE#         406
  C:F329H         LINE#         408
  C:F329H         LINE#         409
  C:F32DH         LINE#         410
  C:F32DH         LINE#         412
  C:F32FH         LINE#         413
  C:F332H         LINE#         414
  C:F335H         LINE#         415
  C:F337H         LINE#         416
  -------         ENDPROC       RTCI2CBR
  -------         PROC          RTCUPDATE
  -------         DO            
  X:94FCH         SYMBOL        ulUpdateTime
  X:8A99H         SYMBOL        year
  D:0004H         SYMBOL        month
  D:0002H         SYMBOL        day
  X:8A9BH         SYMBOL        hour
  X:8A9DH         SYMBOL        minute
  -------         ENDDO         
  C:CA99H         LINE#         417
  C:CA99H         LINE#         418
  C:CA99H         LINE#         421
  C:CAD0H         LINE#         422
  C:CAD0H         LINE#         423
  C:CAD9H         LINE#         424
  C:CADCH         LINE#         425
  C:CAEDH         LINE#         426
  C:CAF4H         LINE#         427
  C:CAFBH         LINE#         428
  C:CB06H         LINE#         429
  C:CB13H         LINE#         430
  C:CB3CH         LINE#         431
  C:CB3CH         LINE#         432
  -------         ENDPROC       RTCUPDATE
  -------         PROC          GETSYSTICKTIME
  C:FD93H         LINE#         440
  C:FD93H         LINE#         441
  C:FD93H         LINE#         442
  C:FDA1H         LINE#         443
  -------         ENDPROC       GETSYSTICKTIME
  -------         PROC          _GETTIMEDIFF
  X:8A9FH         SYMBOL        currtime
  X:8AA3H         SYMBOL        lasttime
  C:D7DDH         LINE#         453
BL51 BANKED LINKER/LOCATER V6.22.2.0                                                  06/30/2026  14:47:53  PAGE 123


  C:D7E3H         LINE#         454
  C:D7E3H         LINE#         455
  C:D813H         LINE#         456
  C:D813H         LINE#         457
  C:D82CH         LINE#         458
  C:D82CH         LINE#         460
  C:D82CH         LINE#         462
  C:D855H         LINE#         463
  C:D855H         LINE#         464
  -------         ENDPROC       _GETTIMEDIFF
  -------         PROC          RTC_GET_WEEKDAY
  C:FE83H         LINE#         466
  C:FE83H         LINE#         467
  C:FE83H         LINE#         468
  C:FE88H         LINE#         469
  -------         ENDPROC       RTC_GET_WEEKDAY
  -------         PROC          _RTC_IS_LEAP
  D:0002H         SYMBOL        year
  C:F6D3H         LINE#         471
  C:F6D7H         LINE#         472
  C:F6D7H         LINE#         473
  C:F6FAH         LINE#         474
  -------         ENDPROC       _RTC_IS_LEAP
  -------         PROC          _RTC_DAYS_IN_MONTH
  D:0006H         SYMBOL        year
  D:0001H         SYMBOL        month
  -------         DO            
  X:9500H         SYMBOL        mdays
  -------         ENDDO         
  C:F205H         LINE#         476
  C:F207H         LINE#         477
  C:F207H         LINE#         480
  C:F212H         LINE#         481
  C:F215H         LINE#         482
  C:F22AH         LINE#         483
  C:F237H         LINE#         484
  C:F239H         LINE#         485
  -------         ENDPROC       _RTC_DAYS_IN_MONTH
  -------         PROC          RTC_GETUNIXLOCAL
  -------         DO            
  X:8AD2H         SYMBOL        days
  X:8AD6H         SYMBOL        year
  X:8AD8H         SYMBOL        month
  X:8AD9H         SYMBOL        full_year
  -------         ENDDO         
  C:8FB8H         LINE#         487
  C:8FB8H         LINE#         488
  C:8FB8H         LINE#         489
  C:8FC2H         LINE#         494
  C:8FD3H         LINE#         495
  C:8FF2H         LINE#         496
  C:904AH         LINE#         497
  C:905DH         LINE#         498
  C:90A9H         LINE#         499
  C:90B6H         LINE#         500
  C:90E6H         LINE#         501
  C:9162H         LINE#         502
BL51 BANKED LINKER/LOCATER V6.22.2.0                                                  06/30/2026  14:47:53  PAGE 124


  -------         ENDPROC       RTC_GETUNIXLOCAL
  -------         ENDMOD        RTC

  -------         MODULE        ERRORHISTORY
  C:0000H         SYMBOL        _ICE_DUMMY_
  C:76A5H         PUBLIC        _ErrorHistory_PackRec
  D:00B0H         PUBLIC        P3
  X:8CC8H         PUBLIC        ErrorHistory
  D:00F8H         PUBLIC        RAMMODE
  D:00A8H         PUBLIC        IEN0
  D:00B8H         PUBLIC        IEN1
  C:F8BFH         SYMBOL        ErrorHistory_GetCount
  C:F51BH         SYMBOL        _ErrorHistory_IsValidCode
  C:FE75H         SYMBOL        ErrorHistory_FlashVpAddr
  C:FD64H         SYMBOL        ErrorHistory_GetMaxPage
  C:F26FH         PUBLIC        _ErrorHistory_PageChange
  C:E8F7H         PUBLIC        ErrorHistory_Sanitize
  D:0088H         PUBLIC        TCON
  C:9305H         SYMBOL        _ErrorHistory_UnpackRecLegacy
  C:FE1BH         SYMBOL        _?ix1000
  X:8EBCH         PUBLIC        AllErrorBit
  C:E709H         PUBLIC        DecodeErrorHistory
  C:71F3H         PUBLIC        _ErrorHistory_FlashRead
  C:B331H         PUBLIC        ErrorHistoryDisplay
  D:0098H         PUBLIC        SCON0
  C:C7FBH         PUBLIC        _ErrorHistory_FlashWrite
  C:D1B8H         PUBLIC        ErrorHistory_TryMigrateFlash
  C:949CH         SYMBOL        _ErrorHistory_UnpackRec
  D:00C8H         PUBLIC        T2CON
  C:FE89H         PUBLIC        ErrorHistory_ResetPage
  C:FCBAH         SYMBOL        _ErrorHistory_ClampByte
  C:FEB9H         PUBLIC        _UWOErrorCodeProcess
  C:9EBCH         PUBLIC        _UpdateErrorHistory
  C:DEA1H         SYMBOL        _ErrorHistory_ConvertLegacyRawRec
  C:EEB2H         PUBLIC        ClearErrorHistory
  X:8EC4H         SYMBOL        s_page
  C:ACF5H         SYMBOL        _ErrorHistory_ReadTime
  C:EE6EH         PUBLIC        ErrorHistory_FlashCommitNow
  D:00D0H         PUBLIC        PSW
  C:FDB1H         PUBLIC        ErrorHistory_Init
  D:00C0H         PUBLIC        IRCON
  -------         PROC          L?0133
  -------         ENDPROC       L?0133
  -------         PROC          _ERRORHISTORY_ISVALIDCODE
  D:0007H         SYMBOL        fault_code
  C:F51BH         LINE#         390
  C:F51BH         LINE#         391
  C:F51BH         LINE#         392
  C:F535H         LINE#         393
  -------         ENDPROC       _ERRORHISTORY_ISVALIDCODE
  -------         PROC          L?0134
  -------         ENDPROC       L?0134
  -------         PROC          _ERRORHISTORY_CLAMPBYTE
  D:0006H         SYMBOL        v
  D:0005H         SYMBOL        maxv
  C:FCBAH         LINE#         395
  C:FCBAH         LINE#         396
BL51 BANKED LINKER/LOCATER V6.22.2.0                                                  06/30/2026  14:47:53  PAGE 125


  C:FCBAH         LINE#         397
  C:FCC4H         LINE#         398
  C:FCC7H         LINE#         399
  C:FCC7H         LINE#         400
  -------         ENDPROC       _ERRORHISTORY_CLAMPBYTE
  -------         PROC          _ERRORHISTORY_READTIME
  X:8AA3H         SYMBOL        rec
  -------         DO            
  X:8AA6H         SYMBOL        year
  X:8AA8H         SYMBOL        month_vp
  X:8AAAH         SYMBOL        day
  X:8AACH         SYMBOL        hour
  X:8AAEH         SYMBOL        minute
  -------         ENDDO         
  C:ACF5H         LINE#         403
  C:AD00H         LINE#         404
  C:AD00H         LINE#         405
  C:AD05H         LINE#         406
  C:AD09H         LINE#         407
  C:AD0DH         LINE#         408
  C:AD11H         LINE#         409
  C:AD15H         LINE#         411
  C:AD2DH         LINE#         412
  C:AD46H         LINE#         413
  C:AD5FH         LINE#         414
  C:AD78H         LINE#         415
  C:AD91H         LINE#         416
  C:ADB1H         LINE#         417
  C:ADCBH         LINE#         418
  C:ADE5H         LINE#         419
  -------         ENDPROC       _ERRORHISTORY_READTIME
  -------         PROC          _ERRORHISTORY_PACKREC
  X:8CAEH         SYMBOL        out
  X:8CB1H         SYMBOL        rec
  -------         DO            
  X:8CB4H         SYMBOL        v
  -------         ENDDO         
  C:76A5H         LINE#         422
  C:76B0H         LINE#         423
  C:76B0H         LINE#         426
  C:76C6H         LINE#         427
  C:76C6H         LINE#         428
  C:76D5H         LINE#         429
  C:76E7H         LINE#         430
  C:76EEH         LINE#         431
  C:76F5H         LINE#         433
  C:76F5H         LINE#         434
  C:7713H         LINE#         435
  C:776BH         LINE#         436
  C:77C3H         LINE#         437
  C:781BH         LINE#         438
  C:7870H         LINE#         439
  C:7887H         LINE#         440
  C:78ACH         LINE#         441
  C:78C6H         LINE#         442
  C:78E0H         LINE#         443
  -------         ENDPROC       _ERRORHISTORY_PACKREC
BL51 BANKED LINKER/LOCATER V6.22.2.0                                                  06/30/2026  14:47:53  PAGE 126


  -------         PROC          _ERRORHISTORY_UNPACKREC
  X:9557H         SYMBOL        rec
  X:955AH         SYMBOL        in
  -------         DO            
  X:955DH         SYMBOL        v
  -------         ENDDO         
  C:949CH         LINE#         445
  C:94A7H         LINE#         446
  C:94A7H         LINE#         449
  C:954FH         LINE#         450
  C:9567H         LINE#         451
  C:9567H         LINE#         452
  C:9576H         LINE#         453
  C:9588H         LINE#         454
  C:958FH         LINE#         455
  C:9596H         LINE#         456
  C:959DH         LINE#         458
  C:959DH         LINE#         459
  C:95B9H         LINE#         460
  C:95D7H         LINE#         461
  C:95F5H         LINE#         462
  C:9613H         LINE#         463
  C:962EH         LINE#         464
  -------         ENDPROC       _ERRORHISTORY_UNPACKREC
  -------         PROC          _ERRORHISTORY_UNPACKRECLEGACY
  X:9540H         SYMBOL        rec
  X:9543H         SYMBOL        in
  -------         DO            
  X:9546H         SYMBOL        v
  D:0007H         SYMBOL        month
  X:954AH         SYMBOL        day
  X:954BH         SYMBOL        hour
  -------         ENDDO         
  C:9305H         LINE#         466
  C:9310H         LINE#         467
  C:9310H         LINE#         473
  C:93B8H         LINE#         474
  C:93D0H         LINE#         475
  C:93D0H         LINE#         476
  C:93DFH         LINE#         477
  C:93F1H         LINE#         478
  C:93F8H         LINE#         479
  C:93FFH         LINE#         480
  C:9406H         LINE#         482
  C:9406H         LINE#         483
  C:9422H         LINE#         484
  C:943CH         LINE#         485
  C:9453H         LINE#         486
  C:9462H         LINE#         487
  C:9479H         LINE#         488
  C:9483H         LINE#         489
  C:948AH         LINE#         490
  C:949BH         LINE#         491
  -------         ENDPROC       _ERRORHISTORY_UNPACKRECLEGACY
  -------         PROC          _ERRORHISTORY_CONVERTLEGACYRAWREC
  D:0001H         SYMBOL        rec
  -------         DO            
BL51 BANKED LINKER/LOCATER V6.22.2.0                                                  06/30/2026  14:47:53  PAGE 127


  X:959BH         SYMBOL        month
  D:0007H         SYMBOL        day
  D:0006H         SYMBOL        hour
  D:0005H         SYMBOL        fault_code
  -------         ENDDO         
  C:DEA1H         LINE#         493
  C:DEA1H         LINE#         494
  C:DEA1H         LINE#         500
  C:DEAEH         LINE#         501
  C:DEAEH         LINE#         502
  C:DEB1H         LINE#         503
  C:DEB7H         LINE#         504
  C:DEBEH         LINE#         505
  C:DEC5H         LINE#         506
  C:DECBH         LINE#         508
  C:DECBH         LINE#         509
  C:DED5H         LINE#         510
  C:DEDCH         LINE#         511
  C:DEE3H         LINE#         512
  C:DEEAH         LINE#         513
  C:DEF1H         LINE#         514
  C:DEF8H         LINE#         515
  C:DEFFH         LINE#         516
  C:DF06H         LINE#         517
  C:DF0DH         LINE#         518
  -------         ENDPROC       _ERRORHISTORY_CONVERTLEGACYRAWREC
  -------         PROC          _ERRORHISTORY_FLASHWRITE
  X:8B17H         SYMBOL        flash_vp_addr
  -------         DO            
  X:8B1BH         SYMBOL        packed
  X:8CABH         SYMBOL        i
  X:8CACH         SYMBOL        magic
  -------         ENDDO         
  C:C7FBH         LINE#         520
  C:C801H         LINE#         521
  C:C801H         LINE#         524
  C:C80BH         LINE#         526
  C:C81EH         LINE#         527
  C:C85CH         LINE#         528
  C:C87BH         LINE#         529
  -------         ENDPROC       _ERRORHISTORY_FLASHWRITE
  -------         PROC          ERRORHISTORY_FLASHVPADDR
  C:FE75H         LINE#         532
  C:FE75H         LINE#         533
  C:FE75H         LINE#         534
  C:FE7CH         LINE#         536
  -------         ENDPROC       ERRORHISTORY_FLASHVPADDR
  -------         PROC          ERRORHISTORY_FLASHCOMMITNOW
  -------         DO            
  X:8B15H         SYMBOL        enable_memory
  -------         ENDDO         
  C:EE6EH         LINE#         538
  C:EE6EH         LINE#         539
  C:EE6EH         LINE#         540
  C:EE75H         LINE#         542
  C:EE7BH         LINE#         543
  C:EE94H         LINE#         544
BL51 BANKED LINKER/LOCATER V6.22.2.0                                                  06/30/2026  14:47:53  PAGE 128


  C:EEA0H         LINE#         545
  C:EEA0H         LINE#         546
  C:EEA3H         LINE#         547
  C:EEA6H         LINE#         548
  C:EEABH         LINE#         549
  C:EEB1H         LINE#         550
  C:EEB1H         LINE#         551
  -------         ENDPROC       ERRORHISTORY_FLASHCOMMITNOW
  -------         PROC          ERRORHISTORY_TRYMIGRATEFLASH
  -------         DO            
  X:8AAAH         SYMBOL        magic
  X:8AACH         SYMBOL        enable_memory
  X:8AAEH         SYMBOL        addr
  -------         ENDDO         
  C:D1B8H         LINE#         553
  C:D1B8H         LINE#         554
  C:D1B8H         LINE#         555
  C:D1BFH         LINE#         556
  C:D1C3H         LINE#         559
  C:D1CAH         LINE#         560
  C:D1E9H         LINE#         561
  C:D1F7H         LINE#         564
  C:D1FAH         LINE#         565
  C:D20BH         LINE#         567
  C:D224H         LINE#         568
  C:D230H         LINE#         569
  C:D230H         LINE#         570
  C:D233H         LINE#         571
  C:D236H         LINE#         572
  C:D23BH         LINE#         573
  C:D241H         LINE#         574
  C:D241H         LINE#         575
  -------         ENDPROC       ERRORHISTORY_TRYMIGRATEFLASH
  -------         PROC          _ERRORHISTORY_FLASHREAD
  X:9063H         SYMBOL        flash_vp_addr
  -------         DO            
  X:9067H         SYMBOL        magic
  X:9069H         SYMBOL        packed
  X:91F9H         SYMBOL        i
  X:91FAH         SYMBOL        j
  -------         DO            
  X:91FBH         SYMBOL        k
  -------         ENDDO         
  -------         ENDDO         
  C:71F3H         LINE#         577
  C:71F9H         LINE#         578
  C:71F9H         LINE#         579
  C:7200H         LINE#         583
  C:721FH         LINE#         584
  C:7230H         LINE#         585
  C:7230H         LINE#         586
  C:725BH         LINE#         587
  C:7271H         LINE#         588
  C:72AFH         LINE#         590
  C:72AFH         LINE#         591
  C:72C0H         LINE#         592
  C:72C0H         LINE#         593
BL51 BANKED LINKER/LOCATER V6.22.2.0                                                  06/30/2026  14:47:53  PAGE 129


  C:72EBH         LINE#         594
  C:7301H         LINE#         595
  C:733FH         LINE#         597
  C:733FH         LINE#         599
  C:735FH         LINE#         600
  C:7372H         LINE#         601
  C:738CH         LINE#         602
  C:739FH         LINE#         603
  C:739FH         LINE#         604
  C:73B0H         LINE#         605
  C:73D6H         LINE#         606
  C:73DEH         LINE#         607
  C:73F1H         LINE#         608
  C:73F1H         LINE#         609
  C:73F8H         LINE#         610
  C:73F8H         LINE#         611
  C:740BH         LINE#         612
  C:740BH         LINE#         614
  C:741CH         LINE#         615
  C:7442H         LINE#         616
  C:744AH         LINE#         617
  C:744AH         LINE#         618
  C:744AH         LINE#         619
  C:7452H         LINE#         620
  -------         ENDPROC       _ERRORHISTORY_FLASHREAD
  -------         PROC          ERRORHISTORY_SANITIZE
  -------         DO            
  D:0006H         SYMBOL        i
  D:0007H         SYMBOL        j
  D:0005H         SYMBOL        k
  -------         ENDDO         
  C:E8F7H         LINE#         622
  C:E8F7H         LINE#         623
  C:E8F7H         LINE#         626
  C:E903H         LINE#         627
  C:E903H         LINE#         628
  C:E90AH         LINE#         629
  C:E90AH         LINE#         630
  C:E916H         LINE#         631
  C:E916H         LINE#         632
  C:E922H         LINE#         633
  C:E940H         LINE#         634
  C:E943H         LINE#         635
  C:E943H         LINE#         636
  C:E943H         LINE#         637
  C:E946H         LINE#         638
  -------         ENDPROC       ERRORHISTORY_SANITIZE
  -------         PROC          ERRORHISTORY_INIT
  C:FDB1H         LINE#         640
  C:FDB1H         LINE#         641
  C:FDB1H         LINE#         642
  C:FDB4H         LINE#         643
  C:FDB9H         LINE#         644
  C:FDBCH         LINE#         645
  -------         ENDPROC       ERRORHISTORY_INIT
  -------         PROC          ERRORHISTORY_GETCOUNT
  -------         DO            
BL51 BANKED LINKER/LOCATER V6.22.2.0                                                  06/30/2026  14:47:53  PAGE 130


  D:0007H         SYMBOL        i
  -------         ENDDO         
  C:F8BFH         LINE#         648
  C:F8BFH         LINE#         649
  C:F8BFH         LINE#         652
  C:F8CBH         LINE#         653
  C:F8CBH         LINE#         654
  C:F8DDH         LINE#         655
  C:F8DDH         LINE#         656
  C:F8E0H         LINE#         657
  C:F8E0H         LINE#         658
  -------         ENDPROC       ERRORHISTORY_GETCOUNT
  -------         PROC          ERRORHISTORY_GETMAXPAGE
  -------         DO            
  D:0007H         SYMBOL        count
  -------         ENDDO         
  C:FD64H         LINE#         660
  C:FD64H         LINE#         661
  C:FD64H         LINE#         664
  C:FD67H         LINE#         665
  C:FD6AH         LINE#         666
  C:FD6CH         LINE#         667
  C:FD73H         LINE#         668
  -------         ENDPROC       ERRORHISTORY_GETMAXPAGE
  -------         PROC          _UPDATEERRORHISTORY
  X:8A9AH         SYMBOL        NewError
  X:8A9CH         SYMBOL        ErrorBuffNum
  -------         DO            
  X:8CC0H         SYMBOL        OldError
  X:8A9DH         SYMBOL        i
  D:0007H         SYMBOL        j
  X:8A9EH         SYMBOL        k
  X:8A9FH         SYMBOL        time_rec
  -------         ENDDO         
  C:9EBCH         LINE#         670
  C:9EC7H         LINE#         671
  C:9EC7H         LINE#         676
  C:9EE0H         LINE#         677
  C:9EE0H         LINE#         678
  C:9EE9H         LINE#         679
  C:9EFEH         LINE#         680
  C:9EFEH         LINE#         681
  C:9F47H         LINE#         682
  C:9F47H         LINE#         683
  C:9F53H         LINE#         684
  C:9F53H         LINE#         685
  C:9F65H         LINE#         686
  C:9F65H         LINE#         687
  C:9F9DH         LINE#         688
  C:9FA5H         LINE#         689
  C:9FA8H         LINE#         690
  C:9FBAH         LINE#         691
  C:9FBAH         LINE#         692
  C:9FD3H         LINE#         693
  C:9FDBH         LINE#         694
  C:9FF0H         LINE#         695
  C:9FF0H         LINE#         696
BL51 BANKED LINKER/LOCATER V6.22.2.0                                                  06/30/2026  14:47:53  PAGE 131


  C:9FF9H         LINE#         697
  C:A013H         LINE#         698
  C:A016H         LINE#         699
  C:A019H         LINE#         700
  C:A019H         LINE#         701
  -------         ENDPROC       _UPDATEERRORHISTORY
  -------         PROC          ERRORHISTORYDISPLAY
  -------         DO            
  X:8AAAH         SYMBOL        i
  X:8AABH         SYMBOL        j
  D:0003H         SYMBOL        rowIdx
  X:8AACH         SYMBOL        ErrorHistoryDisplay_Temp
  -------         ENDDO         
  C:B331H         LINE#         702
  C:B331H         LINE#         703
  C:B331H         LINE#         706
  C:B344H         LINE#         708
  C:B35AH         LINE#         709
  C:B35AH         LINE#         710
  C:B366H         LINE#         711
  C:B384H         LINE#         712
  C:B384H         LINE#         713
  C:B391H         LINE#         714
  C:B3A4H         LINE#         715
  C:B3A4H         LINE#         716
  C:B3D2H         LINE#         717
  C:B3DAH         LINE#         718
  C:B3DAH         LINE#         720
  C:B3DAH         LINE#         721
  C:B3EDH         LINE#         722
  C:B3EDH         LINE#         723
  C:B3FDH         LINE#         724
  C:B405H         LINE#         725
  C:B405H         LINE#         726
  C:B429H         LINE#         727
  C:B432H         LINE#         728
  -------         ENDPROC       ERRORHISTORYDISPLAY
  -------         PROC          _ERRORHISTORY_PAGECHANGE
  D:0004H         SYMBOL        keyValue
  -------         DO            
  D:0007H         SYMBOL        maxPage
  -------         ENDDO         
  C:F26FH         LINE#         729
  C:F273H         LINE#         730
  C:F273H         LINE#         733
  C:F276H         LINE#         734
  C:F27CH         LINE#         735
  C:F27CH         LINE#         736
  C:F289H         LINE#         737
  C:F28CH         LINE#         738
  C:F28EH         LINE#         739
  C:F294H         LINE#         740
  C:F294H         LINE#         741
  C:F29CH         LINE#         742
  C:F29FH         LINE#         743
  C:F29FH         LINE#         744
  -------         ENDPROC       _ERRORHISTORY_PAGECHANGE
BL51 BANKED LINKER/LOCATER V6.22.2.0                                                  06/30/2026  14:47:53  PAGE 132


  -------         PROC          ERRORHISTORY_RESETPAGE
  C:FE89H         LINE#         746
  C:FE89H         LINE#         747
  C:FE89H         LINE#         748
  C:FE8EH         LINE#         749
  -------         ENDPROC       ERRORHISTORY_RESETPAGE
  -------         PROC          CLEARERRORHISTORY
  -------         DO            
  D:0007H         SYMBOL        i
  D:0006H         SYMBOL        j
  -------         ENDDO         
  C:EEB2H         LINE#         750
  C:EEB2H         LINE#         751
  C:EEB2H         LINE#         754
  C:EEBEH         LINE#         755
  C:EEBEH         LINE#         756
  C:EECAH         LINE#         757
  C:EECAH         LINE#         758
  C:EEE5H         LINE#         759
  C:EEE8H         LINE#         760
  C:EEEBH         LINE#         761
  C:EEF0H         LINE#         762
  C:EEF3H         LINE#         763
  -------         ENDPROC       CLEARERRORHISTORY
  -------         PROC          DECODEERRORHISTORY
  -------         DO            
  X:8A99H         SYMBOL        i
  D:0006H         SYMBOL        DecodeErrorHistory_Page
  -------         ENDDO         
  C:E709H         LINE#         765
  C:E709H         LINE#         766
  C:E709H         LINE#         770
  C:E71CH         LINE#         771
  C:E71CH         LINE#         772
  C:E730H         LINE#         773
  C:E738H         LINE#         774
  C:E73BH         LINE#         775
  C:E759H         LINE#         776
  C:E759H         LINE#         777
  C:E75CH         LINE#         778
  C:E75CH         LINE#         779
  -------         ENDPROC       DECODEERRORHISTORY
  -------         PROC          _UWOERRORCODEPROCESS
  D:0007H         SYMBOL        Code
  C:FEB9H         LINE#         780
  C:FEB9H         LINE#         781
  C:FEB9H         LINE#         782
  C:FEB9H         LINE#         783
  -------         ENDPROC       _UWOERRORCODEPROCESS
  -------         ENDMOD        ERRORHISTORY

  -------         MODULE        UPLOAD
  C:0000H         SYMBOL        _ICE_DUMMY_
  X:93B3H         SYMBOL        s_lock
  X:93B4H         SYMBOL        s_evap
  C:FA24H         PUBLIC        _upload_shadow_bool
  C:DC6EH         PUBLIC        upload_dp_evaporator_temp
BL51 BANKED LINKER/LOCATER V6.22.2.0                                                  06/30/2026  14:47:53  PAGE 133


  D:00B0H         PUBLIC        P3
  C:EFF0H         PUBLIC        upload_dp_temp_set
  C:D6E5H         SYMBOL        Upload_PackTimerRoomByte
  C:E1E8H         PUBLIC        upload_timestamp_from_rtc
  D:00F8H         PUBLIC        RAMMODE
  C:A8A1H         SYMBOL        _Upload_UlToStr
  C:F631H         PUBLIC        _upload_shadow_enum
  C:DB18H         PUBLIC        upload_dp_temp_top
  D:00A8H         PUBLIC        IEN0
  C:F7E6H         SYMBOL        Upload_GetUnit
  D:00B8H         PUBLIC        IEN1
  C:8329H         PUBLIC        upload_inside_time_open
  C:FEBBH         PUBLIC        upload_modbus_poll_report
  X:93B8H         SYMBOL        s_def_freq
  X:93BCH         SYMBOL        s_def_time
  X:93C0H         SYMBOL        s_unit
  C:DB8AH         PUBLIC        upload_dp_effluent_temp
  X:93C1H         SYMBOL        s_work
  C:F5B4H         PUBLIC        upload_dp_defrost
  C:7B0CH         PUBLIC        upload_indoor_unit
  C:FEBAH         PUBLIC        upload_all_timers
  X:93C2H         SYMBOL        s_dp_switch
  X:93C3H         SYMBOL        s_invalidate_raw
  C:E0B5H         SYMBOL        _Upload_ValueIfChanged
  C:F06AH         PUBLIC        upload_dp_defrost_freq
  C:F0A7H         PUBLIC        upload_dp_defrost_time
  X:93C4H         SYMBOL        s_dp_mode
  X:93C5H         SYMBOL        s_effluent
  C:F58AH         PUBLIC        upload_dp_child_lock
  C:FD74H         SYMBOL        Upload_YieldWiFi
  C:F536H         PUBLIC        upload_dp_switch
  D:0088H         PUBLIC        TCON
  C:FBA0H         SYMBOL        _Upload_BoolIfChanged
  X:93C9H         SYMBOL        s_temp_cur
  C:DFE3H         PUBLIC        upload_state_query_reply
  X:93CDH         SYMBOL        s_temp_set
  X:93D1H         SYMBOL        s_def_out
  C:F02DH         PUBLIC        upload_dp_fault
  C:FBB7H         SYMBOL        _Upload_EnumIfChanged
  C:DD52H         PUBLIC        upload_dp_temp_current
  D:00C9H         PUBLIC        MUX_SEL
  X:93D5H         SYMBOL        s_temp_top
  C:F90BH         SYMBOL        _Upload_ClampIndoorTemp
  C:F1CDH         SYMBOL        _?ix1000
  C:F1F1H         SYMBOL        _?ix1001
  C:F1F9H         SYMBOL        _?ix1002
  C:DBFCH         PUBLIC        upload_dp_around_temp
  C:F1FFH         SYMBOL        _?ix1003
  C:F3F9H         PUBLIC        upload_dp_mode
  C:F11FH         PUBLIC        upload_electricity_statistics
  C:F202H         SYMBOL        _?ix1004
  C:FDA2H         PUBLIC        _upload_set_boot_ready
  C:F5DEH         PUBLIC        upload_dp_relay_status
  B:0025H.0       SYMBOL        s_timestamp_boot_done
  X:93D9H         SYMBOL        s_defrost
  C:F924H         SYMBOL        _Upload_DgusIndoorModeToDp
  X:93DAH         SYMBOL        s_invalidate_scalar
BL51 BANKED LINKER/LOCATER V6.22.2.0                                                  06/30/2026  14:47:53  PAGE 134


  C:FE8FH         PUBLIC        upload_is_boot_ready
  C:FB59H         SYMBOL        _Upload_ModeToDp101
  C:B805H         PUBLIC        upload_external_time_close
  X:93DBH         SYMBOL        s_around
  C:FE63H         PUBLIC        upload_timestamp_boot_once
  D:0098H         PUBLIC        SCON0
  D:00C8H         PUBLIC        T2CON
  C:F457H         PUBLIC        upload_dp_work_state
  X:93DFH         SYMBOL        s_upload_boot_ready
  C:FA43H         SYMBOL        _Upload_WorkStateToDp
  C:DCE0H         PUBLIC        upload_dp_defrost_out_temp
  X:93E0H         SYMBOL        s_fault
  X:93E4H         SYMBOL        s_relay
  C:C9F3H         PUBLIC        upload_check_status
  C:B8F2H         PUBLIC        _upload_shadow_value
  C:B01DH         PUBLIC        upload_history_faults
  C:B718H         PUBLIC        upload_inside_time_close
  C:FA05H         SYMBOL        _Upload_DgusModeToDp116
  C:8C4BH         PUBLIC        upload_external_time_open
  C:F560H         PUBLIC        upload_dp_temp_unit
  D:00D0H         PUBLIC        PSW
  D:00C0H         PUBLIC        IRCON
  -------         PROC          _UPLOAD_ULTOSTR
  X:8AD2H         SYMBOL        v
  X:8AD6H         SYMBOL        buf
  -------         DO            
  X:8AD9H         SYMBOL        rev
  X:8AE3H         SYMBOL        n
  X:8AE4H         SYMBOL        i
  -------         ENDDO         
  C:A8A1H         LINE#         23
  C:A8B2H         LINE#         24
  C:A8B2H         LINE#         26
  C:A8B7H         LINE#         29
  C:A8CFH         LINE#         30
  C:A8CFH         LINE#         31
  C:A8DFH         LINE#         32
  C:A8F1H         LINE#         33
  C:A8F4H         LINE#         34
  C:A8F4H         LINE#         35
  C:A915H         LINE#         36
  C:A915H         LINE#         37
  C:A93CH         LINE#         38
  C:A959H         LINE#         39
  C:A95BH         LINE#         40
  C:A96CH         LINE#         41
  C:A9A2H         LINE#         42
  C:A9BBH         LINE#         43
  C:A9BBH         LINE#         44
  -------         ENDPROC       _UPLOAD_ULTOSTR
  -------         PROC          L?0241
  -------         ENDPROC       L?0241
  -------         PROC          _UPLOAD_CLAMPINDOORTEMP
  D:0006H         SYMBOL        v
  C:F90BH         LINE#         46
  C:F90BH         LINE#         47
  C:F90BH         LINE#         48
BL51 BANKED LINKER/LOCATER V6.22.2.0                                                  06/30/2026  14:47:53  PAGE 135


  C:F914H         LINE#         49
  C:F917H         LINE#         50
  C:F920H         LINE#         51
  C:F923H         LINE#         52
  C:F923H         LINE#         53
  -------         ENDPROC       _UPLOAD_CLAMPINDOORTEMP
  -------         PROC          _UPLOAD_DGUSINDOORMODETODP
  D:0006H         SYMBOL        dgus
  C:F924H         LINE#         55
  C:F924H         LINE#         56
  C:F924H         LINE#         57
  C:F936H         LINE#         58
  C:F936H         LINE#         59
  C:F939H         LINE#         60
  C:F93CH         LINE#         61
  C:F93FH         LINE#         62
  C:F942H         LINE#         63
  -------         ENDPROC       _UPLOAD_DGUSINDOORMODETODP
  -------         PROC          _UPLOAD_DGUSMODETODP116
  D:0006H         SYMBOL        dgus
  C:FA05H         LINE#         68
  C:FA05H         LINE#         69
  C:FA05H         LINE#         70
  C:FA15H         LINE#         71
  C:FA15H         LINE#         72
  C:FA18H         LINE#         73
  C:FA1BH         LINE#         74
  C:FA1EH         LINE#         75
  C:FA21H         LINE#         76
  -------         ENDPROC       _UPLOAD_DGUSMODETODP116
  -------         PROC          UPLOAD_PACKTIMERROOMBYTE
  -------         DO            
  X:8AB5H         SYMBOL        i
  X:8AB6H         SYMBOL        sel
  X:8AB8H         SYMBOL        count
  X:8AB9H         SYMBOL        single_room
  X:8ABAH         SYMBOL        mask
  -------         ENDDO         
  C:D6E5H         LINE#         81
  C:D6E5H         LINE#         82
  C:D6E5H         LINE#         85
  C:D6EAH         LINE#         86
  C:D6ECH         LINE#         87
  C:D6EEH         LINE#         89
  C:D700H         LINE#         90
  C:D700H         LINE#         91
  C:D71BH         LINE#         92
  C:D725H         LINE#         93
  C:D725H         LINE#         94
  C:D72BH         LINE#         95
  C:D735H         LINE#         96
  C:D748H         LINE#         97
  C:D748H         LINE#         98
  C:D750H         LINE#         99
  C:D758H         LINE#         100
  C:D75CH         LINE#         101
  C:D761H         LINE#         102
BL51 BANKED LINKER/LOCATER V6.22.2.0                                                  06/30/2026  14:47:53  PAGE 136


  -------         ENDPROC       UPLOAD_PACKTIMERROOMBYTE
  -------         PROC          UPLOAD_ELECTRICITY_STATISTICS
  -------         DO            
  X:9530H         SYMBOL        buf
  D:0007H         SYMBOL        i
  X:932EH         SYMBOL        s_sent
  -------         ENDDO         
  C:F11FH         LINE#         104
  C:F11FH         LINE#         105
  C:F11FH         LINE#         110
  C:F125H         LINE#         112
  C:F127H         LINE#         113
  C:F133H         LINE#         114
  C:F142H         LINE#         115
  C:F156H         LINE#         116
  C:F159H         LINE#         117
  -------         ENDPROC       UPLOAD_ELECTRICITY_STATISTICS
  -------         PROC          UPLOAD_TIMESTAMP_FROM_RTC
  -------         DO            
  X:8AC2H         SYMBOL        ts_buf
  X:8ACEH         SYMBOL        ts_local
  D:0004H         SYMBOL        ts_utc
  -------         ENDDO         
  C:E1E8H         LINE#         119
  C:E1E8H         LINE#         120
  C:E1E8H         LINE#         125
  C:E1F1H         LINE#         126
  C:E20CH         LINE#         128
  C:E228H         LINE#         129
  C:E231H         LINE#         130
  C:E24DH         LINE#         131
  -------         ENDPROC       UPLOAD_TIMESTAMP_FROM_RTC
  -------         PROC          UPLOAD_TIMESTAMP_BOOT_ONCE
  C:FE63H         LINE#         133
  C:FE63H         LINE#         134
  C:FE63H         LINE#         135
  C:FE66H         LINE#         137
  C:FE68H         LINE#         138
  C:FE6BH         LINE#         139
  -------         ENDPROC       UPLOAD_TIMESTAMP_BOOT_ONCE
  -------         PROC          UPLOAD_INDOOR_UNIT
  -------         DO            
  X:8B33H         SYMBOL        mode1
  X:8B35H         SYMBOL        i
  X:8B36H         SYMBOL        num
  X:8B5AH         SYMBOL        ftemp
  X:932FH         SYMBOL        s_shadow
  B:0024H.2       SYMBOL        s_valid
  -------         ENDDO         
  C:7B0CH         LINE#         141
  C:7B0CH         LINE#         142
  C:7B0CH         LINE#         143
  C:7B13H         LINE#         144
  C:7B15H         LINE#         145
  C:7B27H         LINE#         150
  C:7B2DH         LINE#         151
  C:7B2FH         LINE#         152
BL51 BANKED LINKER/LOCATER V6.22.2.0                                                  06/30/2026  14:47:53  PAGE 137


  C:7B45H         LINE#         153
  C:7B45H         LINE#         154
  C:7B59H         LINE#         155
  C:7B74H         LINE#         156
  C:7B8CH         LINE#         157
  C:7BAFH         LINE#         158
  C:7BC8H         LINE#         159
  C:7BE1H         LINE#         160
  C:7BE8H         LINE#         161
  C:7BFDH         LINE#         162
  C:7C18H         LINE#         163
  C:7C35H         LINE#         164
  C:7C50H         LINE#         165
  C:7C68H         LINE#         166
  C:7C83H         LINE#         167
  C:7C97H         LINE#         168
  C:7CA0H         LINE#         169
  C:7CA3H         LINE#         170
  C:7CA3H         LINE#         171
  C:7CB8H         LINE#         172
  C:7CB8H         LINE#         173
  C:7CD3H         LINE#         174
  C:7CD3H         LINE#         175
  C:7CDBH         LINE#         176
  C:7CE6H         LINE#         178
  C:7CE6H         LINE#         179
  C:7CF8H         LINE#         180
  C:7D19H         LINE#         181
  C:7D1BH         LINE#         182
  C:7D2FH         LINE#         183
  C:7D32H         LINE#         184
  -------         ENDPROC       UPLOAD_INDOOR_UNIT
  -------         PROC          UPLOAD_INSIDE_TIME_OPEN
  -------         DO            
  X:8AAAH         SYMBOL        num
  X:8AB2H         SYMBOL        mode1
  X:8AB4H         SYMBOL        i
  X:9353H         SYMBOL        s_shadow
  B:0024H.3       SYMBOL        s_valid
  -------         ENDDO         
  C:8329H         LINE#         186
  C:8329H         LINE#         187
  C:8329H         LINE#         188
  C:833CH         LINE#         189
  C:8343H         LINE#         190
  C:8345H         LINE#         194
  C:834BH         LINE#         195
  C:834DH         LINE#         196
  C:8366H         LINE#         197
  C:836FH         LINE#         198
  C:8388H         LINE#         199
  C:8391H         LINE#         200
  C:83AAH         LINE#         201
  C:83B3H         LINE#         203
  C:83C6H         LINE#         204
  C:83C6H         LINE#         205
  C:83E1H         LINE#         206
BL51 BANKED LINKER/LOCATER V6.22.2.0                                                  06/30/2026  14:47:53  PAGE 138


  C:83EBH         LINE#         207
  C:8404H         LINE#         208
  C:840CH         LINE#         209
  C:8425H         LINE#         210
  C:842EH         LINE#         211
  C:8447H         LINE#         212
  C:8457H         LINE#         213
  C:8470H         LINE#         214
  C:847AH         LINE#         215
  C:8482H         LINE#         216
  C:8485H         LINE#         217
  C:8485H         LINE#         218
  C:849AH         LINE#         219
  C:849AH         LINE#         220
  C:84B5H         LINE#         221
  C:84B5H         LINE#         222
  C:84BDH         LINE#         223
  C:84C8H         LINE#         225
  C:84C8H         LINE#         226
  C:84DAH         LINE#         227
  C:84FBH         LINE#         228
  C:84FDH         LINE#         229
  C:8511H         LINE#         230
  C:8514H         LINE#         231
  -------         ENDPROC       UPLOAD_INSIDE_TIME_OPEN
  -------         PROC          UPLOAD_EXTERNAL_TIME_OPEN
  -------         DO            
  X:8AAAH         SYMBOL        num
  X:8AB0H         SYMBOL        mode1
  X:8AB2H         SYMBOL        i
  X:935BH         SYMBOL        s_shadow
  B:0024H.4       SYMBOL        s_valid
  -------         ENDDO         
  C:8C4BH         LINE#         233
  C:8C4BH         LINE#         234
  C:8C4BH         LINE#         235
  C:8C5EH         LINE#         236
  C:8C65H         LINE#         237
  C:8C67H         LINE#         241
  C:8C6DH         LINE#         242
  C:8C6FH         LINE#         243
  C:8C88H         LINE#         244
  C:8C91H         LINE#         245
  C:8CAAH         LINE#         246
  C:8CB3H         LINE#         247
  C:8CCCH         LINE#         248
  C:8CD5H         LINE#         250
  C:8CE8H         LINE#         251
  C:8CE8H         LINE#         252
  C:8D02H         LINE#         253
  C:8D0CH         LINE#         254
  C:8D25H         LINE#         255
  C:8D2DH         LINE#         256
  C:8D46H         LINE#         257
  C:8D4FH         LINE#         258
  C:8D68H         LINE#         259
  C:8D71H         LINE#         260
BL51 BANKED LINKER/LOCATER V6.22.2.0                                                  06/30/2026  14:47:53  PAGE 139


  C:8D74H         LINE#         261
  C:8D74H         LINE#         262
  C:8D89H         LINE#         263
  C:8D89H         LINE#         264
  C:8DA4H         LINE#         265
  C:8DA4H         LINE#         266
  C:8DACH         LINE#         267
  C:8DB7H         LINE#         269
  C:8DB7H         LINE#         270
  C:8DC9H         LINE#         271
  C:8DEAH         LINE#         272
  C:8DECH         LINE#         273
  C:8E00H         LINE#         274
  C:8E03H         LINE#         275
  -------         ENDPROC       UPLOAD_EXTERNAL_TIME_OPEN
  -------         PROC          UPLOAD_INSIDE_TIME_CLOSE
  -------         DO            
  X:8AAAH         SYMBOL        mode1
  X:8AACH         SYMBOL        num
  D:0007H         SYMBOL        i
  X:9361H         SYMBOL        s_shadow
  B:0024H.5       SYMBOL        s_valid
  -------         ENDDO         
  C:B718H         LINE#         277
  C:B718H         LINE#         278
  C:B718H         LINE#         279
  C:B71FH         LINE#         280
  C:B731H         LINE#         285
  C:B737H         LINE#         286
  C:B739H         LINE#         287
  C:B752H         LINE#         288
  C:B759H         LINE#         289
  C:B772H         LINE#         290
  C:B77BH         LINE#         291
  C:B794H         LINE#         292
  C:B79DH         LINE#         293
  C:B7C4H         LINE#         295
  C:B7D0H         LINE#         296
  C:B7EBH         LINE#         297
  C:B7EDH         LINE#         298
  C:B801H         LINE#         299
  C:B804H         LINE#         300
  -------         ENDPROC       UPLOAD_INSIDE_TIME_CLOSE
  -------         PROC          UPLOAD_EXTERNAL_TIME_CLOSE
  -------         DO            
  X:8AAAH         SYMBOL        mode1
  X:8AACH         SYMBOL        num
  D:0007H         SYMBOL        i
  X:9364H         SYMBOL        s_shadow
  B:0024H.6       SYMBOL        s_valid
  -------         ENDDO         
  C:B805H         LINE#         302
  C:B805H         LINE#         303
  C:B805H         LINE#         304
  C:B80CH         LINE#         305
  C:B81EH         LINE#         310
  C:B824H         LINE#         311
BL51 BANKED LINKER/LOCATER V6.22.2.0                                                  06/30/2026  14:47:53  PAGE 140


  C:B826H         LINE#         312
  C:B83FH         LINE#         313
  C:B846H         LINE#         314
  C:B85FH         LINE#         315
  C:B868H         LINE#         316
  C:B881H         LINE#         317
  C:B88AH         LINE#         318
  C:B8B1H         LINE#         320
  C:B8BDH         LINE#         321
  C:B8D8H         LINE#         322
  C:B8DAH         LINE#         323
  C:B8EEH         LINE#         324
  C:B8F1H         LINE#         325
  -------         ENDPROC       UPLOAD_EXTERNAL_TIME_CLOSE
  -------         PROC          UPLOAD_CHECK_STATUS
  -------         DO            
  X:943CH         SYMBOL        buf
  X:9487H         SYMBOL        i
  X:9367H         SYMBOL        s_shadow
  B:0024H.7       SYMBOL        s_valid
  -------         ENDDO         
  C:C9F3H         LINE#         327
  C:C9F3H         LINE#         328
  C:C9F3H         LINE#         334
  C:C9F9H         LINE#         335
  C:C9FBH         LINE#         336
  C:CA06H         LINE#         337
  C:CA09H         LINE#         338
  C:CA09H         LINE#         339
  C:CA1EH         LINE#         340
  C:CA1EH         LINE#         341
  C:CA39H         LINE#         342
  C:CA39H         LINE#         343
  C:CA41H         LINE#         344
  C:CA4CH         LINE#         346
  C:CA4CH         LINE#         347
  C:CA5EH         LINE#         348
  C:CA7FH         LINE#         349
  C:CA81H         LINE#         350
  C:CA95H         LINE#         351
  C:CA98H         LINE#         352
  -------         ENDPROC       UPLOAD_CHECK_STATUS
  -------         PROC          UPLOAD_HISTORY_FAULTS
  -------         DO            
  X:8B15H         SYMBOL        buf
  D:0007H         SYMBOL        rec
  X:8B92H         SYMBOL        idx
  -------         ENDDO         
  C:B01DH         LINE#         354
  C:B01DH         LINE#         355
  C:B01DH         LINE#         359
  C:B029H         LINE#         360
  C:B038H         LINE#         361
  C:B047H         LINE#         362
  C:B047H         LINE#         363
  C:B04CH         LINE#         364
  C:B06FH         LINE#         365
BL51 BANKED LINKER/LOCATER V6.22.2.0                                                  06/30/2026  14:47:53  PAGE 141


  C:B06FH         LINE#         366
  C:B084H         LINE#         367
  C:B0A5H         LINE#         368
  C:B0CAH         LINE#         369
  C:B0EBH         LINE#         370
  C:B10CH         LINE#         371
  C:B110H         LINE#         372
  C:B124H         LINE#         373
  -------         ENDPROC       UPLOAD_HISTORY_FAULTS
  -------         PROC          UPLOAD_ALL_TIMERS
  C:FEBAH         LINE#         376
  C:FEBAH         LINE#         377
  C:FEBAH         LINE#         379
  -------         ENDPROC       UPLOAD_ALL_TIMERS
  -------         PROC          UPLOAD_YIELDWIFI
  C:FD74H         LINE#         387
  C:FD74H         LINE#         388
  C:FD74H         LINE#         389
  C:FD77H         LINE#         390
  C:FD7AH         LINE#         391
  C:FD80H         LINE#         392
  C:FD83H         LINE#         393
  -------         ENDPROC       UPLOAD_YIELDWIFI
  -------         PROC          _UPLOAD_SHADOW_BOOL
  D:0007H         SYMBOL        dpid
  D:0005H         SYMBOL        val
  C:FA24H         LINE#         395
  C:FA24H         LINE#         396
  C:FA24H         LINE#         397
  C:FA31H         LINE#         398
  C:FA31H         LINE#         399
  C:FA37H         LINE#         400
  C:FA3DH         LINE#         401
  C:FA42H         LINE#         402
  C:FA42H         LINE#         403
  C:FA42H         LINE#         404
  -------         ENDPROC       _UPLOAD_SHADOW_BOOL
  -------         PROC          _UPLOAD_SHADOW_ENUM
  D:0007H         SYMBOL        dpid
  D:0005H         SYMBOL        val
  C:F631H         LINE#         406
  C:F631H         LINE#         407
  C:F631H         LINE#         408
  C:F642H         LINE#         409
  C:F642H         LINE#         410
  C:F648H         LINE#         411
  C:F64EH         LINE#         412
  C:F654H         LINE#         413
  C:F659H         LINE#         414
  C:F659H         LINE#         415
  C:F659H         LINE#         416
  -------         ENDPROC       _UPLOAD_SHADOW_ENUM
  -------         PROC          _UPLOAD_SHADOW_VALUE
  D:0007H         SYMBOL        dpid
  X:8B20H         SYMBOL        val
  C:B8F2H         LINE#         418
  C:B8F2H         LINE#         419
BL51 BANKED LINKER/LOCATER V6.22.2.0                                                  06/30/2026  14:47:53  PAGE 142


  C:B8F2H         LINE#         420
  C:B918H         LINE#         421
  C:B918H         LINE#         422
  C:B92CH         LINE#         423
  C:B940H         LINE#         424
  C:B954H         LINE#         425
  C:B967H         LINE#         426
  C:B97AH         LINE#         427
  C:B98DH         LINE#         428
  C:B9A0H         LINE#         429
  C:B9B3H         LINE#         430
  C:B9C6H         LINE#         431
  C:B9DAH         LINE#         432
  C:B9DAH         LINE#         433
  C:B9DAH         LINE#         434
  -------         ENDPROC       _UPLOAD_SHADOW_VALUE
  -------         PROC          _UPLOAD_MODETODP101
  D:0007H         SYMBOL        mode
  C:FB59H         LINE#         436
  C:FB59H         LINE#         437
  C:FB59H         LINE#         438
  C:FB65H         LINE#         439
  C:FB65H         LINE#         440
  C:FB68H         LINE#         441
  C:FB6BH         LINE#         442
  C:FB6EH         LINE#         443
  C:FB70H         LINE#         444
  C:FB70H         LINE#         445
  -------         ENDPROC       _UPLOAD_MODETODP101
  -------         PROC          _UPLOAD_WORKSTATETODP
  D:0007H         SYMBOL        mode
  C:FA43H         LINE#         447
  C:FA43H         LINE#         448
  C:FA43H         LINE#         449
  C:FA52H         LINE#         450
  C:FA52H         LINE#         451
  C:FA55H         LINE#         452
  C:FA58H         LINE#         453
  C:FA5BH         LINE#         454
  C:FA5EH         LINE#         455
  -------         ENDPROC       _UPLOAD_WORKSTATETODP
  -------         PROC          _UPLOAD_BOOLIFCHANGED
  D:0007H         SYMBOL        dpid
  D:0005H         SYMBOL        val
  D:0001H         SYMBOL        shadow
  C:FBA0H         LINE#         460
  C:FBA0H         LINE#         461
  C:FBA0H         LINE#         462
  C:FBACH         LINE#         464
  C:FBB0H         LINE#         465
  C:FBB3H         LINE#         466
  C:FBB6H         LINE#         467
  -------         ENDPROC       _UPLOAD_BOOLIFCHANGED
  -------         PROC          _UPLOAD_ENUMIFCHANGED
  D:0007H         SYMBOL        dpid
  D:0005H         SYMBOL        val
  D:0001H         SYMBOL        shadow
BL51 BANKED LINKER/LOCATER V6.22.2.0                                                  06/30/2026  14:47:53  PAGE 143


  C:FBB7H         LINE#         469
  C:FBB7H         LINE#         470
  C:FBB7H         LINE#         471
  C:FBC3H         LINE#         473
  C:FBC7H         LINE#         474
  C:FBCAH         LINE#         475
  C:FBCDH         LINE#         476
  -------         ENDPROC       _UPLOAD_ENUMIFCHANGED
  -------         PROC          _UPLOAD_VALUEIFCHANGED
  X:8B07H         SYMBOL        dpid
  X:8B08H         SYMBOL        val
  X:8B0CH         SYMBOL        shadow
  C:E0B5H         LINE#         478
  C:E0BAH         LINE#         479
  C:E0BAH         LINE#         480
  C:E0E2H         LINE#         482
  C:E0FCH         LINE#         483
  C:E118H         LINE#         484
  C:E11BH         LINE#         485
  -------         ENDPROC       _UPLOAD_VALUEIFCHANGED
  -------         PROC          UPLOAD_GETUNIT
  -------         DO            
  X:8AF1H         SYMBOL        unit
  -------         ENDDO         
  C:F7E6H         LINE#         487
  C:F7E6H         LINE#         488
  C:F7E6H         LINE#         489
  C:F7EDH         LINE#         490
  C:F805H         LINE#         491
  C:F80BH         LINE#         492
  -------         ENDPROC       UPLOAD_GETUNIT
  -------         PROC          UPLOAD_DP_SWITCH
  -------         DO            
  X:8B05H         SYMBOL        vp_u16
  -------         ENDDO         
  C:F536H         LINE#         494
  C:F536H         LINE#         495
  C:F536H         LINE#         497
  C:F54FH         LINE#         498
  -------         ENDPROC       UPLOAD_DP_SWITCH
  -------         PROC          UPLOAD_DP_MODE
  -------         DO            
  X:8B05H         SYMBOL        vp_u16
  D:0007H         SYMBOL        dp_val
  -------         ENDDO         
  C:F3F9H         LINE#         501
  C:F3F9H         LINE#         502
  C:F3F9H         LINE#         505
  C:F412H         LINE#         506
  C:F41BH         LINE#         507
  -------         ENDPROC       UPLOAD_DP_MODE
  -------         PROC          UPLOAD_DP_TEMP_SET
  -------         DO            
  X:8B05H         SYMBOL        vp_u16
  -------         ENDDO         
  C:EFF0H         LINE#         510
  C:EFF0H         LINE#         511
BL51 BANKED LINKER/LOCATER V6.22.2.0                                                  06/30/2026  14:47:53  PAGE 144


  C:EFF0H         LINE#         513
  C:F009H         LINE#         514
  -------         ENDPROC       UPLOAD_DP_TEMP_SET
  -------         PROC          UPLOAD_DP_TEMP_UNIT
  -------         DO            
  X:8B05H         SYMBOL        vp_u16
  -------         ENDDO         
  C:F560H         LINE#         517
  C:F560H         LINE#         518
  C:F560H         LINE#         520
  C:F579H         LINE#         521
  -------         ENDPROC       UPLOAD_DP_TEMP_UNIT
  -------         PROC          UPLOAD_DP_WORK_STATE
  -------         DO            
  X:8B05H         SYMBOL        vp_u16
  D:0007H         SYMBOL        dp_val
  -------         ENDDO         
  C:F457H         LINE#         524
  C:F457H         LINE#         525
  C:F457H         LINE#         528
  C:F46FH         LINE#         529
  C:F478H         LINE#         530
  -------         ENDPROC       UPLOAD_DP_WORK_STATE
  -------         PROC          UPLOAD_DP_CHILD_LOCK
  -------         DO            
  X:8B05H         SYMBOL        vp_u16
  -------         ENDDO         
  C:F58AH         LINE#         533
  C:F58AH         LINE#         534
  C:F58AH         LINE#         536
  C:F5A3H         LINE#         537
  -------         ENDPROC       UPLOAD_DP_CHILD_LOCK
  -------         PROC          UPLOAD_DP_DEFROST
  -------         DO            
  X:8B05H         SYMBOL        vp_u16
  -------         ENDDO         
  C:F5B4H         LINE#         540
  C:F5B4H         LINE#         541
  C:F5B4H         LINE#         543
  C:F5CDH         LINE#         544
  -------         ENDPROC       UPLOAD_DP_DEFROST
  -------         PROC          UPLOAD_DP_RELAY_STATUS
  -------         DO            
  X:8B05H         SYMBOL        vp_u16
  -------         ENDDO         
  C:F5DEH         LINE#         547
  C:F5DEH         LINE#         548
  C:F5DEH         LINE#         550
  C:F5F7H         LINE#         551
  -------         ENDPROC       UPLOAD_DP_RELAY_STATUS
  -------         PROC          UPLOAD_DP_FAULT
  -------         DO            
  X:8AE9H         SYMBOL        vp_u16
  -------         ENDDO         
  C:F02DH         LINE#         554
  C:F02DH         LINE#         555
  C:F02DH         LINE#         557
BL51 BANKED LINKER/LOCATER V6.22.2.0                                                  06/30/2026  14:47:53  PAGE 145


  C:F046H         LINE#         558
  -------         ENDPROC       UPLOAD_DP_FAULT
  -------         PROC          UPLOAD_DP_TEMP_CURRENT
  -------         DO            
  D:0007H         SYMBOL        unit
  X:8AE9H         SYMBOL        ft
  X:8AEDH         SYMBOL        set_temp32
  -------         ENDDO         
  C:DD52H         LINE#         561
  C:DD52H         LINE#         562
  C:DD52H         LINE#         563
  C:DD55H         LINE#         566
  C:DD61H         LINE#         567
  C:DD6BH         LINE#         569
  C:DD7BH         LINE#         570
  C:DD9CH         LINE#         571
  -------         ENDPROC       UPLOAD_DP_TEMP_CURRENT
  -------         PROC          UPLOAD_DP_TEMP_TOP
  -------         DO            
  D:0007H         SYMBOL        unit
  X:8AE9H         SYMBOL        ft
  X:8AEDH         SYMBOL        set_temp32
  -------         ENDDO         
  C:DB18H         LINE#         574
  C:DB18H         LINE#         575
  C:DB18H         LINE#         576
  C:DB1BH         LINE#         579
  C:DB27H         LINE#         580
  C:DB31H         LINE#         582
  C:DB42H         LINE#         583
  C:DB63H         LINE#         584
  -------         ENDPROC       UPLOAD_DP_TEMP_TOP
  -------         PROC          UPLOAD_DP_EFFLUENT_TEMP
  -------         DO            
  D:0007H         SYMBOL        unit
  X:8AE9H         SYMBOL        ft
  X:8AEDH         SYMBOL        set_temp32
  -------         ENDDO         
  C:DB8AH         LINE#         587
  C:DB8AH         LINE#         588
  C:DB8AH         LINE#         589
  C:DB8DH         LINE#         592
  C:DB99H         LINE#         593
  C:DBA3H         LINE#         595
  C:DBB4H         LINE#         596
  C:DBD5H         LINE#         597
  -------         ENDPROC       UPLOAD_DP_EFFLUENT_TEMP
  -------         PROC          UPLOAD_DP_AROUND_TEMP
  -------         DO            
  D:0007H         SYMBOL        unit
  X:8AE9H         SYMBOL        ft
  X:8AEDH         SYMBOL        set_temp32
  -------         ENDDO         
  C:DBFCH         LINE#         600
  C:DBFCH         LINE#         601
  C:DBFCH         LINE#         602
  C:DBFFH         LINE#         605
BL51 BANKED LINKER/LOCATER V6.22.2.0                                                  06/30/2026  14:47:53  PAGE 146


  C:DC0BH         LINE#         606
  C:DC15H         LINE#         608
  C:DC26H         LINE#         609
  C:DC47H         LINE#         610
  -------         ENDPROC       UPLOAD_DP_AROUND_TEMP
  -------         PROC          UPLOAD_DP_EVAPORATOR_TEMP
  -------         DO            
  D:0007H         SYMBOL        unit
  X:8AE9H         SYMBOL        ft
  X:8AEDH         SYMBOL        set_temp32
  -------         ENDDO         
  C:DC6EH         LINE#         613
  C:DC6EH         LINE#         614
  C:DC6EH         LINE#         615
  C:DC71H         LINE#         618
  C:DC7DH         LINE#         619
  C:DC87H         LINE#         621
  C:DC98H         LINE#         622
  C:DCB9H         LINE#         623
  -------         ENDPROC       UPLOAD_DP_EVAPORATOR_TEMP
  -------         PROC          UPLOAD_DP_DEFROST_FREQ
  -------         DO            
  X:8AE9H         SYMBOL        vp_u16
  -------         ENDDO         
  C:F06AH         LINE#         626
  C:F06AH         LINE#         627
  C:F06AH         LINE#         629
  C:F083H         LINE#         630
  -------         ENDPROC       UPLOAD_DP_DEFROST_FREQ
  -------         PROC          UPLOAD_DP_DEFROST_OUT_TEMP
  -------         DO            
  D:0007H         SYMBOL        unit
  X:8AE9H         SYMBOL        ft
  X:8AEDH         SYMBOL        set_temp32
  -------         ENDDO         
  C:DCE0H         LINE#         633
  C:DCE0H         LINE#         634
  C:DCE0H         LINE#         635
  C:DCE3H         LINE#         638
  C:DCEFH         LINE#         639
  C:DCF9H         LINE#         641
  C:DD0AH         LINE#         642
  C:DD2BH         LINE#         643
  -------         ENDPROC       UPLOAD_DP_DEFROST_OUT_TEMP
  -------         PROC          UPLOAD_DP_DEFROST_TIME
  -------         DO            
  X:8AE9H         SYMBOL        vp_u16
  -------         ENDDO         
  C:F0A7H         LINE#         646
  C:F0A7H         LINE#         647
  C:F0A7H         LINE#         649
  C:F0C0H         LINE#         650
  -------         ENDPROC       UPLOAD_DP_DEFROST_TIME
  -------         PROC          _UPLOAD_SET_BOOT_READY
  D:0007H         SYMBOL        ready
  C:FDA2H         LINE#         653
  C:FDA2H         LINE#         654
BL51 BANKED LINKER/LOCATER V6.22.2.0                                                  06/30/2026  14:47:53  PAGE 147


  C:FDA2H         LINE#         655
  C:FDB0H         LINE#         656
  -------         ENDPROC       _UPLOAD_SET_BOOT_READY
  -------         PROC          UPLOAD_IS_BOOT_READY
  C:FE8FH         LINE#         658
  C:FE8FH         LINE#         659
  C:FE8FH         LINE#         660
  C:FE94H         LINE#         661
  -------         ENDPROC       UPLOAD_IS_BOOT_READY
  -------         PROC          UPLOAD_STATE_QUERY_REPLY
  -------         DO            
  X:93B2H         SYMBOL        s_cmd8_idx
  -------         ENDDO         
  C:DFE3H         LINE#         663
  C:DFE3H         LINE#         664
  C:DFE3H         LINE#         668
  C:DFE9H         LINE#         669
  C:E00EH         LINE#         670
  C:E00EH         LINE#         671
  C:E013H         LINE#         672
  C:E018H         LINE#         673
  C:E01DH         LINE#         674
  C:E022H         LINE#         675
  C:E027H         LINE#         676
  C:E02CH         LINE#         677
  C:E031H         LINE#         678
  C:E034H         LINE#         679
  C:E034H         LINE#         680
  C:E039H         LINE#         681
  C:E03FH         LINE#         682
  C:E049H         LINE#         683
  C:E04BH         LINE#         684
  -------         ENDPROC       UPLOAD_STATE_QUERY_REPLY
  -------         PROC          UPLOAD_MODBUS_POLL_REPORT
  C:FEBBH         LINE#         686
  C:FEBBH         LINE#         687
  C:FEBBH         LINE#         689
  -------         ENDPROC       UPLOAD_MODBUS_POLL_REPORT
  -------         ENDMOD        UPLOAD

  -------         MODULE        WIFIPRO
  C:0000H         SYMBOL        _ICE_DUMMY_
  D:0080H         PUBLIC        P0
  C:FE95H         PUBLIC        Wifi_Init
  D:00F8H         PUBLIC        RAMMODE
  D:00A8H         PUBLIC        IEN0
  D:00B8H         PUBLIC        IEN1
  D:0088H         PUBLIC        TCON
  D:0098H         PUBLIC        SCON0
  D:00C8H         PUBLIC        T2CON
  D:00D0H         PUBLIC        PSW
  D:00C0H         PUBLIC        IRCON
  -------         PROC          WIFI_INIT
  C:FE95H         LINE#         12
  C:FE95H         LINE#         13
  C:FE95H         LINE#         14
  C:FE98H         LINE#         15
BL51 BANKED LINKER/LOCATER V6.22.2.0                                                  06/30/2026  14:47:53  PAGE 148


  -------         ENDPROC       WIFI_INIT
  -------         ENDMOD        WIFIPRO

  -------         MODULE        OTA
  C:0000H         SYMBOL        _ICE_DUMMY_
  D:0080H         PUBLIC        P0
  B:0025H.6       PUBLIC        OTAReloading
  B:0025H.7       PUBLIC        OTAStartReply
  D:00F8H         PUBLIC        RAMMODE
  X:954CH         PUBLIC        OTAStartSendTimes
  D:00A8H         PUBLIC        IEN0
  D:00B8H         PUBLIC        IEN1
  B:0026H.0       PUBLIC        TuyaOTAState
  C:F80CH         PUBLIC        OTAinit
  X:954DH         PUBLIC        TuyaOTADisConnectCnt
  C:F9E5H         PUBLIC        OTARecvPro
  D:0088H         PUBLIC        TCON
  X:954FH         PUBLIC        OTA_ModbusStep
  X:9550H         PUBLIC        OTAModbusRecvDelay
  X:9552H         PUBLIC        OTA_ModbusSendStep
  C:D762H         PUBLIC        OTADecodePro
  X:9553H         PUBLIC        OTAModbusRecvIndex
  D:0098H         PUBLIC        SCON0
  X:9555H         PUBLIC        OTAModbusRecvLenth
  X:9556H         PUBLIC        OTA_ModbusRecvStep
  C:FB71H         PUBLIC        OTA_ModbusPro
  D:00C8H         PUBLIC        T2CON
  C:5E2CH         PUBLIC        OTAEncodePro
  B:0026H.1       PUBLIC        OTAReply
  D:00D0H         PUBLIC        PSW
  D:00C0H         PUBLIC        IRCON
  -------         PROC          OTAINIT
  -------         DO            
  D:0006H         SYMBOL        i
  -------         ENDDO         
  C:F80CH         LINE#         44
  C:F80CH         LINE#         45
  C:F80CH         LINE#         47
  C:F80CH         LINE#         48
  C:F80CH         LINE#         49
  C:F81AH         LINE#         50
  C:F81AH         LINE#         51
  C:F81FH         LINE#         52
  C:F823H         LINE#         53
  C:F827H         LINE#         54
  C:F829H         LINE#         55
  C:F82DH         LINE#         56
  C:F831H         LINE#         57
  -------         ENDPROC       OTAINIT
  -------         PROC          OTA_MODBUSPRO
  C:FB71H         LINE#         58
  C:FB71H         LINE#         59
  C:FB71H         LINE#         60
  C:FB7FH         LINE#         61
  C:FB7FH         LINE#         62
  C:FB7FH         LINE#         63
  C:FB82H         LINE#         64
BL51 BANKED LINKER/LOCATER V6.22.2.0                                                  06/30/2026  14:47:53  PAGE 149


  C:FB82H         LINE#         65
  C:FB82H         LINE#         66
  C:FB85H         LINE#         67
  C:FB85H         LINE#         68
  C:FB85H         LINE#         69
  C:FB88H         LINE#         70
  C:FB88H         LINE#         71
  C:FB88H         LINE#         72
  -------         ENDPROC       OTA_MODBUSPRO
  -------         PROC          OTAENCODEPRO
  -------         DO            
  X:8A99H         SYMBOL        SendIndex
  X:8A9BH         SYMBOL        Crc
  D:0006H         SYMBOL        i
  -------         ENDDO         
  C:5E2CH         LINE#         73
  C:5E2CH         LINE#         74
  C:5E2CH         LINE#         75
  C:5E39H         LINE#         76
  C:5E42H         LINE#         77
  C:5E42H         LINE#         78
  C:5E54H         LINE#         79
  C:5E54H         LINE#         80
  C:5E6DH         LINE#         81
  C:5E86H         LINE#         82
  C:5E9FH         LINE#         83
  C:5EAFH         LINE#         84
  C:5EAFH         LINE#         85
  C:5EB4H         LINE#         86
  C:5EB6H         LINE#         87
  C:5EB9H         LINE#         88
  C:5EB9H         LINE#         89
  C:5EBFH         LINE#         90
  C:5EC1H         LINE#         92
  C:5EC1H         LINE#         93
  C:5ECAH         LINE#         94
  C:5ECAH         LINE#         95
  C:5ECCH         LINE#         96
  C:5ED2H         LINE#         97
  C:5ED3H         LINE#         99
  C:5ED3H         LINE#         100
  C:5EE3H         LINE#         101
  C:5EE3H         LINE#         102
  C:5EE3H         LINE#         103
  C:5EE9H         LINE#         104
  C:5F02H         LINE#         105
  C:5F1BH         LINE#         106
  C:5F34H         LINE#         107
  C:5F4DH         LINE#         108
  C:5F65H         LINE#         109
  C:5F7DH         LINE#         110
  C:5FA8H         LINE#         111
  C:5FD5H         LINE#         112
  C:6000H         LINE#         113
  C:6020H         LINE#         114
  C:6038H         LINE#         115
  C:6063H         LINE#         116
BL51 BANKED LINKER/LOCATER V6.22.2.0                                                  06/30/2026  14:47:53  PAGE 150


  C:607CH         LINE#         117
  C:6095H         LINE#         118
  C:6098H         LINE#         119
  C:6098H         LINE#         120
  C:60B1H         LINE#         121
  C:60CAH         LINE#         122
  C:60F5H         LINE#         123
  C:6115H         LINE#         124
  C:6118H         LINE#         125
  C:6118H         LINE#         126
  C:613CH         LINE#         127
  C:6149H         LINE#         128
  C:6149H         LINE#         129
  C:6149H         LINE#         130
  C:6168H         LINE#         131
  C:6188H         LINE#         132
  C:61A2H         LINE#         133
  C:61B3H         LINE#         134
  C:61B9H         LINE#         135
  C:61B9H         LINE#         136
  C:61B9H         LINE#         137
  -------         ENDPROC       OTAENCODEPRO
  -------         PROC          OTARECVPRO
  C:F9E5H         LINE#         138
  C:F9E5H         LINE#         139
  C:F9E5H         LINE#         140
  C:F9F1H         LINE#         141
  C:F9F1H         LINE#         142
  C:F9F6H         LINE#         143
  C:F9FEH         LINE#         144
  C:FA04H         LINE#         145
  C:FA04H         LINE#         146
  -------         ENDPROC       OTARECVPRO
  -------         PROC          OTADECODEPRO
  -------         DO            
  D:0006H         SYMBOL        Crc
  -------         ENDDO         
  C:D762H         LINE#         147
  C:D762H         LINE#         148
  C:D762H         LINE#         149
  C:D764H         LINE#         150
  C:D778H         LINE#         151
  C:D79AH         LINE#         152
  C:D79AH         LINE#         153
  C:D79AH         LINE#         154
  C:D79CH         LINE#         156
  C:D79CH         LINE#         157
  C:D7CFH         LINE#         158
  C:D7CFH         LINE#         159
  C:D7D1H         LINE#         160
  C:D7D3H         LINE#         161
  C:D7D3H         LINE#         162
  C:D7D8H         LINE#         163
  C:D7DCH         LINE#         164
  -------         ENDPROC       OTADECODEPRO
  -------         ENDMOD        OTA

BL51 BANKED LINKER/LOCATER V6.22.2.0                                                  06/30/2026  14:47:53  PAGE 151


  -------         MODULE        MCU_API
  C:0000H         SYMBOL        _ICE_DUMMY_
  C:FE9BH         PUBLIC        mcu_get_reset_wifi_flag
  C:D2CCH         SYMBOL        wifi_uart_parse_cmd6_priority
  X:9518H         SYMBOL        s_rx_cmd_win
  D:00F8H         PUBLIC        RAMMODE
  D:00A8H         PUBLIC        IEN0
  D:00B8H         PUBLIC        IEN1
  C:FBCEH         PUBLIC        _mcu_set_wifi_mode
  C:D4E2H         PUBLIC        _mcu_dp_raw_update
  C:DDC3H         PUBLIC        _hex_to_bcd
  X:951CH         PUBLIC        wifi_rx_c6_short_count
  X:951EH         PUBLIC        wifi_rx_c6_chk_fail_count
  X:9520H         PUBLIC        wifi_rx_ver_reject_count
  C:BE26H         PUBLIC        _uart_receive_input
  C:FEA1H         PUBLIC        mcu_get_wifimode_flag
  C:F6FBH         PUBLIC        wifi_protocol_init
  C:E609H         PUBLIC        _uart_receive_buff_input
  C:9163H         SYMBOL        _wifi_uart_try_frame_len
  C:F723H         PUBLIC        mcu_get_wifi_work_state
  C:FAD5H         PUBLIC        wifi_uart_service
  C:A522H         PUBLIC        _byte_to_int
  C:E3DFH         PUBLIC        _int_to_byte
  X:9521H         PUBLIC        wifi_rx_last_cmd
  C:FE46H         PUBLIC        mcu_start_wifitest
  X:9522H         PUBLIC        wifi_rx_raw_c6_seen
  C:BFC8H         SYMBOL        wifi_uart_parse_frames
  C:D099H         SYMBOL        _wifi_uart_remove_frame
  X:9523H         PUBLIC        wifi_rx_raw_c8_seen
  X:9524H         PUBLIC        wifi_rx_frame_ok_count
  D:0088H         PUBLIC        TCON
  C:E9E4H         PUBLIC        _wifi_uart_rx_byte_scan
  X:9526H         SYMBOL        s_wifi_download_depth
  C:F15AH         PUBLIC        wifi_uart_rx_pull
  D:00C9H         PUBLIC        MUX_SEL
  C:ECD0H         PUBLIC        wifi_uart_drain
  X:9527H         PUBLIC        wifi_rx_cmd6_count
  C:9BF6H         PUBLIC        _my_memcpy
  C:E559H         PUBLIC        _my_memset
  X:9528H         PUBLIC        wifi_rx_cmd8_count
  C:FE27H         PUBLIC        _mcu_get_dp_download_value
  C:FDBFH         PUBLIC        mcu_reset_wifi
  X:9529H         PUBLIC        wifi_rx_c6_hdr_ok_count
  C:D565H         PUBLIC        _mcu_dp_string_update
  C:9D5DH         PUBLIC        _mcu_dp_fault_update
  C:D9BDH         PUBLIC        _my_strlen
  D:0098H         PUBLIC        SCON0
  C:C69AH         PUBLIC        _mcu_dp_value_update
  C:DAA5H         PUBLIC        _my_strcmp
  C:FE01H         SYMBOL        _wifi_uart_frame_version_ok
  D:00C8H         PUBLIC        T2CON
  C:FDE7H         PUBLIC        _mcu_get_dp_download_bool
  C:D242H         PUBLIC        _my_strcpy
  C:E803H         PUBLIC        _mcu_dp_bool_update
  C:FC27H         PUBLIC        wifi_uart_process_download
  C:FDF4H         PUBLIC        _mcu_get_dp_download_enum
  X:952BH         PUBLIC        wifi_tx_upload_count
BL51 BANKED LINKER/LOCATER V6.22.2.0                                                  06/30/2026  14:47:53  PAGE 152


  X:952DH         SYMBOL        s_wifi_frame_rx_in
  D:00D0H         PUBLIC        PSW
  C:EACCH         PUBLIC        _mcu_dp_enum_update
  X:952FH         SYMBOL        s_wifi_parse_depth
  D:00C0H         PUBLIC        IRCON
  -------         PROC          _HEX_TO_BCD
  D:0007H         SYMBOL        Value_H
  D:0005H         SYMBOL        Value_L
  -------         DO            
  D:0007H         SYMBOL        bcd_value
  -------         ENDDO         
  C:DDC3H         LINE#         37
  C:DDC3H         LINE#         38
  C:DDC3H         LINE#         41
  C:DDCFH         LINE#         42
  C:DDD5H         LINE#         43
  C:DDE1H         LINE#         44
  C:DDE7H         LINE#         45
  C:DDF3H         LINE#         46
  C:DDF7H         LINE#         48
  C:DDFAH         LINE#         50
  C:DDFEH         LINE#         51
  C:DE0AH         LINE#         52
  C:DE10H         LINE#         53
  C:DE1CH         LINE#         54
  C:DE1EH         LINE#         55
  C:DE2AH         LINE#         56
  C:DE2EH         LINE#         58
  C:DE33H         LINE#         60
  C:DE33H         LINE#         61
  -------         ENDPROC       _HEX_TO_BCD
  -------         PROC          _MY_STRLEN
  X:8B12H         SYMBOL        str
  -------         DO            
  X:8B15H         SYMBOL        len
  -------         ENDDO         
  C:D9BDH         LINE#         68
  C:D9C8H         LINE#         69
  C:D9C8H         LINE#         70
  C:D9D0H         LINE#         71
  C:D9DEH         LINE#         72
  C:D9E3H         LINE#         73
  C:D9E3H         LINE#         75
  C:DA02H         LINE#         76
  C:DA21H         LINE#         77
  C:DA23H         LINE#         79
  C:DA31H         LINE#         80
  -------         ENDPROC       _MY_STRLEN
  -------         PROC          _MY_MEMSET
  X:9561H         SYMBOL        src
  D:0005H         SYMBOL        ch
  X:9565H         SYMBOL        count
  -------         DO            
  X:9567H         SYMBOL        tmp
  -------         ENDDO         
  C:E559H         LINE#         89
  C:E564H         LINE#         90
BL51 BANKED LINKER/LOCATER V6.22.2.0                                                  06/30/2026  14:47:53  PAGE 153


  C:E564H         LINE#         91
  C:E56FH         LINE#         93
  C:E57DH         LINE#         94
  C:E581H         LINE#         95
  C:E581H         LINE#         97
  C:E58FH         LINE#         98
  C:E5A3H         LINE#         99
  C:E5A5H         LINE#         101
  C:E5B0H         LINE#         102
  -------         ENDPROC       _MY_MEMSET
  -------         PROC          _MY_MEMCPY
  X:8BA0H         SYMBOL        dest
  X:8BA3H         SYMBOL        src
  X:8BA6H         SYMBOL        count
  -------         DO            
  X:8BA8H         SYMBOL        pdest
  X:8BABH         SYMBOL        psrc
  X:8BAEH         SYMBOL        i
  -------         ENDDO         
  C:9BF6H         LINE#         111
  C:9C01H         LINE#         112
  C:9C01H         LINE#         113
  C:9C0CH         LINE#         114
  C:9C21H         LINE#         117
  C:9C3BH         LINE#         118
  C:9C42H         LINE#         119
  C:9C42H         LINE#         121
  C:9C9EH         LINE#         122
  C:9CBEH         LINE#         123
  C:9CE4H         LINE#         124
  C:9CF4H         LINE#         125
  C:9CF4H         LINE#         126
  C:9D13H         LINE#         127
  C:9D41H         LINE#         128
  C:9D51H         LINE#         129
  C:9D51H         LINE#         131
  C:9D5CH         LINE#         132
  -------         ENDPROC       _MY_MEMCPY
  -------         PROC          _MY_STRCPY
  X:956AH         SYMBOL        dest
  X:956DH         SYMBOL        src
  -------         DO            
  X:9570H         SYMBOL        p
  -------         ENDDO         
  C:D242H         LINE#         140
  C:D24DH         LINE#         141
  C:D24DH         LINE#         142
  C:D258H         LINE#         144
  C:D272H         LINE#         145
  C:D279H         LINE#         146
  C:D279H         LINE#         149
  C:D289H         LINE#         150
  C:D2AFH         LINE#         151
  C:D2B1H         LINE#         152
  C:D2C0H         LINE#         153
  C:D2CBH         LINE#         154
  -------         ENDPROC       _MY_STRCPY
BL51 BANKED LINKER/LOCATER V6.22.2.0                                                  06/30/2026  14:47:53  PAGE 154


  -------         PROC          _MY_STRCMP
  X:9587H         SYMBOL        s1
  X:958AH         SYMBOL        s2
  C:DAA5H         LINE#         165
  C:DAB0H         LINE#         166
  C:DAB0H         LINE#         167
  C:DAD4H         LINE#         168
  C:DADEH         LINE#         169
  C:DAE8H         LINE#         170
  C:DAEAH         LINE#         171
  C:DB17H         LINE#         172
  -------         ENDPROC       _MY_STRCMP
  -------         PROC          _INT_TO_BYTE
  X:9591H         SYMBOL        number
  D:0001H         SYMBOL        value
  C:E3DFH         LINE#         180
  C:E3E5H         LINE#         181
  C:E3E5H         LINE#         182
  C:E3FCH         LINE#         183
  C:E416H         LINE#         184
  C:E430H         LINE#         185
  -------         ENDPROC       _INT_TO_BYTE
  -------         PROC          _BYTE_TO_INT
  X:8B21H         SYMBOL        value
  -------         DO            
  X:8B24H         SYMBOL        nubmer
  -------         ENDDO         
  C:A522H         LINE#         193
  C:A52DH         LINE#         194
  C:A52DH         LINE#         195
  C:A535H         LINE#         197
  C:A543H         LINE#         198
  C:A55CH         LINE#         199
  C:A59BH         LINE#         200
  C:A5B4H         LINE#         201
  C:A5F3H         LINE#         202
  C:A60CH         LINE#         203
  C:A64BH         LINE#         205
  C:A659H         LINE#         206
  -------         ENDPROC       _BYTE_TO_INT
  -------         PROC          _MCU_DP_RAW_UPDATE
  D:0005H         SYMBOL        dpid
  X:8B94H         SYMBOL        value
  X:8B97H         SYMBOL        len
  -------         DO            
  D:0006H         SYMBOL        send_len
  -------         ENDDO         
  C:D4E2H         LINE#         216
  C:D4EFH         LINE#         217
  C:D4EFH         LINE#         218
  C:D4F2H         LINE#         220
  C:D4FAH         LINE#         221
  C:D4FCH         LINE#         222
  C:D513H         LINE#         223
  C:D516H         LINE#         224
  C:D524H         LINE#         226
  C:D527H         LINE#         227
BL51 BANKED LINKER/LOCATER V6.22.2.0                                                  06/30/2026  14:47:53  PAGE 155


  C:D52CH         LINE#         229
  C:D534H         LINE#         230
  C:D53CH         LINE#         232
  C:D557H         LINE#         234
  C:D562H         LINE#         236
  C:D564H         LINE#         237
  -------         ENDPROC       _MCU_DP_RAW_UPDATE
  -------         PROC          _MCU_DP_BOOL_UPDATE
  D:0004H         SYMBOL        dpid
  X:8B1AH         SYMBOL        value
  -------         DO            
  D:0006H         SYMBOL        send_len
  -------         ENDDO         
  C:E803H         LINE#         246
  C:E80AH         LINE#         247
  C:E80AH         LINE#         248
  C:E80DH         LINE#         250
  C:E815H         LINE#         251
  C:E817H         LINE#         252
  C:E825H         LINE#         254
  C:E82AH         LINE#         255
  C:E82FH         LINE#         257
  C:E834H         LINE#         258
  C:E839H         LINE#         260
  C:E83FH         LINE#         261
  C:E840H         LINE#         262
  C:E842H         LINE#         263
  C:E847H         LINE#         264
  C:E847H         LINE#         266
  C:E852H         LINE#         268
  C:E854H         LINE#         269
  -------         ENDPROC       _MCU_DP_BOOL_UPDATE
  -------         PROC          _MCU_DP_VALUE_UPDATE
  D:0005H         SYMBOL        dpid
  X:8B20H         SYMBOL        value
  -------         DO            
  D:0006H         SYMBOL        send_len
  -------         ENDDO         
  C:C69AH         LINE#         278
  C:C69CH         LINE#         279
  C:C69CH         LINE#         280
  C:C69FH         LINE#         282
  C:C6A7H         LINE#         283
  C:C6A9H         LINE#         284
  C:C6B7H         LINE#         286
  C:C6BAH         LINE#         287
  C:C6BFH         LINE#         289
  C:C6C4H         LINE#         290
  C:C6C9H         LINE#         292
  C:C6E9H         LINE#         293
  C:C709H         LINE#         294
  C:C729H         LINE#         295
  C:C741H         LINE#         297
  C:C74CH         LINE#         299
  C:C74EH         LINE#         300
  -------         ENDPROC       _MCU_DP_VALUE_UPDATE
  -------         PROC          _MCU_DP_STRING_UPDATE
BL51 BANKED LINKER/LOCATER V6.22.2.0                                                  06/30/2026  14:47:53  PAGE 156


  D:0005H         SYMBOL        dpid
  X:8B2AH         SYMBOL        value
  X:8B2DH         SYMBOL        len
  -------         DO            
  D:0006H         SYMBOL        send_len
  -------         ENDDO         
  C:D565H         LINE#         310
  C:D572H         LINE#         311
  C:D572H         LINE#         312
  C:D575H         LINE#         314
  C:D57DH         LINE#         315
  C:D57FH         LINE#         316
  C:D596H         LINE#         317
  C:D599H         LINE#         318
  C:D5A7H         LINE#         320
  C:D5AAH         LINE#         321
  C:D5AFH         LINE#         323
  C:D5B7H         LINE#         324
  C:D5BFH         LINE#         326
  C:D5DAH         LINE#         328
  C:D5E5H         LINE#         330
  C:D5E7H         LINE#         331
  -------         ENDPROC       _MCU_DP_STRING_UPDATE
  -------         PROC          _MCU_DP_ENUM_UPDATE
  D:0004H         SYMBOL        dpid
  X:8B18H         SYMBOL        value
  -------         DO            
  D:0006H         SYMBOL        send_len
  -------         ENDDO         
  C:EACCH         LINE#         340
  C:EAD3H         LINE#         341
  C:EAD3H         LINE#         342
  C:EAD6H         LINE#         344
  C:EADEH         LINE#         345
  C:EAE0H         LINE#         346
  C:EAEEH         LINE#         348
  C:EAF3H         LINE#         349
  C:EAF8H         LINE#         351
  C:EAFDH         LINE#         352
  C:EB02H         LINE#         354
  C:EB0AH         LINE#         356
  C:EB15H         LINE#         358
  C:EB17H         LINE#         359
  -------         ENDPROC       _MCU_DP_ENUM_UPDATE
  -------         PROC          _MCU_DP_FAULT_UPDATE
  D:0005H         SYMBOL        dpid
  X:9574H         SYMBOL        value
  -------         DO            
  X:9578H         SYMBOL        send_len
  -------         ENDDO         
  C:9D5DH         LINE#         368
  C:9D5FH         LINE#         369
  C:9D5FH         LINE#         370
  C:9D66H         LINE#         372
  C:9D6EH         LINE#         373
  C:9D71H         LINE#         375
  C:9D84H         LINE#         376
BL51 BANKED LINKER/LOCATER V6.22.2.0                                                  06/30/2026  14:47:53  PAGE 157


  C:9D91H         LINE#         378
  C:9D9EH         LINE#         380
  C:9DB9H         LINE#         381
  C:9DCEH         LINE#         382
  C:9DD6H         LINE#         383
  C:9DF7H         LINE#         384
  C:9DFEH         LINE#         385
  C:9DFEH         LINE#         386
  C:9DFEH         LINE#         387
  C:9E00H         LINE#         388
  C:9E12H         LINE#         389
  C:9E3AH         LINE#         390
  C:9E62H         LINE#         391
  C:9E8AH         LINE#         392
  C:9EAAH         LINE#         393
  C:9EAAH         LINE#         395
  C:9EB9H         LINE#         397
  C:9EBBH         LINE#         398
  -------         ENDPROC       _MCU_DP_FAULT_UPDATE
  -------         PROC          _MCU_GET_DP_DOWNLOAD_BOOL
  D:0001H         SYMBOL        value
  X:8B1AH         SYMBOL        len
  C:FDE7H         LINE#         592
  C:FDEFH         LINE#         593
  C:FDEFH         LINE#         594
  C:FDF3H         LINE#         595
  -------         ENDPROC       _MCU_GET_DP_DOWNLOAD_BOOL
  -------         PROC          _MCU_GET_DP_DOWNLOAD_ENUM
  D:0001H         SYMBOL        value
  X:8B18H         SYMBOL        len
  C:FDF4H         LINE#         604
  C:FDFCH         LINE#         605
  C:FDFCH         LINE#         606
  C:FE00H         LINE#         607
  -------         ENDPROC       _MCU_GET_DP_DOWNLOAD_ENUM
  -------         PROC          _MCU_GET_DP_DOWNLOAD_VALUE
  D:0001H         SYMBOL        value
  X:8B1FH         SYMBOL        len
  C:FE27H         LINE#         616
  C:FE2FH         LINE#         617
  C:FE2FH         LINE#         618
  -------         ENDPROC       _MCU_GET_DP_DOWNLOAD_VALUE
  -------         PROC          _UART_RECEIVE_INPUT
  X:8CBDH         SYMBOL        value
  C:BE26H         LINE#         627
  C:BE2BH         LINE#         628
  C:BE2BH         LINE#         631
  C:BE4AH         LINE#         632
  C:BE58H         LINE#         633
  C:BEA5H         LINE#         634
  C:BEB3H         LINE#         635
  C:BEB4H         LINE#         636
  C:BEC7H         LINE#         637
  C:BED5H         LINE#         638
  C:BED5H         LINE#         640
  C:BEEEH         LINE#         641
  C:BEF6H         LINE#         642
BL51 BANKED LINKER/LOCATER V6.22.2.0                                                  06/30/2026  14:47:53  PAGE 158


  C:BEF6H         LINE#         643
  -------         ENDPROC       _UART_RECEIVE_INPUT
  -------         PROC          _UART_RECEIVE_BUFF_INPUT
  X:957AH         SYMBOL        value
  X:957DH         SYMBOL        data_len
  -------         DO            
  X:957FH         SYMBOL        i
  -------         ENDDO         
  C:E609H         LINE#         652
  C:E61AH         LINE#         653
  C:E61AH         LINE#         656
  C:E61FH         LINE#         657
  C:E639H         LINE#         658
  C:E64FH         LINE#         659
  C:E65FH         LINE#         660
  -------         ENDPROC       _UART_RECEIVE_BUFF_INPUT
  -------         PROC          WIFI_UART_RX_PULL
  C:F15AH         LINE#         666
  C:F15AH         LINE#         667
  C:F15AH         LINE#         668
  C:F176H         LINE#         669
  C:F191H         LINE#         670
  C:F193H         LINE#         671
  -------         ENDPROC       WIFI_UART_RX_PULL
  -------         PROC          _WIFI_UART_FRAME_VERSION_OK
  D:0007H         SYMBOL        ver
  C:FE01H         LINE#         673
  C:FE01H         LINE#         674
  C:FE01H         LINE#         675
  C:FE0DH         LINE#         676
  -------         ENDPROC       _WIFI_UART_FRAME_VERSION_OK
  -------         PROC          _WIFI_UART_TRY_FRAME_LEN
  X:8AF1H         SYMBOL        offset
  X:8AF3H         SYMBOL        out_len
  -------         DO            
  X:8AF6H         SYMBOL        rx_value_len
  D:0006H         SYMBOL        data_len
  D:0005H         SYMBOL        ver
  X:8AF8H         SYMBOL        cmd
  -------         ENDDO         
  C:9163H         LINE#         678
  C:9176H         LINE#         679
  C:9176H         LINE#         685
  C:9189H         LINE#         686
  C:918CH         LINE#         687
  C:91A2H         LINE#         688
  C:91A5H         LINE#         689
  C:91B4H         LINE#         690
  C:91B7H         LINE#         691
  C:91CAH         LINE#         692
  C:91D9H         LINE#         693
  C:91E1H         LINE#         694
  C:91ECH         LINE#         695
  C:91F2H         LINE#         696
  C:91F5H         LINE#         697
  C:91F5H         LINE#         699
  C:920AH         LINE#         700
BL51 BANKED LINKER/LOCATER V6.22.2.0                                                  06/30/2026  14:47:53  PAGE 159


  C:921AH         LINE#         701
  C:9228H         LINE#         702
  C:9230H         LINE#         703
  C:9233H         LINE#         704
  C:9256H         LINE#         705
  C:9260H         LINE#         706
  C:926EH         LINE#         707
  C:9278H         LINE#         708
  C:927BH         LINE#         709
  C:927EH         LINE#         710
  C:927EH         LINE#         711
  C:9286H         LINE#         712
  C:9294H         LINE#         713
  C:92D1H         LINE#         714
  C:92D1H         LINE#         715
  C:92D9H         LINE#         716
  C:92E7H         LINE#         717
  C:92EAH         LINE#         718
  C:92EAH         LINE#         720
  C:9302H         LINE#         721
  C:9304H         LINE#         722
  -------         ENDPROC       _WIFI_UART_TRY_FRAME_LEN
  -------         PROC          _WIFI_UART_REMOVE_FRAME
  X:8AF1H         SYMBOL        offset
  X:8AF3H         SYMBOL        len
  -------         DO            
  X:8AF5H         SYMBOL        tail
  -------         ENDDO         
  C:D099H         LINE#         724
  C:D0A7H         LINE#         725
  C:D0A7H         LINE#         728
  C:D0C0H         LINE#         729
  C:D0C3H         LINE#         731
  C:D10FH         LINE#         732
  C:D129H         LINE#         733
  -------         ENDPROC       _WIFI_UART_REMOVE_FRAME
  -------         PROC          _WIFI_UART_RX_BYTE_SCAN
  D:0007H         SYMBOL        value
  C:E9E4H         LINE#         749
  C:E9E4H         LINE#         750
  C:E9E4H         LINE#         751
  C:E9ECH         LINE#         752
  C:E9F4H         LINE#         753
  C:E9FCH         LINE#         754
  C:E9FFH         LINE#         755
  C:EA0DH         LINE#         756
  C:EA15H         LINE#         757
  C:EA20H         LINE#         758
  C:EA25H         LINE#         759
  C:EA2BH         LINE#         760
  C:EA31H         LINE#         761
  C:EA31H         LINE#         762
  C:EA31H         LINE#         763
  -------         ENDPROC       _WIFI_UART_RX_BYTE_SCAN
  -------         PROC          WIFI_UART_PARSE_CMD6_PRIORITY
  -------         DO            
  X:8AEDH         SYMBOL        offset
BL51 BANKED LINKER/LOCATER V6.22.2.0                                                  06/30/2026  14:47:53  PAGE 160


  X:8AEFH         SYMBOL        frame_len
  D:0007H         SYMBOL        ret
  -------         ENDDO         
  C:D2CCH         LINE#         765
  C:D2CCH         LINE#         766
  C:D2CCH         LINE#         767
  C:D2CEH         LINE#         771
  C:D2E9H         LINE#         772
  C:D2F2H         LINE#         773
  C:D2F8H         LINE#         774
  C:D2F8H         LINE#         775
  C:D2FBH         LINE#         776
  C:D309H         LINE#         777
  C:D30BH         LINE#         778
  C:D30BH         LINE#         779
  C:D321H         LINE#         780
  C:D335H         LINE#         781
  C:D337H         LINE#         782
  C:D337H         LINE#         783
  C:D33AH         LINE#         784
  C:D34BH         LINE#         785
  C:D352H         LINE#         786
  C:D355H         LINE#         787
  -------         ENDPROC       WIFI_UART_PARSE_CMD6_PRIORITY
  -------         PROC          WIFI_UART_PARSE_FRAMES
  -------         DO            
  X:8AE9H         SYMBOL        offset
  X:8AEBH         SYMBOL        rx_value_len
  D:0007H         SYMBOL        ret
  -------         ENDDO         
  C:BFC8H         LINE#         789
  C:BFC8H         LINE#         790
  C:BFC8H         LINE#         791
  C:BFCFH         LINE#         792
  C:BFD3H         LINE#         795
  C:BFD6H         LINE#         797
  C:BFE8H         LINE#         800
  C:C006H         LINE#         801
  C:C00FH         LINE#         802
  C:C015H         LINE#         803
  C:C015H         LINE#         804
  C:C018H         LINE#         805
  C:C026H         LINE#         806
  C:C028H         LINE#         807
  C:C028H         LINE#         809
  C:C033H         LINE#         810
  C:C047H         LINE#         811
  C:C049H         LINE#         813
  C:C062H         LINE#         814
  C:C06AH         LINE#         816
  C:C096H         LINE#         817
  C:C096H         LINE#         818
  -------         ENDPROC       WIFI_UART_PARSE_FRAMES
  -------         PROC          WIFI_UART_PROCESS_DOWNLOAD
  C:FC27H         LINE#         823
  C:FC27H         LINE#         824
  C:FC27H         LINE#         825
BL51 BANKED LINKER/LOCATER V6.22.2.0                                                  06/30/2026  14:47:53  PAGE 161


  C:FC2DH         LINE#         827
  C:FC30H         LINE#         828
  C:FC33H         LINE#         829
  C:FC36H         LINE#         830
  C:FC3CH         LINE#         831
  -------         ENDPROC       WIFI_UART_PROCESS_DOWNLOAD
  -------         PROC          WIFI_UART_SERVICE
  C:FAD5H         LINE#         839
  C:FAD5H         LINE#         840
  C:FAD5H         LINE#         841
  C:FAE2H         LINE#         843
  C:FAE5H         LINE#         844
  C:FAE8H         LINE#         845
  C:FAEBH         LINE#         846
  C:FAF1H         LINE#         847
  -------         ENDPROC       WIFI_UART_SERVICE
  -------         PROC          WIFI_UART_DRAIN
  -------         DO            
  X:959CH         SYMBOL        i
  -------         ENDDO         
  C:ECD0H         LINE#         849
  C:ECD0H         LINE#         850
  C:ECD0H         LINE#         853
  C:ECD3H         LINE#         854
  C:ECE5H         LINE#         855
  C:ECFAH         LINE#         856
  C:ECFAH         LINE#         857
  C:ECFDH         LINE#         858
  C:ED05H         LINE#         859
  C:ED0FH         LINE#         860
  C:ED16H         LINE#         861
  -------         ENDPROC       WIFI_UART_DRAIN
  -------         PROC          WIFI_PROTOCOL_INIT
  C:F6FBH         LINE#         869
  C:F6FBH         LINE#         870
  C:F6FBH         LINE#         872
  C:F709H         LINE#         873
  C:F717H         LINE#         875
  C:F71CH         LINE#         878
  C:F722H         LINE#         880
  -------         ENDPROC       WIFI_PROTOCOL_INIT
  -------         PROC          MCU_GET_RESET_WIFI_FLAG
  C:FE9BH         LINE#         894
  C:FE9BH         LINE#         895
  C:FE9BH         LINE#         896
  C:FEA0H         LINE#         897
  -------         ENDPROC       MCU_GET_RESET_WIFI_FLAG
  -------         PROC          MCU_RESET_WIFI
  C:FDBFH         LINE#         906
  C:FDBFH         LINE#         907
  C:FDBFH         LINE#         908
  C:FDC4H         LINE#         910
  -------         ENDPROC       MCU_RESET_WIFI
  -------         PROC          MCU_GET_WIFIMODE_FLAG
  C:FEA1H         LINE#         922
  C:FEA1H         LINE#         923
  C:FEA1H         LINE#         924
BL51 BANKED LINKER/LOCATER V6.22.2.0                                                  06/30/2026  14:47:53  PAGE 162


  C:FEA6H         LINE#         925
  -------         ENDPROC       MCU_GET_WIFIMODE_FLAG
  -------         PROC          _MCU_SET_WIFI_MODE
  D:0005H         SYMBOL        mode
  -------         DO            
  D:0007H         SYMBOL        length
  -------         ENDDO         
  C:FBCEH         LINE#         937
  C:FBD0H         LINE#         938
  C:FBD0H         LINE#         939
  C:FBD2H         LINE#         941
  C:FBD6H         LINE#         943
  C:FBDAH         LINE#         945
  -------         ENDPROC       _MCU_SET_WIFI_MODE
  -------         PROC          MCU_GET_WIFI_WORK_STATE
  -------         DO            
  X:9517H         SYMBOL        s_last
  -------         ENDDO         
  C:F723H         LINE#         961
  C:F723H         LINE#         962
  C:F723H         LINE#         965
  C:F72FH         LINE#         966
  C:F72FH         LINE#         967
  C:F734H         LINE#         968
  C:F745H         LINE#         969
  C:F745H         LINE#         970
  C:F74AH         LINE#         971
  -------         ENDPROC       MCU_GET_WIFI_WORK_STATE
  -------         PROC          MCU_START_WIFITEST
  C:FE46H         LINE#         1007
  C:FE46H         LINE#         1008
  C:FE46H         LINE#         1009
  -------         ENDPROC       MCU_START_WIFITEST
  -------         ENDMOD        MCU_API

  -------         MODULE        PROTOCOL
  C:0000H         SYMBOL        _ICE_DUMMY_
  D:0080H         PUBLIC        P0
  D:00B0H         PUBLIC        P3
  C:FCC8H         PUBLIC        _upgrade_package_choose
  C:E8A6H         SYMBOL        _dp_download_temp_unit_convert_handle
  D:00F8H         PUBLIC        RAMMODE
  D:00A8H         PUBLIC        IEN0
  D:00B8H         PUBLIC        IEN1
  C:CC7EH         PUBLIC        _mcu_firm_update_handle
  C:6F89H         PUBLIC        _timestamp_to_ymdhms
  X:9201H         PUBLIC        OTAdataindex
  C:FEB3H         PUBLIC        get_download_cmd_total
  C:86FCH         SYMBOL        _dp_download_timestamp_handle
  C:FEB0H         PUBLIC        all_data_update
  X:9301H         SYMBOL        mdays
  C:F65AH         SYMBOL        _mode_map_to_dgus
  C:C226H         SYMBOL        _dp_download_temp_set_handle
  C:FEADH         PUBLIC        _uart_transmit_output
  C:FD12H         PUBLIC        _file_download_handle
  X:930DH         PUBLIC        SendCnt
  D:0088H         PUBLIC        TCON
BL51 BANKED LINKER/LOCATER V6.22.2.0                                                  06/30/2026  14:47:53  PAGE 163


  C:BC80H         SYMBOL        _dp_download_external_time_close_handle
  C:E49EH         SYMBOL        _dp_download_defrost_handle
  C:E988H         SYMBOL        _?ix1000
  C:E98EH         SYMBOL        _?ix1001
  C:E990H         SYMBOL        _?ix1002
  B:0026H.3       PUBLIC        OTADataUpdate
  C:BEF7H         SYMBOL        _dp_download_inside_time_close_handle
  C:FAF2H         SYMBOL        _dp117_mode_to_dgus
  C:8515H         SYMBOL        _dp_download_external_time_open_handle
  C:EA32H         SYMBOL        _dp_download_child_lock_handle
  C:FE6CH         PUBLIC        _wifi_test_result
  C:A3E9H         SYMBOL        _dp_download_switch_handle
  X:930EH         PUBLIC        PackageNum
  C:962FH         PUBLIC        _dp_download_handle
  D:0098H         PUBLIC        SCON0
  D:00C8H         PUBLIC        T2CON
  C:64B1H         SYMBOL        _dp_download_inside_time_open_handle
  C:B9DBH         SYMBOL        _dp_download_mode_handle
  C:EC40H         SYMBOL        _dp_download_relay_status_handle
  C:F8E1H         SYMBOL        _dp_download_history_fault_empty_handle
  X:9312H         PUBLIC        download_cmd
  C:F3D1H         SYMBOL        _is_leap_year
  C:6D03H         SYMBOL        _dp_download_indoor_unit_handle
  C:FCDBH         PUBLIC        _file_download_package_choose
  D:00D0H         PUBLIC        PSW
  D:00C0H         PUBLIC        IRCON
  -------         PROC          _UART_TRANSMIT_OUTPUT
  D:0007H         SYMBOL        value
  C:FEADH         LINE#         124
  C:FEADH         LINE#         125
  C:FEADH         LINE#         127
  -------         ENDPROC       _UART_TRANSMIT_OUTPUT
  -------         PROC          ALL_DATA_UPDATE
  C:FEB0H         LINE#         160
  C:FEB0H         LINE#         161
  C:FEB0H         LINE#         162
  -------         ENDPROC       ALL_DATA_UPDATE
  -------         PROC          _DP_DOWNLOAD_SWITCH_HANDLE
  D:0001H         SYMBOL        value
  D:0004H         SYMBOL        length
  -------         DO            
  X:8B14H         SYMBOL        ret
  X:8B15H         SYMBOL        switch_1
  X:8B16H         SYMBOL        control_mode
  X:8B18H         SYMBOL        external_switch
  X:91FCH         SYMBOL        s_last_switch
  -------         ENDDO         
  C:A3E9H         LINE#         180
  C:A3E9H         LINE#         181
  C:A3E9H         LINE#         185
  C:A3F0H         LINE#         188
  C:A3F8H         LINE#         189
  C:A3FFH         LINE#         190
  C:A3FFH         LINE#         191
  C:A409H         LINE#         192
  C:A413H         LINE#         193
  C:A416H         LINE#         194
BL51 BANKED LINKER/LOCATER V6.22.2.0                                                  06/30/2026  14:47:53  PAGE 164


  C:A416H         LINE#         195
  C:A41EH         LINE#         196
  C:A42BH         LINE#         197
  C:A433H         LINE#         198
  C:A44BH         LINE#         199
  C:A455H         LINE#         200
  C:A455H         LINE#         201
  C:A45CH         LINE#         202
  C:A474H         LINE#         203
  C:A474H         LINE#         204
  C:A47CH         LINE#         205
  C:A485H         LINE#         206
  C:A487H         LINE#         207
  C:A487H         LINE#         208
  C:A48EH         LINE#         209
  C:A4A6H         LINE#         210
  C:A4ADH         LINE#         211
  C:A4C5H         LINE#         212
  C:A4C5H         LINE#         213
  C:A4C8H         LINE#         214
  C:A4CBH         LINE#         215
  C:A4E4H         LINE#         216
  C:A4FDH         LINE#         218
  C:A50CH         LINE#         219
  C:A514H         LINE#         220
  C:A51CH         LINE#         221
  C:A51FH         LINE#         223
  C:A521H         LINE#         224
  -------         ENDPROC       _DP_DOWNLOAD_SWITCH_HANDLE
  -------         PROC          _DP_DOWNLOAD_MODE_HANDLE
  D:0001H         SYMBOL        value
  D:0004H         SYMBOL        length
  -------         DO            
  X:8B14H         SYMBOL        ret
  X:8B15H         SYMBOL        mode
  X:8B16H         SYMBOL        control_mode
  -------         ENDDO         
  C:B9DBH         LINE#         233
  C:B9DBH         LINE#         234
  C:B9DBH         LINE#         239
  C:B9E3H         LINE#         240
  C:B9F3H         LINE#         241
  C:B9F3H         LINE#         242
  C:B9FBH         LINE#         243
  C:B9FCH         LINE#         244
  C:B9FCH         LINE#         245
  C:B9FCH         LINE#         246
  C:B9FEH         LINE#         248
  C:B9FEH         LINE#         249
  C:BA07H         LINE#         250
  C:BA09H         LINE#         251
  C:BA09H         LINE#         252
  C:BA09H         LINE#         253
  C:BA0BH         LINE#         255
  C:BA0BH         LINE#         256
  C:BA14H         LINE#         257
  C:BA2DH         LINE#         258
BL51 BANKED LINKER/LOCATER V6.22.2.0                                                  06/30/2026  14:47:53  PAGE 165


  C:BA35H         LINE#         259
  C:BA46H         LINE#         260
  C:BA48H         LINE#         262
  C:BA48H         LINE#         263
  C:BA4FH         LINE#         264
  C:BA67H         LINE#         265
  C:BA80H         LINE#         266
  C:BA80H         LINE#         268
  C:BA80H         LINE#         270
  C:BA80H         LINE#         271
  C:BA80H         LINE#         272
  C:BA83H         LINE#         273
  C:BA86H         LINE#         274
  C:BA9FH         LINE#         276
  C:BAAEH         LINE#         277
  C:BAB6H         LINE#         278
  C:BABEH         LINE#         279
  C:BAC1H         LINE#         281
  C:BAC3H         LINE#         282
  -------         ENDPROC       _DP_DOWNLOAD_MODE_HANDLE
  -------         PROC          _DP_DOWNLOAD_CHILD_LOCK_HANDLE
  D:0001H         SYMBOL        value
  D:0004H         SYMBOL        length
  -------         DO            
  X:8B14H         SYMBOL        ret
  X:8B15H         SYMBOL        child_lock
  -------         ENDDO         
  C:EA32H         LINE#         291
  C:EA32H         LINE#         292
  C:EA32H         LINE#         298
  C:EA3AH         LINE#         299
  C:EA3DH         LINE#         301
  C:EA3DH         LINE#         302
  C:EA42H         LINE#         304
  C:EA42H         LINE#         306
  C:EA5BH         LINE#         307
  C:EA6AH         LINE#         308
  C:EA72H         LINE#         309
  C:EA7AH         LINE#         310
  C:EA7DH         LINE#         312
  C:EA7FH         LINE#         313
  -------         ENDPROC       _DP_DOWNLOAD_CHILD_LOCK_HANDLE
  -------         PROC          _DP_DOWNLOAD_TEMP_SET_HANDLE
  D:0001H         SYMBOL        value
  D:0004H         SYMBOL        length
  -------         DO            
  X:8B14H         SYMBOL        ret
  X:8B15H         SYMBOL        temp_set
  X:8B19H         SYMBOL        temp_set1
  X:8B1DH         SYMBOL        unit
  -------         ENDDO         
  C:C226H         LINE#         322
  C:C226H         LINE#         323
  C:C226H         LINE#         328
  C:C22FH         LINE#         333
  C:C248H         LINE#         334
  C:C261H         LINE#         335
BL51 BANKED LINKER/LOCATER V6.22.2.0                                                  06/30/2026  14:47:53  PAGE 166


  C:C27AH         LINE#         336
  C:C295H         LINE#         337
  C:C2A2H         LINE#         338
  C:C2A4H         LINE#         339
  C:C2A7H         LINE#         340
  C:C2C5H         LINE#         341
  C:C2DCH         LINE#         342
  C:C2E4H         LINE#         343
  C:C2E7H         LINE#         345
  C:C2E9H         LINE#         346
  -------         ENDPROC       _DP_DOWNLOAD_TEMP_SET_HANDLE
  -------         PROC          _DP_DOWNLOAD_TEMP_UNIT_CONVERT_HANDLE
  D:0001H         SYMBOL        value
  D:0004H         SYMBOL        length
  -------         DO            
  X:8B14H         SYMBOL        ret
  X:8B15H         SYMBOL        temp_unit_convert
  -------         ENDDO         
  C:E8A6H         LINE#         355
  C:E8A6H         LINE#         356
  C:E8A6H         LINE#         361
  C:E8AEH         LINE#         362
  C:E8AEH         LINE#         363
  C:E8AEH         LINE#         364
  C:E8AEH         LINE#         366
  C:E8AEH         LINE#         367
  C:E8AEH         LINE#         369
  C:E8AEH         LINE#         371
  C:E8AEH         LINE#         372
  C:E8AEH         LINE#         373
  C:E8C7H         LINE#         374
  C:E8CAH         LINE#         375
  C:E8CFH         LINE#         376
  C:E8D2H         LINE#         377
  C:E8E1H         LINE#         378
  C:E8E9H         LINE#         379
  C:E8F1H         LINE#         380
  C:E8F4H         LINE#         382
  C:E8F6H         LINE#         383
  -------         ENDPROC       _DP_DOWNLOAD_TEMP_UNIT_CONVERT_HANDLE
  -------         PROC          _DP_DOWNLOAD_DEFROST_HANDLE
  D:0001H         SYMBOL        value
  D:0004H         SYMBOL        length
  -------         DO            
  X:8B14H         SYMBOL        ret
  X:8B15H         SYMBOL        defrost
  -------         DO            
  X:8B16H         SYMBOL        zero
  -------         ENDDO         
  -------         ENDDO         
  C:E49EH         LINE#         392
  C:E49EH         LINE#         393
  C:E49EH         LINE#         399
  C:E4A6H         LINE#         400
  C:E4A8H         LINE#         401
  C:E4A8H         LINE#         402
  C:E4ABH         LINE#         403
BL51 BANKED LINKER/LOCATER V6.22.2.0                                                  06/30/2026  14:47:53  PAGE 167


  C:E4ADH         LINE#         405
  C:E4ADH         LINE#         406
  C:E4B4H         LINE#         407
  C:E4CCH         LINE#         408
  C:E4D3H         LINE#         409
  C:E4D6H         LINE#         410
  C:E4D8H         LINE#         411
  C:E4D8H         LINE#         412
  C:E4E7H         LINE#         413
  C:E4EFH         LINE#         414
  C:E4F7H         LINE#         415
  C:E4FAH         LINE#         417
  C:E4FCH         LINE#         418
  -------         ENDPROC       _DP_DOWNLOAD_DEFROST_HANDLE
  -------         PROC          _DP_DOWNLOAD_RELAY_STATUS_HANDLE
  D:0001H         SYMBOL        value
  D:0004H         SYMBOL        length
  -------         DO            
  X:8B14H         SYMBOL        ret
  X:8B15H         SYMBOL        relay_status
  -------         ENDDO         
  C:EC40H         LINE#         427
  C:EC40H         LINE#         428
  C:EC40H         LINE#         433
  C:EC48H         LINE#         434
  C:EC48H         LINE#         435
  C:EC48H         LINE#         436
  C:EC48H         LINE#         438
  C:EC48H         LINE#         439
  C:EC48H         LINE#         441
  C:EC48H         LINE#         443
  C:EC48H         LINE#         444
  C:EC48H         LINE#         445
  C:EC61H         LINE#         446
  C:EC64H         LINE#         447
  C:EC73H         LINE#         448
  C:EC7BH         LINE#         449
  C:EC83H         LINE#         450
  C:EC86H         LINE#         452
  C:EC88H         LINE#         453
  -------         ENDPROC       _DP_DOWNLOAD_RELAY_STATUS_HANDLE
  -------         PROC          L?0190
  -------         ENDPROC       L?0190
  -------         PROC          _IS_LEAP_YEAR
  D:0002H         SYMBOL        year
  C:F3D1H         LINE#         471
  C:F3D5H         LINE#         472
  C:F3D5H         LINE#         473
  C:F3F8H         LINE#         475
  -------         ENDPROC       _IS_LEAP_YEAR
  -------         PROC          _TIMESTAMP_TO_YMDHMS
  D:0004H         SYMBOL        timestamp
  X:8B29H         SYMBOL        dt
  -------         DO            
  X:8B2CH         SYMBOL        sec
  X:8B30H         SYMBOL        days
  X:8B34H         SYMBOL        rem
BL51 BANKED LINKER/LOCATER V6.22.2.0                                                  06/30/2026  14:47:53  PAGE 168


  X:8B38H         SYMBOL        m
  X:8B39H         SYMBOL        leap
  X:8B3AH         SYMBOL        full_year
  -------         DO            
  X:8B3CH         SYMBOL        ydays
  X:8B3CH         SYMBOL        dim
  -------         ENDDO         
  -------         DO            
  X:8B3CH         SYMBOL        dim
  -------         ENDDO         
  -------         ENDDO         
  C:6F89H         LINE#         482
  C:6F94H         LINE#         483
  C:6F94H         LINE#         484
  C:6F98H         LINE#         490
  C:6FB7H         LINE#         491
  C:6FD4H         LINE#         492
  C:6FFBH         LINE#         495
  C:7025H         LINE#         496
  C:7060H         LINE#         497
  C:708BH         LINE#         500
  C:7095H         LINE#         501
  C:7095H         LINE#         502
  C:70ABH         LINE#         503
  C:70C2H         LINE#         504
  C:70C2H         LINE#         505
  C:70F6H         LINE#         506
  C:7104H         LINE#         507
  C:7106H         LINE#         509
  C:711DH         LINE#         511
  C:7125H         LINE#         512
  C:7137H         LINE#         514
  C:714DH         LINE#         515
  C:715CH         LINE#         516
  C:7167H         LINE#         517
  C:716DH         LINE#         519
  C:718AH         LINE#         520
  C:718AH         LINE#         522
  C:71B6H         LINE#         523
  C:71C9H         LINE#         524
  C:71D2H         LINE#         526
  C:71E5H         LINE#         527
  -------         ENDPROC       _TIMESTAMP_TO_YMDHMS
  -------         PROC          _DP_DOWNLOAD_TIMESTAMP_HANDLE
  X:8B14H         SYMBOL        value
  X:8B17H         SYMBOL        length
  -------         DO            
  D:0007H         SYMBOL        ret
  X:8B19H         SYMBOL        RTCC2W_write
  X:8B1FH         SYMBOL        rtc_parm
  X:8B21H         SYMBOL        dt
  D:0004H         SYMBOL        ts
  X:8B27H         SYMBOL        year
  -------         ENDDO         
  C:86FCH         LINE#         530
  C:870DH         LINE#         531
  C:870DH         LINE#         534
BL51 BANKED LINKER/LOCATER V6.22.2.0                                                  06/30/2026  14:47:53  PAGE 169


  C:8720H         LINE#         535
  C:8733H         LINE#         536
  C:8746H         LINE#         539
  C:8761H         LINE#         540
  C:876FH         LINE#         542
  C:8778H         LINE#         543
  C:87D3H         LINE#         544
  C:87E5H         LINE#         545
  C:8810H         LINE#         546
  C:883FH         LINE#         548
  C:8851H         LINE#         549
  C:8863H         LINE#         550
  C:886EH         LINE#         551
  C:8887H         LINE#         553
  C:888DH         LINE#         554
  C:8891H         LINE#         555
  C:88AAH         LINE#         558
  C:88C7H         LINE#         559
  C:88CCH         LINE#         560
  C:88CFH         LINE#         562
  C:88D1H         LINE#         563
  -------         ENDPROC       _DP_DOWNLOAD_TIMESTAMP_HANDLE
  -------         PROC          _MODE_MAP_TO_DGUS
  D:0007H         SYMBOL        cloud_mode
  C:F65AH         LINE#         572
  C:F65AH         LINE#         573
  C:F65AH         LINE#         574
  C:F66BH         LINE#         575
  C:F670H         LINE#         576
  C:F674H         LINE#         577
  C:F679H         LINE#         578
  C:F67EH         LINE#         579
  C:F67EH         LINE#         580
  C:F682H         LINE#         581
  C:F682H         LINE#         582
  -------         ENDPROC       _MODE_MAP_TO_DGUS
  -------         PROC          _DP_DOWNLOAD_INDOOR_UNIT_HANDLE
  X:8B14H         SYMBOL        value
  X:8B17H         SYMBOL        length
  -------         DO            
  X:8B19H         SYMBOL        offset
  X:8B1AH         SYMBOL        idx
  X:8B1BH         SYMBOL        unit_cnt
  D:0004H         SYMBOL        unit_id
  X:8B1CH         SYMBOL        power
  X:8B1EH         SYMBOL        set_temp
  X:8B20H         SYMBOL        mode
  X:8B22H         SYMBOL        dgus_mode
  X:8B24H         SYMBOL        fan_speed
  X:8B26H         SYMBOL        room_temp
  C:6F6FH         SYMBOL        next
  -------         DO            
  X:8B28H         SYMBOL        p
  -------         DO            
  X:8B2BH         SYMBOL        set_f
  X:8B2BH         SYMBOL        room_c
  X:8B2FH         SYMBOL        room_f
BL51 BANKED LINKER/LOCATER V6.22.2.0                                                  06/30/2026  14:47:53  PAGE 170


  -------         ENDDO         
  -------         DO            
  X:8B2BH         SYMBOL        room_c
  X:8B2FH         SYMBOL        room_f
  -------         ENDDO         
  -------         ENDDO         
  -------         ENDDO         
  C:6D03H         LINE#         583
  C:6D14H         LINE#         584
  C:6D14H         LINE#         585
  C:6D17H         LINE#         587
  C:6D1BH         LINE#         595
  C:6D35H         LINE#         596
  C:6D35H         LINE#         597
  C:6D58H         LINE#         599
  C:6D5EH         LINE#         600
  C:6D6DH         LINE#         601
  C:6D7CH         LINE#         602
  C:6D8BH         LINE#         603
  C:6D9AH         LINE#         604
  C:6DA9H         LINE#         606
  C:6DC1H         LINE#         607
  C:6DD2H         LINE#         608
  C:6DF1H         LINE#         609
  C:6E02H         LINE#         610
  C:6E13H         LINE#         612
  C:6E22H         LINE#         613
  C:6E2BH         LINE#         614
  C:6E2FH         LINE#         616
  C:6E49H         LINE#         617
  C:6E67H         LINE#         618
  C:6E67H         LINE#         619
  C:6E7CH         LINE#         620
  C:6E9AH         LINE#         621
  C:6E9AH         LINE#         622
  C:6EB8H         LINE#         623
  C:6ED6H         LINE#         624
  C:6ED6H         LINE#         625
  C:6EE8H         LINE#         626
  C:6F03H         LINE#         628
  C:6F27H         LINE#         629
  C:6F4BH         LINE#         630
  C:6F6FH         LINE#         631
  C:6F6FH         LINE#         633
  C:6F6FH         LINE#         634
  C:6F76H         LINE#         635
  C:6F79H         LINE#         637
  C:6F7CH         LINE#         638
  C:6F83H         LINE#         639
  C:6F86H         LINE#         640
  C:6F88H         LINE#         641
  -------         ENDPROC       _DP_DOWNLOAD_INDOOR_UNIT_HANDLE
  -------         PROC          _DP_DOWNLOAD_HISTORY_FAULT_EMPTY_HANDLE
  D:0001H         SYMBOL        value
  D:0004H         SYMBOL        length
  -------         DO            
  D:0007H         SYMBOL        ret
BL51 BANKED LINKER/LOCATER V6.22.2.0                                                  06/30/2026  14:47:53  PAGE 171


  X:8B14H         SYMBOL        history_fault_empty
  -------         ENDDO         
  C:F8E1H         LINE#         650
  C:F8E1H         LINE#         651
  C:F8E1H         LINE#         657
  C:F8E9H         LINE#         658
  C:F8EBH         LINE#         660
  C:F8EBH         LINE#         661
  C:F8EEH         LINE#         663
  C:F8EEH         LINE#         666
  C:F8F8H         LINE#         667
  C:F8FDH         LINE#         668
  C:F900H         LINE#         670
  C:F902H         LINE#         671
  -------         ENDPROC       _DP_DOWNLOAD_HISTORY_FAULT_EMPTY_HANDLE
  -------         PROC          _DP_DOWNLOAD_INSIDE_TIME_OPEN_HANDLE
  X:8B14H         SYMBOL        value
  X:8B17H         SYMBOL        length
  -------         DO            
  D:0007H         SYMBOL        ret
  X:8B19H         SYMBOL        i
  X:8B1AH         SYMBOL        week_mask
  X:8B1BH         SYMBOL        switch1
  X:8B1DH         SYMBOL        hour
  X:8B1FH         SYMBOL        minute
  X:8B21H         SYMBOL        week
  X:8B23H         SYMBOL        temp
  D:0006H         SYMBOL        temp_mode
  X:8B25H         SYMBOL        dgus_mode
  X:8B27H         SYMBOL        fan_speed
  X:8B29H         SYMBOL        room
  X:8B2BH         SYMBOL        set_val
  X:8B2DH         SYMBOL        room1
  X:8B2FH         SYMBOL        p
  -------         DO            
  X:8B32H         SYMBOL        temp_f
  -------         ENDDO         
  -------         ENDDO         
  C:64B1H         LINE#         680
  C:64C2H         LINE#         681
  C:64C2H         LINE#         687
  C:64CDH         LINE#         689
  C:64D3H         LINE#         690
  C:64D6H         LINE#         691
  C:64D6H         LINE#         692
  C:64EDH         LINE#         695
  C:6506H         LINE#         698
  C:6520H         LINE#         699
  C:6539H         LINE#         702
  C:6553H         LINE#         703
  C:656CH         LINE#         707
  C:6571H         LINE#         708
  C:658BH         LINE#         711
  C:659EH         LINE#         713
  C:65B4H         LINE#         714
  C:65BCH         LINE#         715
  C:65DAH         LINE#         716
BL51 BANKED LINKER/LOCATER V6.22.2.0                                                  06/30/2026  14:47:53  PAGE 172


  C:65DAH         LINE#         717
  C:65E2H         LINE#         720
  C:65FCH         LINE#         721
  C:6615H         LINE#         722
  C:6615H         LINE#         723
  C:662AH         LINE#         724
  C:6643H         LINE#         725
  C:6643H         LINE#         728
  C:6657H         LINE#         729
  C:666AH         LINE#         730
  C:666CH         LINE#         731
  C:6675H         LINE#         732
  C:6680H         LINE#         733
  C:668AH         LINE#         734
  C:6695H         LINE#         735
  C:669EH         LINE#         736
  C:669EH         LINE#         737
  C:66B7H         LINE#         740
  C:66D1H         LINE#         741
  C:66EAH         LINE#         744
  C:6704H         LINE#         745
  C:6717H         LINE#         746
  C:6734H         LINE#         747
  C:673CH         LINE#         748
  C:675AH         LINE#         749
  C:675AH         LINE#         750
  C:6762H         LINE#         753
  C:6769H         LINE#         754
  C:676CH         LINE#         757
  C:6789H         LINE#         758
  C:678EH         LINE#         759
  C:6791H         LINE#         761
  C:6793H         LINE#         762
  -------         ENDPROC       _DP_DOWNLOAD_INSIDE_TIME_OPEN_HANDLE
  -------         PROC          _DP117_MODE_TO_DGUS
  D:0007H         SYMBOL        dp_mode
  C:FAF2H         LINE#         771
  C:FAF2H         LINE#         772
  C:FAF2H         LINE#         773
  C:FB07H         LINE#         774
  C:FB0AH         LINE#         775
  C:FB0EH         LINE#         776
  -------         ENDPROC       _DP117_MODE_TO_DGUS
  -------         PROC          _DP_DOWNLOAD_EXTERNAL_TIME_OPEN_HANDLE
  X:8B14H         SYMBOL        value
  X:8B17H         SYMBOL        length
  -------         DO            
  D:0007H         SYMBOL        ret
  X:8B19H         SYMBOL        i
  X:8B1AH         SYMBOL        p
  X:8B1DH         SYMBOL        switch1
  X:8B1FH         SYMBOL        hour
  X:8B21H         SYMBOL        min
  D:0006H         SYMBOL        mode
  X:8B23H         SYMBOL        week
  X:8B25H         SYMBOL        temp
  X:8B27H         SYMBOL        set_val
BL51 BANKED LINKER/LOCATER V6.22.2.0                                                  06/30/2026  14:47:53  PAGE 173


  X:8B29H         SYMBOL        dgus_mode
  -------         DO            
  X:8B2BH         SYMBOL        temp_f
  -------         ENDDO         
  -------         ENDDO         
  C:8515H         LINE#         778
  C:8528H         LINE#         779
  C:8528H         LINE#         783
  C:8533H         LINE#         786
  C:853FH         LINE#         787
  C:8558H         LINE#         790
  C:8572H         LINE#         791
  C:858BH         LINE#         794
  C:85A5H         LINE#         795
  C:85BEH         LINE#         800
  C:85D8H         LINE#         801
  C:85EBH         LINE#         802
  C:8601H         LINE#         803
  C:860BH         LINE#         805
  C:8612H         LINE#         806
  C:8630H         LINE#         807
  C:8638H         LINE#         810
  C:8652H         LINE#         811
  C:866BH         LINE#         812
  C:866BH         LINE#         813
  C:8680H         LINE#         814
  C:8699H         LINE#         815
  C:8699H         LINE#         817
  C:86ADH         LINE#         818
  C:86B8H         LINE#         819
  C:86D1H         LINE#         820
  C:86D4H         LINE#         823
  C:86F1H         LINE#         824
  C:86F6H         LINE#         825
  C:86F9H         LINE#         827
  C:86FBH         LINE#         828
  -------         ENDPROC       _DP_DOWNLOAD_EXTERNAL_TIME_OPEN_HANDLE
  -------         PROC          _DP_DOWNLOAD_INSIDE_TIME_CLOSE_HANDLE
  X:8B14H         SYMBOL        value
  X:8B17H         SYMBOL        length
  -------         DO            
  D:0007H         SYMBOL        ret
  X:8B19H         SYMBOL        p
  X:8B1CH         SYMBOL        switch1
  X:8B1EH         SYMBOL        hour
  X:8B20H         SYMBOL        min
  -------         ENDDO         
  C:BEF7H         LINE#         837
  C:BF0AH         LINE#         838
  C:BF0AH         LINE#         841
  C:BF15H         LINE#         845
  C:BF21H         LINE#         846
  C:BF3AH         LINE#         849
  C:BF54H         LINE#         850
  C:BF6DH         LINE#         853
  C:BF87H         LINE#         854
  C:BFA0H         LINE#         856
BL51 BANKED LINKER/LOCATER V6.22.2.0                                                  06/30/2026  14:47:53  PAGE 174


  C:BFBDH         LINE#         857
  C:BFC2H         LINE#         858
  C:BFC5H         LINE#         860
  C:BFC7H         LINE#         861
  -------         ENDPROC       _DP_DOWNLOAD_INSIDE_TIME_CLOSE_HANDLE
  -------         PROC          _DP_DOWNLOAD_EXTERNAL_TIME_CLOSE_HANDLE
  X:8B14H         SYMBOL        value
  X:8B17H         SYMBOL        length
  -------         DO            
  D:0007H         SYMBOL        ret
  X:8B19H         SYMBOL        p
  X:8B1CH         SYMBOL        switch1
  X:8B1EH         SYMBOL        hour
  X:8B20H         SYMBOL        min
  -------         ENDDO         
  C:BC80H         LINE#         870
  C:BC93H         LINE#         871
  C:BC93H         LINE#         874
  C:BC9EH         LINE#         877
  C:BCAAH         LINE#         878
  C:BCC3H         LINE#         881
  C:BCDDH         LINE#         882
  C:BCF6H         LINE#         885
  C:BD10H         LINE#         886
  C:BD29H         LINE#         887
  C:BD2CH         LINE#         890
  C:BD49H         LINE#         891
  C:BD4EH         LINE#         892
  C:BD51H         LINE#         894
  C:BD53H         LINE#         895
  -------         ENDPROC       _DP_DOWNLOAD_EXTERNAL_TIME_CLOSE_HANDLE
  -------         PROC          _DP_DOWNLOAD_HANDLE
  D:0007H         SYMBOL        dpid
  X:8B0EH         SYMBOL        value
  X:8B11H         SYMBOL        length
  -------         DO            
  X:8B13H         SYMBOL        ret
  -------         ENDDO         
  C:962FH         LINE#         914
  C:963AH         LINE#         915
  C:963AH         LINE#         921
  C:963FH         LINE#         922
  C:9671H         LINE#         923
  C:9671H         LINE#         925
  C:9685H         LINE#         926
  C:9688H         LINE#         927
  C:9688H         LINE#         929
  C:969CH         LINE#         930
  C:969FH         LINE#         931
  C:969FH         LINE#         933
  C:96B3H         LINE#         934
  C:96B6H         LINE#         935
  C:96B6H         LINE#         937
  C:96CAH         LINE#         938
  C:96CDH         LINE#         939
  C:96CDH         LINE#         941
  C:96E1H         LINE#         942
BL51 BANKED LINKER/LOCATER V6.22.2.0                                                  06/30/2026  14:47:53  PAGE 175


  C:96E4H         LINE#         943
  C:96E4H         LINE#         945
  C:96F8H         LINE#         946
  C:96FBH         LINE#         947
  C:96FBH         LINE#         949
  C:970FH         LINE#         950
  C:9712H         LINE#         951
  C:9712H         LINE#         953
  C:9726H         LINE#         954
  C:9729H         LINE#         955
  C:9729H         LINE#         957
  C:973DH         LINE#         958
  C:973FH         LINE#         959
  C:973FH         LINE#         961
  C:9753H         LINE#         962
  C:9755H         LINE#         963
  C:9755H         LINE#         965
  C:9769H         LINE#         966
  C:976BH         LINE#         967
  C:976BH         LINE#         969
  C:977FH         LINE#         970
  C:9781H         LINE#         971
  C:9781H         LINE#         973
  C:9795H         LINE#         974
  C:9797H         LINE#         975
  C:9797H         LINE#         977
  C:97B0H         LINE#         978
  C:97B0H         LINE#         981
  C:97B0H         LINE#         982
  C:97B0H         LINE#         983
  C:97B0H         LINE#         984
  C:97B5H         LINE#         985
  -------         ENDPROC       _DP_DOWNLOAD_HANDLE
  -------         PROC          GET_DOWNLOAD_CMD_TOTAL
  C:FEB3H         LINE#         993
  C:FEB3H         LINE#         994
  C:FEB3H         LINE#         995
  C:FEB5H         LINE#         996
  -------         ENDPROC       GET_DOWNLOAD_CMD_TOTAL
  -------         PROC          _UPGRADE_PACKAGE_CHOOSE
  D:0005H         SYMBOL        package_sz
  -------         DO            
  D:0006H         SYMBOL        send_len
  -------         ENDDO         
  C:FCC8H         LINE#         1014
  C:FCCAH         LINE#         1015
  C:FCCAH         LINE#         1017
  C:FCCDH         LINE#         1018
  C:FCD0H         LINE#         1019
  -------         ENDPROC       _UPGRADE_PACKAGE_CHOOSE
  -------         PROC          _MCU_FIRM_UPDATE_HANDLE
  X:8B05H         SYMBOL        value
  X:8B08H         SYMBOL        position
  X:8B0CH         SYMBOL        length
  -------         DO            
  D:0006H         SYMBOL        i
  X:91FDH         SYMBOL        Oldposittion
BL51 BANKED LINKER/LOCATER V6.22.2.0                                                  06/30/2026  14:47:53  PAGE 176


  -------         ENDDO         
  C:CC7EH         LINE#         1033
  C:CC8DH         LINE#         1034
  C:CC8DH         LINE#         1038
  C:CC9AH         LINE#         1041
  C:CC9AH         LINE#         1043
  C:CCB3H         LINE#         1044
  C:CCB6H         LINE#         1045
  C:CCB6H         LINE#         1046
  C:CCD5H         LINE#         1047
  C:CCE2H         LINE#         1048
  C:CD04H         LINE#         1049
  C:CD04H         LINE#         1050
  C:CD18H         LINE#         1051
  C:CD1AH         LINE#         1052
  C:CD1AH         LINE#         1053
  C:CD1AH         LINE#         1055
  C:CD1CH         LINE#         1056
  -------         ENDPROC       _MCU_FIRM_UPDATE_HANDLE
  -------         PROC          _WIFI_TEST_RESULT
  X:8B05H         SYMBOL        result
  X:8B06H         SYMBOL        rssi
  C:FE6CH         LINE#         1126
  C:FE74H         LINE#         1127
  C:FE74H         LINE#         1129
  C:FE74H         LINE#         1131
  C:FE74H         LINE#         1133
  C:FE74H         LINE#         1135
  C:FE74H         LINE#         1136
  C:FE74H         LINE#         1139
  C:FE74H         LINE#         1140
  -------         ENDPROC       _WIFI_TEST_RESULT
  -------         PROC          _FILE_DOWNLOAD_PACKAGE_CHOOSE
  D:0005H         SYMBOL        package_sz
  -------         DO            
  D:0006H         SYMBOL        send_len
  -------         ENDDO         
  C:FCDBH         LINE#         1494
  C:FCDDH         LINE#         1495
  C:FCDDH         LINE#         1497
  C:FCE0H         LINE#         1498
  C:FCE3H         LINE#         1499
  -------         ENDPROC       _FILE_DOWNLOAD_PACKAGE_CHOOSE
  -------         PROC          _FILE_DOWNLOAD_HANDLE
  X:8B05H         SYMBOL        value
  X:8B08H         SYMBOL        position
  X:8B0CH         SYMBOL        length
  C:FD12H         LINE#         1512
  C:FD21H         LINE#         1513
  C:FD21H         LINE#         1515
  C:FD21H         LINE#         1518
  C:FD21H         LINE#         1521
  C:FD21H         LINE#         1523
  C:FD23H         LINE#         1524
  -------         ENDPROC       _FILE_DOWNLOAD_HANDLE
  -------         ENDMOD        PROTOCOL

BL51 BANKED LINKER/LOCATER V6.22.2.0                                                  06/30/2026  14:47:53  PAGE 177


  -------         MODULE        SYSTEM
  C:0000H         SYMBOL        _ICE_DUMMY_
  C:F428H         SYMBOL        _get_dowmload_dpid_index
  D:0080H         PUBLIC        P0
  C:FE50H         SYMBOL        get_mcu_wifi_mode
  C:F799H         SYMBOL        heat_beat_check
  X:8481H         PUBLIC        set_wifimode_flag
  D:00F8H         PUBLIC        RAMMODE
  D:00A8H         PUBLIC        IEN0
  D:00B8H         PUBLIC        IEN1
  C:F4DFH         PUBLIC        _set_wifi_uart_byte
  C:F23AH         PUBLIC        with_data_rxbuff
  X:8482H         PUBLIC        stop_update_flag
  C:E37CH         PUBLIC        take_byte_rxbuff
  X:8483H         PUBLIC        wifi_data_process_buf
  D:0088H         PUBLIC        TCON
  X:85B6H         PUBLIC        reset_wifi_flag
  X:85B7H         PUBLIC        wifi_uart_rx_buf
  X:86EAH         PUBLIC        wifi_uart_tx_buf
  X:8791H         PUBLIC        rx_buf_in
  C:E5FFH         SYMBOL        _?ix1000
  X:8794H         PUBLIC        rx_buf_out
  C:E04CH         PUBLIC        _wifi_uart_write_frame
  C:EBADH         PUBLIC        _get_check_sum
  C:E75DH         SYMBOL        _wifi_uart_write_data
  X:8797H         PUBLIC        wifi_work_state
  C:DF17H         PUBLIC        _set_wifi_uart_buffer
  D:0098H         PUBLIC        SCON0
  D:00C8H         PUBLIC        T2CON
  C:519AH         PUBLIC        _data_handle
  C:CDB8H         SYMBOL        _data_point_handle
  D:00D0H         PUBLIC        PSW
  C:A780H         SYMBOL        product_info_update
  D:00C0H         PUBLIC        IRCON
  -------         PROC          _SET_WIFI_UART_BYTE
  X:8B99H         SYMBOL        dest
  D:0005H         SYMBOL        byte
  -------         DO            
  D:0001H         SYMBOL        obj
  -------         ENDDO         
  C:F4DFH         LINE#         35
  C:F4E7H         LINE#         36
  C:F4E7H         LINE#         37
  C:F4F0H         LINE#         39
  C:F4F4H         LINE#         40
  C:F502H         LINE#         42
  C:F50AH         LINE#         43
  -------         ENDPROC       _SET_WIFI_UART_BYTE
  -------         PROC          L?0092
  -------         ENDPROC       L?0092
  -------         PROC          _SET_WIFI_UART_BUFFER
  X:8B99H         SYMBOL        dest
  X:8B9BH         SYMBOL        src
  X:8B9EH         SYMBOL        len
  -------         DO            
  D:0001H         SYMBOL        obj
  -------         ENDDO         
BL51 BANKED LINKER/LOCATER V6.22.2.0                                                  06/30/2026  14:47:53  PAGE 178


  C:DF17H         LINE#         52
  C:DF2AH         LINE#         53
  C:DF2AH         LINE#         54
  C:DF33H         LINE#         56
  C:DF60H         LINE#         58
  C:DF74H         LINE#         59
  C:DF79H         LINE#         60
  -------         ENDPROC       _SET_WIFI_UART_BUFFER
  -------         PROC          _GET_CHECK_SUM
  X:8B9BH         SYMBOL        pack
  X:8B9EH         SYMBOL        pack_len
  -------         DO            
  D:0006H         SYMBOL        i
  X:8BA0H         SYMBOL        check_sum
  -------         ENDDO         
  C:EBADH         LINE#         68
  C:EBBEH         LINE#         69
  C:EBBEH         LINE#         71
  C:EBC1H         LINE#         73
  C:EBD0H         LINE#         74
  C:EBEAH         LINE#         75
  C:EBF1H         LINE#         77
  C:EBF6H         LINE#         78
  -------         ENDPROC       _GET_CHECK_SUM
  -------         PROC          _WIFI_UART_WRITE_DATA
  X:8B9BH         SYMBOL        in
  X:8B9EH         SYMBOL        len
  C:E75DH         LINE#         86
  C:E76EH         LINE#         87
  C:E76EH         LINE#         88
  C:E784H         LINE#         90
  C:E784H         LINE#         92
  C:E792H         LINE#         93
  C:E7A4H         LINE#         94
  C:E7AEH         LINE#         95
  C:E7B0H         LINE#         96
  -------         ENDPROC       _WIFI_UART_WRITE_DATA
  -------         PROC          _WIFI_UART_WRITE_FRAME
  D:0007H         SYMBOL        fr_type
  D:0005H         SYMBOL        fr_ver
  X:8B99H         SYMBOL        len
  -------         DO            
  D:0006H         SYMBOL        check_sum
  -------         ENDDO         
  C:E04CH         LINE#         105
  C:E054H         LINE#         106
  C:E054H         LINE#         107
  C:E054H         LINE#         109
  C:E05AH         LINE#         110
  C:E05EH         LINE#         111
  C:E061H         LINE#         112
  C:E064H         LINE#         113
  C:E071H         LINE#         114
  C:E074H         LINE#         116
  C:E082H         LINE#         117
  C:E099H         LINE#         118
  C:E0ACH         LINE#         120
BL51 BANKED LINKER/LOCATER V6.22.2.0                                                  06/30/2026  14:47:53  PAGE 179


  -------         ENDPROC       _WIFI_UART_WRITE_FRAME
  -------         PROC          HEAT_BEAT_CHECK
  -------         DO            
  D:0007H         SYMBOL        length
  X:8475H         SYMBOL        mcu_reset_state
  -------         ENDDO         
  C:F799H         LINE#         128
  C:F799H         LINE#         129
  C:F799H         LINE#         130
  C:F79BH         LINE#         133
  C:F7A1H         LINE#         134
  C:F7A6H         LINE#         135
  C:F7ACH         LINE#         136
  C:F7AEH         LINE#         137
  C:F7B5H         LINE#         138
  C:F7B5H         LINE#         140
  -------         ENDPROC       HEAT_BEAT_CHECK
  -------         PROC          PRODUCT_INFO_UPDATE
  -------         DO            
  X:8B05H         SYMBOL        length
  X:8B06H         SYMBOL        str
  X:8B10H         SYMBOL        reset_flag
  -------         ENDDO         
  C:A780H         LINE#         148
  C:A780H         LINE#         149
  C:A780H         LINE#         150
  C:A785H         LINE#         151
  C:A797H         LINE#         153
  C:A79FH         LINE#         154
  C:A7BCH         LINE#         155
  C:A7D9H         LINE#         156
  C:A7FFH         LINE#         157
  C:A825H         LINE#         158
  C:A84BH         LINE#         159
  C:A871H         LINE#         177
  C:A897H         LINE#         181
  -------         ENDPROC       PRODUCT_INFO_UPDATE
  -------         PROC          GET_MCU_WIFI_MODE
  -------         DO            
  D:0007H         SYMBOL        length
  -------         ENDDO         
  C:FE50H         LINE#         190
  C:FE50H         LINE#         191
  C:FE50H         LINE#         192
  C:FE51H         LINE#         201
  -------         ENDPROC       GET_MCU_WIFI_MODE
  -------         PROC          _GET_DOWMLOAD_DPID_INDEX
  X:8B0DH         SYMBOL        dpid
  -------         DO            
  D:0006H         SYMBOL        index
  D:0007H         SYMBOL        total
  -------         ENDDO         
  C:F428H         LINE#         209
  C:F42DH         LINE#         210
  C:F42DH         LINE#         212
  C:F430H         LINE#         214
  C:F437H         LINE#         215
BL51 BANKED LINKER/LOCATER V6.22.2.0                                                  06/30/2026  14:47:53  PAGE 180


  C:F451H         LINE#         216
  C:F451H         LINE#         217
  C:F451H         LINE#         218
  C:F454H         LINE#         220
  C:F456H         LINE#         221
  -------         ENDPROC       _GET_DOWMLOAD_DPID_INDEX
  -------         PROC          _DATA_POINT_HANDLE
  X:8B05H         SYMBOL        value
  -------         DO            
  X:8B08H         SYMBOL        dp_id
  X:8B09H         SYMBOL        index
  X:8B0AH         SYMBOL        dp_type
  D:0007H         SYMBOL        ret
  X:8B0BH         SYMBOL        dp_len
  -------         ENDDO         
  C:CDB8H         LINE#         229
  C:CDC3H         LINE#         230
  C:CDC3H         LINE#         236
  C:CDCBH         LINE#         237
  C:CDD5H         LINE#         238
  C:CDE2H         LINE#         239
  C:CDF6H         LINE#         241
  C:CE00H         LINE#         243
  C:CE0CH         LINE#         244
  C:CE0FH         LINE#         245
  C:CE27H         LINE#         246
  C:CE2AH         LINE#         247
  C:CE51H         LINE#         249
  C:CE51H         LINE#         250
  -------         ENDPROC       _DATA_POINT_HANDLE
  -------         PROC          _DATA_HANDLE
  X:8AF1H         SYMBOL        offset
  -------         DO            
  X:8AF3H         SYMBOL        firmware_addr
  X:8477H         SYMBOL        firm_size
  X:8479H         SYMBOL        firm_length
  X:847DH         SYMBOL        firm_update_flag
  X:8AF6H         SYMBOL        dp_len
  D:0007H         SYMBOL        firm_flag
  X:8AFAH         SYMBOL        ret
  X:8AFBH         SYMBOL        i
  X:8AFDH         SYMBOL        total_len
  D:0007H         SYMBOL        cmd_type
  D:0005H         SYMBOL        result
  D:0006H         SYMBOL        rssi
  X:8AFFH         SYMBOL        file_data_addr
  X:847EH         SYMBOL        file_package_size
  X:8480H         SYMBOL        file_download_flag
  X:8B02H         SYMBOL        file_download_size
  -------         DO            
  X:8476H         SYMBOL        s_last_wifi_state
  X:8B04H         SYMBOL        new_state
  -------         ENDDO         
  -------         ENDDO         
  C:519AH         LINE#         396
  C:51A2H         LINE#         397
  C:51A2H         LINE#         399
BL51 BANKED LINKER/LOCATER V6.22.2.0                                                  06/30/2026  14:47:53  PAGE 181


  C:51A9H         LINE#         411
  C:51BBH         LINE#         423
  C:51C4H         LINE#         426
  C:51C8H         LINE#         429
  C:51CDH         LINE#         430
  C:51DBH         LINE#         432
  C:5227H         LINE#         433
  C:5227H         LINE#         434
  C:5227H         LINE#         435
  C:522AH         LINE#         436
  C:522AH         LINE#         438
  C:522AH         LINE#         439
  C:522DH         LINE#         440
  C:522DH         LINE#         442
  C:522DH         LINE#         443
  C:5230H         LINE#         444
  C:5230H         LINE#         447
  C:5230H         LINE#         448
  C:5230H         LINE#         452
  C:5245H         LINE#         453
  C:524BH         LINE#         454
  C:5254H         LINE#         455
  C:525CH         LINE#         456
  C:5263H         LINE#         457
  C:5263H         LINE#         464
  C:5266H         LINE#         466
  C:5266H         LINE#         467
  C:5269H         LINE#         468
  C:526BH         LINE#         470
  C:526BH         LINE#         471
  C:5271H         LINE#         472
  C:5272H         LINE#         475
  C:5272H         LINE#         476
  C:5278H         LINE#         477
  C:52A1H         LINE#         478
  C:52B1H         LINE#         481
  C:52D3H         LINE#         482
  C:52F3H         LINE#         483
  C:5316H         LINE#         484
  C:535AH         LINE#         486
  C:537EH         LINE#         488
  C:537EH         LINE#         490
  C:537EH         LINE#         492
  C:537EH         LINE#         494
  C:5399H         LINE#         495
  C:539CH         LINE#         496
  C:539CH         LINE#         498
  C:539CH         LINE#         499
  C:53A2H         LINE#         500
  C:53A5H         LINE#         501
  C:53A5H         LINE#         504
  C:53A5H         LINE#         506
  C:53A6H         LINE#         507
  C:53AAH         LINE#         508
  C:53AEH         LINE#         509
  C:53B6H         LINE#         510
  C:53BBH         LINE#         511
BL51 BANKED LINKER/LOCATER V6.22.2.0                                                  06/30/2026  14:47:53  PAGE 182


  C:53C3H         LINE#         512
  C:53CCH         LINE#         513
  C:53CCH         LINE#         515
  C:53E8H         LINE#         516
  C:5401H         LINE#         517
  C:5430H         LINE#         518
  C:5449H         LINE#         519
  C:5478H         LINE#         520
  C:5491H         LINE#         521
  C:54C0H         LINE#         531
  C:54C5H         LINE#         532
  C:54CBH         LINE#         533
  C:54CCH         LINE#         535
  C:54CCH         LINE#         536
  C:54D7H         LINE#         538
  C:54DCH         LINE#         540
  C:5505H         LINE#         542
  C:5521H         LINE#         543
  C:553AH         LINE#         544
  C:5569H         LINE#         545
  C:5582H         LINE#         546
  C:55B1H         LINE#         547
  C:55CAH         LINE#         548
  C:55F9H         LINE#         550
  C:5609H         LINE#         551
  C:561EH         LINE#         555
  C:564CH         LINE#         557
  C:5672H         LINE#         559
  C:5677H         LINE#         560
  C:5694H         LINE#         561
  C:56C9H         LINE#         562
  C:56CBH         LINE#         563
  C:56D0H         LINE#         564
  C:56D4H         LINE#         565
  C:56D4H         LINE#         568
  C:56DCH         LINE#         569
  C:56E5H         LINE#         571
  C:56E5H         LINE#         573
  C:56EAH         LINE#         574
  C:56EAH         LINE#         575
  C:56EBH         LINE#         591
  C:56EBH         LINE#         592
  C:56FEH         LINE#         593
  C:570AH         LINE#         594
  C:5710H         LINE#         595
  C:5710H         LINE#         663
  C:5710H         LINE#         665
  C:5710H         LINE#         666
  C:5719H         LINE#         667
  C:5719H         LINE#         668
  C:5719H         LINE#         669
  C:5719H         LINE#         670
  C:5719H         LINE#         671
  C:5719H         LINE#         673
  C:5734H         LINE#         674
  C:574EH         LINE#         675
  C:576FH         LINE#         676
BL51 BANKED LINKER/LOCATER V6.22.2.0                                                  06/30/2026  14:47:53  PAGE 183


  C:5789H         LINE#         678
  C:578EH         LINE#         679
  C:5794H         LINE#         680
  C:5795H         LINE#         682
  C:5795H         LINE#         683
  C:57A0H         LINE#         684
  C:57C9H         LINE#         686
  C:57E5H         LINE#         687
  C:57FEH         LINE#         688
  C:582DH         LINE#         689
  C:5846H         LINE#         690
  C:5875H         LINE#         691
  C:588EH         LINE#         692
  C:58BDH         LINE#         694
  C:58CDH         LINE#         695
  C:58E2H         LINE#         697
  C:590DH         LINE#         699
  C:5935H         LINE#         700
  C:593AH         LINE#         701
  C:593CH         LINE#         702
  C:5957H         LINE#         703
  C:598CH         LINE#         704
  C:598EH         LINE#         705
  C:5993H         LINE#         706
  C:5997H         LINE#         707
  C:5997H         LINE#         709
  C:599FH         LINE#         710
  C:59A8H         LINE#         711
  C:59A8H         LINE#         712
  C:59A8H         LINE#         713
  C:59A8H         LINE#         759
  C:59A8H         LINE#         760
  C:59A8H         LINE#         761
  -------         ENDPROC       _DATA_HANDLE
  -------         PROC          WITH_DATA_RXBUFF
  C:F23AH         LINE#         768
  C:F23AH         LINE#         769
  C:F23AH         LINE#         770
  C:F269H         LINE#         771
  C:F26CH         LINE#         773
  C:F26EH         LINE#         774
  -------         ENDPROC       WITH_DATA_RXBUFF
  -------         PROC          TAKE_BYTE_RXBUFF
  -------         DO            
  D:0007H         SYMBOL        value
  -------         ENDDO         
  C:E37CH         LINE#         781
  C:E37CH         LINE#         782
  C:E37CH         LINE#         785
  C:E3A9H         LINE#         787
  C:E3BCH         LINE#         789
  C:E3CAH         LINE#         790
  C:E3CAH         LINE#         792
  C:E3DEH         LINE#         793
  C:E3DEH         LINE#         795
  C:E3DEH         LINE#         796
  -------         ENDPROC       TAKE_BYTE_RXBUFF
BL51 BANKED LINKER/LOCATER V6.22.2.0                                                  06/30/2026  14:47:53  PAGE 184


  -------         ENDMOD        SYSTEM

  -------         MODULE        ?C?FPMUL
  C:3B73H         PUBLIC        ?C?FPMUL
  -------         ENDMOD        ?C?FPMUL

  -------         MODULE        ?C?FPDIV
  C:3C7CH         PUBLIC        ?C?FPDIV
  -------         ENDMOD        ?C?FPDIV

  -------         MODULE        ?C?FPCMP
  C:3D1BH         PUBLIC        ?C?FPCMP
  C:3D19H         PUBLIC        ?C?FPCMP3
  -------         ENDMOD        ?C?FPCMP

  -------         MODULE        ?C?FCAST
  C:3D9CH         PUBLIC        ?C?FCASTC
  C:3D97H         PUBLIC        ?C?FCASTI
  C:3D92H         PUBLIC        ?C?FCASTL
  -------         ENDMOD        ?C?FCAST

  -------         MODULE        ?C?CASTF
  C:3DD0H         PUBLIC        ?C?CASTF
  -------         ENDMOD        ?C?CASTF

  -------         MODULE        PRINTF
  X:8B3EH         PUBLIC        ?_PRINTF?BYTE
  X:8B3EH         PUBLIC        ?_SPRINTF?BYTE
  C:5A14H         PUBLIC        _PRINTF
  C:5A0EH         PUBLIC        _SPRINTF
  -------         ENDMOD        PRINTF

  -------         MODULE        ?C?FPROUND
  C:3E51H         PUBLIC        ?C?FPROUND
  -------         ENDMOD        ?C?FPROUND

  -------         MODULE        ?C?FPCONVERT
  C:3E8EH         PUBLIC        ?C?FPCONVERT
  -------         ENDMOD        ?C?FPCONVERT

  -------         MODULE        ?C?FPADD
  C:3F9AH         PUBLIC        ?C?FPADD
  C:3F96H         PUBLIC        ?C?FPSUB
  -------         ENDMOD        ?C?FPADD

  -------         MODULE        ?C?FTNPWR
  C:40BBH         PUBLIC        ?C?FTNPWR
  -------         ENDMOD        ?C?FTNPWR

  -------         MODULE        ?C?COPY
  C:41CBH         PUBLIC        ?C?COPY
  -------         ENDMOD        ?C?COPY

  -------         MODULE        ?C?CLDPTR
  C:41F1H         PUBLIC        ?C?CLDPTR
  -------         ENDMOD        ?C?CLDPTR

BL51 BANKED LINKER/LOCATER V6.22.2.0                                                  06/30/2026  14:47:53  PAGE 185


  -------         MODULE        ?C?CLDOPTR
  C:420AH         PUBLIC        ?C?CLDOPTR
  -------         ENDMOD        ?C?CLDOPTR

  -------         MODULE        ?C?CILDOPTR
  C:4237H         PUBLIC        ?C?CILDOPTR
  -------         ENDMOD        ?C?CILDOPTR

  -------         MODULE        ?C?CSTPTR
  C:426AH         PUBLIC        ?C?CSTPTR
  -------         ENDMOD        ?C?CSTPTR

  -------         MODULE        ?C?CSTOPTR
  C:427CH         PUBLIC        ?C?CSTOPTR
  -------         ENDMOD        ?C?CSTOPTR

  -------         MODULE        ?C?IMUL
  C:429EH         PUBLIC        ?C?IMUL
  -------         ENDMOD        ?C?IMUL

  -------         MODULE        ?C?UIDIV
  C:42B0H         PUBLIC        ?C?UIDIV
  -------         ENDMOD        ?C?UIDIV

  -------         MODULE        ?C?SIDIV
  C:4305H         PUBLIC        ?C?SIDIV
  -------         ENDMOD        ?C?SIDIV

  -------         MODULE        ?C?IILDX
  C:433BH         PUBLIC        ?C?IILDX
  -------         ENDMOD        ?C?IILDX

  -------         MODULE        ?C?ILDIX
  C:4351H         PUBLIC        ?C?ILDIX
  -------         ENDMOD        ?C?ILDIX

  -------         MODULE        ?C?ILDIPTR
  C:4367H         PUBLIC        ?C?ILDIPTR
  -------         ENDMOD        ?C?ILDIPTR

  -------         MODULE        ?C?ILDOPTR
  C:439CH         PUBLIC        ?C?ILDOPTR
  -------         ENDMOD        ?C?ILDOPTR

  -------         MODULE        ?C?ISTPTR
  C:43D4H         PUBLIC        ?C?ISTPTR
  -------         ENDMOD        ?C?ISTPTR

  -------         MODULE        ?C?ISTOPTR
  C:43F3H         PUBLIC        ?C?ISTOPTR
  -------         ENDMOD        ?C?ISTOPTR

  -------         MODULE        ?C?LMUL
  C:4420H         PUBLIC        ?C?LMUL
  -------         ENDMOD        ?C?LMUL

  -------         MODULE        ?C?ULDIV
BL51 BANKED LINKER/LOCATER V6.22.2.0                                                  06/30/2026  14:47:53  PAGE 186


  C:44ABH         PUBLIC        ?C?ULDIV
  -------         ENDMOD        ?C?ULDIV

  -------         MODULE        ?C?LNEG
  C:453DH         PUBLIC        ?C?LNEG
  -------         ENDMOD        ?C?LNEG

  -------         MODULE        ?C?SLCMP
  C:454BH         PUBLIC        ?C?SLCMP
  -------         ENDMOD        ?C?SLCMP

  -------         MODULE        ?C?ULCMP
  C:4561H         PUBLIC        ?C?ULCMP
  -------         ENDMOD        ?C?ULCMP

  -------         MODULE        ?C?ULSHR
  C:4572H         PUBLIC        ?C?ULSHR
  -------         ENDMOD        ?C?ULSHR

  -------         MODULE        ?C?LSHL
  C:4585H         PUBLIC        ?C?LSHL
  -------         ENDMOD        ?C?LSHL

  -------         MODULE        ?C?LLDPTR
  C:4598H         PUBLIC        ?C?LLDPTR
  -------         ENDMOD        ?C?LLDPTR

  -------         MODULE        ?C?LSTPTR
  C:45B8H         PUBLIC        ?C?LSTPTR
  -------         ENDMOD        ?C?LSTPTR

  -------         MODULE        ?C?LSTXDATA
  C:45D2H         PUBLIC        ?C?LSTXDATA
  -------         ENDMOD        ?C?LSTXDATA

  -------         MODULE        ?C?LSTKXDATA
  C:45DEH         PUBLIC        ?C?LSTKXDATA
  -------         ENDMOD        ?C?LSTKXDATA

  -------         MODULE        ?C?OFFXADD
  C:460FH         PUBLIC        ?C?OFFXADD
  -------         ENDMOD        ?C?OFFXADD

  -------         MODULE        ?C?PLDIXDATA
  C:461BH         PUBLIC        ?C?PLDIXDATA
  -------         ENDMOD        ?C?PLDIXDATA

  -------         MODULE        ?C?PSTXDATA
  C:4632H         PUBLIC        ?C?PSTXDATA
  -------         ENDMOD        ?C?PSTXDATA

  -------         MODULE        ?C?CCASE
  C:463BH         PUBLIC        ?C?CCASE
  -------         ENDMOD        ?C?CCASE

  -------         MODULE        ?C?ICASE
  C:4661H         PUBLIC        ?C?ICASE
BL51 BANKED LINKER/LOCATER V6.22.2.0                                                  06/30/2026  14:47:53  PAGE 187


  -------         ENDMOD        ?C?ICASE

  -------         MODULE        ?C?LIMUL
  C:468EH         PUBLIC        ?C?LIMUL
  -------         ENDMOD        ?C?LIMUL

  -------         MODULE        STRTOUL
  X:8B29H         PUBLIC        ?_strtoul?BYTE
  C:7453H         PUBLIC        _strtoul
  -------         ENDMOD        STRTOUL

  -------         MODULE        ?C?LLDIDATA
  C:46BBH         PUBLIC        ?C?LLDIDATA
  -------         ENDMOD        ?C?LLDIDATA

  -------         MODULE        ?C?LLDXDATA
  C:46C7H         PUBLIC        ?C?LLDXDATA
  -------         ENDMOD        ?C?LLDXDATA

  -------         MODULE        ?C?LLDPDATA
  C:46D3H         PUBLIC        ?C?LLDPDATA
  -------         ENDMOD        ?C?LLDPDATA

  -------         MODULE        ?C?LLDCODE
  C:46DFH         PUBLIC        ?C?LLDCODE
  -------         ENDMOD        ?C?LLDCODE

  -------         MODULE        ?C?LSTIDATA
  C:46EFH         PUBLIC        ?C?LSTIDATA
  -------         ENDMOD        ?C?LSTIDATA

  -------         MODULE        ?C?LSTPDATA
  C:46FBH         PUBLIC        ?C?LSTPDATA
  -------         ENDMOD        ?C?LSTPDATA

  -------         MODULE        ?C?PSTPTR
  C:4707H         PUBLIC        ?C?PSTPTR
  -------         ENDMOD        ?C?PSTPTR

  -------         MODULE        ?C?PSTIDATA
  C:4756H         PUBLIC        ?C?PSTIDATA
  -------         ENDMOD        ?C?PSTIDATA

  -------         MODULE        ?C?PSTPDATA
  C:475FH         PUBLIC        ?C?PSTPDATA
  -------         ENDMOD        ?C?PSTPDATA

*** WARNING L13: RECURSIVE CALL TO SEGMENT
    SEGMENT: ?PR?WIFI_UART_PARSE_CMD6_PRIORITY?MCU_API
    CALLER:  ?PR?WIFI_UART_PROCESS_DOWNLOAD?MCU_API

*** WARNING L16: UNCALLED SEGMENT, IGNORED FOR OVERLAY PROCESS
    SEGMENT: ?PR?_DGUS_WAITEN?SYS

*** WARNING L16: UNCALLED SEGMENT, IGNORED FOR OVERLAY PROCESS
    SEGMENT: ?PR?_MEMORY_WRITETIMERSLOT?SYS

BL51 BANKED LINKER/LOCATER V6.22.2.0                                                  06/30/2026  14:47:53  PAGE 188


*** WARNING L16: UNCALLED SEGMENT, IGNORED FOR OVERLAY PROCESS
    SEGMENT: ?PR?_MEMORY_READTIMERSLOT?SYS

*** WARNING L16: UNCALLED SEGMENT, IGNORED FOR OVERLAY PROCESS
    SEGMENT: ?PR?_DELAYUS?SYS

*** WARNING L16: UNCALLED SEGMENT, IGNORED FOR OVERLAY PROCESS
    SEGMENT: ?PR?_DELAYMS?SYS

*** WARNING L16: UNCALLED SEGMENT, IGNORED FOR OVERLAY PROCESS
    SEGMENT: ?PR?_MODBUS_ISFAULTACTIVE?MODBUS

*** WARNING L16: UNCALLED SEGMENT, IGNORED FOR OVERLAY PROCESS
    SEGMENT: ?PR?MODBUS_USERHOLDACTIVE?MODBUS

*** WARNING L16: UNCALLED SEGMENT, IGNORED FOR OVERLAY PROCESS
    SEGMENT: ?PR?_MODBUS_GETUSERPOWERMODE?MODBUS

*** WARNING L16: UNCALLED SEGMENT, IGNORED FOR OVERLAY PROCESS
    SEGMENT: ?PR?_ERRORHISTORY_FLASHREAD?ERRORHISTORY

*** WARNING L16: UNCALLED SEGMENT, IGNORED FOR OVERLAY PROCESS
    SEGMENT: ?PR?ERRORHISTORY_INIT?ERRORHISTORY

*** WARNING L16: UNCALLED SEGMENT, IGNORED FOR OVERLAY PROCESS
    SEGMENT: ?PR?UPLOAD_ELECTRICITY_STATISTICS?UPLOAD

*** WARNING L16: UNCALLED SEGMENT, IGNORED FOR OVERLAY PROCESS
    SEGMENT: ?PR?UPLOAD_TIMESTAMP_BOOT_ONCE?UPLOAD

*** WARNING L16: UNCALLED SEGMENT, IGNORED FOR OVERLAY PROCESS
    SEGMENT: ?PR?UPLOAD_CHECK_STATUS?UPLOAD

*** WARNING L16: UNCALLED SEGMENT, IGNORED FOR OVERLAY PROCESS
    SEGMENT: ?PR?UPLOAD_ALL_TIMERS?UPLOAD

*** WARNING L16: UNCALLED SEGMENT, IGNORED FOR OVERLAY PROCESS
    SEGMENT: ?PR?UPLOAD_MODBUS_POLL_REPORT?UPLOAD

*** WARNING L16: UNCALLED SEGMENT, IGNORED FOR OVERLAY PROCESS
    SEGMENT: ?PR?_HEX_TO_BCD?MCU_API

*** WARNING L16: UNCALLED SEGMENT, IGNORED FOR OVERLAY PROCESS
    SEGMENT: ?PR?_MY_MEMSET?MCU_API

*** WARNING L16: UNCALLED SEGMENT, IGNORED FOR OVERLAY PROCESS
    SEGMENT: ?PR?_MY_STRCPY?MCU_API

*** WARNING L16: UNCALLED SEGMENT, IGNORED FOR OVERLAY PROCESS
    SEGMENT: ?PR?_MY_STRCMP?MCU_API

*** WARNING L16: UNCALLED SEGMENT, IGNORED FOR OVERLAY PROCESS
    SEGMENT: ?PR?_INT_TO_BYTE?MCU_API

*** WARNING L16: UNCALLED SEGMENT, IGNORED FOR OVERLAY PROCESS
    SEGMENT: ?PR?_MCU_DP_FAULT_UPDATE?MCU_API

BL51 BANKED LINKER/LOCATER V6.22.2.0                                                  06/30/2026  14:47:53  PAGE 189


*** WARNING L16: UNCALLED SEGMENT, IGNORED FOR OVERLAY PROCESS
    SEGMENT: ?PR?_UART_RECEIVE_BUFF_INPUT?MCU_API

*** WARNING L16: UNCALLED SEGMENT, IGNORED FOR OVERLAY PROCESS
    SEGMENT: ?PR?WIFI_UART_DRAIN?MCU_API

*** WARNING L16: UNCALLED SEGMENT, IGNORED FOR OVERLAY PROCESS
    SEGMENT: ?PR?MCU_GET_WIFIMODE_FLAG?MCU_API

*** WARNING L16: UNCALLED SEGMENT, IGNORED FOR OVERLAY PROCESS
    SEGMENT: ?PR?_MCU_SET_WIFI_MODE?MCU_API

*** WARNING L16: UNCALLED SEGMENT, IGNORED FOR OVERLAY PROCESS
    SEGMENT: ?PR?MCU_START_WIFITEST?MCU_API

*** WARNING L1: UNRESOLVED EXTERNAL SYMBOL
    SYMBOL:  OTALENGTH
    MODULE:  .\obj\OTA.obj (OTA)

*** WARNING L2: REFERENCE MADE TO UNRESOLVED EXTERNAL
    SYMBOL:  OTALENGTH
    MODULE:  .\obj\OTA.obj (OTA)
    ADDRESS: 5F7EH

*** WARNING L2: REFERENCE MADE TO UNRESOLVED EXTERNAL
    SYMBOL:  OTALENGTH
    MODULE:  .\obj\OTA.obj (OTA)
    ADDRESS: 5FA9H

*** WARNING L2: REFERENCE MADE TO UNRESOLVED EXTERNAL
    SYMBOL:  OTALENGTH
    MODULE:  .\obj\OTA.obj (OTA)
    ADDRESS: 5FD6H

*** WARNING L2: REFERENCE MADE TO UNRESOLVED EXTERNAL
    SYMBOL:  OTALENGTH
    MODULE:  .\obj\OTA.obj (OTA)
    ADDRESS: 6001H

*** WARNING L2: REFERENCE MADE TO UNRESOLVED EXTERNAL
    SYMBOL:  OTALENGTH
    MODULE:  .\obj\OTA.obj (OTA)
    ADDRESS: 6039H

Program Size: data=22.4 xdata=5533 code=64985
LINK/LOCATE RUN COMPLETE.  33 WARNING(S),  0 ERROR(S)
