BL51 BANKED LINKER/LOCATER V6.22.2.0                                                    07/08/2026  17:17:08  PAGE 1


BL51 BANKED LINKER/LOCATER V6.22.2.0, INVOKED BY:
D:\KEIL_V5\C51\C51\BIN\BL51.EXE .\obj\STARTUP_M5.obj, .\obj\main.obj, .\obj\sys.obj, .\obj\control.obj, .\obj\uart.obj, 
>> .\obj\modbus.obj, .\obj\rtc.obj, .\obj\ErrorHistory.obj, .\obj\upload.obj, .\obj\Wifipro.obj, .\obj\OTA.obj, .\obj\sy
>> stem.obj, .\obj\mcu_api.obj, .\obj\protocol.obj TO .\obj\T5L51 PRINT (.\Listings\T5L51.m51) RAMSIZE (256) CODE (0X010
>> 0-0XFFFF) XDATA (0X8000-0XFFFF)


MEMORY MODEL: LARGE WITH FLOATING POINT ARITHMETIC


INPUT MODULES INCLUDED:
  .\obj\STARTUP_M5.obj (?C_STARTUP)
  .\obj\main.obj (MAIN)
  .\obj\sys.obj (SYS)
  .\obj\control.obj (CONTROL)
  .\obj\uart.obj (UART)
  .\obj\modbus.obj (MODBUS)
  .\obj\rtc.obj (RTC)
  .\obj\ErrorHistory.obj (ERRORHISTORY)
  .\obj\upload.obj (UPLOAD)
  .\obj\Wifipro.obj (WIFIPRO)
  .\obj\OTA.obj (OTA)
  .\obj\system.obj (SYSTEM)
  .\obj\mcu_api.obj (MCU_API)
  .\obj\protocol.obj (PROTOCOL)
  D:\KEIL_V5\C51\C51\LIB\C51FPL.LIB (?C?FPMUL)
  D:\KEIL_V5\C51\C51\LIB\C51FPL.LIB (?C?FPDIV)
  D:\KEIL_V5\C51\C51\LIB\C51FPL.LIB (?C?FPCMP)
  D:\KEIL_V5\C51\C51\LIB\C51FPL.LIB (?C?FCAST)
  D:\KEIL_V5\C51\C51\LIB\C51FPL.LIB (?C?CASTF)
  D:\KEIL_V5\C51\C51\LIB\C51FPL.LIB (PRINTF)
  D:\KEIL_V5\C51\C51\LIB\C51FPL.LIB (?C?FPGETOPN)
  D:\KEIL_V5\C51\C51\LIB\C51FPL.LIB (?C?FPROUND)
  D:\KEIL_V5\C51\C51\LIB\C51FPL.LIB (?C?FPCONVERT)
  D:\KEIL_V5\C51\C51\LIB\C51FPL.LIB (?C?FPADD)
  D:\KEIL_V5\C51\C51\LIB\C51FPL.LIB (?C?FTNPWR)
  D:\KEIL_V5\C51\C51\LIB\C51L.LIB (?C_INIT)
  D:\KEIL_V5\C51\C51\LIB\C51L.LIB (?C?COPY)
  D:\KEIL_V5\C51\C51\LIB\C51L.LIB (?C?CLDPTR)
  D:\KEIL_V5\C51\C51\LIB\C51L.LIB (?C?CLDOPTR)
  D:\KEIL_V5\C51\C51\LIB\C51L.LIB (?C?CILDOPTR)
  D:\KEIL_V5\C51\C51\LIB\C51L.LIB (?C?CSTPTR)
  D:\KEIL_V5\C51\C51\LIB\C51L.LIB (?C?CSTOPTR)
  D:\KEIL_V5\C51\C51\LIB\C51L.LIB (?C?IMUL)
  D:\KEIL_V5\C51\C51\LIB\C51L.LIB (?C?UIDIV)
  D:\KEIL_V5\C51\C51\LIB\C51L.LIB (?C?SIDIV)
  D:\KEIL_V5\C51\C51\LIB\C51L.LIB (?C?IILDX)
  D:\KEIL_V5\C51\C51\LIB\C51L.LIB (?C?ILDIX)
  D:\KEIL_V5\C51\C51\LIB\C51L.LIB (?C?ILDPTR)
  D:\KEIL_V5\C51\C51\LIB\C51L.LIB (?C?ILDIPTR)
  D:\KEIL_V5\C51\C51\LIB\C51L.LIB (?C?ILDOPTR)
  D:\KEIL_V5\C51\C51\LIB\C51L.LIB (?C?ISTPTR)
  D:\KEIL_V5\C51\C51\LIB\C51L.LIB (?C?ISTOPTR)
  D:\KEIL_V5\C51\C51\LIB\C51L.LIB (?C?LMUL)
  D:\KEIL_V5\C51\C51\LIB\C51L.LIB (?C?ULDIV)
  D:\KEIL_V5\C51\C51\LIB\C51L.LIB (?C?LNEG)
  D:\KEIL_V5\C51\C51\LIB\C51L.LIB (?C?SLCMP)
  D:\KEIL_V5\C51\C51\LIB\C51L.LIB (?C?ULCMP)
BL51 BANKED LINKER/LOCATER V6.22.2.0                                                  07/08/2026  17:17:08  PAGE 2


  D:\KEIL_V5\C51\C51\LIB\C51L.LIB (?C?ULSHR)
  D:\KEIL_V5\C51\C51\LIB\C51L.LIB (?C?LSHL)
  D:\KEIL_V5\C51\C51\LIB\C51L.LIB (?C?LLDPTR)
  D:\KEIL_V5\C51\C51\LIB\C51L.LIB (?C?LSTPTR)
  D:\KEIL_V5\C51\C51\LIB\C51L.LIB (?C?LSTXDATA)
  D:\KEIL_V5\C51\C51\LIB\C51L.LIB (?C?LSTKXDATA)
  D:\KEIL_V5\C51\C51\LIB\C51L.LIB (?C?OFFXADD)
  D:\KEIL_V5\C51\C51\LIB\C51L.LIB (?C?PLDIXDATA)
  D:\KEIL_V5\C51\C51\LIB\C51L.LIB (?C?PSTXDATA)
  D:\KEIL_V5\C51\C51\LIB\C51L.LIB (?C?CCASE)
  D:\KEIL_V5\C51\C51\LIB\C51L.LIB (?C?ICASE)
  D:\KEIL_V5\C51\C51\LIB\C51L.LIB (?C?LIMUL)
  D:\KEIL_V5\C51\C51\LIB\C51L.LIB (STRTOUL)
  D:\KEIL_V5\C51\C51\LIB\C51L.LIB (?C?LLDIDATA)
  D:\KEIL_V5\C51\C51\LIB\C51L.LIB (?C?LLDXDATA)
  D:\KEIL_V5\C51\C51\LIB\C51L.LIB (?C?LLDPDATA)
  D:\KEIL_V5\C51\C51\LIB\C51L.LIB (?C?LLDCODE)
  D:\KEIL_V5\C51\C51\LIB\C51L.LIB (?C?LSTIDATA)
  D:\KEIL_V5\C51\C51\LIB\C51L.LIB (?C?LSTPDATA)
  D:\KEIL_V5\C51\C51\LIB\C51L.LIB (?C?PSTPTR)
  D:\KEIL_V5\C51\C51\LIB\C51L.LIB (?C?PSTIDATA)
  D:\KEIL_V5\C51\C51\LIB\C51L.LIB (?C?PSTPDATA)


LINK MAP OF MODULE:  .\obj\T5L51 (?C_STARTUP)


            TYPE    BASE      LENGTH    RELOCATION   SEGMENT NAME
            -----------------------------------------------------

            * * * * * * *   D A T A   M E M O R Y   * * * * * * *
            REG     0000H     0008H     ABSOLUTE     "REG BANK 0"
            DATA    0008H     0005H     UNIT         _DATA_GROUP_
            DATA    000DH     0002H     UNIT         ?DT?SYS
                    000FH     0011H                  *** GAP ***
            BIT     0020H.0   0003H.1   UNIT         ?BI?MODBUS
            BIT     0023H.1   0001H.1   UNIT         _BIT_GROUP_
            BIT     0024H.2   0000H.6   UNIT         ?BI?CONTROL
            BIT     0025H.0   0000H.6   UNIT         ?BI?UPLOAD
            BIT     0025H.6   0000H.4   UNIT         ?BI?OTA
            BIT     0026H.2   0000H.1   UNIT         ?BI?MAIN
            BIT     0026H.3   0000H.1   UNIT         ?BI?PROTOCOL
                    0026H.4   0000H.4                *** GAP ***
            IDATA   0027H     0001H     UNIT         ?STACK

            * * * * * * *  X D A T A   M E M O R Y  * * * * * * *
                    0000H     8000H                  *** GAP ***
            XDATA   8000H     049BH     UNIT         ?XD?MODBUS
            XDATA   849BH     0327H     UNIT         ?XD?SYSTEM
            XDATA   87C2H     0301H     UNIT         ?XD?SYS
            XDATA   8AC3H     02AEH     UNIT         ?XD?UPLOAD
            XDATA   8D71H     022AH     UNIT         _XDATA_GROUP_
            XDATA   8F9BH     0205H     UNIT         ?XD?ERRORHISTORY
            XDATA   91A0H     019EH     UNIT         ?XD?UART
            XDATA   933EH     0132H     UNIT         ?XD?PROTOCOL
            XDATA   9470H     0059H     UNIT         ?XD?CONTROL
            XDATA   94C9H     001BH     UNIT         ?XD?RTC
BL51 BANKED LINKER/LOCATER V6.22.2.0                                                  07/08/2026  17:17:08  PAGE 3


            XDATA   94E4H     001AH     UNIT         ?XD?MCU_API
            XDATA   94FEH     000BH     UNIT         ?XD?OTA
            XDATA   9509H     0002H     UNIT         ?XD?MAIN

            * * * * * * *   C O D E   M E M O R Y   * * * * * * *
            CODE    0000H     0003H     ABSOLUTE     
                    0003H     0008H                  *** GAP ***
            CODE    000BH     0003H     ABSOLUTE     
                    000EH     000DH                  *** GAP ***
            CODE    001BH     0003H     ABSOLUTE     
                    001EH     0005H                  *** GAP ***
            CODE    0023H     0003H     ABSOLUTE     
                    0026H     0005H                  *** GAP ***
            CODE    002BH     0003H     ABSOLUTE     
                    002EH     0035H                  *** GAP ***
            CODE    0063H     0003H     ABSOLUTE     
                    0066H     0005H                  *** GAP ***
            CODE    006BH     0003H     ABSOLUTE     
                    006EH     008AH                  *** GAP ***
            CODE    00F8H     0008H     ABSOLUTE     
            CODE    0100H     19B7H     UNIT         ?PR?CONTROL_FUNCTION1?CONTROL
            CODE    1AB7H     1210H     UNIT         ?PR?MODBUS_ANALYSIS_DATA1?MODBUS
            CODE    2CC7H     0DD5H     UNIT         ?PR?MODBUS_SALVE_HANDLER1?MODBUS
            CODE    3A9CH     0C20H     UNIT         ?C?LIB_CODE
            CODE    46BCH     0A4BH     UNIT         ?C_INITSEG
            CODE    5107H     07D1H     UNIT         ?PR?_DATA_HANDLE?SYSTEM
            CODE    58D8H     0483H     UNIT         ?PR?PRINTF?PRINTF
            CODE    5D5BH     03C5H     UNIT         ?PR?_DP_DOWNLOAD_INDOOR_UNIT_HANDLE?PROTOCOL
            CODE    6120H     038EH     UNIT         ?PR?OTAENCODEPRO?OTA
            CODE    64AEH     02FFH     UNIT         ?PR?TEMPUNIT_REFRESHALL?CONTROL
            CODE    67ADH     02E3H     UNIT         ?PR?_DP_DOWNLOAD_INSIDE_TIME_OPEN_HANDLE?PROTOCOL
            CODE    6A90H     02C4H     UNIT         ?PR?_TEMP_LIMIT?CONTROL
            CODE    6D54H     02BAH     UNIT         ?PR?TIMERRUNNING?CONTROL
            CODE    700EH     02B8H     UNIT         ?PR?_MODBUS_APPLYINDOORTIMERVPTOUNITS?MODBUS
            CODE    72C6H     026AH     UNIT         ?PR?_TIMESTAMP_TO_YMDHMS?PROTOCOL
            CODE    7530H     0260H     UNIT         ?PR?_ERRORHISTORY_FLASHREAD?ERRORHISTORY
            CODE    7790H     0252H     UNIT         ?PR?_STRTOUL?STRTOUL
            CODE    79E2H     023CH     UNIT         ?PR?_ERRORHISTORY_PACKREC?ERRORHISTORY
            CODE    7C1EH     022BH     UNIT         ?PR?SYNCTIMERFROMVP?CONTROL
            CODE    7E49H     0227H     UNIT         ?PR?UPLOAD_INDOOR_UNIT?UPLOAD
            CODE    8070H     0210H     UNIT         ?PR?_MODBUS_FILLINDOORUNITREGS?MODBUS
            CODE    8280H     01EDH     UNIT         ?PR?_READ_DGUS_VP?SYS
            CODE    846DH     01ECH     UNIT         ?PR?UPLOAD_INSIDE_TIME_OPEN?UPLOAD
            CODE    8659H     01E7H     UNIT         ?PR?_DP_DOWNLOAD_EXTERNAL_TIME_OPEN_HANDLE?PROTOCOL
            CODE    8840H     01DDH     UNIT         ?PR?_RTC_UNIXFROMLOCALPARTS?RTC
            CODE    8A1DH     01D6H     UNIT         ?PR?_DP_DOWNLOAD_TIMESTAMP_HANDLE?PROTOCOL
            CODE    8BF3H     01BEH     UNIT         ?PR?RDTIME?RTC
            CODE    8DB1H     01B9H     UNIT         ?PR?UPLOAD_EXTERNAL_TIME_OPEN?UPLOAD
            CODE    8F6AH     01B4H     UNIT         ?PR?_WRITE_DGUS_VP?SYS
            CODE    911EH     01A5H     UNIT         ?PR?RTC_GETUNIXLOCAL?RTC
            CODE    92C3H     01A4H     UNIT         ?PR?DEFROST_CHECKEXIT?CONTROL
            CODE    9467H     01A2H     UNIT         ?PR?_WIFI_UART_TRY_FRAME_LEN?MCU_API
            CODE    9609H     0197H     UNIT         ?PR?_ERRORHISTORY_UNPACKRECLEGACY?ERRORHISTORY
            CODE    97A0H     0193H     UNIT         ?PR?_ERRORHISTORY_UNPACKREC?ERRORHISTORY
            CODE    9933H     0187H     UNIT         ?PR?_DP_DOWNLOAD_HANDLE?PROTOCOL
            CODE    9ABAH     0177H     UNIT         ?PR?PREFILLSETTEMPEDITPAGE?CONTROL
            CODE    9C31H     016CH     UNIT         ?PR?MODBUS_REFRESHCHECKPARAMDISPLAY?MODBUS
BL51 BANKED LINKER/LOCATER V6.22.2.0                                                  07/08/2026  17:17:08  PAGE 4


            CODE    9D9DH     0167H     UNIT         ?PR?CHECK_RTC_SET?RTC
            CODE    9F04H     0167H     UNIT         ?PR?_MY_MEMCPY?MCU_API
            CODE    A06BH     015EH     UNIT         ?PR?_UPDATEERRORHISTORY?ERRORHISTORY
            CODE    A1C9H     0153H     UNIT         ?PR?SCREENSAVER_PRO?CONTROL
            CODE    A31CH     014CH     UNIT         ?PR?_UPLOAD_PACKHISTORYFAULTREC?UPLOAD
            CODE    A468H     0140H     UNIT         ?PR?_FLASHCHECKSUMCALCULATE?SYS
            CODE    A5A8H     013CH     UNIT         ?PR?HOMEPAGE_ICON?CONTROL
            CODE    A6E4H     0139H     UNIT         ?PR?_DP_DOWNLOAD_SWITCH_HANDLE?PROTOCOL
            CODE    A81DH     0138H     UNIT         ?PR?_BYTE_TO_INT?MCU_API
            CODE    A955H     0126H     UNIT         ?PR?TIMER_APPLYINDOORON?CONTROL
            CODE    AA7BH     0121H     UNIT         ?PR?PRODUCT_INFO_UPDATE?SYSTEM
            CODE    AB9CH     011BH     UNIT         ?PR?_UPLOAD_ULTOSTR?UPLOAD
            CODE    ACB7H     0116H     UNIT         ?PR?T0_ISR_PC?SYS
            CODE    ADCDH     0113H     UNIT         ?PR?RTCDISPLAY4CHANGE?CONTROL
            CODE    AEE0H     0110H     UNIT         ?PR?_MODBUS_FILLGROUPCONTROLREGS?MODBUS
            CODE    AFF0H     010FH     UNIT         ?PR?_ERRORHISTORY_READTIME?ERRORHISTORY
            CODE    B0FFH     010FH     UNIT         ?PR?UPLOAD_HISTORY_FAULTS?UPLOAD
            CODE    B20EH     010BH     UNIT         ?PR?UART5_RX_ISR_PC?UART
            CODE    B319H     0106H     UNIT         ?PR?HOMEPAGE_SYNCINDOORDISPLAY?CONTROL
            CODE    B41FH     0102H     UNIT         ?PR?ERRORHISTORYDISPLAY?ERRORHISTORY
            CODE    B521H     00FBH     UNIT         ?PR?_HOMEPAGE_UPDATEMODEANIMATION?CONTROL
            CODE    B61CH     00F6H     UNIT         ?PR?_KEYADJUSTSETTEMPFORMODE?CONTROL
            CODE    B712H     00F4H     UNIT         ?PR?READY4WRITERTC?CONTROL
            CODE    B806H     00EDH     UNIT         ?PR?UPLOAD_INSIDE_TIME_CLOSE?UPLOAD
            CODE    B8F3H     00EDH     UNIT         ?PR?UPLOAD_EXTERNAL_TIME_CLOSE?UPLOAD
            CODE    B9E0H     00E9H     UNIT         ?PR?_UPLOAD_SHADOW_VALUE?UPLOAD
            CODE    BAC9H     00E9H     UNIT         ?PR?_DP_DOWNLOAD_MODE_HANDLE?PROTOCOL
            CODE    BBB2H     00E5H     UNIT         ?PR?_SYNCHOMEDISPLAYIFFIRSTINDOORMODECHANGED?CONTROL
            CODE    BC97H     00E4H     UNIT         ?PR?_RTC_CONFIG?RTC
            CODE    BD7BH     00DBH     UNIT         ?PR?_DP_DOWNLOAD_INSIDE_TIME_CLOSE_HANDLE?PROTOCOL
            CODE    BE56H     00D9H     UNIT         ?PR?MODBUS_RETRYINDOORPOWERMISMATCH?MODBUS
            CODE    BF2FH     00D4H     UNIT         ?PR?_DP_DOWNLOAD_EXTERNAL_TIME_CLOSE_HANDLE?PROTOCOL
            CODE    C003H     00D1H     UNIT         ?PR?_UART_RECEIVE_INPUT?MCU_API
            CODE    C0D4H     00CFH     UNIT         ?PR?WIFI_UART_PARSE_FRAMES?MCU_API
            CODE    C1A3H     00C8H     UNIT         ?PR?_MODBUS_WRITEFLOATTEMPPAIR?MODBUS
            CODE    C26BH     00C7H     UNIT         ?PR?_TEMPUNITTRANS?CONTROL
            CODE    C332H     00C6H     UNIT         ?PR?MODBUS_TRIGGERUSERWRITE?MODBUS
            CODE    C3F8H     00C4H     UNIT         ?PR?_DP_DOWNLOAD_TEMP_SET_HANDLE?PROTOCOL
            CODE    C4BCH     00C3H     UNIT         ?PR?INIT_RTC?RTC
            CODE    C57FH     00C1H     UNIT         ?PR?_UPLOAD_PACKHISTORYFAULTBLOCK?UPLOAD
            CODE    C640H     00B9H     UNIT         ?PR?_CALCULATEMODBUSCRC?MODBUS
            CODE    C6F9H     00B9H     UNIT         ?PR?_MODBUS_SYNCHOMEINDOORMODEFROMUNIT?MODBUS
            CODE    C7B2H     00B6H     UNIT         ?PR?UART2_ISR_PC?UART
            CODE    C868H     00B5H     UNIT         ?PR?_MCU_DP_VALUE_UPDATE?MCU_API
            CODE    C91DH     00ACH     UNIT         ?PR?_MODBUS_PACKCHECKSTATUSBLOCK?MODBUS
            CODE    C9C9H     00ABH     UNIT         ?PR?_ERRORHISTORY_FLASHWRITE?ERRORHISTORY
            CODE    CA74H     00AAH     UNIT         ?PR?CONTROL_LOCKKEYSERVICE?CONTROL
            CODE    CB1EH     00A7H     UNIT         ?PR?_TIMER_ISINDOORWEEKDAYMATCH?CONTROL
            CODE    CBC5H     00A7H     UNIT         ?PR?_MODBUS_TRIGGERINDOORUNITWRITE?MODBUS
            CODE    CC6CH     00A6H     UNIT         ?PR?_TIMER_ISEXTERNALWEEKDAYMATCH?CONTROL
            CODE    CD12H     00A6H     UNIT         ?PR?UPLOAD_CHECK_STATUS?UPLOAD
            CODE    CDB8H     00A4H     UNIT         ?PR?RTCUPDATE?RTC
            CODE    CE5CH     00A1H     UNIT         ?C_C51STARTUP
            CODE    CEFDH     009FH     UNIT         ?PR?_MCU_FIRM_UPDATE_HANDLE?PROTOCOL
            CODE    CF9CH     009BH     UNIT         ?PR?_SYNCSETTEMPCACHESFROMC?CONTROL
            CODE    D037H     009AH     UNIT         ?PR?_DATA_POINT_HANDLE?SYSTEM
            CODE    D0D1H     0095H     UNIT         ?PR?MAIN?MAIN
BL51 BANKED LINKER/LOCATER V6.22.2.0                                                  07/08/2026  17:17:08  PAGE 5


            CODE    D166H     0094H     UNIT         ?PR?_RTC_GET_WEEK?RTC
            CODE    D1FAH     0091H     UNIT         ?PR?UART5_TX_ISR_PC?UART
            CODE    D28BH     0091H     UNIT         ?PR?_RTC_WRITEDISPLAYTIME?RTC
            CODE    D31CH     0091H     UNIT         ?PR?_RTC_WRITEEDITTIME?RTC
            CODE    D3ADH     0091H     UNIT         ?PR?_WIFI_UART_REMOVE_FRAME?MCU_API
            CODE    D43EH     008AH     UNIT         ?PR?ERRORHISTORY_TRYMIGRATEFLASH?ERRORHISTORY
            CODE    D4C8H     008AH     UNIT         ?PR?WIFI_UART_PARSE_CMD6_PRIORITY?MCU_API
            CODE    D552H     0089H     UNIT         ?PR?_MODBUS_SAVEINDOORSENTREGS?MODBUS
            CODE    D5DBH     0089H     UNIT         ?PR?UPLOAD_STATE_QUERY_REPLY?UPLOAD
            CODE    D664H     0083H     UNIT         ?PR?_READTIMERTEMPC?CONTROL
            CODE    D6E7H     0083H     UNIT         ?PR?_MODBUS_APPENDMODESETTEMPREG?MODBUS
            CODE    D76AH     0083H     UNIT         ?PR?_MCU_DP_RAW_UPDATE?MCU_API
            CODE    D7EDH     0083H     UNIT         ?PR?_MCU_DP_STRING_UPDATE?MCU_API
            CODE    D870H     0082H     UNIT         ?PR?_CONTROL_GETSETTEMPCLIMIT?CONTROL
            CODE    D8F2H     0080H     UNIT         ?PR?_MODBUS_INDOORREGSCHANGED?MODBUS
            CODE    D972H     007DH     UNIT         ?PR?UPLOAD_PACKTIMERROOMBYTE?UPLOAD
            CODE    D9EFH     007BH     UNIT         ?PR?OTADECODEPRO?OTA
            CODE    DA6AH     0079H     UNIT         ?PR?_GETTIMEDIFF?RTC
            CODE    DAE3H     0078H     UNIT         ?PR?TIMER_APPLYINDOOROFF?CONTROL
            CODE    DB5BH     0078H     UNIT         ?PR?_UART5_SENDSTR?UART
            CODE    DBD3H     0077H     UNIT         ?PR?MODBUSCHANELCONTROL?MAIN
            CODE    DC4AH     0077H     UNIT         ?PR?_MODBUS_SYNCDEFROSTFROMREG205?MODBUS
            CODE    DCC1H     0075H     UNIT         ?PR?_MY_STRLEN?MCU_API
            CODE    DD36H     0072H     UNIT         ?PR?UPLOAD_DP_TEMP_TOP?UPLOAD
            CODE    DDA8H     0072H     UNIT         ?PR?UPLOAD_DP_EFFLUENT_TEMP?UPLOAD
            CODE    DE1AH     0072H     UNIT         ?PR?UPLOAD_DP_AROUND_TEMP?UPLOAD
            CODE    DE8CH     0072H     UNIT         ?PR?UPLOAD_DP_EVAPORATOR_TEMP?UPLOAD
            CODE    DEFEH     0072H     UNIT         ?PR?UPLOAD_DP_DEFROST_OUT_TEMP?UPLOAD
            CODE    DF70H     0071H     UNIT         ?PR?UPLOAD_DP_TEMP_CURRENT?UPLOAD
            CODE    DFE1H     006DH     UNIT         ?PR?TEMPUNIT_REFRESHACTIVESETFROMMODE?CONTROL
            CODE    E04EH     006DH     UNIT         ?PR?_ERRORHISTORY_CONVERTLEGACYRAWREC?ERRORHISTORY
            CODE    E0BBH     006CH     UNIT         ?PR?_MODBUS_SETDEFROSTDISPLAY?MODBUS
            CODE    E127H     006CH     UNIT         ?PR?_SET_WIFI_UART_BUFFER?SYSTEM
            CODE    E193H     006BH     UNIT         ?PR?_MODBUS_INDOOR11000BLOCKEMPTY?MODBUS
            CODE    E1FEH     0069H     UNIT         ?PR?INIT_CPU?SYS
            CODE    E267H     0069H     UNIT         ?PR?_WIFI_UART_WRITE_FRAME?SYSTEM
            CODE    E2D0H     0067H     UNIT         ?PR?_UPLOAD_VALUEIFCHANGED?UPLOAD
            CODE    E337H     0066H     UNIT         ?PR?_SYNCINDOORSETTEMPVPPAIR?CONTROL
            CODE    E39DH     0066H     UNIT         ?PR?MODBUS_INDOORHOLDTICK?MODBUS
            CODE    E403H     0066H     UNIT         ?PR?_MODBUS_GROUPREGSCHANGED?MODBUS
            CODE    E469H     0066H     UNIT         ?PR?UPLOAD_TIMESTAMP_FROM_RTC?UPLOAD
            CODE    E4CFH     0065H     UNIT         ?PR?GETVALUE0F00?CONTROL
            CODE    E534H     0064H     UNIT         ?PR?_SETTEMPINTVPBYMODE?CONTROL
            CODE    E598H     0063H     UNIT         ?PR?SYSTEM_PARM_INIT?SYS
            CODE    E5FBH     0063H     UNIT         ?PR?_CONTROL_CLAMPMODESETTEMPVP?CONTROL
            CODE    E65EH     0063H     UNIT         ?PR?TAKE_BYTE_RXBUFF?SYSTEM
            CODE    E6C1H     005FH     UNIT         ?PR?_SYNCTIMERTEMPVPPAIR?CONTROL
            CODE    E720H     005CH     UNIT         ?PR?_TEMPUNIT_REFRESHFLOATPAIR?CONTROL
            CODE    E77CH     005CH     UNIT         ?PR?_MODBUS_QUEUEINDOORUNITWRITE?MODBUS
            CODE    E7D8H     0055H     UNIT         ?PR?T1_ISR_PC?SYS
            CODE    E82DH     0054H     UNIT         ?PR?MODBUS_STARTNEXTINDOORUNITWRITE?MODBUS
            CODE    E881H     0054H     UNIT         ?PR?DECODEERRORHISTORY?ERRORHISTORY
            CODE    E8D5H     0054H     UNIT         ?PR?_WIFI_UART_WRITE_DATA?SYSTEM
            CODE    E929H     0054H     UNIT         ?PR?_DP_DOWNLOAD_CHILD_LOCK_HANDLE?PROTOCOL
            CODE    E97DH     0052H     UNIT         ?PR?_MCU_DP_BOOL_UPDATE?MCU_API
            CODE    E9CFH     0051H     UNIT         ?PR?_DP_DOWNLOAD_TEMP_UNIT_CONVERT_HANDLE?PROTOCOL
            CODE    EA20H     0050H     UNIT         ?PR?ERRORHISTORY_SANITIZE?ERRORHISTORY
BL51 BANKED LINKER/LOCATER V6.22.2.0                                                  07/08/2026  17:17:08  PAGE 6


            CODE    EA70H     004FH     UNIT         ?CO?PROTOCOL
            CODE    EABFH     004EH     UNIT         ?PR?SAVE_DATA_HANDLER?SYS
            CODE    EB0DH     004EH     UNIT         ?PR?_WIFI_UART_RX_BYTE_SCAN?MCU_API
            CODE    EB5BH     004CH     UNIT         ?PR?_MODBUS_SAVEGROUPSENTREGS?MODBUS
            CODE    EBA7H     004CH     UNIT         ?PR?MODBUS_ADVANCEPOLLONTIMEOUT?MODBUS
            CODE    EBF3H     004CH     UNIT         ?PR?_MCU_DP_ENUM_UPDATE?MCU_API
            CODE    EC3FH     004BH     UNIT         ?PR?_MODBUS_APPENDU16?MODBUS
            CODE    EC8AH     004AH     UNIT         ?PR?_GETMODBUSREG?MODBUS
            CODE    ECD4H     004AH     UNIT         ?PR?_GET_CHECK_SUM?SYSTEM
            CODE    ED1EH     0049H     UNIT         ?PR?_MODBUS_GETCHECKSTATUS?MODBUS
            CODE    ED67H     0049H     UNIT         ?PR?_DP_DOWNLOAD_RELAY_STATUS_HANDLE?PROTOCOL
            CODE    EDB0H     0046H     UNIT         ?PR?_CONTROL_CLAMPSETTEMPCBYMODE?CONTROL
            CODE    EDF6H     0046H     UNIT         ?PR?_SETTEMPFLOATWRITEC?CONTROL
            CODE    EE3CH     0045H     UNIT         ?PR?SCREENTIMEOUT_SET?SYS
            CODE    EE81H     0044H     UNIT         ?PR?HOMEPAGE?CONTROL
            CODE    EEC5H     0044H     UNIT         ?PR?ERRORHISTORY_FLASHCOMMITNOW?ERRORHISTORY
            CODE    EF09H     0044H     UNIT         ?PR?CLEARERRORHISTORY?ERRORHISTORY
            CODE    EF4DH     0041H     UNIT         ?PR?_PAGE_CHANGE_HANDLER?SYS
            CODE    EF8EH     0040H     UNIT         ?CO?SYS
            CODE    EFCEH     0040H     UNIT         ?PR?_RTC_DAYS_IN_MONTH?RTC
            CODE    F00EH     003FH     UNIT         ?PR?_DP_DOWNLOAD_DEFROST_HANDLE?PROTOCOL
            CODE    F04DH     003EH     UNIT         ?PR?_MODBUS_ENCODEINDOORRUNMODE?MODBUS
            CODE    F08BH     003EH     UNIT         ?PR?_RTCI2CBW?RTC
            CODE    F0C9H     003DH     UNIT         ?PR?_MODBUS_DECODEINDOORFAN?MODBUS
            CODE    F106H     003DH     UNIT         ?PR?UPLOAD_DP_TEMP_SET?UPLOAD
            CODE    F143H     003DH     UNIT         ?PR?UPLOAD_DP_FAULT?UPLOAD
            CODE    F180H     003DH     UNIT         ?PR?UPLOAD_DP_DEFROST_FREQ?UPLOAD
            CODE    F1BDH     003DH     UNIT         ?PR?UPLOAD_DP_DEFROST_TIME?UPLOAD
            CODE    F1FAH     003BH     UNIT         ?PR?MODBUS_STARTNEXTTIMERWRITE?MODBUS
            CODE    F235H     003BH     UNIT         ?CO?SYSTEM
            CODE    F270H     003AH     UNIT         ?PR?WIFI_UART_RX_PULL?MCU_API
            CODE    F2AAH     0039H     UNIT         ?PR?READY_TO_SAVE?SYS
            CODE    F2E3H     0038H     UNIT         ?CO?UPLOAD
            CODE    F31BH     0036H     UNIT         ?PR?CONTROL_SANITIZESETTEMPINTVP?CONTROL
            CODE    F351H     0035H     UNIT         ?PR?WITH_DATA_RXBUFF?SYSTEM
            CODE    F386H     0034H     UNIT         ?PR?_CONTROL_APPLYCHILDLOCK?CONTROL
            CODE    F3BAH     0033H     UNIT         ?PR?_ERRORHISTORY_PAGECHANGE?ERRORHISTORY
            CODE    F3EDH     0032H     UNIT         ?PR?_DELAY_US?RTC
            CODE    F41FH     0032H     UNIT         ?PR?RTCI2CBR?RTC
            CODE    F451H     0031H     UNIT         ?PR?WIFI_RESTING_PRO?CONTROL
            CODE    F482H     0030H     UNIT         ?PR?_SETTEMPINTREAD?CONTROL
            CODE    F4B2H     0030H     UNIT         ?PR?_SETTEMPINTWRITE?CONTROL
            CODE    F4E2H     0030H     UNIT         ?PR?WIFI_UART_SERVICE?MCU_API
            CODE    F512H     0030H     UNIT         ?PR?_IS_LEAP_YEAR?PROTOCOL
            CODE    F542H     002FH     UNIT         ?PR?UPLOAD_DP_MODE?UPLOAD
            CODE    F571H     002FH     UNIT         ?PR?_GET_DOWMLOAD_DPID_INDEX?SYSTEM
            CODE    F5A0H     002EH     UNIT         ?PR?_RTC_IS_LEAP?RTC
            CODE    F5CEH     002EH     UNIT         ?PR?UPLOAD_DP_WORK_STATE?UPLOAD
            CODE    F5FCH     002DH     UNIT         ?PR?_MODBUS_ENCODEINDOORFAN?MODBUS
            CODE    F629H     002DH     UNIT         ?PR?_MODBUS_DECODEINDOORMODEBITS?MODBUS
            CODE    F656H     002CH     UNIT         ?PR?_SET_WIFI_UART_BYTE?SYSTEM
            CODE    F682H     002BH     UNIT         ?PR?_ERRORHISTORY_ISVALIDCODE?ERRORHISTORY
            CODE    F6ADH     002AH     UNIT         ?PR?UPLOAD_DP_SWITCH?UPLOAD
            CODE    F6D7H     002AH     UNIT         ?PR?UPLOAD_DP_TEMP_UNIT?UPLOAD
            CODE    F701H     002AH     UNIT         ?PR?UPLOAD_DP_CHILD_LOCK?UPLOAD
            CODE    F72BH     002AH     UNIT         ?PR?UPLOAD_DP_DEFROST?UPLOAD
            CODE    F755H     002AH     UNIT         ?PR?UPLOAD_DP_RELAY_STATUS?UPLOAD
BL51 BANKED LINKER/LOCATER V6.22.2.0                                                  07/08/2026  17:17:08  PAGE 7


            CODE    F77FH     0029H     UNIT         ?PR?MODBUS_FINISHINDOORWRITECHAIN?MODBUS
            CODE    F7A8H     0029H     UNIT         ?PR?RTCCACK?RTC
            CODE    F7D1H     0029H     UNIT         ?PR?_UPLOAD_SHADOW_ENUM?UPLOAD
            CODE    F7FAH     0029H     UNIT         ?PR?_MODE_MAP_TO_DGUS?PROTOCOL
            CODE    F823H     0028H     UNIT         ?PR?_LANGUAGE_CHANGE?SYS
            CODE    F84BH     0028H     UNIT         ?PR?OTARELOAD_DELAYPAGE?CONTROL
            CODE    F873H     0028H     UNIT         ?PR?WIFI_PROTOCOL_INIT?MCU_API
            CODE    F89BH     0027H     UNIT         ?PR?UI_OPENPAGE?MAIN
            CODE    F8C2H     0027H     UNIT         ?PR?_MODBUS_QUEUEINDOORTIMERWRITE?MODBUS
            CODE    F8E9H     0027H     UNIT         ?PR?HEAT_BEAT_CHECK?SYSTEM
            CODE    F910H     0026H     UNIT         ?PR?_ISITHOMEPAGE?CONTROL
            CODE    F936H     0026H     UNIT         ?PR?UPLOAD_GETUNIT?UPLOAD
            CODE    F95CH     0026H     UNIT         ?PR?OTAINIT?OTA
            CODE    F982H     0024H     UNIT         ?PR?_MODBUS_REPORTFAULTCODE?MODBUS
            CODE    F9A6H     0023H     UNIT         ?PR?MODBUS_STARTMANUALDEFROST?MODBUS
            CODE    F9C9H     0023H     UNIT         ?PR?_UPLOAD_SET_BOOT_READY?UPLOAD
            CODE    F9ECH     0022H     UNIT         ?PR?GETPAGEID?CONTROL
            CODE    FA0EH     0022H     UNIT         ?PR?UNITCHANGEPRO?CONTROL
            CODE    FA30H     0022H     UNIT         ?PR?ERRORHISTORY_GETCOUNT?ERRORHISTORY
            CODE    FA52H     0022H     UNIT         ?PR?_DP_DOWNLOAD_HISTORY_FAULT_EMPTY_HANDLE?PROTOCOL
            CODE    FA74H     0021H     UNIT         ?PR?_UPLOAD_CLAMPINDOORTEMP?UPLOAD
            CODE    FA95H     0021H     UNIT         ?PR?_UPLOAD_DGUSINDOORMODETODP?UPLOAD
            CODE    FAB6H     0020H     UNIT         ?PR?_BRIGHTNESS_HANDLER?SYS
            CODE    FAD6H     0020H     UNIT         ?PR?_SETMODEPROCESS?CONTROL
            CODE    FAF6H     0020H     UNIT         ?PR?_PUTCHAR?UART
            CODE    FB16H     0020H     UNIT         ?PR?OTARECVPRO?OTA
            CODE    FB36H     001FH     UNIT         ?PR?_UPLOAD_DGUSMODETODP116?UPLOAD
            CODE    FB55H     001FH     UNIT         ?PR?_UPLOAD_SHADOW_BOOL?UPLOAD
            CODE    FB74H     001EH     UNIT         ?PR?_MODBUS_INDOORHOLDSET?MODBUS
            CODE    FB92H     001EH     UNIT         ?PR?_UPLOAD_WORKSTATETODP?UPLOAD
            CODE    FBB0H     001DH     UNIT         ?PR?UART2_INIT?UART
            CODE    FBCDH     001DH     UNIT         ?PR?_UART2SENDDATA?UART
            CODE    FBEAH     001DH     UNIT         ?PR?MODBUS_TRIGGERGROUPCONTROLWRITE?MODBUS
            CODE    FC07H     001DH     UNIT         ?PR?_MODBUS_RXU16?MODBUS
            CODE    FC24H     001DH     UNIT         ?PR?_DP117_MODE_TO_DGUS?PROTOCOL
            CODE    FC41H     001BH     UNIT         ?PR?MODBUS_INDOORWRITEPENDING?MODBUS
            CODE    FC5CH     0019H     UNIT         ?PR?_MODBUS_SCALEINDOORSETTEMP?MODBUS
            CODE    FC75H     0019H     UNIT         ?PR?_MODBUS_UNSCALEINDOORSETTEMP?MODBUS
            CODE    FC8EH     0018H     UNIT         ?PR?RTCI2CSTART?RTC
            CODE    FCA6H     0018H     UNIT         ?PR?_UPLOAD_MODETODP101?UPLOAD
            CODE    FCBEH     0018H     UNIT         ?PR?OTA_MODBUSPRO?OTA
            CODE    FCD6H     0017H     UNIT         ?PR?RTCI2CSTOP?RTC
            CODE    FCEDH     0017H     UNIT         ?PR?_UPLOAD_BOOLIFCHANGED?UPLOAD
            CODE    FD04H     0017H     UNIT         ?PR?_UPLOAD_ENUMIFCHANGED?UPLOAD
            CODE    FD1BH     0017H     UNIT         ?PR?MCU_GET_WIFI_WORK_STATE?MCU_API
            CODE    FD32H     0016H     UNIT         ?PR?T2_INIT?SYS
            CODE    FD48H     0016H     UNIT         ?PR?_MODBUS_PACKCHECKSTATUSBYTE?MODBUS
            CODE    FD5EH     0016H     UNIT         ?PR?_MODBUS_TRIGGERDEFROSTPARAMWRITE?MODBUS
            CODE    FD74H     0016H     UNIT         ?PR?WIFI_UART_PROCESS_DOWNLOAD?MCU_API
            CODE    FD8AH     0015H     UNIT         ?PR?UART5_INIT?UART
            CODE    FD9FH     0014H     UNIT         ?PR?READ_NOR_FLASH?SYS
            CODE    FDB3H     0014H     UNIT         ?PR?WRITE_NOR_FLASH?SYS
            CODE    FDC7H     0013H     UNIT         ?PR?T2_ISR_PC?SYS
            CODE    FDDAH     0013H     UNIT         ?PR?_BCD?RTC
            CODE    FDEDH     0013H     UNIT         ?PR?_ERRORHISTORY_CLAMPBYTE?ERRORHISTORY
            CODE    FE00H     0013H     UNIT         ?PR?_UPGRADE_PACKAGE_CHOOSE?PROTOCOL
            CODE    FE13H     0013H     UNIT         ?PR?_FILE_DOWNLOAD_PACKAGE_CHOOSE?PROTOCOL
BL51 BANKED LINKER/LOCATER V6.22.2.0                                                  07/08/2026  17:17:08  PAGE 8


            CODE    FE26H     0012H     UNIT         ?PR?UART4_INIT?UART
            CODE    FE38H     0012H     UNIT         ?PR?_MODBUS_RXRELREG?MODBUS
            CODE    FE4AH     0012H     UNIT         ?PR?RTCMACK?RTC
            CODE    FE5CH     0012H     UNIT         ?PR?_FILE_DOWNLOAD_HANDLE?PROTOCOL
            CODE    FE6EH     0010H     UNIT         ?PR?T0_INIT?SYS
            CODE    FE7EH     0010H     UNIT         ?PR?T1_INIT?SYS
            CODE    FE8EH     0010H     UNIT         ?PR?RTCMNAK?RTC
            CODE    FE9EH     0010H     UNIT         ?CO?RTC
            CODE    FEAEH     0010H     UNIT         ?PR?ERRORHISTORY_GETMAXPAGE?ERRORHISTORY
            CODE    FEBEH     0010H     UNIT         ?PR?UPLOAD_YIELDWIFI?UPLOAD
            CODE    FECEH     000FH     UNIT         ?PR?_DELAY_MS?SYS
            CODE    FEDDH     000FH     UNIT         ?PR?GETSYSTICKTIME?RTC
            CODE    FEECH     000EH     UNIT         ?PR?MCU_RESET_WIFI?MCU_API
            CODE    FEFAH     000DH     UNIT         ?PR?MODBUS_CLEARPOLLREADFLAGS?MODBUS
            CODE    FF07H     000DH     UNIT         ?PR?_RTC_MONTHFROMDISPLAYVP?RTC
            CODE    FF14H     000DH     UNIT         ?PR?_MCU_GET_DP_DOWNLOAD_BOOL?MCU_API
            CODE    FF21H     000DH     UNIT         ?PR?_MCU_GET_DP_DOWNLOAD_ENUM?MCU_API
            CODE    FF2EH     000DH     UNIT         ?PR?_WIFI_UART_FRAME_VERSION_OK?MCU_API
            CODE    FF3BH     000CH     UNIT         ?PR?RTC_GETFULLYEAR?RTC
            CODE    FF47H     000CH     UNIT         ?PR?ERRORHISTORY_LOADFROMFLASH?ERRORHISTORY
            CODE    FF53H     000CH     UNIT         ?CO?ERRORHISTORY
            CODE    FF5FH     000BH     UNIT         ?PR?CONTROL_CLEARDEFROSTSESSION?CONTROL
            CODE    FF6AH     000BH     UNIT         ?PR?MODBUS_STARTINDOORPOLLAFTERCHECK2?MODBUS
            CODE    FF75H     000BH     UNIT         ?PR?_MCU_GET_DP_DOWNLOAD_VALUE?MCU_API
            CODE    FF80H     000AH     UNIT         ?PR?PORT_INIT?SYS
            CODE    FF8AH     000AH     UNIT         ?PR?GET_MCU_WIFI_MODE?SYSTEM
            CODE    FF94H     0009H     UNIT         ?PR?MODBUS_YIELDWIFI?MODBUS
            CODE    FF9DH     0008H     UNIT         ?CO?MODBUS
            CODE    FFA5H     0008H     UNIT         ?PR?ERRORHISTORY_FLASHVPADDR?ERRORHISTORY
            CODE    FFADH     0007H     UNIT         ?PR?WIFI_UART_REQUEST_DOWNLOAD_PARSE?MCU_API
            CODE    FFB4H     0006H     UNIT         ?CO?CONTROL
            CODE    FFBAH     0006H     UNIT         ?PR?RTC_GET_WEEKDAY?RTC
            CODE    FFC0H     0006H     UNIT         ?PR?ERRORHISTORY_RESETPAGE?ERRORHISTORY
            CODE    FFC6H     0006H     UNIT         ?PR?UPLOAD_IS_BOOT_READY?UPLOAD
            CODE    FFCCH     0006H     UNIT         ?PR?WIFI_INIT?WIFIPRO
            CODE    FFD2H     0006H     UNIT         ?PR?MCU_GET_RESET_WIFI_FLAG?MCU_API
            CODE    FFD8H     0003H     UNIT         ?PR?READY_TO_SAVE_REPORT?SYS
            CODE    FFDBH     0003H     UNIT         ?PR?MODBUS_INIT?MODBUS
            CODE    FFDEH     0003H     UNIT         ?PR?_UART_TRANSMIT_OUTPUT?PROTOCOL
            CODE    FFE1H     0003H     UNIT         ?PR?ALL_DATA_UPDATE?PROTOCOL
            CODE    FFE4H     0003H     UNIT         ?PR?GET_DOWNLOAD_CMD_TOTAL?PROTOCOL
            CODE    FFE7H     0001H     UNIT         ?PR?WRITE_MEMORY?SYS
            CODE    FFE8H     0001H     UNIT         ?PR?READ_MEMORY?SYS
            CODE    FFE9H     0001H     UNIT         ?PR?READ_MEMORY_ERROR?SYS
            CODE    FFEAH     0001H     UNIT         ?PR?_UWOERRORCODEPROCESS?ERRORHISTORY



OVERLAY MAP OF MODULE:   .\obj\T5L51 (?C_STARTUP)


SEGMENT                                             BIT_GROUP          DATA_GROUP          XDATA_GROUP
  +--> CALLED SEGMENT                            START    LENGTH     START    LENGTH     START    LENGTH
--------------------------------------------------------------------------------------------------------
?C_C51STARTUP                                    -----    -----      -----    -----      -----    -----
  +--> ?PR?MAIN?MAIN
  +--> ?C_INITSEG
BL51 BANKED LINKER/LOCATER V6.22.2.0                                                  07/08/2026  17:17:08  PAGE 9



?PR?MAIN?MAIN                                    -----    -----      -----    -----      -----    -----
  +--> ?PR?INIT_CPU?SYS
  +--> ?PR?PORT_INIT?SYS
  +--> ?PR?T0_INIT?SYS
  +--> ?PR?T1_INIT?SYS
  +--> ?PR?T2_INIT?SYS
  +--> ?PR?MODBUS_INIT?MODBUS
  +--> ?PR?UART4_INIT?UART
  +--> ?PR?WIFI_INIT?WIFIPRO
  +--> ?PR?INIT_RTC?RTC
  +--> ?PR?SYSTEM_PARM_INIT?SYS
  +--> ?PR?CONTROL_SANITIZESETTEMPINTVP?CONTROL
  +--> ?PR?WIFI_UART_SERVICE?MCU_API
  +--> ?PR?MODBUS_SALVE_HANDLER1?MODBUS
  +--> ?PR?CONTROL_FUNCTION1?CONTROL
  +--> ?PR?CONTROL_LOCKKEYSERVICE?CONTROL
  +--> ?PR?SAVE_DATA_HANDLER?SYS
  +--> ?PR?MODBUSCHANELCONTROL?MAIN
  +--> ?PR?RTCUPDATE?RTC
  +--> ?PR?HOMEPAGE_ICON?CONTROL
  +--> ?PR?DECODEERRORHISTORY?ERRORHISTORY
  +--> ?PR?MCU_GET_WIFI_WORK_STATE?MCU_API
  +--> ?PR?UI_OPENPAGE?MAIN
  +--> ?PR?TIMERRUNNING?CONTROL
  +--> ?PR?WIFI_RESTING_PRO?CONTROL
  +--> ?PR?OTARELOAD_DELAYPAGE?CONTROL
  +--> ?PR?SCREENSAVER_PRO?CONTROL

?PR?MODBUS_INIT?MODBUS                           -----    -----      -----    -----      -----    -----
  +--> ?PR?UART5_INIT?UART

?PR?WIFI_INIT?WIFIPRO                            -----    -----      -----    -----      -----    -----
  +--> ?PR?UART2_INIT?UART
  +--> ?PR?WIFI_PROTOCOL_INIT?MCU_API

?PR?INIT_RTC?RTC                                 -----    -----      -----    -----      8D71H    0002H
  +--> ?PR?RTCI2CSTART?RTC
  +--> ?PR?_RTCI2CBW?RTC
  +--> ?PR?RTCI2CSTOP?RTC
  +--> ?PR?RTCI2CBR?RTC
  +--> ?PR?RTCMACK?RTC
  +--> ?PR?RTCMNAK?RTC

?PR?RTCI2CSTART?RTC                              -----    -----      -----    -----      -----    -----
  +--> ?PR?_DELAY_US?RTC

?PR?_DELAY_US?RTC                                -----    -----      0008H    0004H      -----    -----

?PR?_RTCI2CBW?RTC                                -----    -----      -----    -----      -----    -----
  +--> ?PR?_DELAY_US?RTC
  +--> ?PR?RTCCACK?RTC

?PR?RTCCACK?RTC                                  -----    -----      -----    -----      -----    -----
  +--> ?PR?_DELAY_US?RTC

?PR?RTCI2CSTOP?RTC                               -----    -----      -----    -----      -----    -----
BL51 BANKED LINKER/LOCATER V6.22.2.0                                                  07/08/2026  17:17:08  PAGE 10


  +--> ?PR?_DELAY_US?RTC

?PR?RTCI2CBR?RTC                                 -----    -----      -----    -----      -----    -----
  +--> ?PR?_DELAY_US?RTC

?PR?RTCMACK?RTC                                  -----    -----      -----    -----      -----    -----
  +--> ?PR?_DELAY_US?RTC

?PR?RTCMNAK?RTC                                  -----    -----      -----    -----      -----    -----
  +--> ?PR?_DELAY_US?RTC

?PR?SYSTEM_PARM_INIT?SYS                         -----    -----      -----    -----      8D71H    0004H
  +--> ?PR?READ_NOR_FLASH?SYS
  +--> ?PR?_DELAY_MS?SYS
  +--> ?PR?_READ_DGUS_VP?SYS
  +--> ?PR?_FLASHCHECKSUMCALCULATE?SYS
  +--> ?PR?READ_MEMORY_ERROR?SYS
  +--> ?PR?READ_MEMORY?SYS
  +--> ?PR?_WRITE_DGUS_VP?SYS
  +--> ?PR?ERRORHISTORY_LOADFROMFLASH?ERRORH...

?PR?READ_NOR_FLASH?SYS                           -----    -----      -----    -----      -----    -----
  +--> ?CO?SYS
  +--> ?PR?_WRITE_DGUS_VP?SYS
  +--> ?PR?_DELAY_MS?SYS
  +--> ?PR?_READ_DGUS_VP?SYS

?PR?_WRITE_DGUS_VP?SYS                           -----    -----      -----    -----      8F89H    000FH

?PR?_READ_DGUS_VP?SYS                            -----    -----      -----    -----      8F0EH    0015H

?PR?_FLASHCHECKSUMCALCULATE?SYS                  -----    -----      -----    -----      8D75H    002AH
  +--> ?CO?SYS
  +--> ?PR?_READ_DGUS_VP?SYS

?PR?ERRORHISTORY_LOADFROMFLASH?ERRORH...         -----    -----      -----    -----      -----    -----
  +--> ?PR?ERRORHISTORY_FLASHVPADDR?ERRORHIS...
  +--> ?PR?_ERRORHISTORY_FLASHREAD?ERRORHISTORY
  +--> ?PR?ERRORHISTORY_SANITIZE?ERRORHISTORY
  +--> ?PR?ERRORHISTORYDISPLAY?ERRORHISTORY

?PR?_ERRORHISTORY_FLASHREAD?ERRORHISTORY         -----    -----      -----    -----      8D75H    0199H
  +--> ?PR?_READ_DGUS_VP?SYS
  +--> ?PR?_ERRORHISTORY_UNPACKREC?ERRORHISTORY
  +--> ?PR?_ERRORHISTORY_UNPACKRECLEGACY?ERR...
  +--> ?PR?_ERRORHISTORY_CONVERTLEGACYRAWREC...
  +--> ?PR?_ERRORHISTORY_ISVALIDCODE?ERRORHI...

?PR?_ERRORHISTORY_UNPACKREC?ERRORHISTORY         -----    -----      -----    -----      8F0EH    000AH

?PR?_ERRORHISTORY_UNPACKRECLEGACY?ERR...         -----    -----      -----    -----      8F0EH    000CH

?PR?_ERRORHISTORY_CONVERTLEGACYRAWREC...         -----    -----      -----    -----      8F0EH    0001H
  +--> ?PR?_ERRORHISTORY_ISVALIDCODE?ERRORHI...

?PR?ERRORHISTORY_SANITIZE?ERRORHISTORY           -----    -----      -----    -----      -----    -----
  +--> ?PR?_ERRORHISTORY_ISVALIDCODE?ERRORHI...
BL51 BANKED LINKER/LOCATER V6.22.2.0                                                  07/08/2026  17:17:08  PAGE 11



?PR?ERRORHISTORYDISPLAY?ERRORHISTORY             -----    -----      -----    -----      8D82H    000EH
  +--> ?CO?ERRORHISTORY
  +--> ?PR?_WRITE_DGUS_VP?SYS

?PR?CONTROL_SANITIZESETTEMPINTVP?CONTROL         -----    -----      -----    -----      -----    -----
  +--> ?PR?_TEMP_LIMIT?CONTROL

?PR?_TEMP_LIMIT?CONTROL                          -----    -----      -----    -----      8D8DH    000AH
  +--> ?PR?_READ_DGUS_VP?SYS
  +--> ?PR?_TEMPUNITTRANS?CONTROL
  +--> ?PR?_WRITE_DGUS_VP?SYS
  +--> ?PR?_SYNCINDOORSETTEMPVPPAIR?CONTROL
  +--> ?PR?_SYNCSETTEMPCACHESFROMC?CONTROL
  +--> ?PR?_SETTEMPINTWRITE?CONTROL

?PR?_TEMPUNITTRANS?CONTROL                       -----    -----      -----    -----      8E1DH    0003H

?PR?_SYNCINDOORSETTEMPVPPAIR?CONTROL             -----    -----      -----    -----      8DFEH    0005H
  +--> ?PR?_TEMPUNITTRANS?CONTROL
  +--> ?PR?_WRITE_DGUS_VP?SYS

?PR?_SYNCSETTEMPCACHESFROMC?CONTROL              -----    -----      -----    -----      8E02H    0006H
  +--> ?PR?_TEMPUNITTRANS?CONTROL
  +--> ?PR?_WRITE_DGUS_VP?SYS
  +--> ?PR?_READ_DGUS_VP?SYS
  +--> ?PR?_SETTEMPINTWRITE?CONTROL

?PR?_SETTEMPINTWRITE?CONTROL                     -----    -----      -----    -----      8E08H    0002H
  +--> ?PR?_SETTEMPINTVPBYMODE?CONTROL
  +--> ?PR?_WRITE_DGUS_VP?SYS

?PR?_SETTEMPINTVPBYMODE?CONTROL                  -----    -----      -----    -----      8E0AH    0001H

?PR?WIFI_UART_SERVICE?MCU_API                    -----    -----      -----    -----      -----    -----
  +--> ?PR?WIFI_UART_RX_PULL?MCU_API
  +--> ?PR?WIFI_UART_PARSE_FRAMES?MCU_API
  +--> ?PR?WIFI_UART_PROCESS_DOWNLOAD?MCU_API

?PR?WIFI_UART_RX_PULL?MCU_API                    -----    -----      -----    -----      -----    -----
  +--> ?PR?WITH_DATA_RXBUFF?SYSTEM
  +--> ?PR?TAKE_BYTE_RXBUFF?SYSTEM

?PR?WIFI_UART_PARSE_FRAMES?MCU_API               -----    -----      -----    -----      8DC3H    0004H
  +--> ?PR?WIFI_UART_PARSE_CMD6_PRIORITY?MCU...
  +--> ?PR?_WIFI_UART_TRY_FRAME_LEN?MCU_API
  +--> ?PR?_DATA_HANDLE?SYSTEM
  +--> ?PR?_MY_MEMCPY?MCU_API

?PR?WIFI_UART_PARSE_CMD6_PRIORITY?MCU...         -----    -----      -----    -----      8DC7H    0004H
  +--> ?PR?_WIFI_UART_TRY_FRAME_LEN?MCU_API
  +--> ?PR?_DATA_HANDLE?SYSTEM
  +--> ?PR?_WIFI_UART_REMOVE_FRAME?MCU_API

?PR?_WIFI_UART_TRY_FRAME_LEN?MCU_API             -----    -----      -----    -----      8DCBH    0008H
  +--> ?PR?_WIFI_UART_FRAME_VERSION_OK?MCU_API
  +--> ?PR?_GET_CHECK_SUM?SYSTEM
BL51 BANKED LINKER/LOCATER V6.22.2.0                                                  07/08/2026  17:17:08  PAGE 12



?PR?_GET_CHECK_SUM?SYSTEM                        -----    -----      -----    -----      8E77H    0006H

?PR?_DATA_HANDLE?SYSTEM                          -----    -----      -----    -----      8DCBH    0015H
  +--> ?PR?HEAT_BEAT_CHECK?SYSTEM
  +--> ?PR?PRODUCT_INFO_UPDATE?SYSTEM
  +--> ?PR?GET_MCU_WIFI_MODE?SYSTEM
  +--> ?PR?_DATA_POINT_HANDLE?SYSTEM
  +--> ?PR?ALL_DATA_UPDATE?PROTOCOL
  +--> ?PR?_UPGRADE_PACKAGE_CHOOSE?PROTOCOL
  +--> ?PR?_MCU_FIRM_UPDATE_HANDLE?PROTOCOL
  +--> ?PR?_WIFI_UART_WRITE_FRAME?SYSTEM
  +--> ?PR?_FILE_DOWNLOAD_PACKAGE_CHOOSE?PRO...
  +--> ?PR?_FILE_DOWNLOAD_HANDLE?PROTOCOL

?PR?HEAT_BEAT_CHECK?SYSTEM                       -----    -----      -----    -----      -----    -----
  +--> ?PR?_SET_WIFI_UART_BYTE?SYSTEM
  +--> ?PR?_WIFI_UART_WRITE_FRAME?SYSTEM

?PR?_SET_WIFI_UART_BYTE?SYSTEM                   -----    -----      -----    -----      8E75H    0002H

?PR?_WIFI_UART_WRITE_FRAME?SYSTEM                -----    -----      -----    -----      8E75H    0002H
  +--> ?PR?_GET_CHECK_SUM?SYSTEM
  +--> ?PR?_WIFI_UART_WRITE_DATA?SYSTEM

?PR?_WIFI_UART_WRITE_DATA?SYSTEM                 -----    -----      -----    -----      8E77H    0005H
  +--> ?PR?_UART_TRANSMIT_OUTPUT?PROTOCOL

?PR?_UART_TRANSMIT_OUTPUT?PROTOCOL               -----    -----      -----    -----      -----    -----
  +--> ?PR?_UART2SENDDATA?UART

?PR?_UART2SENDDATA?UART                          -----    -----      -----    -----      -----    -----
  +--> ?PR?WIFI_UART_RX_PULL?MCU_API

?PR?PRODUCT_INFO_UPDATE?SYSTEM                   -----    -----      -----    -----      8DE0H    000DH
  +--> ?CO?SYSTEM
  +--> ?PR?_MY_STRLEN?MCU_API
  +--> ?PR?_SET_WIFI_UART_BUFFER?SYSTEM
  +--> ?PR?_WIFI_UART_WRITE_FRAME?SYSTEM

?PR?_MY_STRLEN?MCU_API                           -----    -----      -----    -----      8DEDH    0007H

?PR?_SET_WIFI_UART_BUFFER?SYSTEM                 -----    -----      -----    -----      8E75H    0007H
  +--> ?PR?_MY_MEMCPY?MCU_API

?PR?_MY_MEMCPY?MCU_API                           -----    -----      -----    -----      8E7CH    0010H

?PR?GET_MCU_WIFI_MODE?SYSTEM                     -----    -----      -----    -----      -----    -----
  +--> ?PR?_WIFI_UART_WRITE_FRAME?SYSTEM

?PR?_DATA_POINT_HANDLE?SYSTEM                    -----    -----      -----    -----      8DE0H    0008H
  +--> ?PR?_GET_DOWMLOAD_DPID_INDEX?SYSTEM
  +--> ?PR?GET_DOWNLOAD_CMD_TOTAL?PROTOCOL
  +--> ?PR?_DP_DOWNLOAD_HANDLE?PROTOCOL

?PR?_GET_DOWMLOAD_DPID_INDEX?SYSTEM              -----    -----      -----    -----      8DE8H    0001H
  +--> ?PR?GET_DOWNLOAD_CMD_TOTAL?PROTOCOL
BL51 BANKED LINKER/LOCATER V6.22.2.0                                                  07/08/2026  17:17:08  PAGE 13



?PR?_DP_DOWNLOAD_HANDLE?PROTOCOL                 -----    -----      -----    -----      8DE8H    0007H
  +--> ?PR?_DP_DOWNLOAD_SWITCH_HANDLE?PROTOCOL
  +--> ?PR?_DP_DOWNLOAD_MODE_HANDLE?PROTOCOL
  +--> ?PR?_DP_DOWNLOAD_CHILD_LOCK_HANDLE?PR...
  +--> ?PR?_DP_DOWNLOAD_TEMP_SET_HANDLE?PROT...
  +--> ?PR?_DP_DOWNLOAD_TEMP_UNIT_CONVERT_HA...
  +--> ?PR?_DP_DOWNLOAD_DEFROST_HANDLE?PROTOCOL
  +--> ?PR?_DP_DOWNLOAD_RELAY_STATUS_HANDLE?...
  +--> ?PR?_DP_DOWNLOAD_TIMESTAMP_HANDLE?PRO...
  +--> ?PR?_DP_DOWNLOAD_INDOOR_UNIT_HANDLE?P...
  +--> ?PR?_DP_DOWNLOAD_HISTORY_FAULT_EMPTY_...
  +--> ?PR?_DP_DOWNLOAD_INSIDE_TIME_OPEN_HAN...
  +--> ?PR?_DP_DOWNLOAD_EXTERNAL_TIME_OPEN_H...
  +--> ?PR?_DP_DOWNLOAD_INSIDE_TIME_CLOSE_HA...
  +--> ?PR?_DP_DOWNLOAD_EXTERNAL_TIME_CLOSE_...

?PR?_DP_DOWNLOAD_SWITCH_HANDLE?PROTOCOL          -----    -----      -----    -----      8DEFH    0006H
  +--> ?PR?_MCU_GET_DP_DOWNLOAD_BOOL?MCU_API
  +--> ?PR?_MCU_DP_BOOL_UPDATE?MCU_API
  +--> ?PR?_UPLOAD_SHADOW_BOOL?UPLOAD
  +--> ?CO?PROTOCOL
  +--> ?PR?PRINTF?PRINTF
  +--> ?PR?_READ_DGUS_VP?SYS
  +--> ?PR?_WRITE_DGUS_VP?SYS
  +--> ?PR?MODBUS_TRIGGERUSERWRITE?MODBUS
  +--> ?PR?READY_TO_SAVE?SYS

?PR?_MCU_GET_DP_DOWNLOAD_BOOL?MCU_API            -----    -----      -----    -----      8DF5H    0002H

?PR?_MCU_DP_BOOL_UPDATE?MCU_API                  -----    -----      -----    -----      8DF5H    0001H
  +--> ?PR?_SET_WIFI_UART_BYTE?SYSTEM
  +--> ?PR?_WIFI_UART_WRITE_FRAME?SYSTEM

?PR?PRINTF?PRINTF                                0023H.1  0001H.1    0008H    0005H      8E19H    0030H
  +--> ?PR?_PUTCHAR?UART

?PR?MODBUS_TRIGGERUSERWRITE?MODBUS               -----    -----      -----    -----      8DF5H    0004H
  +--> ?PR?_READ_DGUS_VP?SYS

?PR?READY_TO_SAVE?SYS                            -----    -----      -----    -----      8E0FH    0002H
  +--> ?PR?_READ_DGUS_VP?SYS

?PR?_DP_DOWNLOAD_MODE_HANDLE?PROTOCOL            -----    -----      -----    -----      8DEFH    0004H
  +--> ?PR?_MCU_GET_DP_DOWNLOAD_ENUM?MCU_API
  +--> ?PR?_WRITE_DGUS_VP?SYS
  +--> ?PR?MODBUS_TRIGGERUSERWRITE?MODBUS
  +--> ?PR?READY_TO_SAVE?SYS
  +--> ?PR?_READ_DGUS_VP?SYS
  +--> ?PR?_MCU_DP_ENUM_UPDATE?MCU_API
  +--> ?PR?_UPLOAD_SHADOW_ENUM?UPLOAD

?PR?_MCU_GET_DP_DOWNLOAD_ENUM?MCU_API            -----    -----      -----    -----      8DF3H    0002H

?PR?_MCU_DP_ENUM_UPDATE?MCU_API                  -----    -----      -----    -----      8DF3H    0001H
  +--> ?PR?_SET_WIFI_UART_BYTE?SYSTEM
  +--> ?PR?_WIFI_UART_WRITE_FRAME?SYSTEM
BL51 BANKED LINKER/LOCATER V6.22.2.0                                                  07/08/2026  17:17:08  PAGE 14



?PR?_DP_DOWNLOAD_CHILD_LOCK_HANDLE?PR...         -----    -----      -----    -----      8DEFH    0002H
  +--> ?PR?_MCU_GET_DP_DOWNLOAD_BOOL?MCU_API
  +--> ?PR?_WRITE_DGUS_VP?SYS
  +--> ?PR?HOMEPAGE?CONTROL
  +--> ?PR?HOMEPAGE_ICON?CONTROL
  +--> ?PR?_MCU_DP_BOOL_UPDATE?MCU_API
  +--> ?PR?_UPLOAD_SHADOW_BOOL?UPLOAD

?PR?HOMEPAGE?CONTROL                             0023H.1  0000H.1    -----    -----      8DF1H    0002H
  +--> ?PR?GETPAGEID?CONTROL
  +--> ?PR?_ISITHOMEPAGE?CONTROL
  +--> ?PR?_READ_DGUS_VP?SYS
  +--> ?PR?_PAGE_CHANGE_HANDLER?SYS
  +--> ?PR?HOMEPAGE_SYNCINDOORDISPLAY?CONTROL

?PR?GETPAGEID?CONTROL                            -----    -----      -----    -----      8DF3H    0002H
  +--> ?PR?_READ_DGUS_VP?SYS

?PR?_ISITHOMEPAGE?CONTROL                        0023H.2  0000H.1    -----    -----      -----    -----

?PR?_PAGE_CHANGE_HANDLER?SYS                     -----    -----      -----    -----      -----    -----
  +--> ?PR?_WRITE_DGUS_VP?SYS
  +--> ?PR?_DELAY_MS?SYS
  +--> ?PR?_READ_DGUS_VP?SYS

?PR?HOMEPAGE_SYNCINDOORDISPLAY?CONTROL           -----    -----      -----    -----      8E1DH    0004H
  +--> ?PR?_READ_DGUS_VP?SYS
  +--> ?PR?_WRITE_DGUS_VP?SYS
  +--> ?PR?_HOMEPAGE_UPDATEMODEANIMATION?CON...

?PR?_HOMEPAGE_UPDATEMODEANIMATION?CON...         -----    -----      -----    -----      8E21H    0006H
  +--> ?PR?_WRITE_DGUS_VP?SYS

?PR?HOMEPAGE_ICON?CONTROL                        -----    -----      -----    -----      8DF1H    0003H
  +--> ?PR?MCU_GET_WIFI_WORK_STATE?MCU_API
  +--> ?PR?_WRITE_DGUS_VP?SYS
  +--> ?PR?_READ_DGUS_VP?SYS
  +--> ?PR?_HOMEPAGE_UPDATEMODEANIMATION?CON...

?PR?_DP_DOWNLOAD_TEMP_SET_HANDLE?PROT...         -----    -----      -----    -----      8DEFH    000BH
  +--> ?PR?_MCU_GET_DP_DOWNLOAD_VALUE?MCU_API
  +--> ?PR?_WRITE_DGUS_VP?SYS
  +--> ?PR?_READ_DGUS_VP?SYS
  +--> ?PR?_SETTEMPINTWRITE?CONTROL
  +--> ?PR?_SYNCSETTEMPCACHESFROMC?CONTROL
  +--> ?PR?READY_TO_SAVE?SYS
  +--> ?PR?_MCU_DP_VALUE_UPDATE?MCU_API
  +--> ?PR?_UPLOAD_SHADOW_VALUE?UPLOAD

?PR?_MCU_GET_DP_DOWNLOAD_VALUE?MCU_API           -----    -----      -----    -----      8DFAH    0002H
  +--> ?PR?_BYTE_TO_INT?MCU_API

?PR?_BYTE_TO_INT?MCU_API                         -----    -----      -----    -----      8DFCH    0007H

?PR?_MCU_DP_VALUE_UPDATE?MCU_API                 -----    -----      -----    -----      8DFAH    0005H
  +--> ?PR?_SET_WIFI_UART_BYTE?SYSTEM
BL51 BANKED LINKER/LOCATER V6.22.2.0                                                  07/08/2026  17:17:08  PAGE 15


  +--> ?PR?_WIFI_UART_WRITE_FRAME?SYSTEM

?PR?_UPLOAD_SHADOW_VALUE?UPLOAD                  -----    -----      -----    -----      8DFAH    0005H

?PR?_DP_DOWNLOAD_TEMP_UNIT_CONVERT_HA...         -----    -----      -----    -----      8DEFH    0002H
  +--> ?PR?_MCU_GET_DP_DOWNLOAD_ENUM?MCU_API
  +--> ?PR?_WRITE_DGUS_VP?SYS
  +--> ?PR?UNITCHANGEPRO?CONTROL
  +--> ?PR?HOMEPAGE?CONTROL
  +--> ?PR?READY_TO_SAVE?SYS
  +--> ?PR?_MCU_DP_ENUM_UPDATE?MCU_API
  +--> ?PR?_UPLOAD_SHADOW_ENUM?UPLOAD

?PR?UNITCHANGEPRO?CONTROL                        -----    -----      -----    -----      8DF1H    0002H
  +--> ?PR?_READ_DGUS_VP?SYS
  +--> ?PR?TEMPUNIT_REFRESHALL?CONTROL

?PR?TEMPUNIT_REFRESHALL?CONTROL                  -----    -----      -----    -----      8DF3H    000BH
  +--> ?PR?_READ_DGUS_VP?SYS
  +--> ?PR?_TEMPUNITTRANS?CONTROL
  +--> ?PR?_SYNCSETTEMPCACHESFROMC?CONTROL
  +--> ?PR?_WRITE_DGUS_VP?SYS
  +--> ?PR?TEMPUNIT_REFRESHACTIVESETFROMMODE...
  +--> ?PR?_TEMPUNIT_REFRESHFLOATPAIR?CONTROL
  +--> ?PR?_CONTROL_CLAMPMODESETTEMPVP?CONTROL
  +--> ?PR?_SETTEMPINTREAD?CONTROL
  +--> ?PR?_SETTEMPINTWRITE?CONTROL
  +--> ?PR?_SYNCINDOORSETTEMPVPPAIR?CONTROL
  +--> ?PR?_SYNCTIMERTEMPVPPAIR?CONTROL
  +--> ?PR?MODBUS_REFRESHCHECKPARAMDISPLAY?M...

?PR?TEMPUNIT_REFRESHACTIVESETFROMMODE...         -----    -----      -----    -----      8DFEH    0004H
  +--> ?PR?_READ_DGUS_VP?SYS
  +--> ?PR?_SETTEMPINTREAD?CONTROL
  +--> ?PR?_TEMPUNITTRANS?CONTROL
  +--> ?PR?_SYNCSETTEMPCACHESFROMC?CONTROL

?PR?_SETTEMPINTREAD?CONTROL                      -----    -----      -----    -----      8E03H    0002H
  +--> ?PR?_SETTEMPINTVPBYMODE?CONTROL
  +--> ?PR?_READ_DGUS_VP?SYS

?PR?_TEMPUNIT_REFRESHFLOATPAIR?CONTROL           -----    -----      -----    -----      8DFEH    0010H
  +--> ?PR?_READ_DGUS_VP?SYS
  +--> ?PR?_TEMPUNITTRANS?CONTROL
  +--> ?PR?_WRITE_DGUS_VP?SYS

?PR?_CONTROL_CLAMPMODESETTEMPVP?CONTROL          -----    -----      -----    -----      8DFEH    0005H
  +--> ?PR?_SETTEMPINTREAD?CONTROL
  +--> ?PR?_CONTROL_CLAMPSETTEMPCBYMODE?CONTROL
  +--> ?PR?_TEMPUNITTRANS?CONTROL
  +--> ?PR?_SETTEMPINTWRITE?CONTROL

?PR?_CONTROL_CLAMPSETTEMPCBYMODE?CONTROL         -----    -----      -----    -----      8E03H    0004H
  +--> ?PR?_CONTROL_GETSETTEMPCLIMIT?CONTROL

?PR?_CONTROL_GETSETTEMPCLIMIT?CONTROL            -----    -----      -----    -----      8E07H    0007H

BL51 BANKED LINKER/LOCATER V6.22.2.0                                                  07/08/2026  17:17:08  PAGE 16


?PR?_SYNCTIMERTEMPVPPAIR?CONTROL                 -----    -----      -----    -----      8DFEH    000CH
  +--> ?PR?_TEMPUNITTRANS?CONTROL
  +--> ?PR?_WRITE_DGUS_VP?SYS

?PR?MODBUS_REFRESHCHECKPARAMDISPLAY?M...         -----    -----      -----    -----      8DFEH    0009H
  +--> ?PR?_READ_DGUS_VP?SYS
  +--> ?PR?_TEMPUNITTRANS?CONTROL
  +--> ?PR?_WRITE_DGUS_VP?SYS

?PR?_DP_DOWNLOAD_DEFROST_HANDLE?PROTOCOL         -----    -----      -----    -----      8DEFH    0002H
  +--> ?PR?_MCU_GET_DP_DOWNLOAD_BOOL?MCU_API
  +--> ?PR?MODBUS_STARTMANUALDEFROST?MODBUS
  +--> ?PR?_MODBUS_SETDEFROSTDISPLAY?MODBUS
  +--> ?PR?CONTROL_CLEARDEFROSTSESSION?CONTROL
  +--> ?PR?_MCU_DP_BOOL_UPDATE?MCU_API
  +--> ?PR?_UPLOAD_SHADOW_BOOL?UPLOAD

?PR?MODBUS_STARTMANUALDEFROST?MODBUS             -----    -----      -----    -----      -----    -----
  +--> ?PR?_MODBUS_SETDEFROSTDISPLAY?MODBUS

?PR?_MODBUS_SETDEFROSTDISPLAY?MODBUS             -----    -----      -----    -----      8DF1H    0004H
  +--> ?PR?_WRITE_DGUS_VP?SYS

?PR?_DP_DOWNLOAD_RELAY_STATUS_HANDLE?...         -----    -----      -----    -----      8DEFH    0002H
  +--> ?PR?_MCU_GET_DP_DOWNLOAD_ENUM?MCU_API
  +--> ?PR?_WRITE_DGUS_VP?SYS
  +--> ?PR?READY_TO_SAVE?SYS
  +--> ?PR?_MCU_DP_ENUM_UPDATE?MCU_API
  +--> ?PR?_UPLOAD_SHADOW_ENUM?UPLOAD

?PR?_DP_DOWNLOAD_TIMESTAMP_HANDLE?PRO...         -----    -----      -----    -----      8DEFH    0015H
  +--> ?CO?PROTOCOL
  +--> ?PR?_STRTOUL?STRTOUL
  +--> ?PR?_TIMESTAMP_TO_YMDHMS?PROTOCOL
  +--> ?PR?PRINTF?PRINTF
  +--> ?PR?_RTC_WRITEDISPLAYTIME?RTC
  +--> ?PR?_RTC_WRITEEDITTIME?RTC
  +--> ?PR?_WRITE_DGUS_VP?SYS
  +--> ?PR?_MCU_DP_STRING_UPDATE?MCU_API

?PR?_STRTOUL?STRTOUL                             -----    -----      -----    -----      8E04H    0012H

?PR?_TIMESTAMP_TO_YMDHMS?PROTOCOL                -----    -----      -----    -----      8E04H    0015H
  +--> ?CO?PROTOCOL
  +--> ?PR?PRINTF?PRINTF
  +--> ?PR?_IS_LEAP_YEAR?PROTOCOL

?PR?_RTC_WRITEDISPLAYTIME?RTC                    -----    -----      -----    -----      8E04H    000AH
  +--> ?PR?_WRITE_DGUS_VP?SYS

?PR?_RTC_WRITEEDITTIME?RTC                       -----    -----      -----    -----      8E04H    000AH
  +--> ?PR?_WRITE_DGUS_VP?SYS

?PR?_MCU_DP_STRING_UPDATE?MCU_API                -----    -----      -----    -----      8E04H    0006H
  +--> ?PR?_SET_WIFI_UART_BYTE?SYSTEM
  +--> ?PR?_SET_WIFI_UART_BUFFER?SYSTEM
  +--> ?PR?_WIFI_UART_WRITE_FRAME?SYSTEM
BL51 BANKED LINKER/LOCATER V6.22.2.0                                                  07/08/2026  17:17:08  PAGE 17



?PR?_DP_DOWNLOAD_INDOOR_UNIT_HANDLE?P...         -----    -----      -----    -----      8DEFH    002EH
  +--> ?PR?_MODE_MAP_TO_DGUS?PROTOCOL
  +--> ?PR?_READ_DGUS_VP?SYS
  +--> ?PR?_WRITE_DGUS_VP?SYS
  +--> ?PR?_TEMPUNITTRANS?CONTROL
  +--> ?PR?_MODBUS_TRIGGERINDOORUNITWRITE?MO...
  +--> ?PR?HOMEPAGE_SYNCINDOORDISPLAY?CONTROL
  +--> ?PR?UPLOAD_INDOOR_UNIT?UPLOAD

?PR?_MODBUS_TRIGGERINDOORUNITWRITE?MO...         -----    -----      -----    -----      8E1DH    0002H
  +--> ?PR?_MODBUS_INDOORHOLDSET?MODBUS
  +--> ?PR?MODBUS_CLEARPOLLREADFLAGS?MODBUS
  +--> ?PR?_MODBUS_FILLINDOORUNITREGS?MODBUS
  +--> ?PR?_MODBUS_INDOORREGSCHANGED?MODBUS
  +--> ?PR?_MODBUS_QUEUEINDOORUNITWRITE?MODBUS

?PR?_MODBUS_FILLINDOORUNITREGS?MODBUS            -----    -----      -----    -----      8E20H    0010H
  +--> ?PR?_READ_DGUS_VP?SYS
  +--> ?PR?_MODBUS_ENCODEINDOORRUNMODE?MODBUS
  +--> ?PR?_MODBUS_ENCODEINDOORFAN?MODBUS
  +--> ?PR?_MODBUS_SCALEINDOORSETTEMP?MODBUS

?PR?_MODBUS_INDOORREGSCHANGED?MODBUS             -----    -----      -----    -----      8E1FH    0005H

?PR?_MODBUS_QUEUEINDOORUNITWRITE?MODBUS          -----    -----      -----    -----      -----    -----
  +--> ?PR?MODBUS_STARTNEXTINDOORUNITWRITE?M...

?PR?MODBUS_STARTNEXTINDOORUNITWRITE?M...         -----    -----      -----    -----      8E1FH    0001H
  +--> ?PR?MODBUS_CLEARPOLLREADFLAGS?MODBUS
  +--> ?PR?_MODBUS_FILLINDOORUNITREGS?MODBUS

?PR?UPLOAD_INDOOR_UNIT?UPLOAD                    -----    -----      -----    -----      8E1DH    002BH
  +--> ?CO?UPLOAD
  +--> ?PR?_READ_DGUS_VP?SYS
  +--> ?PR?_UPLOAD_CLAMPINDOORTEMP?UPLOAD
  +--> ?PR?_UPLOAD_DGUSINDOORMODETODP?UPLOAD
  +--> ?PR?_MCU_DP_RAW_UPDATE?MCU_API
  +--> ?PR?UPLOAD_YIELDWIFI?UPLOAD

?PR?_MCU_DP_RAW_UPDATE?MCU_API                   -----    -----      -----    -----      8E6FH    0006H
  +--> ?PR?_SET_WIFI_UART_BYTE?SYSTEM
  +--> ?PR?_SET_WIFI_UART_BUFFER?SYSTEM
  +--> ?PR?_WIFI_UART_WRITE_FRAME?SYSTEM

?PR?UPLOAD_YIELDWIFI?UPLOAD                      -----    -----      -----    -----      -----    -----
  +--> ?PR?WIFI_UART_RX_PULL?MCU_API
  +--> ?PR?WIFI_UART_REQUEST_DOWNLOAD_PARSE?...

?PR?_DP_DOWNLOAD_HISTORY_FAULT_EMPTY_...         -----    -----      -----    -----      8DEFH    0001H
  +--> ?PR?_MCU_GET_DP_DOWNLOAD_BOOL?MCU_API
  +--> ?PR?CLEARERRORHISTORY?ERRORHISTORY
  +--> ?PR?_MCU_DP_BOOL_UPDATE?MCU_API

?PR?CLEARERRORHISTORY?ERRORHISTORY               -----    -----      -----    -----      -----    -----
  +--> ?PR?ERRORHISTORY_FLASHCOMMITNOW?ERROR...
  +--> ?PR?UPLOAD_HISTORY_FAULTS?UPLOAD
BL51 BANKED LINKER/LOCATER V6.22.2.0                                                  07/08/2026  17:17:08  PAGE 18



?PR?ERRORHISTORY_FLASHCOMMITNOW?ERROR...         -----    -----      -----    -----      8DF0H    0002H
  +--> ?PR?ERRORHISTORY_FLASHVPADDR?ERRORHIS...
  +--> ?PR?_ERRORHISTORY_FLASHWRITE?ERRORHIS...
  +--> ?PR?_READ_DGUS_VP?SYS
  +--> ?PR?WRITE_MEMORY?SYS
  +--> ?PR?WRITE_NOR_FLASH?SYS

?PR?_ERRORHISTORY_FLASHWRITE?ERRORHIS...         -----    -----      -----    -----      8DF2H    0197H
  +--> ?PR?_ERRORHISTORY_PACKREC?ERRORHISTORY
  +--> ?PR?_WRITE_DGUS_VP?SYS

?PR?_ERRORHISTORY_PACKREC?ERRORHISTORY           -----    -----      -----    -----      8F89H    000AH
  +--> ?PR?_ERRORHISTORY_ISVALIDCODE?ERRORHI...
  +--> ?PR?_ERRORHISTORY_CLAMPBYTE?ERRORHISTORY

?PR?WRITE_NOR_FLASH?SYS                          -----    -----      -----    -----      -----    -----
  +--> ?CO?SYS
  +--> ?PR?_WRITE_DGUS_VP?SYS
  +--> ?PR?_DELAY_MS?SYS
  +--> ?PR?_READ_DGUS_VP?SYS

?PR?UPLOAD_HISTORY_FAULTS?UPLOAD                 -----    -----      -----    -----      8DF0H    007FH
  +--> ?PR?_UPLOAD_PACKHISTORYFAULTBLOCK?UPLOAD
  +--> ?PR?_MCU_DP_RAW_UPDATE?MCU_API
  +--> ?PR?UPLOAD_YIELDWIFI?UPLOAD

?PR?_UPLOAD_PACKHISTORYFAULTBLOCK?UPLOAD         -----    -----      -----    -----      8E6FH    0006H
  +--> ?PR?_UPLOAD_PACKHISTORYFAULTREC?UPLOAD

?PR?_UPLOAD_PACKHISTORYFAULTREC?UPLOAD           -----    -----      -----    -----      8E75H    000AH
  +--> ?PR?RTC_GETFULLYEAR?RTC
  +--> ?PR?_RTC_UNIXFROMLOCALPARTS?RTC

?PR?_RTC_UNIXFROMLOCALPARTS?RTC                  -----    -----      -----    -----      8E7FH    000EH
  +--> ?PR?_RTC_IS_LEAP?RTC
  +--> ?PR?_RTC_DAYS_IN_MONTH?RTC

?PR?_RTC_DAYS_IN_MONTH?RTC                       -----    -----      -----    -----      -----    -----
  +--> ?PR?_RTC_IS_LEAP?RTC

?PR?_DP_DOWNLOAD_INSIDE_TIME_OPEN_HAN...         -----    -----      -----    -----      8DEFH    0020H
  +--> ?PR?_WRITE_DGUS_VP?SYS
  +--> ?PR?_TEMPUNITTRANS?CONTROL
  +--> ?PR?_MODBUS_APPLYINDOORTIMERVPTOUNITS...
  +--> ?PR?READY_TO_SAVE?SYS
  +--> ?PR?_MCU_DP_RAW_UPDATE?MCU_API

?PR?_MODBUS_APPLYINDOORTIMERVPTOUNITS...         -----    -----      -----    -----      8E0FH    0016H
  +--> ?PR?_READ_DGUS_VP?SYS
  +--> ?PR?_WRITE_DGUS_VP?SYS
  +--> ?PR?_MODBUS_QUEUEINDOORTIMERWRITE?MODBUS

?PR?_MODBUS_QUEUEINDOORTIMERWRITE?MODBUS         -----    -----      -----    -----      -----    -----
  +--> ?PR?MODBUS_STARTNEXTTIMERWRITE?MODBUS

?PR?_DP_DOWNLOAD_EXTERNAL_TIME_OPEN_H...         -----    -----      -----    -----      8DEFH    0019H
BL51 BANKED LINKER/LOCATER V6.22.2.0                                                  07/08/2026  17:17:08  PAGE 19


  +--> ?PR?_WRITE_DGUS_VP?SYS
  +--> ?PR?_TEMPUNITTRANS?CONTROL
  +--> ?PR?_DP117_MODE_TO_DGUS?PROTOCOL
  +--> ?PR?READY_TO_SAVE?SYS
  +--> ?PR?_MCU_DP_RAW_UPDATE?MCU_API

?PR?_DP_DOWNLOAD_INSIDE_TIME_CLOSE_HA...         -----    -----      -----    -----      8DEFH    000EH
  +--> ?PR?_WRITE_DGUS_VP?SYS
  +--> ?PR?_MODBUS_APPLYINDOORTIMERVPTOUNITS...
  +--> ?PR?READY_TO_SAVE?SYS
  +--> ?PR?_MCU_DP_RAW_UPDATE?MCU_API

?PR?_DP_DOWNLOAD_EXTERNAL_TIME_CLOSE_...         -----    -----      -----    -----      8DEFH    000EH
  +--> ?PR?_WRITE_DGUS_VP?SYS
  +--> ?PR?READY_TO_SAVE?SYS
  +--> ?PR?_MCU_DP_RAW_UPDATE?MCU_API

?PR?ALL_DATA_UPDATE?PROTOCOL                     -----    -----      -----    -----      -----    -----
  +--> ?PR?UPLOAD_STATE_QUERY_REPLY?UPLOAD

?PR?UPLOAD_STATE_QUERY_REPLY?UPLOAD              -----    -----      -----    -----      -----    -----
  +--> ?PR?UPLOAD_DP_SWITCH?UPLOAD
  +--> ?PR?UPLOAD_DP_MODE?UPLOAD
  +--> ?PR?UPLOAD_DP_TEMP_SET?UPLOAD
  +--> ?PR?UPLOAD_DP_TEMP_UNIT?UPLOAD
  +--> ?PR?UPLOAD_DP_CHILD_LOCK?UPLOAD
  +--> ?PR?UPLOAD_DP_DEFROST?UPLOAD
  +--> ?PR?UPLOAD_DP_RELAY_STATUS?UPLOAD
  +--> ?PR?UPLOAD_DP_WORK_STATE?UPLOAD
  +--> ?PR?UPLOAD_CHECK_STATUS?UPLOAD
  +--> ?PR?UPLOAD_HISTORY_FAULTS?UPLOAD
  +--> ?PR?UPLOAD_DP_FAULT?UPLOAD
  +--> ?PR?UPLOAD_DP_TEMP_CURRENT?UPLOAD

?PR?UPLOAD_DP_SWITCH?UPLOAD                      -----    -----      -----    -----      8DE0H    0002H
  +--> ?PR?_READ_DGUS_VP?SYS
  +--> ?PR?_UPLOAD_BOOLIFCHANGED?UPLOAD

?PR?_UPLOAD_BOOLIFCHANGED?UPLOAD                 -----    -----      -----    -----      -----    -----
  +--> ?PR?_MCU_DP_BOOL_UPDATE?MCU_API
  +--> ?PR?UPLOAD_YIELDWIFI?UPLOAD

?PR?UPLOAD_DP_MODE?UPLOAD                        -----    -----      -----    -----      8DE0H    0002H
  +--> ?PR?_READ_DGUS_VP?SYS
  +--> ?PR?_UPLOAD_MODETODP101?UPLOAD
  +--> ?PR?_UPLOAD_ENUMIFCHANGED?UPLOAD

?PR?_UPLOAD_ENUMIFCHANGED?UPLOAD                 -----    -----      -----    -----      -----    -----
  +--> ?PR?_MCU_DP_ENUM_UPDATE?MCU_API
  +--> ?PR?UPLOAD_YIELDWIFI?UPLOAD

?PR?UPLOAD_DP_TEMP_SET?UPLOAD                    -----    -----      -----    -----      8DE0H    0002H
  +--> ?PR?_READ_DGUS_VP?SYS
  +--> ?PR?_UPLOAD_VALUEIFCHANGED?UPLOAD

?PR?_UPLOAD_VALUEIFCHANGED?UPLOAD                -----    -----      -----    -----      8DE8H    0008H
  +--> ?PR?_MCU_DP_VALUE_UPDATE?MCU_API
BL51 BANKED LINKER/LOCATER V6.22.2.0                                                  07/08/2026  17:17:08  PAGE 20


  +--> ?PR?UPLOAD_YIELDWIFI?UPLOAD

?PR?UPLOAD_DP_TEMP_UNIT?UPLOAD                   -----    -----      -----    -----      8DE0H    0002H
  +--> ?PR?_READ_DGUS_VP?SYS
  +--> ?PR?_UPLOAD_ENUMIFCHANGED?UPLOAD

?PR?UPLOAD_DP_CHILD_LOCK?UPLOAD                  -----    -----      -----    -----      8DE0H    0002H
  +--> ?PR?_READ_DGUS_VP?SYS
  +--> ?PR?_UPLOAD_BOOLIFCHANGED?UPLOAD

?PR?UPLOAD_DP_DEFROST?UPLOAD                     -----    -----      -----    -----      8DE0H    0002H
  +--> ?PR?_READ_DGUS_VP?SYS
  +--> ?PR?_UPLOAD_BOOLIFCHANGED?UPLOAD

?PR?UPLOAD_DP_RELAY_STATUS?UPLOAD                -----    -----      -----    -----      8DE0H    0002H
  +--> ?PR?_READ_DGUS_VP?SYS
  +--> ?PR?_UPLOAD_ENUMIFCHANGED?UPLOAD

?PR?UPLOAD_DP_WORK_STATE?UPLOAD                  -----    -----      -----    -----      8DE0H    0002H
  +--> ?PR?_READ_DGUS_VP?SYS
  +--> ?PR?_UPLOAD_WORKSTATETODP?UPLOAD
  +--> ?PR?_UPLOAD_ENUMIFCHANGED?UPLOAD

?PR?UPLOAD_CHECK_STATUS?UPLOAD                   -----    -----      -----    -----      8DE0H    004CH
  +--> ?PR?_MODBUS_GETCHECKSTATUS?MODBUS
  +--> ?PR?_MCU_DP_RAW_UPDATE?MCU_API
  +--> ?PR?UPLOAD_YIELDWIFI?UPLOAD

?PR?_MODBUS_GETCHECKSTATUS?MODBUS                -----    -----      -----    -----      8E2CH    0003H

?PR?UPLOAD_DP_FAULT?UPLOAD                       -----    -----      -----    -----      8DE0H    0002H
  +--> ?PR?_READ_DGUS_VP?SYS
  +--> ?PR?_UPLOAD_VALUEIFCHANGED?UPLOAD

?PR?UPLOAD_DP_TEMP_CURRENT?UPLOAD                -----    -----      -----    -----      8DE0H    0008H
  +--> ?PR?UPLOAD_GETUNIT?UPLOAD
  +--> ?PR?_READ_DGUS_VP?SYS
  +--> ?PR?_UPLOAD_VALUEIFCHANGED?UPLOAD

?PR?UPLOAD_GETUNIT?UPLOAD                        -----    -----      -----    -----      8DE8H    0002H
  +--> ?PR?_READ_DGUS_VP?SYS

?PR?_UPGRADE_PACKAGE_CHOOSE?PROTOCOL             -----    -----      -----    -----      -----    -----
  +--> ?PR?_SET_WIFI_UART_BYTE?SYSTEM
  +--> ?PR?_WIFI_UART_WRITE_FRAME?SYSTEM

?PR?_MCU_FIRM_UPDATE_HANDLE?PROTOCOL             -----    -----      -----    -----      8DE0H    0009H

?PR?_FILE_DOWNLOAD_PACKAGE_CHOOSE?PRO...         -----    -----      -----    -----      -----    -----
  +--> ?PR?_SET_WIFI_UART_BYTE?SYSTEM
  +--> ?PR?_WIFI_UART_WRITE_FRAME?SYSTEM

?PR?_FILE_DOWNLOAD_HANDLE?PROTOCOL               -----    -----      -----    -----      8DE0H    0009H

?PR?_WIFI_UART_REMOVE_FRAME?MCU_API              -----    -----      -----    -----      8DCBH    0006H
  +--> ?PR?_MY_MEMCPY?MCU_API

BL51 BANKED LINKER/LOCATER V6.22.2.0                                                  07/08/2026  17:17:08  PAGE 21


?PR?WIFI_UART_PROCESS_DOWNLOAD?MCU_API           -----    -----      -----    -----      -----    -----
  +--> ?PR?WIFI_UART_RX_PULL?MCU_API
  +--> ?PR?WIFI_UART_PARSE_CMD6_PRIORITY?MCU...

?PR?MODBUS_SALVE_HANDLER1?MODBUS                 -----    -----      -----    -----      8D71H    0015H
  +--> ?PR?MODBUS_INDOORHOLDTICK?MODBUS
  +--> ?PR?MODBUS_ANALYSIS_DATA1?MODBUS
  +--> ?PR?MODBUS_STARTNEXTINDOORUNITWRITE?M...
  +--> ?PR?MODBUS_INDOORWRITEPENDING?MODBUS
  +--> ?PR?MODBUS_ADVANCEPOLLONTIMEOUT?MODBUS
  +--> ?PR?_MODBUS_FILLGROUPCONTROLREGS?MODBUS
  +--> ?PR?_MODBUS_APPENDU16?MODBUS
  +--> ?PR?_MODBUS_FILLINDOORUNITREGS?MODBUS
  +--> ?PR?_READ_DGUS_VP?SYS
  +--> ?PR?_MODBUS_APPENDMODESETTEMPREG?MODBUS
  +--> ?PR?_CALCULATEMODBUSCRC?MODBUS
  +--> ?PR?_UART5_SENDSTR?UART
  +--> ?PR?_MODBUS_REPORTFAULTCODE?MODBUS
  +--> ?PR?MODBUS_YIELDWIFI?MODBUS

?PR?MODBUS_ANALYSIS_DATA1?MODBUS                 -----    -----      -----    -----      8D86H    003DH
  +--> ?CO?MODBUS
  +--> ?PR?MODBUS_YIELDWIFI?MODBUS
  +--> ?PR?_CALCULATEMODBUSCRC?MODBUS
  +--> ?PR?_READ_DGUS_VP?SYS
  +--> ?PR?_WRITE_DGUS_VP?SYS
  +--> ?PR?READY_TO_SAVE?SYS
  +--> ?PR?UPLOAD_DP_MODE?UPLOAD
  +--> ?PR?_SETTEMPINTWRITE?CONTROL
  +--> ?PR?_TEMPUNITTRANS?CONTROL
  +--> ?PR?_SYNCSETTEMPCACHESFROMC?CONTROL
  +--> ?PR?UPLOAD_DP_TEMP_SET?UPLOAD
  +--> ?PR?_MODBUS_PACKCHECKSTATUSBLOCK?MODBUS
  +--> ?PR?_GETMODBUSREG?MODBUS
  +--> ?PR?_MODBUS_WRITEFLOATTEMPPAIR?MODBUS
  +--> ?PR?UPLOAD_IS_BOOT_READY?UPLOAD
  +--> ?PR?UPLOAD_DP_AROUND_TEMP?UPLOAD
  +--> ?PR?UPLOAD_DP_TEMP_CURRENT?UPLOAD
  +--> ?PR?UPLOAD_DP_TEMP_TOP?UPLOAD
  +--> ?PR?_MODBUS_SYNCDEFROSTFROMREG205?MODBUS
  +--> ?PR?UPLOAD_DP_FAULT?UPLOAD
  +--> ?PR?UPLOAD_CHECK_STATUS?UPLOAD
  +--> ?PR?UPLOAD_DP_EVAPORATOR_TEMP?UPLOAD
  +--> ?PR?UPLOAD_DP_EFFLUENT_TEMP?UPLOAD
  +--> ?PR?MODBUS_STARTINDOORPOLLAFTERCHECK2...
  +--> ?PR?UPLOAD_DP_DEFROST_FREQ?UPLOAD
  +--> ?PR?UPLOAD_DP_DEFROST_TIME?UPLOAD
  +--> ?PR?UPLOAD_DP_DEFROST_OUT_TEMP?UPLOAD
  +--> ?PR?_MODBUS_PACKCHECKSTATUSBYTE?MODBUS
  +--> ?PR?_MODBUS_RXRELREG?MODBUS
  +--> ?PR?_MODBUS_INDOOR11000BLOCKEMPTY?MODBUS
  +--> ?PR?_MODBUS_DECODEINDOORMODEBITS?MODBUS
  +--> ?PR?_MODBUS_SYNCHOMEINDOORMODEFROMUNI...
  +--> ?PR?_MODBUS_DECODEINDOORFAN?MODBUS
  +--> ?PR?_MODBUS_UNSCALEINDOORSETTEMP?MODBUS
  +--> ?PR?HOMEPAGE_SYNCINDOORDISPLAY?CONTROL
  +--> ?PR?MODBUS_RETRYINDOORPOWERMISMATCH?M...
BL51 BANKED LINKER/LOCATER V6.22.2.0                                                  07/08/2026  17:17:08  PAGE 22


  +--> ?PR?UPLOAD_INDOOR_UNIT?UPLOAD
  +--> ?PR?_MODBUS_SAVEGROUPSENTREGS?MODBUS
  +--> ?PR?_MODBUS_SAVEINDOORSENTREGS?MODBUS
  +--> ?PR?_MODBUS_FILLINDOORUNITREGS?MODBUS
  +--> ?PR?MODBUS_FINISHINDOORWRITECHAIN?MODBUS
  +--> ?PR?MODBUS_STARTNEXTTIMERWRITE?MODBUS

?PR?MODBUS_YIELDWIFI?MODBUS                      -----    -----      -----    -----      -----    -----
  +--> ?PR?WIFI_UART_RX_PULL?MCU_API
  +--> ?PR?WIFI_UART_SERVICE?MCU_API

?PR?_CALCULATEMODBUSCRC?MODBUS                   -----    -----      -----    -----      8DC3H    0009H

?PR?_MODBUS_PACKCHECKSTATUSBLOCK?MODBUS          -----    -----      -----    -----      8DC3H    000DH
  +--> ?PR?_MODBUS_PACKCHECKSTATUSBYTE?MODBUS

?PR?_GETMODBUSREG?MODBUS                         -----    -----      -----    -----      8DC3H    0003H

?PR?_MODBUS_WRITEFLOATTEMPPAIR?MODBUS            -----    -----      -----    -----      8DC3H    0014H
  +--> ?PR?_READ_DGUS_VP?SYS
  +--> ?PR?_TEMPUNITTRANS?CONTROL
  +--> ?PR?_WRITE_DGUS_VP?SYS

?PR?UPLOAD_DP_AROUND_TEMP?UPLOAD                 -----    -----      -----    -----      8DC3H    0008H
  +--> ?PR?UPLOAD_GETUNIT?UPLOAD
  +--> ?PR?_READ_DGUS_VP?SYS
  +--> ?PR?_UPLOAD_VALUEIFCHANGED?UPLOAD

?PR?UPLOAD_DP_TEMP_TOP?UPLOAD                    -----    -----      -----    -----      8DC3H    0008H
  +--> ?PR?UPLOAD_GETUNIT?UPLOAD
  +--> ?PR?_READ_DGUS_VP?SYS
  +--> ?PR?_UPLOAD_VALUEIFCHANGED?UPLOAD

?PR?_MODBUS_SYNCDEFROSTFROMREG205?MODBUS         -----    -----      -----    -----      8DC3H    0003H
  +--> ?PR?_READ_DGUS_VP?SYS
  +--> ?PR?_MODBUS_SETDEFROSTDISPLAY?MODBUS
  +--> ?PR?CONTROL_CLEARDEFROSTSESSION?CONTROL
  +--> ?PR?READY_TO_SAVE?SYS
  +--> ?PR?UPLOAD_DP_DEFROST?UPLOAD

?PR?UPLOAD_DP_EVAPORATOR_TEMP?UPLOAD             -----    -----      -----    -----      8DC3H    0008H
  +--> ?PR?UPLOAD_GETUNIT?UPLOAD
  +--> ?PR?_READ_DGUS_VP?SYS
  +--> ?PR?_UPLOAD_VALUEIFCHANGED?UPLOAD

?PR?UPLOAD_DP_EFFLUENT_TEMP?UPLOAD               -----    -----      -----    -----      8DC3H    0008H
  +--> ?PR?UPLOAD_GETUNIT?UPLOAD
  +--> ?PR?_READ_DGUS_VP?SYS
  +--> ?PR?_UPLOAD_VALUEIFCHANGED?UPLOAD

?PR?MODBUS_STARTINDOORPOLLAFTERCHECK2...         -----    -----      -----    -----      -----    -----
  +--> ?PR?MODBUS_CLEARPOLLREADFLAGS?MODBUS

?PR?UPLOAD_DP_DEFROST_FREQ?UPLOAD                -----    -----      -----    -----      8DC3H    0002H
  +--> ?PR?_READ_DGUS_VP?SYS
  +--> ?PR?_UPLOAD_VALUEIFCHANGED?UPLOAD

BL51 BANKED LINKER/LOCATER V6.22.2.0                                                  07/08/2026  17:17:08  PAGE 23


?PR?UPLOAD_DP_DEFROST_TIME?UPLOAD                -----    -----      -----    -----      8DC3H    0002H
  +--> ?PR?_READ_DGUS_VP?SYS
  +--> ?PR?_UPLOAD_VALUEIFCHANGED?UPLOAD

?PR?UPLOAD_DP_DEFROST_OUT_TEMP?UPLOAD            -----    -----      -----    -----      8DC3H    0008H
  +--> ?PR?UPLOAD_GETUNIT?UPLOAD
  +--> ?PR?_READ_DGUS_VP?SYS
  +--> ?PR?_UPLOAD_VALUEIFCHANGED?UPLOAD

?PR?_MODBUS_RXRELREG?MODBUS                      -----    -----      -----    -----      -----    -----
  +--> ?PR?_MODBUS_RXU16?MODBUS

?PR?_MODBUS_INDOOR11000BLOCKEMPTY?MODBUS         -----    -----      -----    -----      8DC3H    0003H
  +--> ?PR?_MODBUS_RXRELREG?MODBUS

?PR?_MODBUS_SYNCHOMEINDOORMODEFROMUNI...         -----    -----      -----    -----      8DC3H    0007H
  +--> ?PR?_WRITE_DGUS_VP?SYS
  +--> ?PR?_READ_DGUS_VP?SYS

?PR?MODBUS_RETRYINDOORPOWERMISMATCH?M...         -----    -----      -----    -----      8DC3H    0003H
  +--> ?PR?_READ_DGUS_VP?SYS
  +--> ?PR?MODBUS_INDOORWRITEPENDING?MODBUS
  +--> ?PR?_MODBUS_QUEUEINDOORUNITWRITE?MODBUS
  +--> ?PR?_MODBUS_TRIGGERINDOORUNITWRITE?MO...

?PR?_MODBUS_SAVEGROUPSENTREGS?MODBUS             -----    -----      -----    -----      8DC3H    0003H

?PR?_MODBUS_SAVEINDOORSENTREGS?MODBUS            -----    -----      -----    -----      8DC3H    0004H

?PR?MODBUS_FINISHINDOORWRITECHAIN?MODBUS         -----    -----      -----    -----      -----    -----
  +--> ?PR?MODBUS_STARTNEXTINDOORUNITWRITE?M...
  +--> ?PR?MODBUS_INDOORWRITEPENDING?MODBUS
  +--> ?PR?MODBUS_CLEARPOLLREADFLAGS?MODBUS

?PR?MODBUS_ADVANCEPOLLONTIMEOUT?MODBUS           -----    -----      -----    -----      -----    -----
  +--> ?PR?MODBUS_STARTINDOORPOLLAFTERCHECK2...

?PR?_MODBUS_FILLGROUPCONTROLREGS?MODBUS          -----    -----      -----    -----      8D86H    0005H
  +--> ?PR?_READ_DGUS_VP?SYS
  +--> ?PR?_MODBUS_ENCODEINDOORRUNMODE?MODBUS
  +--> ?PR?_MODBUS_ENCODEINDOORFAN?MODBUS

?PR?_MODBUS_APPENDU16?MODBUS                     -----    -----      -----    -----      8D8BH    0002H

?PR?_MODBUS_APPENDMODESETTEMPREG?MODBUS          -----    -----      -----    -----      8D86H    0005H
  +--> ?PR?_READ_DGUS_VP?SYS
  +--> ?PR?_MODBUS_APPENDU16?MODBUS

?PR?_UART5_SENDSTR?UART                          -----    -----      -----    -----      8D86H    0003H

?PR?_MODBUS_REPORTFAULTCODE?MODBUS               -----    -----      -----    -----      8D86H    0002H
  +--> ?PR?_WRITE_DGUS_VP?SYS
  +--> ?PR?UPLOAD_DP_FAULT?UPLOAD

?PR?CONTROL_FUNCTION1?CONTROL                    -----    -----      -----    -----      8D71H    0011H
  +--> ?PR?_READ_DGUS_VP?SYS
  +--> ?PR?GETVALUE0F00?CONTROL
BL51 BANKED LINKER/LOCATER V6.22.2.0                                                  07/08/2026  17:17:08  PAGE 24


  +--> ?PR?_ISITHOMEPAGE?CONTROL
  +--> ?PR?HOMEPAGE?CONTROL
  +--> ?PR?_ERRORHISTORY_PAGECHANGE?ERRORHIS...
  +--> ?PR?_WRITE_DGUS_VP?SYS
  +--> ?PR?_SETTEMPINTREAD?CONTROL
  +--> ?PR?_SYNCSETTEMPCACHESFROMC?CONTROL
  +--> ?PR?READY_TO_SAVE_REPORT?SYS
  +--> ?PR?UPLOAD_DP_MODE?UPLOAD
  +--> ?PR?UPLOAD_DP_SWITCH?UPLOAD
  +--> ?PR?UNITCHANGEPRO?CONTROL
  +--> ?PR?UPLOAD_DP_TEMP_UNIT?UPLOAD
  +--> ?PR?UPLOAD_DP_TEMP_SET?UPLOAD
  +--> ?PR?UPLOAD_DP_TEMP_CURRENT?UPLOAD
  +--> ?PR?MODBUS_TRIGGERUSERWRITE?MODBUS
  +--> ?PR?_PAGE_CHANGE_HANDLER?SYS
  +--> ?PR?UPLOAD_INSIDE_TIME_OPEN?UPLOAD
  +--> ?PR?UPLOAD_EXTERNAL_TIME_OPEN?UPLOAD
  +--> ?PR?UPLOAD_INDOOR_UNIT?UPLOAD
  +--> ?PR?_MODBUS_TRIGGERINDOORUNITWRITE?MO...
  +--> ?PR?_SYNCHOMEDISPLAYIFFIRSTINDOORMODE...
  +--> ?PR?_KEYADJUSTSETTEMPFORMODE?CONTROL
  +--> ?PR?PREFILLSETTEMPEDITPAGE?CONTROL
  +--> ?PR?_TEMPUNITTRANS?CONTROL
  +--> ?PR?_SETTEMPINTWRITE?CONTROL
  +--> ?PR?_SETTEMPFLOATWRITEC?CONTROL
  +--> ?PR?_SETMODEPROCESS?CONTROL
  +--> ?PR?UPLOAD_DP_WORK_STATE?UPLOAD
  +--> ?PR?RTCDISPLAY4CHANGE?CONTROL
  +--> ?PR?_LANGUAGE_CHANGE?SYS
  +--> ?PR?RTC_GETUNIXLOCAL?RTC
  +--> ?PR?MODBUS_STARTMANUALDEFROST?MODBUS
  +--> ?PR?UPLOAD_DP_DEFROST?UPLOAD
  +--> ?PR?_BRIGHTNESS_HANDLER?SYS
  +--> ?PR?ERRORHISTORY_TRYMIGRATEFLASH?ERRO...
  +--> ?PR?UPLOAD_DP_RELAY_STATUS?UPLOAD
  +--> ?PR?UPLOAD_EXTERNAL_TIME_CLOSE?UPLOAD
  +--> ?PR?UPLOAD_INSIDE_TIME_CLOSE?UPLOAD
  +--> ?PR?CONTROL_SANITIZESETTEMPINTVP?CONTROL
  +--> ?PR?MODBUS_TRIGGERGROUPCONTROLWRITE?M...
  +--> ?PR?ERRORHISTORY_RESETPAGE?ERRORHISTORY
  +--> ?PR?ERRORHISTORYDISPLAY?ERRORHISTORY
  +--> ?PR?CLEARERRORHISTORY?ERRORHISTORY
  +--> ?PR?_MODBUS_TRIGGERDEFROSTPARAMWRITE?...
  +--> ?PR?UPLOAD_DP_DEFROST_FREQ?UPLOAD
  +--> ?PR?UPLOAD_DP_DEFROST_TIME?UPLOAD
  +--> ?PR?UPLOAD_DP_DEFROST_OUT_TEMP?UPLOAD
  +--> ?PR?_TEMP_LIMIT?CONTROL
  +--> ?PR?MCU_RESET_WIFI?MCU_API
  +--> ?PR?_MODBUS_APPLYINDOORTIMERVPTOUNITS...
  +--> ?PR?SCREENTIMEOUT_SET?SYS
  +--> ?PR?READY4WRITERTC?CONTROL

?PR?GETVALUE0F00?CONTROL                         -----    -----      -----    -----      8D82H    0004H
  +--> ?CO?CONTROL
  +--> ?PR?_READ_DGUS_VP?SYS
  +--> ?PR?_WRITE_DGUS_VP?SYS

BL51 BANKED LINKER/LOCATER V6.22.2.0                                                  07/08/2026  17:17:08  PAGE 25


?PR?_ERRORHISTORY_PAGECHANGE?ERRORHIS...         -----    -----      -----    -----      -----    -----
  +--> ?PR?ERRORHISTORY_GETMAXPAGE?ERRORHISTORY
  +--> ?PR?ERRORHISTORYDISPLAY?ERRORHISTORY

?PR?ERRORHISTORY_GETMAXPAGE?ERRORHISTORY         -----    -----      -----    -----      -----    -----
  +--> ?PR?ERRORHISTORY_GETCOUNT?ERRORHISTORY

?PR?READY_TO_SAVE_REPORT?SYS                     -----    -----      -----    -----      -----    -----
  +--> ?PR?READY_TO_SAVE?SYS

?PR?UPLOAD_INSIDE_TIME_OPEN?UPLOAD               -----    -----      -----    -----      8D82H    000BH
  +--> ?CO?UPLOAD
  +--> ?PR?_READ_DGUS_VP?SYS
  +--> ?PR?_UPLOAD_DGUSMODETODP116?UPLOAD
  +--> ?PR?UPLOAD_PACKTIMERROOMBYTE?UPLOAD
  +--> ?PR?_MCU_DP_RAW_UPDATE?MCU_API
  +--> ?PR?UPLOAD_YIELDWIFI?UPLOAD

?PR?UPLOAD_PACKTIMERROOMBYTE?UPLOAD              -----    -----      -----    -----      8D8DH    0006H
  +--> ?PR?_READ_DGUS_VP?SYS

?PR?UPLOAD_EXTERNAL_TIME_OPEN?UPLOAD             -----    -----      -----    -----      8D82H    0009H
  +--> ?CO?UPLOAD
  +--> ?PR?_READ_DGUS_VP?SYS
  +--> ?PR?_MCU_DP_RAW_UPDATE?MCU_API
  +--> ?PR?UPLOAD_YIELDWIFI?UPLOAD

?PR?_SYNCHOMEDISPLAYIFFIRSTINDOORMODE...         -----    -----      -----    -----      8D82H    0007H
  +--> ?PR?_READ_DGUS_VP?SYS
  +--> ?PR?_WRITE_DGUS_VP?SYS
  +--> ?PR?_HOMEPAGE_UPDATEMODEANIMATION?CON...

?PR?_KEYADJUSTSETTEMPFORMODE?CONTROL             -----    -----      -----    -----      8D82H    000BH
  +--> ?PR?_READ_DGUS_VP?SYS
  +--> ?PR?_SETTEMPINTVPBYMODE?CONTROL
  +--> ?PR?_WRITE_DGUS_VP?SYS
  +--> ?PR?_TEMP_LIMIT?CONTROL
  +--> ?PR?_TEMPUNITTRANS?CONTROL
  +--> ?PR?_SYNCSETTEMPCACHESFROMC?CONTROL
  +--> ?PR?READY_TO_SAVE_REPORT?SYS
  +--> ?PR?UPLOAD_DP_TEMP_SET?UPLOAD

?PR?PREFILLSETTEMPEDITPAGE?CONTROL               -----    -----      -----    -----      8D82H    0008H
  +--> ?PR?_READ_DGUS_VP?SYS
  +--> ?PR?_SETTEMPINTREAD?CONTROL
  +--> ?PR?_CONTROL_CLAMPSETTEMPCBYMODE?CONTROL
  +--> ?PR?_TEMPUNITTRANS?CONTROL
  +--> ?PR?_SETTEMPINTWRITE?CONTROL
  +--> ?PR?_WRITE_DGUS_VP?SYS
  +--> ?PR?_PAGE_CHANGE_HANDLER?SYS

?PR?_SETTEMPFLOATWRITEC?CONTROL                  -----    -----      -----    -----      8D82H    0009H
  +--> ?PR?_TEMPUNITTRANS?CONTROL
  +--> ?PR?_SETTEMPINTWRITE?CONTROL

?PR?_SETMODEPROCESS?CONTROL                      -----    -----      -----    -----      8D82H    0002H
  +--> ?PR?_WRITE_DGUS_VP?SYS
BL51 BANKED LINKER/LOCATER V6.22.2.0                                                  07/08/2026  17:17:08  PAGE 26



?PR?RTCDISPLAY4CHANGE?CONTROL                    -----    -----      -----    -----      8D82H    0008H
  +--> ?PR?_READ_DGUS_VP?SYS
  +--> ?PR?_WRITE_DGUS_VP?SYS
  +--> ?PR?_RTC_MONTHFROMDISPLAYVP?RTC

?PR?_RTC_MONTHFROMDISPLAYVP?RTC                  -----    -----      -----    -----      8D8AH    0002H

?PR?_LANGUAGE_CHANGE?SYS                         -----    -----      -----    -----      8D82H    0004H
  +--> ?PR?_WRITE_DGUS_VP?SYS

?PR?RTC_GETUNIXLOCAL?RTC                         -----    -----      -----    -----      8DAAH    0009H
  +--> ?PR?_RTC_IS_LEAP?RTC
  +--> ?PR?_RTC_DAYS_IN_MONTH?RTC

?PR?_BRIGHTNESS_HANDLER?SYS                      -----    -----      -----    -----      8D82H    0002H
  +--> ?PR?_WRITE_DGUS_VP?SYS

?PR?ERRORHISTORY_TRYMIGRATEFLASH?ERRO...         -----    -----      -----    -----      8D82H    0008H
  +--> ?PR?ERRORHISTORY_FLASHVPADDR?ERRORHIS...
  +--> ?PR?_READ_DGUS_VP?SYS
  +--> ?PR?ERRORHISTORY_SANITIZE?ERRORHISTORY
  +--> ?PR?_ERRORHISTORY_FLASHWRITE?ERRORHIS...
  +--> ?PR?WRITE_MEMORY?SYS
  +--> ?PR?WRITE_NOR_FLASH?SYS

?PR?UPLOAD_EXTERNAL_TIME_CLOSE?UPLOAD            -----    -----      -----    -----      8D82H    0005H
  +--> ?CO?UPLOAD
  +--> ?PR?_READ_DGUS_VP?SYS
  +--> ?PR?_MCU_DP_RAW_UPDATE?MCU_API
  +--> ?PR?UPLOAD_YIELDWIFI?UPLOAD

?PR?UPLOAD_INSIDE_TIME_CLOSE?UPLOAD              -----    -----      -----    -----      8D82H    0005H
  +--> ?CO?UPLOAD
  +--> ?PR?_READ_DGUS_VP?SYS
  +--> ?PR?_MCU_DP_RAW_UPDATE?MCU_API
  +--> ?PR?UPLOAD_YIELDWIFI?UPLOAD

?PR?MODBUS_TRIGGERGROUPCONTROLWRITE?M...         -----    -----      -----    -----      -----    -----
  +--> ?PR?_MODBUS_FILLGROUPCONTROLREGS?MODBUS
  +--> ?PR?_MODBUS_GROUPREGSCHANGED?MODBUS

?PR?_MODBUS_GROUPREGSCHANGED?MODBUS              -----    -----      -----    -----      8D82H    0004H

?PR?MCU_RESET_WIFI?MCU_API                       -----    -----      -----    -----      -----    -----
  +--> ?PR?_WIFI_UART_WRITE_FRAME?SYSTEM

?PR?SCREENTIMEOUT_SET?SYS                        0023H.1  0000H.1    -----    -----      8D82H    0004H
  +--> ?PR?_READ_DGUS_VP?SYS
  +--> ?PR?_WRITE_DGUS_VP?SYS

?PR?READY4WRITERTC?CONTROL                       -----    -----      -----    -----      8D82H    0012H
  +--> ?PR?_READ_DGUS_VP?SYS
  +--> ?PR?_WRITE_DGUS_VP?SYS

?PR?CONTROL_LOCKKEYSERVICE?CONTROL               -----    -----      -----    -----      8D71H    0004H
  +--> ?PR?_READ_DGUS_VP?SYS
BL51 BANKED LINKER/LOCATER V6.22.2.0                                                  07/08/2026  17:17:08  PAGE 27


  +--> ?PR?_CONTROL_APPLYCHILDLOCK?CONTROL
  +--> ?PR?READY_TO_SAVE_REPORT?SYS
  +--> ?PR?UPLOAD_DP_CHILD_LOCK?UPLOAD
  +--> ?PR?_WRITE_DGUS_VP?SYS

?PR?_CONTROL_APPLYCHILDLOCK?CONTROL              -----    -----      -----    -----      8D75H    0002H
  +--> ?PR?_WRITE_DGUS_VP?SYS
  +--> ?PR?HOMEPAGE?CONTROL
  +--> ?PR?HOMEPAGE_ICON?CONTROL

?PR?SAVE_DATA_HANDLER?SYS                        -----    -----      -----    -----      8D71H    0002H
  +--> ?PR?WRITE_MEMORY?SYS
  +--> ?PR?WRITE_NOR_FLASH?SYS

?PR?MODBUSCHANELCONTROL?MAIN                     -----    -----      -----    -----      -----    -----
  +--> ?PR?OTAINIT?OTA
  +--> ?PR?_PAGE_CHANGE_HANDLER?SYS
  +--> ?PR?OTA_MODBUSPRO?OTA
  +--> ?PR?_UPGRADE_PACKAGE_CHOOSE?PROTOCOL
  +--> ?PR?_WIFI_UART_WRITE_FRAME?SYSTEM

?PR?OTA_MODBUSPRO?OTA                            -----    -----      -----    -----      -----    -----
  +--> ?PR?OTAENCODEPRO?OTA
  +--> ?PR?OTARECVPRO?OTA
  +--> ?PR?OTADECODEPRO?OTA

?PR?OTAENCODEPRO?OTA                             -----    -----      -----    -----      8D71H    0004H
  +--> ?PR?_CALCULATEMODBUSCRC?MODBUS
  +--> ?PR?_UART5_SENDSTR?UART

?PR?OTADECODEPRO?OTA                             -----    -----      -----    -----      -----    -----
  +--> ?PR?_CALCULATEMODBUSCRC?MODBUS

?PR?RTCUPDATE?RTC                                -----    -----      -----    -----      8D71H    0006H
  +--> ?PR?GETSYSTICKTIME?RTC
  +--> ?PR?_GETTIMEDIFF?RTC
  +--> ?PR?RDTIME?RTC
  +--> ?PR?_RTC_WRITEDISPLAYTIME?RTC

?PR?_GETTIMEDIFF?RTC                             -----    -----      -----    -----      8D77H    0008H

?PR?RDTIME?RTC                                   -----    -----      -----    -----      8D77H    0011H
  +--> ?PR?RTCI2CSTART?RTC
  +--> ?PR?_RTCI2CBW?RTC
  +--> ?PR?RTCI2CSTOP?RTC
  +--> ?PR?RTCI2CBR?RTC
  +--> ?PR?RTCMACK?RTC
  +--> ?PR?RTCMNAK?RTC
  +--> ?PR?_WRITE_DGUS_VP?SYS
  +--> ?PR?CHECK_RTC_SET?RTC

?PR?CHECK_RTC_SET?RTC                            -----    -----      -----    -----      8D88H    0012H
  +--> ?CO?RTC
  +--> ?PR?_READ_DGUS_VP?SYS
  +--> ?PR?_BCD?RTC
  +--> ?PR?_RTC_GET_WEEK?RTC
  +--> ?PR?_RTC_CONFIG?RTC
BL51 BANKED LINKER/LOCATER V6.22.2.0                                                  07/08/2026  17:17:08  PAGE 28


  +--> ?PR?_RTC_WRITEDISPLAYTIME?RTC
  +--> ?PR?_RTC_WRITEEDITTIME?RTC
  +--> ?PR?_WRITE_DGUS_VP?SYS
  +--> ?PR?UPLOAD_TIMESTAMP_FROM_RTC?UPLOAD

?PR?_RTC_GET_WEEK?RTC                            -----    -----      -----    -----      8D9AH    0005H

?PR?_RTC_CONFIG?RTC                              -----    -----      -----    -----      8D9AH    0005H
  +--> ?PR?RTCI2CSTART?RTC
  +--> ?PR?_RTCI2CBW?RTC
  +--> ?PR?RTCI2CSTOP?RTC

?PR?UPLOAD_TIMESTAMP_FROM_RTC?UPLOAD             -----    -----      -----    -----      8D9AH    0010H
  +--> ?PR?RTC_GETUNIXLOCAL?RTC
  +--> ?PR?_UPLOAD_ULTOSTR?UPLOAD
  +--> ?PR?_MY_STRLEN?MCU_API
  +--> ?PR?_MCU_DP_STRING_UPDATE?MCU_API

?PR?_UPLOAD_ULTOSTR?UPLOAD                       -----    -----      -----    -----      8DAAH    0013H

?PR?DECODEERRORHISTORY?ERRORHISTORY              -----    -----      -----    -----      8D71H    0001H
  +--> ?PR?_UPDATEERRORHISTORY?ERRORHISTORY
  +--> ?PR?GETPAGEID?CONTROL
  +--> ?PR?ERRORHISTORYDISPLAY?ERRORHISTORY

?PR?_UPDATEERRORHISTORY?ERRORHISTORY             -----    -----      -----    -----      8D72H    0009H
  +--> ?PR?_ERRORHISTORY_READTIME?ERRORHISTORY
  +--> ?PR?_UWOERRORCODEPROCESS?ERRORHISTORY
  +--> ?PR?READY_TO_SAVE?SYS
  +--> ?PR?UPLOAD_HISTORY_FAULTS?UPLOAD

?PR?_ERRORHISTORY_READTIME?ERRORHISTORY          -----    -----      -----    -----      8D7BH    000DH
  +--> ?PR?_READ_DGUS_VP?SYS
  +--> ?PR?_RTC_MONTHFROMDISPLAYVP?RTC
  +--> ?PR?_ERRORHISTORY_CLAMPBYTE?ERRORHISTORY

?PR?UI_OPENPAGE?MAIN                             -----    -----      -----    -----      -----    -----
  +--> ?PR?HOMEPAGE?CONTROL
  +--> ?PR?_UPLOAD_SET_BOOT_READY?UPLOAD

?PR?_UPLOAD_SET_BOOT_READY?UPLOAD                -----    -----      -----    -----      -----    -----
  +--> ?PR?UPLOAD_HISTORY_FAULTS?UPLOAD
  +--> ?PR?UPLOAD_CHECK_STATUS?UPLOAD
  +--> ?PR?UPLOAD_EXTERNAL_TIME_OPEN?UPLOAD
  +--> ?PR?UPLOAD_EXTERNAL_TIME_CLOSE?UPLOAD
  +--> ?PR?UPLOAD_INSIDE_TIME_OPEN?UPLOAD
  +--> ?PR?UPLOAD_INSIDE_TIME_CLOSE?UPLOAD

?PR?TIMERRUNNING?CONTROL                         -----    -----      -----    -----      8D71H    0007H
  +--> ?PR?_READ_DGUS_VP?SYS
  +--> ?PR?SYNCTIMERFROMVP?CONTROL
  +--> ?PR?RTC_GET_WEEKDAY?RTC
  +--> ?PR?_TIMER_ISEXTERNALWEEKDAYMATCH?CON...
  +--> ?PR?_WRITE_DGUS_VP?SYS
  +--> ?PR?_SETTEMPINTWRITE?CONTROL
  +--> ?PR?_SYNCSETTEMPCACHESFROMC?CONTROL
  +--> ?PR?READY_TO_SAVE_REPORT?SYS
BL51 BANKED LINKER/LOCATER V6.22.2.0                                                  07/08/2026  17:17:08  PAGE 29


  +--> ?PR?UPLOAD_DP_SWITCH?UPLOAD
  +--> ?PR?UPLOAD_DP_MODE?UPLOAD
  +--> ?PR?UPLOAD_DP_TEMP_SET?UPLOAD
  +--> ?PR?_TIMER_ISINDOORWEEKDAYMATCH?CONTROL
  +--> ?PR?TIMER_APPLYINDOORON?CONTROL
  +--> ?PR?UPLOAD_INDOOR_UNIT?UPLOAD
  +--> ?PR?TIMER_APPLYINDOOROFF?CONTROL
  +--> ?PR?DEFROST_CHECKEXIT?CONTROL

?PR?SYNCTIMERFROMVP?CONTROL                      -----    -----      -----    -----      8D78H    0002H
  +--> ?CO?CONTROL
  +--> ?PR?_READ_DGUS_VP?SYS
  +--> ?PR?_READTIMERTEMPC?CONTROL

?PR?_READTIMERTEMPC?CONTROL                      -----    -----      -----    -----      8D7AH    000EH
  +--> ?PR?_READ_DGUS_VP?SYS
  +--> ?PR?_TEMPUNITTRANS?CONTROL

?PR?_TIMER_ISEXTERNALWEEKDAYMATCH?CON...         -----    -----      -----    -----      8D78H    0005H
  +--> ?PR?_READ_DGUS_VP?SYS

?PR?_TIMER_ISINDOORWEEKDAYMATCH?CONTROL          -----    -----      -----    -----      8D78H    0005H
  +--> ?PR?_READ_DGUS_VP?SYS

?PR?TIMER_APPLYINDOORON?CONTROL                  -----    -----      -----    -----      8D78H    000BH
  +--> ?PR?_READ_DGUS_VP?SYS
  +--> ?PR?_WRITE_DGUS_VP?SYS
  +--> ?PR?_MODBUS_TRIGGERINDOORUNITWRITE?MO...
  +--> ?PR?UPLOAD_INDOOR_UNIT?UPLOAD

?PR?TIMER_APPLYINDOOROFF?CONTROL                 -----    -----      -----    -----      8D78H    0005H
  +--> ?PR?_READ_DGUS_VP?SYS
  +--> ?PR?_WRITE_DGUS_VP?SYS
  +--> ?PR?_MODBUS_TRIGGERINDOORUNITWRITE?MO...
  +--> ?PR?UPLOAD_INDOOR_UNIT?UPLOAD

?PR?DEFROST_CHECKEXIT?CONTROL                    -----    -----      -----    -----      8D78H    000CH
  +--> ?PR?_READ_DGUS_VP?SYS
  +--> ?PR?_MODBUS_SETDEFROSTDISPLAY?MODBUS
  +--> ?PR?RTC_GETUNIXLOCAL?RTC
  +--> ?PR?UPLOAD_DP_DEFROST?UPLOAD

?PR?WIFI_RESTING_PRO?CONTROL                     -----    -----      -----    -----      -----    -----
  +--> ?PR?MCU_GET_RESET_WIFI_FLAG?MCU_API
  +--> ?PR?_PAGE_CHANGE_HANDLER?SYS

?PR?OTARELOAD_DELAYPAGE?CONTROL                  -----    -----      -----    -----      -----    -----
  +--> ?PR?HOMEPAGE?CONTROL

?PR?SCREENSAVER_PRO?CONTROL                      -----    -----      -----    -----      8D71H    000CH
  +--> ?PR?GETPAGEID?CONTROL
  +--> ?PR?_PAGE_CHANGE_HANDLER?SYS
  +--> ?PR?_READ_DGUS_VP?SYS
  +--> ?PR?_WRITE_DGUS_VP?SYS

*** NEW ROOT ***************************************************

BL51 BANKED LINKER/LOCATER V6.22.2.0                                                  07/08/2026  17:17:08  PAGE 30


?PR?UART2_ISR_PC?UART                            -----    -----      -----    -----      -----    -----
  +--> ?PR?_UART_RECEIVE_INPUT?MCU_API

?PR?_UART_RECEIVE_INPUT?MCU_API                  -----    -----      -----    -----      8F98H    0001H
  +--> ?PR?_WIFI_UART_RX_BYTE_SCAN?MCU_API

*** NEW ROOT ***************************************************

?PR?UART5_TX_ISR_PC?UART                         -----    -----      -----    -----      8F99H    0002H



SYMBOL TABLE OF MODULE:  .\obj\T5L51 (?C_STARTUP)

  VALUE           TYPE          NAME
  ----------------------------------

  -------         MODULE        ?C_STARTUP
  C:CE5CH         SEGMENT       ?C_C51STARTUP
  I:0027H         SEGMENT       ?STACK
  C:0000H         PUBLIC        ?C_STARTUP
  D:00E0H         SYMBOL        ACC
  D:00F0H         SYMBOL        B
  D:008EH         SYMBOL        CKCON
  D:0094H         SYMBOL        DAGESEL
  D:0093H         SYMBOL        DPC
  D:0083H         SYMBOL        DPH
  D:0082H         SYMBOL        DPL
  D:0095H         SYMBOL        D_PAGESEL
  N:0000H         SYMBOL        IBPSTACK
  N:0100H         SYMBOL        IBPSTACKTOP
  N:0080H         SYMBOL        IDATALEN
  C:CE74H         SYMBOL        IDATALOOP
  D:00C9H         SYMBOL        MUX_SEL
  N:0000H         SYMBOL        PBPSTACK
  N:0100H         SYMBOL        PBPSTACKTOP
  N:0000H         SYMBOL        PDATALEN
  N:0000H         SYMBOL        PDATASTART
  N:0000H         SYMBOL        PPAGE
  N:0000H         SYMBOL        PPAGEENABLE
  D:00A0H         SYMBOL        PPAGE_SFR
  D:00F8H         SYMBOL        RAMMODE
  D:0081H         SYMBOL        SP
  C:CE5CH         SYMBOL        STARTUP1
  D:00C8H         SYMBOL        T2CON
  N:0000H         SYMBOL        XBPSTACK
  N:0000H         SYMBOL        XBPSTACKTOP
  N:0000H         SYMBOL        XDATALEN
  N:0000H         SYMBOL        XDATASTART
  C:0000H         LINE#         133
  C:CE5CH         LINE#         143
  C:CE5FH         LINE#         144
  C:CE62H         LINE#         145
  C:CE65H         LINE#         146
  C:CE68H         LINE#         147
  C:CE6BH         LINE#         148
  C:CE6EH         LINE#         149
BL51 BANKED LINKER/LOCATER V6.22.2.0                                                  07/08/2026  17:17:08  PAGE 31


  C:CE71H         LINE#         152
  C:CE73H         LINE#         153
  C:CE74H         LINE#         154
  C:CE75H         LINE#         155
  C:CE77H         LINE#         204
  C:CE7AH         LINE#         215
  -------         ENDMOD        ?C_STARTUP

  -------         MODULE        MAIN
  C:0000H         SYMBOL        _ICE_DUMMY_
  D:0080H         PUBLIC        P0
  D:00B0H         PUBLIC        P3
  D:00F8H         PUBLIC        RAMMODE
  D:00A8H         PUBLIC        IEN0
  D:00B8H         PUBLIC        IEN1
  C:F89BH         PUBLIC        UI_OpenPage
  C:DBD3H         PUBLIC        ModbusChanelControl
  C:D0D1H         PUBLIC        main
  B:0026H.2       PUBLIC        OldTuyaOTAState
  D:0088H         PUBLIC        TCON
  D:00C9H         PUBLIC        MUX_SEL
  D:0098H         PUBLIC        SCON0
  D:00C8H         PUBLIC        T2CON
  D:00D0H         PUBLIC        PSW
  D:00C0H         PUBLIC        IRCON
  -------         PROC          UI_OPENPAGE
  -------         DO            
  X:9509H         SYMBOL        WaitingTime
  X:950AH         SYMBOL        AlreadyRunning
  -------         ENDDO         
  C:F89BH         LINE#         48
  C:F89BH         LINE#         49
  C:F89BH         LINE#         53
  C:F8A1H         LINE#         54
  C:F8A1H         LINE#         55
  C:F8A7H         LINE#         56
  C:F8A7H         LINE#         57
  C:F8A9H         LINE#         58
  C:F8ACH         LINE#         59
  C:F8ACH         LINE#         60
  C:F8B1H         LINE#         61
  C:F8B8H         LINE#         62
  C:F8BDH         LINE#         63
  C:F8C1H         LINE#         64
  C:F8C1H         LINE#         65
  C:F8C1H         LINE#         66
  C:F8C1H         LINE#         67
  -------         ENDPROC       UI_OPENPAGE
  -------         PROC          MODBUSCHANELCONTROL
  C:DBD3H         LINE#         68
  C:DBD3H         LINE#         69
  C:DBD3H         LINE#         70
  C:DBDBH         LINE#         71
  C:DBDBH         LINE#         72
  C:DBDFH         LINE#         73
  C:DBE2H         LINE#         74
  C:DBE2H         LINE#         75
BL51 BANKED LINKER/LOCATER V6.22.2.0                                                  07/08/2026  17:17:08  PAGE 32


  C:DBE5H         LINE#         76
  C:DBEAH         LINE#         77
  C:DBECH         LINE#         79
  C:DBECH         LINE#         80
  C:DBEEH         LINE#         81
  C:DBF0H         LINE#         82
  C:DBF2H         LINE#         83
  C:DBF4H         LINE#         84
  C:DBF4H         LINE#         85
  C:DBF4H         LINE#         86
  C:DBF7H         LINE#         87
  C:DBF7H         LINE#         88
  C:DBFAH         LINE#         89
  C:DC1FH         LINE#         90
  C:DC1FH         LINE#         91
  C:DC2EH         LINE#         92
  C:DC30H         LINE#         94
  C:DC33H         LINE#         95
  C:DC33H         LINE#         96
  C:DC35H         LINE#         97
  C:DC3AH         LINE#         98
  C:DC3AH         LINE#         99
  C:DC3DH         LINE#         100
  C:DC3DH         LINE#         101
  C:DC47H         LINE#         102
  C:DC49H         LINE#         103
  C:DC49H         LINE#         104
  -------         ENDPROC       MODBUSCHANELCONTROL
  -------         PROC          MAIN
  C:D0D1H         LINE#         106
  C:D0D1H         LINE#         107
  C:D0D1H         LINE#         108
  C:D0D4H         LINE#         109
  C:D0D7H         LINE#         110
  C:D0DAH         LINE#         111
  C:D0DDH         LINE#         112
  C:D0E0H         LINE#         114
  C:D0E3H         LINE#         115
  C:D0E6H         LINE#         116
  C:D0E9H         LINE#         118
  C:D0ECH         LINE#         122
  C:D0EFH         LINE#         123
  C:D0F2H         LINE#         124
  C:D0F5H         LINE#         126
  C:D0F5H         LINE#         127
  C:D0F5H         LINE#         128
  C:D0F8H         LINE#         129
  C:D0FBH         LINE#         130
  C:D0FEH         LINE#         131
  C:D101H         LINE#         132
  C:D104H         LINE#         134
  C:D113H         LINE#         135
  C:D113H         LINE#         136
  C:D117H         LINE#         137
  C:D11AH         LINE#         138
  C:D11DH         LINE#         139
  C:D120H         LINE#         140
BL51 BANKED LINKER/LOCATER V6.22.2.0                                                  07/08/2026  17:17:08  PAGE 33


  C:D123H         LINE#         141
  C:D126H         LINE#         142
  C:D126H         LINE#         144
  C:D135H         LINE#         145
  C:D135H         LINE#         146
  C:D139H         LINE#         148
  C:D13CH         LINE#         149
  C:D13FH         LINE#         150
  C:D13FH         LINE#         152
  C:D14EH         LINE#         153
  C:D14EH         LINE#         154
  C:D152H         LINE#         155
  C:D155H         LINE#         156
  C:D158H         LINE#         157
  C:D15BH         LINE#         158
  C:D15EH         LINE#         159
  C:D161H         LINE#         160
  C:D164H         LINE#         161
  C:D164H         LINE#         162
  -------         ENDPROC       MAIN
  -------         ENDMOD        MAIN

  -------         MODULE        SYS
  C:0000H         SYMBOL        _ICE_DUMMY_
  C:E1FEH         PUBLIC        INIT_CPU
  D:00F1H         PUBLIC        ADR_H
  D:0080H         PUBLIC        P0
  D:0090H         PUBLIC        P1
  D:00A0H         PUBLIC        P2
  D:00B0H         PUBLIC        P3
  D:00F3H         PUBLIC        ADR_L
  D:00F2H         PUBLIC        ADR_M
  B:00A8H.7       PUBLIC        EA
  D:00F8H         PUBLIC        RAMMODE
  C:8F7DH         PUBLIC        _write_dgus_vp
  D:00B7H         PUBLIC        P0MDOUT
  D:00BCH         PUBLIC        P1MDOUT
  D:00A8H         PUBLIC        IEN0
  C:F2AAH         PUBLIC        Ready_To_Save
  D:00BDH         PUBLIC        P2MDOUT
  D:00B8H         PUBLIC        IEN1
  D:00BEH         PUBLIC        P3MDOUT
  D:009AH         PUBLIC        IEN2
  C:EF9AH         PUBLIC        read_flash
  C:EABFH         PUBLIC        Save_Data_Handler
  B:00F8H.4       PUBLIC        APP_ACK
  D:00F4H         PUBLIC        ADR_INC
  X:87C2H         PUBLIC        TempSensorData
  X:8A8AH         PUBLIC        read_flash_status
  C:A468H         PUBLIC        _FlashCheckSumCalculate
  C:EFA2H         PUBLIC        write_flash
  X:8A92H         PUBLIC        Page_Change
  D:00BAH         PUBLIC        SREL0H
  D:00F9H         PUBLIC        PORTDRV
  D:00AAH         PUBLIC        SREL0L
  D:0089H         PUBLIC        TMOD
  D:0088H         PUBLIC        TCON
BL51 BANKED LINKER/LOCATER V6.22.2.0                                                  07/08/2026  17:17:08  PAGE 34


  C:EF8EH         PUBLIC        mon_table
  D:0097H         PUBLIC        SCON2R
  D:00ABH         PUBLIC        SCON3R
  D:00D9H         PUBLIC        BODE2_DIV_H
  D:00AEH         PUBLIC        BODE3_DIV_H
  D:0096H         PUBLIC        SCON2T
  D:00A7H         PUBLIC        SCON3T
  C:FF80H         PUBLIC        PORT_Init
  C:EE3CH         PUBLIC        ScreenTimeOut_Set
  D:00E7H         PUBLIC        BODE2_DIV_L
  C:EFAAH         PUBLIC        Soft_Ver_Num
  X:8AA6H         PUBLIC        Save_Flash_Flag
  D:00AFH         PUBLIC        BODE3_DIV_L
  D:00C9H         PUBLIC        MUX_SEL
  C:EFAEH         SYMBOL        _?ix1000
  C:FAB6H         PUBLIC        _Brightness_Handler
  C:ACB7H         PUBLIC        T0_ISR_PC
  C:E7D8H         PUBLIC        T1_ISR_PC
  X:8AA7H         PUBLIC        Modbus_Error_Count
  C:FDC7H         PUBLIC        T2_ISR_PC
  C:FFE9H         PUBLIC        Read_Memory_Error
  D:00A9H         PUBLIC        IP0
  B:00A8H.1       PUBLIC        ET0
  D:00B9H         PUBLIC        IP1
  B:00A8H.3       PUBLIC        ET1
  D:00FDH         PUBLIC        DATA0
  C:EF4DH         PUBLIC        _Page_Change_Handler
  D:00FCH         PUBLIC        DATA1
  B:00C0H.6       PUBLIC        TF2
  D:008CH         PUBLIC        TH0
  X:8AA9H         PUBLIC        page_set
  D:00FBH         PUBLIC        DATA2
  D:008DH         PUBLIC        TH1
  D:000DH         SYMBOL        SysTick
  D:00FAH         PUBLIC        DATA3
  D:00CDH         PUBLIC        TH2
  X:8AADH         PUBLIC        Flash_Save_Count
  D:008AH         PUBLIC        TL0
  D:008BH         PUBLIC        TL1
  D:00CCH         PUBLIC        TL2
  C:FED2H         PUBLIC        _delay_ms
  C:F823H         PUBLIC        _Language_Change
  B:00F8H.6       PUBLIC        APP_EN
  B:00D0H.3       PUBLIC        RS0
  B:00D0H.4       PUBLIC        RS1
  B:0088H.4       PUBLIC        TR0
  B:0088H.6       PUBLIC        TR1
  X:8AAFH         PUBLIC        Password
  B:00C8H.0       PUBLIC        TR2
  C:FFE8H         PUBLIC        Read_Memory
  X:8AB3H         PUBLIC        adc_average_channel7
  C:FD9FH         PUBLIC        Read_Nor_Flash
  D:0098H         PUBLIC        SCON0
  X:8AB5H         PUBLIC        task_10ms_count
  D:00D8H         PUBLIC        ADCON
  X:8AB7H         PUBLIC        Temp_Indoor
  D:00C8H         PUBLIC        T2CON
BL51 BANKED LINKER/LOCATER V6.22.2.0                                                  07/08/2026  17:17:08  PAGE 35


  C:FFE7H         PUBLIC        Write_Memory
  D:00CBH         PUBLIC        TRL2H
  C:FFD8H         PUBLIC        Ready_To_Save_Report
  C:FDB3H         PUBLIC        Write_Nor_Flash
  X:8AB9H         PUBLIC        AD_Count
  D:00CAH         PUBLIC        TRL2L
  C:E598H         PUBLIC        System_Parm_Init
  X:8ABBH         PUBLIC        APP_1000ms_count
  X:8ABDH         PUBLIC        task_10000ms_count
  X:8ABFH         PUBLIC        Send_Count
  X:8AC1H         PUBLIC        rx485_Count
  C:FE6EH         PUBLIC        T0_Init
  D:00D0H         PUBLIC        PSW
  C:8297H         PUBLIC        _read_dgus_vp
  C:FE7EH         PUBLIC        T1_Init
  C:FD32H         PUBLIC        T2_Init
  D:00C0H         PUBLIC        IRCON
  -------         PROC          INIT_CPU
  C:E1FEH         LINE#         148
  C:E1FEH         LINE#         149
  C:E1FEH         LINE#         150
  C:E200H         LINE#         151
  C:E202H         LINE#         152
  C:E204H         LINE#         154
  C:E207H         LINE#         155
  C:E20AH         LINE#         156
  C:E20CH         LINE#         157
  C:E20EH         LINE#         160
  C:E211H         LINE#         161
  C:E214H         LINE#         163
  C:E217H         LINE#         166
  C:E219H         LINE#         167
  C:E21BH         LINE#         168
  C:E21DH         LINE#         169
  C:E21FH         LINE#         170
  C:E222H         LINE#         171
  C:E224H         LINE#         172
  C:E226H         LINE#         173
  C:E228H         LINE#         176
  C:E22BH         LINE#         177
  C:E22EH         LINE#         178
  C:E231H         LINE#         179
  C:E234H         LINE#         184
  C:E237H         LINE#         185
  C:E23AH         LINE#         186
  C:E23CH         LINE#         187
  C:E23FH         LINE#         190
  C:E242H         LINE#         191
  C:E245H         LINE#         192
  C:E247H         LINE#         193
  C:E24AH         LINE#         198
  C:E24DH         LINE#         200
  C:E24FH         LINE#         201
  C:E251H         LINE#         202
  C:E253H         LINE#         205
  C:E255H         LINE#         206
  C:E257H         LINE#         207
BL51 BANKED LINKER/LOCATER V6.22.2.0                                                  07/08/2026  17:17:08  PAGE 36


  C:E259H         LINE#         211
  C:E25CH         LINE#         212
  C:E25EH         LINE#         213
  C:E260H         LINE#         214
  C:E263H         LINE#         215
  C:E266H         LINE#         216
  -------         ENDPROC       INIT_CPU
  -------         PROC          PORT_INIT
  C:FF80H         LINE#         228
  C:FF80H         LINE#         229
  C:FF80H         LINE#         230
  C:FF83H         LINE#         231
  C:FF86H         LINE#         232
  C:FF89H         LINE#         233
  -------         ENDPROC       PORT_INIT
  -------         PROC          _FLASHCHECKSUMCALCULATE
  X:8D75H         SYMBOL        StartAddr
  X:8D77H         SYMBOL        Length
  -------         DO            
  X:8D79H         SYMBOL        i
  X:8D7AH         SYMBOL        j
  X:8D7BH         SYMBOL        Page
  X:8D7CH         SYMBOL        Num
  X:8D7DH         SYMBOL        FlashCheckSum_Add
  X:8D7FH         SYMBOL        FlashCheckSum_Buff
  -------         ENDDO         
  C:A468H         LINE#         236
  C:A476H         LINE#         237
  C:A476H         LINE#         239
  C:A47DH         LINE#         240
  C:A48FH         LINE#         242
  C:A4A2H         LINE#         243
  C:A4B5H         LINE#         244
  C:A4B5H         LINE#         245
  C:A4DCH         LINE#         246
  C:A4EFH         LINE#         247
  C:A4EFH         LINE#         248
  C:A50CH         LINE#         249
  C:A514H         LINE#         250
  C:A51CH         LINE#         251
  C:A526H         LINE#         252
  C:A559H         LINE#         253
  C:A56CH         LINE#         254
  C:A56CH         LINE#         255
  C:A589H         LINE#         256
  C:A591H         LINE#         257
  C:A59FH         LINE#         258
  C:A5A7H         LINE#         259
  -------         ENDPROC       _FLASHCHECKSUMCALCULATE
  -------         PROC          SYSTEM_PARM_INIT
  -------         DO            
  X:8D71H         SYMBOL        FlashCheckSum
  -------         DO            
  X:8D73H         SYMBOL        zero
  -------         ENDDO         
  -------         ENDDO         
  C:E598H         LINE#         271
BL51 BANKED LINKER/LOCATER V6.22.2.0                                                  07/08/2026  17:17:08  PAGE 37


  C:E598H         LINE#         272
  C:E598H         LINE#         273
  C:E59FH         LINE#         275
  C:E5A2H         LINE#         276
  C:E5A9H         LINE#         277
  C:E5BEH         LINE#         278
  C:E5D5H         LINE#         279
  C:E5D5H         LINE#         280
  C:E5D8H         LINE#         281
  C:E5DAH         LINE#         283
  C:E5DAH         LINE#         284
  C:E5DDH         LINE#         285
  C:E5DDH         LINE#         286
  C:E5DDH         LINE#         287
  C:E5E4H         LINE#         288
  C:E5F8H         LINE#         289
  C:E5F8H         LINE#         290
  -------         ENDPROC       SYSTEM_PARM_INIT
  -------         PROC          READ_NOR_FLASH
  C:FD9FH         LINE#         304
  C:FD9FH         LINE#         305
  C:FD9FH         LINE#         306
  C:FDA6H         LINE#         308
  C:FDA6H         LINE#         309
  C:FDA9H         LINE#         310
  C:FDACH         LINE#         312
  C:FDB2H         LINE#         313
  -------         ENDPROC       READ_NOR_FLASH
  -------         PROC          WRITE_NOR_FLASH
  C:FDB3H         LINE#         326
  C:FDB3H         LINE#         327
  C:FDB3H         LINE#         328
  C:FDBAH         LINE#         330
  C:FDBAH         LINE#         331
  C:FDBDH         LINE#         332
  C:FDC0H         LINE#         333
  C:FDC6H         LINE#         334
  -------         ENDPROC       WRITE_NOR_FLASH
  -------         PROC          SAVE_DATA_HANDLER
  -------         DO            
  X:8D71H         SYMBOL        temp
  -------         ENDDO         
  C:EABFH         LINE#         346
  C:EABFH         LINE#         347
  C:EABFH         LINE#         348
  C:EAC6H         LINE#         350
  C:EACEH         LINE#         351
  C:EACEH         LINE#         352
  C:EADDH         LINE#         353
  C:EADDH         LINE#         354
  C:EAE0H         LINE#         355
  C:EAE3H         LINE#         356
  C:EAE8H         LINE#         357
  C:EAEEH         LINE#         358
  C:EAEEH         LINE#         359
  C:EAEEH         LINE#         361
  C:EB05H         LINE#         362
BL51 BANKED LINKER/LOCATER V6.22.2.0                                                  07/08/2026  17:17:08  PAGE 38


  C:EB05H         LINE#         363
  C:EB0CH         LINE#         364
  C:EB0CH         LINE#         365
  -------         ENDPROC       SAVE_DATA_HANDLER
  -------         PROC          READY_TO_SAVE
  -------         DO            
  X:8E0FH         SYMBOL        Enable_Memory
  -------         ENDDO         
  C:F2AAH         LINE#         378
  C:F2AAH         LINE#         379
  C:F2AAH         LINE#         380
  C:F2B1H         LINE#         381
  C:F2C3H         LINE#         382
  C:F2CFH         LINE#         383
  C:F2CFH         LINE#         384
  C:F2D4H         LINE#         385
  C:F2D5H         LINE#         386
  C:F2D7H         LINE#         388
  C:F2D7H         LINE#         389
  C:F2DCH         LINE#         390
  C:F2E2H         LINE#         391
  C:F2E2H         LINE#         392
  -------         ENDPROC       READY_TO_SAVE
  -------         PROC          READY_TO_SAVE_REPORT
  C:FFD8H         LINE#         394
  C:FFD8H         LINE#         395
  C:FFD8H         LINE#         396
  -------         ENDPROC       READY_TO_SAVE_REPORT
  -------         PROC          _BRIGHTNESS_HANDLER
  D:0007H         SYMBOL        LEDBrightness
  -------         DO            
  X:8D82H         SYMBOL        Brightness_Handler_u8temp
  -------         ENDDO         
  C:FAB6H         LINE#         399
  C:FAB6H         LINE#         400
  C:FAB6H         LINE#         403
  C:FABBH         LINE#         404
  C:FABEH         LINE#         405
  -------         ENDPROC       _BRIGHTNESS_HANDLER
  -------         PROC          WRITE_MEMORY
  C:FFE7H         LINE#         420
  C:FFE7H         LINE#         421
  C:FFE7H         LINE#         465
  -------         ENDPROC       WRITE_MEMORY
  -------         PROC          READ_MEMORY
  C:FFE8H         LINE#         476
  C:FFE8H         LINE#         477
  C:FFE8H         LINE#         547
  -------         ENDPROC       READ_MEMORY
  -------         PROC          READ_MEMORY_ERROR
  C:FFE9H         LINE#         548
  C:FFE9H         LINE#         549
  C:FFE9H         LINE#         589
  -------         ENDPROC       READ_MEMORY_ERROR
  -------         PROC          T0_INIT
  C:FE6EH         LINE#         600
  C:FE6EH         LINE#         601
BL51 BANKED LINKER/LOCATER V6.22.2.0                                                  07/08/2026  17:17:08  PAGE 39


  C:FE6EH         LINE#         602
  C:FE71H         LINE#         603
  C:FE74H         LINE#         604
  C:FE77H         LINE#         605
  C:FE79H         LINE#         606
  C:FE7BH         LINE#         607
  C:FE7DH         LINE#         608
  -------         ENDPROC       T0_INIT
  -------         PROC          T1_INIT
  C:FE7EH         LINE#         621
  C:FE7EH         LINE#         622
  C:FE7EH         LINE#         623
  C:FE81H         LINE#         624
  C:FE84H         LINE#         625
  C:FE87H         LINE#         626
  C:FE89H         LINE#         627
  C:FE8BH         LINE#         628
  C:FE8DH         LINE#         629
  -------         ENDPROC       T1_INIT
  -------         PROC          T2_INIT
  C:FD32H         LINE#         643
  C:FD32H         LINE#         644
  C:FD32H         LINE#         645
  C:FD35H         LINE#         646
  C:FD38H         LINE#         647
  C:FD3AH         LINE#         648
  C:FD3DH         LINE#         649
  C:FD40H         LINE#         650
  C:FD43H         LINE#         651
  C:FD45H         LINE#         652
  C:FD47H         LINE#         653
  -------         ENDPROC       T2_INIT
  C:8291H         SYMBOL        L?0111
  C:8293H         SYMBOL        L?0112
  -------         PROC          L?0110
  -------         ENDPROC       L?0110
  C:8291H         SYMBOL        L?0111
  C:8293H         SYMBOL        L?0112
  -------         PROC          _READ_DGUS_VP
  X:8F0EH         SYMBOL        addr
  X:8F12H         SYMBOL        buf
  X:8F15H         SYMBOL        len
  -------         DO            
  X:8F17H         SYMBOL        OS_addr
  X:8F19H         SYMBOL        OS_addr_offset
  X:8F1BH         SYMBOL        OS_len
  X:8F1DH         SYMBOL        OS_len_offset
  X:8F1FH         SYMBOL        LenLimit
  -------         ENDDO         
  C:8297H         LINE#         670
  C:82A8H         LINE#         671
  C:82A8H         LINE#         672
  C:82AFH         LINE#         673
  C:82B3H         LINE#         674
  C:82BBH         LINE#         676
  C:82C8H         LINE#         678
  C:82EAH         LINE#         679
BL51 BANKED LINKER/LOCATER V6.22.2.0                                                  07/08/2026  17:17:08  PAGE 40


  C:8309H         LINE#         680
  C:8309H         LINE#         681
  C:831AH         LINE#         682
  C:831AH         LINE#         683
  C:8335H         LINE#         684
  C:8347H         LINE#         688
  C:834AH         LINE#         689
  C:8355H         LINE#         690
  C:8357H         LINE#         692
  C:835AH         LINE#         693
  C:835DH         LINE#         695
  C:8360H         LINE#         696
  C:836AH         LINE#         697
  C:836AH         LINE#         698
  C:836CH         LINE#         699
  C:836FH         LINE#         700
  C:8384H         LINE#         701
  C:8399H         LINE#         702
  C:83A7H         LINE#         703
  C:83A7H         LINE#         704
  C:83BDH         LINE#         705
  C:83C7H         LINE#         706
  C:83D5H         LINE#         707
  C:83D5H         LINE#         708
  C:83D7H         LINE#         709
  C:83DAH         LINE#         710
  C:83EFH         LINE#         711
  C:8404H         LINE#         712
  C:8419H         LINE#         713
  C:842EH         LINE#         714
  C:8430H         LINE#         715
  C:843AH         LINE#         716
  C:843AH         LINE#         717
  C:843CH         LINE#         718
  C:843FH         LINE#         719
  C:8454H         LINE#         720
  C:8469H         LINE#         721
  C:8469H         LINE#         722
  C:846CH         LINE#         772
  -------         ENDPROC       _READ_DGUS_VP
  C:8F77H         SYMBOL        L?0114
  C:8F79H         SYMBOL        L?0115
  -------         PROC          L?0113
  -------         ENDPROC       L?0113
  C:8F77H         SYMBOL        L?0114
  C:8F79H         SYMBOL        L?0115
  -------         PROC          _WRITE_DGUS_VP
  X:8F89H         SYMBOL        addr
  X:8F8DH         SYMBOL        buf
  X:8F90H         SYMBOL        len
  -------         DO            
  D:0002H         SYMBOL        OS_addr
  X:8F92H         SYMBOL        OS_addr_offset
  X:8F94H         SYMBOL        OS_len
  X:8F96H         SYMBOL        OS_len_offset
  D:0006H         SYMBOL        LenLimit
  -------         ENDDO         
BL51 BANKED LINKER/LOCATER V6.22.2.0                                                  07/08/2026  17:17:08  PAGE 41


  C:8F7DH         LINE#         786
  C:8F8EH         LINE#         787
  C:8F8EH         LINE#         788
  C:8F91H         LINE#         789
  C:8F97H         LINE#         790
  C:8F9FH         LINE#         792
  C:8FACH         LINE#         794
  C:8FBDH         LINE#         795
  C:8FCAH         LINE#         796
  C:8FCAH         LINE#         797
  C:8FCFH         LINE#         798
  C:8FCFH         LINE#         799
  C:8FE6H         LINE#         800
  C:8FF8H         LINE#         805
  C:8FFBH         LINE#         806
  C:8FFEH         LINE#         807
  C:9002H         LINE#         809
  C:9005H         LINE#         810
  C:9008H         LINE#         860
  C:900BH         LINE#         861
  C:9015H         LINE#         862
  C:9015H         LINE#         863
  C:902AH         LINE#         864
  C:903FH         LINE#         865
  C:9041H         LINE#         866
  C:9044H         LINE#         867
  C:9052H         LINE#         868
  C:9052H         LINE#         869
  C:9068H         LINE#         870
  C:9072H         LINE#         871
  C:9075H         LINE#         872
  C:9083H         LINE#         873
  C:9083H         LINE#         874
  C:9098H         LINE#         875
  C:90ADH         LINE#         876
  C:90C2H         LINE#         877
  C:90D7H         LINE#         878
  C:90D9H         LINE#         879
  C:90DEH         LINE#         880
  C:90DEH         LINE#         881
  C:90E8H         LINE#         882
  C:90E8H         LINE#         883
  C:90EBH         LINE#         884
  C:9100H         LINE#         885
  C:9115H         LINE#         886
  C:9117H         LINE#         887
  C:911AH         LINE#         888
  C:911AH         LINE#         889
  C:911DH         LINE#         894
  -------         ENDPROC       _WRITE_DGUS_VP
  -------         PROC          T0_ISR_PC
  C:ACB7H         LINE#         909
  C:ACD4H         LINE#         911
  C:ACD6H         LINE#         912
  C:ACD9H         LINE#         913
  C:ACDCH         LINE#         915
  C:ACEAH         LINE#         916
BL51 BANKED LINKER/LOCATER V6.22.2.0                                                  07/08/2026  17:17:08  PAGE 42


  C:ACF8H         LINE#         917
  C:AD06H         LINE#         918
  C:AD14H         LINE#         919
  C:AD22H         LINE#         921
  C:AD30H         LINE#         922
  C:AD3EH         LINE#         923
  C:AD41H         LINE#         924
  C:AD41H         LINE#         925
  C:AD58H         LINE#         926
  C:AD66H         LINE#         927
  C:AD66H         LINE#         928
  C:AD70H         LINE#         929
  C:AD70H         LINE#         930
  C:AD87H         LINE#         931
  C:AD95H         LINE#         932
  C:AD95H         LINE#         933
  C:ADA4H         LINE#         934
  C:ADB0H         LINE#         936
  C:ADB2H         LINE#         937
  -------         ENDPROC       T0_ISR_PC
  -------         PROC          T1_ISR_PC
  C:E7D8H         LINE#         950
  C:E7EFH         LINE#         952
  C:E7F1H         LINE#         953
  C:E7F4H         LINE#         954
  C:E7F7H         LINE#         956
  C:E816H         LINE#         957
  C:E818H         LINE#         958
  -------         ENDPROC       T1_ISR_PC
  C:FECEH         SYMBOL        L?0117
  -------         PROC          L?0116
  -------         ENDPROC       L?0116
  C:FECEH         SYMBOL        L?0117
  -------         PROC          _DELAY_MS
  D:0006H         SYMBOL        n
  C:FED2H         LINE#         972
  C:FED2H         LINE#         973
  C:FED2H         LINE#         974
  C:FED6H         LINE#         975
  C:FEDCH         LINE#         976
  -------         ENDPROC       _DELAY_MS
  -------         PROC          T2_ISR_PC
  C:FDC7H         LINE#         988
  C:FDC9H         LINE#         990
  C:FDCBH         LINE#         991
  C:FDCDH         LINE#         992
  C:FDD5H         LINE#         993
  C:FDD7H         LINE#         994
  -------         ENDPROC       T2_ISR_PC
  -------         PROC          _PAGE_CHANGE_HANDLER
  D:0007H         SYMBOL        n
  C:EF4DH         LINE#         1025
  C:EF4DH         LINE#         1026
  C:EF4DH         LINE#         1044
  C:EF53H         LINE#         1045
  C:EF57H         LINE#         1046
  C:EF5AH         LINE#         1047
BL51 BANKED LINKER/LOCATER V6.22.2.0                                                  07/08/2026  17:17:08  PAGE 43


  C:EF5DH         LINE#         1048
  C:EF71H         LINE#         1050
  C:EF71H         LINE#         1051
  C:EF74H         LINE#         1052
  C:EF87H         LINE#         1053
  C:EF8DH         LINE#         1054
  -------         ENDPROC       _PAGE_CHANGE_HANDLER
  -------         PROC          _LANGUAGE_CHANGE
  D:0007H         SYMBOL        num
  -------         DO            
  X:8D82H         SYMBOL        Language_Change_Buffer
  -------         ENDDO         
  C:F823H         LINE#         1056
  C:F823H         LINE#         1057
  C:F823H         LINE#         1060
  C:F829H         LINE#         1061
  C:F82CH         LINE#         1062
  C:F82EH         LINE#         1063
  C:F831H         LINE#         1064
  -------         ENDPROC       _LANGUAGE_CHANGE
  -------         PROC          SCREENTIMEOUT_SET
  B:0023H.1       SYMBOL        enable
  -------         DO            
  X:8D82H         SYMBOL        ScreenTimeOut_Set_Temp
  -------         ENDDO         
  C:EE3CH         LINE#         1066
  C:EE3CH         LINE#         1067
  C:EE3CH         LINE#         1070
  C:EE52H         LINE#         1071
  C:EE59H         LINE#         1072
  C:EE5EH         LINE#         1074
  C:EE61H         LINE#         1075
  C:EE67H         LINE#         1076
  -------         ENDPROC       SCREENTIMEOUT_SET
  -------         ENDMOD        SYS

  -------         MODULE        CONTROL
  C:0000H         SYMBOL        _ICE_DUMMY_
  X:9480H         PUBLIC        ExternTimer
  X:9489H         SYMBOL        s_defrost_start_sec
  C:E534H         PUBLIC        _SetTempIntVpByMode
  X:948DH         PUBLIC        set_send_type
  D:0080H         PUBLIC        P0
  C:B521H         PUBLIC        _HomePage_UpdateModeAnimation
  C:7C1EH         SYMBOL        SyncTimerFromVp
  C:F4BFH         PUBLIC        _SetTempIntWrite
  D:00B0H         PUBLIC        P3
  C:ADCDH         PUBLIC        RTCdisplay4change
  C:EDBEH         SYMBOL        _Control_ClampSetTempCByMode
  C:F910H         PUBLIC        _IsItHomePage
  D:00F8H         PUBLIC        RAMMODE
  C:64AEH         PUBLIC        TempUnit_RefreshAll
  C:EE81H         PUBLIC        HomePage
  X:948EH         PUBLIC        getDar1
  C:CF9CH         PUBLIC        _SyncSetTempCachesFromC
  D:00A8H         PUBLIC        IEN0
  D:00B8H         PUBLIC        IEN1
BL51 BANKED LINKER/LOCATER V6.22.2.0                                                  07/08/2026  17:17:08  PAGE 44


  B:0024H.3       PUBLIC        LockKeyCountEnalbe
  X:9490H         PUBLIC        SetTempOld_HeatC
  C:B61CH         SYMBOL        _KeyAdjustSetTempForMode
  C:EDF6H         PUBLIC        _SetTempFloatWriteC
  C:F84BH         PUBLIC        OTAReload_DelayPage
  B:0024H.4       PUBLIC        OTAReload_Delay
  X:9491H         PUBLIC        SetTempOld_HeatF
  C:E6C7H         SYMBOL        _SyncTimerTempVpPair
  X:9492H         PUBLIC        HomePageID
  C:FAD6H         PUBLIC        _SetModeProcess
  X:949AH         PUBLIC        SetTempOld_CoolC
  C:A955H         SYMBOL        Timer_ApplyIndoorOn
  X:949BH         PUBLIC        Defrosting
  C:DFE1H         SYMBOL        TempUnit_RefreshActiveSetFromMode
  B:0024H.5       PUBLIC        WiFi_Tuya_Reseting
  X:949DH         PUBLIC        SetTempOld_CoolF
  C:FA0EH         PUBLIC        UnitChangePro
  C:9ABAH         SYMBOL        PrefillSetTempEditPage
  C:B712H         PUBLIC        Ready4WriteRTC
  X:949EH         PUBLIC        SetTempOld_AutoC
  X:949FH         PUBLIC        SetTempOld_AutoF
  C:CC6CH         SYMBOL        _Timer_IsExternalWeekdayMatch
  C:E337H         SYMBOL        _SyncIndoorSetTempVpPair
  C:F9ECH         PUBLIC        GetPageID
  X:94A0H         PUBLIC        ExternTimer1
  B:0024H.6       PUBLIC        Screensaver_Enable
  D:0088H         PUBLIC        TCON
  C:92C3H         SYMBOL        Defrost_CheckExit
  X:94AAH         PUBLIC        Language_Num
  X:94ACH         PUBLIC        Return_key_Set
  D:00C9H         PUBLIC        MUX_SEL
  C:FFB4H         SYMBOL        _?ix1000
  C:F386H         SYMBOL        _Control_ApplyChildLock
  C:0100H         PUBLIC        Control_Function1
  X:94AEH         PUBLIC        LockKeyCount
  C:FFB8H         SYMBOL        _?ix1001
  C:C275H         PUBLIC        _TempUnitTrans
  X:94B0H         PUBLIC        BeforeScreenSavePage
  C:E5FBH         SYMBOL        _Control_ClampModeSetTempVp
  C:F31BH         PUBLIC        Control_SanitizeSetTempIntVp
  B:0024H.7       PUBLIC        TimerEnable
  C:CB1EH         SYMBOL        _Timer_IsIndoorWeekdayMatch
  C:CA74H         PUBLIC        Control_LockKeyService
  X:94B1H         PUBLIC        Electric_Heating
  C:B319H         PUBLIC        HomePage_SyncIndoorDisplay
  X:94B3H         PUBLIC        key_down_delay
  X:94B5H         PUBLIC        SetTemp_HeatLower_C
  X:94B6H         PUBLIC        SetTemp_HeatLower_F
  X:94B7H         PUBLIC        SetTemp_HeatUpper_C
  C:D66AH         SYMBOL        _ReadTimerTempC
  X:94B8H         PUBLIC        SetTemp_HeatUpper_F
  X:94B9H         PUBLIC        key_dowm
  D:0098H         PUBLIC        SCON0
  C:F451H         PUBLIC        Wifi_Resting_Pro
  X:94BBH         PUBLIC        SetTemp_CoolLower_C
  D:00C8H         PUBLIC        T2CON
  X:94BCH         PUBLIC        SetTemp_CoolLower_F
BL51 BANKED LINKER/LOCATER V6.22.2.0                                                  07/08/2026  17:17:08  PAGE 45


  X:94BDH         PUBLIC        SetTemp_CoolUpper_C
  C:BBB2H         SYMBOL        _SyncHomeDisplayIfFirstIndoorModeChanged
  C:6D54H         PUBLIC        TimerRunning
  X:94BEH         PUBLIC        SetTemp_CoolUpper_F
  X:94BFH         PUBLIC        APP_down_delay
  X:94C1H         SYMBOL        s_lock_key_vp
  C:F488H         PUBLIC        _SetTempIntRead
  C:D870H         SYMBOL        _Control_GetSetTempCLimit
  X:94C3H         PUBLIC        Screensaver_Count
  C:FF5FH         PUBLIC        Control_ClearDefrostSession
  C:A5A8H         PUBLIC        HomePage_Icon
  X:94C5H         PUBLIC        value0F00
  C:E726H         SYMBOL        _TempUnit_RefreshFloatPair
  C:E4CFH         PUBLIC        GetValue0F00
  C:DAE3H         SYMBOL        Timer_ApplyIndoorOff
  C:6A9AH         PUBLIC        _Temp_Limit
  D:00D0H         PUBLIC        PSW
  C:A1C9H         PUBLIC        ScreenSaver_Pro
  D:00C0H         PUBLIC        IRCON
  -------         PROC          _SETTEMPINTVPBYMODE
  X:8E0AH         SYMBOL        mode
  D:0005H         SYMBOL        unit_f
  C:E534H         LINE#         53
  C:E539H         LINE#         54
  C:E539H         LINE#         55
  C:E54CH         LINE#         56
  C:E552H         LINE#         57
  C:E558H         LINE#         58
  C:E573H         LINE#         59
  C:E597H         LINE#         60
  -------         ENDPROC       _SETTEMPINTVPBYMODE
  -------         PROC          _CONTROL_GETSETTEMPCLIMIT
  D:0007H         SYMBOL        mode
  X:8E08H         SYMBOL        lo
  X:8E0BH         SYMBOL        hi
  C:D870H         LINE#         69
  C:D87BH         LINE#         70
  C:D87BH         LINE#         71
  C:D885H         LINE#         72
  C:D885H         LINE#         73
  C:D885H         LINE#         74
  C:D885H         LINE#         75
  C:D885H         LINE#         76
  C:D887H         LINE#         77
  C:D887H         LINE#         78
  C:D899H         LINE#         79
  C:D8A8H         LINE#         80
  C:D8AAH         LINE#         81
  C:D8AAH         LINE#         82
  C:D8BCH         LINE#         83
  C:D8CBH         LINE#         84
  C:D8CDH         LINE#         85
  C:D8DFH         LINE#         87
  C:D8F1H         LINE#         88
  C:D8F1H         LINE#         89
  C:D8F1H         LINE#         90
  -------         ENDPROC       _CONTROL_GETSETTEMPCLIMIT
BL51 BANKED LINKER/LOCATER V6.22.2.0                                                  07/08/2026  17:17:08  PAGE 46


  -------         PROC          L?0767
  -------         ENDPROC       L?0767
  -------         PROC          _CONTROL_CLAMPSETTEMPCBYMODE
  D:0007H         SYMBOL        mode
  D:0004H         SYMBOL        temp_c
  -------         DO            
  X:8E03H         SYMBOL        lo
  X:8E05H         SYMBOL        hi
  -------         ENDDO         
  C:EDBEH         LINE#         92
  C:EDBEH         LINE#         93
  C:EDBEH         LINE#         96
  C:EDD5H         LINE#         97
  C:EDF0H         LINE#         98
  C:EDF1H         LINE#         99
  C:EDF5H         LINE#         100
  -------         ENDPROC       _CONTROL_CLAMPSETTEMPCBYMODE
  -------         PROC          _CONTROL_APPLYCHILDLOCK
  X:8D75H         SYMBOL        locked
  C:F386H         LINE#         104
  C:F38EH         LINE#         105
  C:F38EH         LINE#         106
  C:F3A7H         LINE#         107
  C:F3B1H         LINE#         108
  C:F3B1H         LINE#         109
  C:F3B6H         LINE#         110
  C:F3B9H         LINE#         111
  C:F3B9H         LINE#         112
  -------         ENDPROC       _CONTROL_APPLYCHILDLOCK
  -------         PROC          _CONTROL_CLAMPMODESETTEMPVP
  X:8DFEH         SYMBOL        mode
  -------         DO            
  X:8DFFH         SYMBOL        temp_c
  X:8E01H         SYMBOL        temp_f
  -------         ENDDO         
  C:E5FBH         LINE#         114
  C:E600H         LINE#         115
  C:E600H         LINE#         119
  C:E615H         LINE#         121
  C:E626H         LINE#         122
  C:E636H         LINE#         123
  C:E643H         LINE#         124
  C:E64BH         LINE#         125
  C:E65DH         LINE#         126
  -------         ENDPROC       _CONTROL_CLAMPMODESETTEMPVP
  -------         PROC          CONTROL_LOCKKEYSERVICE
  -------         DO            
  B:0024H.2       SYMBOL        s_lock_done
  -------         DO            
  X:8D71H         SYMBOL        lock_st
  X:8D73H         SYMBOL        zero
  -------         ENDDO         
  -------         ENDDO         
  C:CA74H         LINE#         128
  C:CA74H         LINE#         129
  C:CA74H         LINE#         132
  C:CA7AH         LINE#         133
BL51 BANKED LINKER/LOCATER V6.22.2.0                                                  07/08/2026  17:17:08  PAGE 47


  C:CA7AH         LINE#         134
  C:CA92H         LINE#         135
  C:CA92H         LINE#         137
  C:CA99H         LINE#         139
  C:CA9BH         LINE#         140
  C:CAB3H         LINE#         141
  C:CACDH         LINE#         142
  C:CAD8H         LINE#         143
  C:CADBH         LINE#         144
  C:CADEH         LINE#         145
  C:CAE0H         LINE#         146
  C:CAE7H         LINE#         147
  C:CB00H         LINE#         148
  C:CB13H         LINE#         149
  C:CB1AH         LINE#         150
  C:CB1AH         LINE#         151
  C:CB1BH         LINE#         153
  C:CB1DH         LINE#         154
  -------         ENDPROC       CONTROL_LOCKKEYSERVICE
  -------         PROC          PREFILLSETTEMPEDITPAGE
  -------         DO            
  X:8D82H         SYMBOL        mode
  X:8D84H         SYMBOL        unit
  X:8D86H         SYMBOL        temp_c
  X:8D88H         SYMBOL        temp_f
  -------         ENDDO         
  C:9ABAH         LINE#         159
  C:9ABAH         LINE#         160
  C:9ABAH         LINE#         166
  C:9AD3H         LINE#         167
  C:9AECH         LINE#         168
  C:9AF4H         LINE#         169
  C:9B07H         LINE#         170
  C:9B1AH         LINE#         171
  C:9B25H         LINE#         172
  C:9B38H         LINE#         173
  C:9B45H         LINE#         174
  C:9B5AH         LINE#         175
  C:9B67H         LINE#         176
  C:9B72H         LINE#         177
  C:9B87H         LINE#         178
  C:9B93H         LINE#         179
  C:9BA6H         LINE#         180
  C:9BBFH         LINE#         181
  C:9BD8H         LINE#         182
  C:9BF1H         LINE#         183
  C:9BFBH         LINE#         184
  C:9BFBH         LINE#         185
  C:9C00H         LINE#         186
  C:9C10H         LINE#         187
  C:9C12H         LINE#         189
  C:9C12H         LINE#         190
  C:9C17H         LINE#         191
  C:9C30H         LINE#         192
  C:9C30H         LINE#         193
  -------         ENDPROC       PREFILLSETTEMPEDITPAGE
  -------         PROC          DEFROST_CHECKEXIT
BL51 BANKED LINKER/LOCATER V6.22.2.0                                                  07/08/2026  17:17:08  PAGE 48


  -------         DO            
  X:8D78H         SYMBOL        defrost_en
  X:8D7AH         SYMBOL        duration_min
  X:8D7CH         SYMBOL        evap_c
  X:8D80H         SYMBOL        t3_c
  C:9451H         SYMBOL        defrost_exit
  -------         ENDDO         
  C:92C3H         LINE#         195
  C:92C3H         LINE#         196
  C:92C3H         LINE#         202
  C:92D0H         LINE#         205
  C:92E9H         LINE#         206
  C:92F3H         LINE#         207
  C:92F3H         LINE#         208
  C:9300H         LINE#         209
  C:9306H         LINE#         211
  C:9306H         LINE#         213
  C:931FH         LINE#         214
  C:9329H         LINE#         215
  C:9341H         LINE#         216
  C:9369H         LINE#         217
  C:9369H         LINE#         218
  C:93B7H         LINE#         219
  C:93B7H         LINE#         220
  C:93B7H         LINE#         222
  C:93D1H         LINE#         223
  C:93EBH         LINE#         224
  C:942EH         LINE#         226
  C:9451H         LINE#         227
  C:9451H         LINE#         230
  C:9451H         LINE#         231
  C:9451H         LINE#         232
  C:9457H         LINE#         233
  C:9461H         LINE#         234
  C:9463H         LINE#         235
  C:9466H         LINE#         236
  C:9466H         LINE#         237
  -------         ENDPROC       DEFROST_CHECKEXIT
  -------         PROC          CONTROL_CLEARDEFROSTSESSION
  C:FF5FH         LINE#         239
  C:FF5FH         LINE#         240
  C:FF5FH         LINE#         241
  C:FF69H         LINE#         242
  -------         ENDPROC       CONTROL_CLEARDEFROSTSESSION
  -------         PROC          L?0766
  -------         ENDPROC       L?0766
  -------         PROC          _SETTEMPINTREAD
  D:0007H         SYMBOL        mode
  D:0005H         SYMBOL        unit_f
  -------         DO            
  X:8E03H         SYMBOL        temp
  D:0004H         SYMBOL        vp
  -------         ENDDO         
  C:F488H         LINE#         244
  C:F488H         LINE#         245
  C:F488H         LINE#         246
  C:F48FH         LINE#         247
BL51 BANKED LINKER/LOCATER V6.22.2.0                                                  07/08/2026  17:17:08  PAGE 49


  C:F492H         LINE#         249
  C:F498H         LINE#         250
  C:F4A9H         LINE#         251
  C:F4B1H         LINE#         252
  -------         ENDPROC       _SETTEMPINTREAD
  C:F4B7H         SYMBOL        L?0760
  C:F4B8H         SYMBOL        L?0761
  -------         PROC          L?0759
  -------         ENDPROC       L?0759
  C:F4B7H         SYMBOL        L?0760
  C:F4B8H         SYMBOL        L?0761
  -------         PROC          _SETTEMPINTWRITE
  D:0007H         SYMBOL        mode
  D:0005H         SYMBOL        unit_f
  X:8E08H         SYMBOL        temp
  -------         DO            
  D:0004H         SYMBOL        vp
  -------         ENDDO         
  C:F4BFH         LINE#         254
  C:F4C7H         LINE#         255
  C:F4C7H         LINE#         256
  C:F4CAH         LINE#         258
  C:F4D0H         LINE#         259
  C:F4E1H         LINE#         260
  -------         ENDPROC       _SETTEMPINTWRITE
  -------         PROC          _SETTEMPFLOATWRITEC
  X:8D82H         SYMBOL        mode
  X:8D83H         SYMBOL        temp_c
  -------         DO            
  X:8D87H         SYMBOL        temp_f
  X:8D89H         SYMBOL        ic
  -------         ENDDO         
  C:EDF6H         LINE#         262
  C:EDFBH         LINE#         263
  C:EDFBH         LINE#         267
  C:EE12H         LINE#         268
  C:EE1FH         LINE#         269
  C:EE2AH         LINE#         270
  -------         ENDPROC       _SETTEMPFLOATWRITEC
  C:E720H         SYMBOL        L?0763
  C:E722H         SYMBOL        L?0764
  -------         PROC          L?0762
  -------         ENDPROC       L?0762
  C:E720H         SYMBOL        L?0763
  C:E722H         SYMBOL        L?0764
  -------         PROC          _TEMPUNIT_REFRESHFLOATPAIR
  D:0004H         SYMBOL        vp_c
  X:8E02H         SYMBOL        vp_f
  -------         DO            
  X:8E06H         SYMBOL        fc
  X:8E0AH         SYMBOL        ff
  -------         ENDDO         
  C:E726H         LINE#         273
  C:E726H         LINE#         274
  C:E726H         LINE#         278
  C:E738H         LINE#         279
  C:E75CH         LINE#         280
BL51 BANKED LINKER/LOCATER V6.22.2.0                                                  07/08/2026  17:17:08  PAGE 50


  -------         ENDPROC       _TEMPUNIT_REFRESHFLOATPAIR
  -------         PROC          _SYNCINDOORSETTEMPVPPAIR
  X:8DFEH         SYMBOL        index
  X:8DFFH         SYMBOL        temp_c
  -------         DO            
  X:8E01H         SYMBOL        temp_f
  -------         ENDDO         
  C:E337H         LINE#         283
  C:E344H         LINE#         284
  C:E344H         LINE#         287
  C:E34DH         LINE#         289
  C:E360H         LINE#         290
  C:E37EH         LINE#         291
  C:E39CH         LINE#         292
  -------         ENDPROC       _SYNCINDOORSETTEMPVPPAIR
  -------         PROC          L?0768
  -------         ENDPROC       L?0768
  -------         PROC          _SYNCTIMERTEMPVPPAIR
  X:8DFEH         SYMBOL        vp_c
  X:8E02H         SYMBOL        vp_f
  X:8E06H         SYMBOL        temp_c
  -------         DO            
  X:8E08H         SYMBOL        temp_f
  -------         ENDDO         
  C:E6C7H         LINE#         294
  C:E6CDH         LINE#         295
  C:E6CDH         LINE#         298
  C:E6E2H         LINE#         299
  C:E701H         LINE#         300
  -------         ENDPROC       _SYNCTIMERTEMPVPPAIR
  -------         PROC          L?0769
  -------         ENDPROC       L?0769
  -------         PROC          _READTIMERTEMPC
  X:8D7AH         SYMBOL        vp_c
  X:8D7EH         SYMBOL        vp_f
  -------         DO            
  X:8D82H         SYMBOL        unit
  X:8D84H         SYMBOL        temp_c
  X:8D86H         SYMBOL        temp_f
  -------         ENDDO         
  C:D66AH         LINE#         303
  C:D670H         LINE#         304
  C:D670H         LINE#         309
  C:D689H         LINE#         310
  C:D693H         LINE#         311
  C:D693H         LINE#         312
  C:D6B2H         LINE#         313
  C:D6BFH         LINE#         314
  C:D6BFH         LINE#         315
  C:D6DEH         LINE#         316
  C:D6E6H         LINE#         317
  -------         ENDPROC       _READTIMERTEMPC
  -------         PROC          _KEYADJUSTSETTEMPFORMODE
  X:8D82H         SYMBOL        mode
  X:8D83H         SYMBOL        delta
  -------         DO            
  X:8D85H         SYMBOL        unit
BL51 BANKED LINKER/LOCATER V6.22.2.0                                                  07/08/2026  17:17:08  PAGE 51


  X:8D87H         SYMBOL        temp
  X:8D89H         SYMBOL        vp
  -------         ENDDO         
  C:B61CH         LINE#         319
  C:B627H         LINE#         320
  C:B627H         LINE#         325
  C:B640H         LINE#         326
  C:B654H         LINE#         327
  C:B66BH         LINE#         329
  C:B67CH         LINE#         330
  C:B696H         LINE#         331
  C:B6B3H         LINE#         332
  C:B6D0H         LINE#         333
  C:B6EFH         LINE#         334
  C:B6FCH         LINE#         335
  C:B701H         LINE#         337
  C:B709H         LINE#         338
  C:B70BH         LINE#         339
  C:B70EH         LINE#         340
  C:B711H         LINE#         341
  -------         ENDPROC       _KEYADJUSTSETTEMPFORMODE
  -------         PROC          _HOMEPAGE_UPDATEMODEANIMATION
  D:0007H         SYMBOL        mode
  -------         DO            
  X:8E21H         SYMBOL        icon_start
  X:8E23H         SYMBOL        icon_end
  X:8E25H         SYMBOL        anim_val
  -------         ENDDO         
  C:B521H         LINE#         343
  C:B521H         LINE#         344
  C:B521H         LINE#         349
  C:B52BH         LINE#         350
  C:B52DH         LINE#         351
  C:B53BH         LINE#         352
  C:B53BH         LINE#         353
  C:B53BH         LINE#         354
  C:B544H         LINE#         355
  C:B54BH         LINE#         356
  C:B54DH         LINE#         357
  C:B54DH         LINE#         358
  C:B556H         LINE#         359
  C:B55DH         LINE#         360
  C:B55FH         LINE#         361
  C:B55FH         LINE#         362
  C:B568H         LINE#         363
  C:B56FH         LINE#         364
  C:B571H         LINE#         365
  C:B571H         LINE#         366
  C:B579H         LINE#         367
  C:B580H         LINE#         368
  C:B582H         LINE#         369
  C:B582H         LINE#         370
  C:B58BH         LINE#         371
  C:B592H         LINE#         372
  C:B592H         LINE#         373
  C:B592H         LINE#         375
  C:B5ABH         LINE#         376
BL51 BANKED LINKER/LOCATER V6.22.2.0                                                  07/08/2026  17:17:08  PAGE 52


  C:B5C4H         LINE#         377
  C:B5DDH         LINE#         379
  C:B5E5H         LINE#         380
  C:B5FDH         LINE#         381
  C:B604H         LINE#         382
  -------         ENDPROC       _HOMEPAGE_UPDATEMODEANIMATION
  -------         PROC          _SYNCHOMEDISPLAYIFFIRSTINDOORMODECHANGED
  X:8D82H         SYMBOL        unit_idx
  -------         DO            
  X:8D83H         SYMBOL        i
  X:8D84H         SYMBOL        first_on
  X:8D85H         SYMBOL        power
  X:8D87H         SYMBOL        mode
  -------         ENDDO         
  C:BBB2H         LINE#         385
  C:BBB7H         LINE#         386
  C:BBB7H         LINE#         388
  C:BBBDH         LINE#         392
  C:BBCAH         LINE#         394
  C:BBDDH         LINE#         395
  C:BBDDH         LINE#         396
  C:BBF8H         LINE#         397
  C:BC04H         LINE#         398
  C:BC04H         LINE#         399
  C:BC0AH         LINE#         400
  C:BC0CH         LINE#         401
  C:BC0CH         LINE#         402
  C:BC14H         LINE#         403
  C:BC24H         LINE#         406
  C:BC3FH         LINE#         407
  C:BC4EH         LINE#         408
  C:BC52H         LINE#         409
  C:BC75H         LINE#         410
  C:BC8DH         LINE#         411
  C:BC96H         LINE#         412
  -------         ENDPROC       _SYNCHOMEDISPLAYIFFIRSTINDOORMODECHANGED
  -------         PROC          GETVALUE0F00
  -------         DO            
  X:8D82H         SYMBOL        cleanData
  -------         ENDDO         
  C:E4CFH         LINE#         467
  C:E4CFH         LINE#         468
  C:E4CFH         LINE#         469
  C:E4E2H         LINE#         470
  C:E4FCH         LINE#         471
  C:E504H         LINE#         472
  C:E504H         LINE#         473
  C:E514H         LINE#         474
  C:E52EH         LINE#         475
  C:E531H         LINE#         476
  C:E531H         LINE#         477
  C:E533H         LINE#         478
  -------         ENDPROC       GETVALUE0F00
  -------         PROC          GETPAGEID
  -------         DO            
  X:8DF3H         SYMBOL        usPID
  -------         ENDDO         
BL51 BANKED LINKER/LOCATER V6.22.2.0                                                  07/08/2026  17:17:08  PAGE 53


  C:F9ECH         LINE#         479
  C:F9ECH         LINE#         480
  C:F9ECH         LINE#         482
  C:FA05H         LINE#         483
  C:FA0DH         LINE#         484
  -------         ENDPROC       GETPAGEID
  -------         PROC          CONTROL_FUNCTION1
  -------         DO            
  X:8D71H         SYMBOL        LockFlag
  X:8D73H         SYMBOL        Control_u16temp
  X:8D75H         SYMBOL        Control_s16temp
  X:8D77H         SYMBOL        i
  -------         DO            
  X:8D78H         SYMBOL        unit
  X:8D7AH         SYMBOL        temp_c
  X:8D7CH         SYMBOL        power_mode
  X:8D78H         SYMBOL        mode
  X:9470H         SYMBOL        s_4021_last_cmd
  X:8D78H         SYMBOL        i
  X:8D79H         SYMBOL        CF
  X:8D78H         SYMBOL        unit_sel
  -------         ENDDO         
  -------         DO            
  X:8D78H         SYMBOL        mode
  X:9470H         SYMBOL        s_4021_last_cmd
  X:8D78H         SYMBOL        i
  X:8D79H         SYMBOL        CF
  X:8D78H         SYMBOL        unit_sel
  -------         ENDDO         
  -------         DO            
  X:8D78H         SYMBOL        i
  X:8D79H         SYMBOL        CF
  X:8D78H         SYMBOL        unit_sel
  -------         ENDDO         
  -------         DO            
  X:8D78H         SYMBOL        unit_sel
  -------         ENDDO         
  -------         DO            
  X:8D78H         SYMBOL        SaveSetTemp_u16tempC
  X:8D7AH         SYMBOL        SaveSetTemp_u16tempF
  X:8D7CH         SYMBOL        SaveSetTemp_u16temp
  X:8D7EH         SYMBOL        SaveSetTemp_u16mode
  X:8D78H         SYMBOL        Enable_Memory
  X:8D78H         SYMBOL        SaveSetTemp_u16mode
  X:8D7AH         SYMBOL        SaveSetTemp_u16mode1
  X:8D78H         SYMBOL        idx
  X:8D79H         SYMBOL        temp_f
  X:8D7BH         SYMBOL        temp_c
  X:8D78H         SYMBOL        temp_f
  X:8D7AH         SYMBOL        temp_c
  X:8D78H         SYMBOL        temp_f
  X:8D7AH         SYMBOL        temp_c
  -------         DO            
  X:8D80H         SYMBOL        save_mode
  -------         ENDDO         
  -------         ENDDO         
  -------         DO            
BL51 BANKED LINKER/LOCATER V6.22.2.0                                                  07/08/2026  17:17:08  PAGE 54


  X:8D78H         SYMBOL        Enable_Memory
  X:8D78H         SYMBOL        SaveSetTemp_u16mode
  X:8D7AH         SYMBOL        SaveSetTemp_u16mode1
  X:8D78H         SYMBOL        idx
  X:8D79H         SYMBOL        temp_f
  X:8D7BH         SYMBOL        temp_c
  X:8D78H         SYMBOL        temp_f
  X:8D7AH         SYMBOL        temp_c
  X:8D78H         SYMBOL        temp_f
  X:8D7AH         SYMBOL        temp_c
  -------         ENDDO         
  -------         DO            
  X:8D78H         SYMBOL        SaveSetTemp_u16mode
  X:8D7AH         SYMBOL        SaveSetTemp_u16mode1
  X:8D78H         SYMBOL        idx
  X:8D79H         SYMBOL        temp_f
  X:8D7BH         SYMBOL        temp_c
  X:8D78H         SYMBOL        temp_f
  X:8D7AH         SYMBOL        temp_c
  X:8D78H         SYMBOL        temp_f
  X:8D7AH         SYMBOL        temp_c
  -------         ENDDO         
  -------         DO            
  X:8D78H         SYMBOL        idx
  X:8D79H         SYMBOL        temp_f
  X:8D7BH         SYMBOL        temp_c
  X:8D78H         SYMBOL        temp_f
  X:8D7AH         SYMBOL        temp_c
  X:8D78H         SYMBOL        temp_f
  X:8D7AH         SYMBOL        temp_c
  -------         ENDDO         
  -------         DO            
  X:8D78H         SYMBOL        temp_f
  X:8D7AH         SYMBOL        temp_c
  X:8D78H         SYMBOL        temp_f
  X:8D7AH         SYMBOL        temp_c
  -------         ENDDO         
  -------         DO            
  X:8D78H         SYMBOL        temp_f
  X:8D7AH         SYMBOL        temp_c
  -------         ENDDO         
  -------         DO            
  X:8D78H         SYMBOL        para_idx
  -------         ENDDO         
  -------         ENDDO         
  C:0100H         LINE#         486
  C:0100H         LINE#         487
  C:0100H         LINE#         492
  C:0119H         LINE#         493
  C:0128H         LINE#         494
  C:012EH         LINE#         495
  C:012EH         LINE#         496
  C:0135H         LINE#         497
  C:0339H         LINE#         498
  C:0339H         LINE#         499
  C:0339H         LINE#         500
  C:0339H         LINE#         501
BL51 BANKED LINKER/LOCATER V6.22.2.0                                                  07/08/2026  17:17:08  PAGE 55


  C:033CH         LINE#         502
  C:033CH         LINE#         503
  C:0349H         LINE#         504
  C:0349H         LINE#         505
  C:0361H         LINE#         506
  C:036BH         LINE#         507
  C:036EH         LINE#         509
  C:0370H         LINE#         510
  C:0370H         LINE#         511
  C:0373H         LINE#         512
  C:0373H         LINE#         513
  C:0380H         LINE#         514
  C:0398H         LINE#         515
  C:03A2H         LINE#         516
  C:03A7H         LINE#         518
  C:03A9H         LINE#         519
  C:03A9H         LINE#         520
  C:03ACH         LINE#         521
  C:03ACH         LINE#         522
  C:03B9H         LINE#         523
  C:03BBH         LINE#         524
  C:03BEH         LINE#         525
  C:03BEH         LINE#         526
  C:03C8H         LINE#         527
  C:03D0H         LINE#         529
  C:03D5H         LINE#         530
  C:03D8H         LINE#         531
  C:03D8H         LINE#         532
  C:03F1H         LINE#         533
  C:0407H         LINE#         534
  C:0407H         LINE#         535
  C:040AH         LINE#         536
  C:0411H         LINE#         537
  C:0422H         LINE#         538
  C:0422H         LINE#         539
  C:0425H         LINE#         540
  C:0425H         LINE#         541
  C:0425H         LINE#         542
  C:0425H         LINE#         543
  C:0425H         LINE#         544
  C:0428H         LINE#         545
  C:0428H         LINE#         549
  C:042AH         LINE#         550
  C:0443H         LINE#         551
  C:0456H         LINE#         552
  C:0456H         LINE#         553
  C:0456H         LINE#         554
  C:0456H         LINE#         555
  C:045DH         LINE#         556
  C:045DH         LINE#         557
  C:0460H         LINE#         558
  C:0469H         LINE#         559
  C:046BH         LINE#         561
  C:046BH         LINE#         562
  C:0470H         LINE#         563
  C:0488H         LINE#         564
  C:0488H         LINE#         565
BL51 BANKED LINKER/LOCATER V6.22.2.0                                                  07/08/2026  17:17:08  PAGE 56


  C:04A1H         LINE#         566
  C:04ADH         LINE#         567
  C:04ADH         LINE#         568
  C:04BAH         LINE#         569
  C:04BDH         LINE#         570
  C:04CBH         LINE#         571
  C:04D6H         LINE#         572
  C:04D6H         LINE#         573
  C:04D8H         LINE#         574
  C:04E4H         LINE#         575
  C:04E4H         LINE#         576
  C:04F1H         LINE#         577
  C:04F4H         LINE#         578
  C:0502H         LINE#         579
  C:050DH         LINE#         580
  C:050DH         LINE#         581
  C:050FH         LINE#         582
  C:051BH         LINE#         583
  C:051BH         LINE#         584
  C:052EH         LINE#         585
  C:0531H         LINE#         586
  C:053FH         LINE#         587
  C:054AH         LINE#         588
  C:054DH         LINE#         589
  C:054DH         LINE#         590
  C:0550H         LINE#         591
  C:0553H         LINE#         592
  C:0556H         LINE#         593
  C:0556H         LINE#         594
  C:0556H         LINE#         595
  C:0559H         LINE#         596
  C:0559H         LINE#         597
  C:055CH         LINE#         598
  C:0561H         LINE#         599
  C:0564H         LINE#         600
  C:0567H         LINE#         601
  C:056AH         LINE#         602
  C:056DH         LINE#         603
  C:0570H         LINE#         604
  C:0570H         LINE#         608
  C:0589H         LINE#         609
  C:059CH         LINE#         610
  C:059CH         LINE#         611
  C:059CH         LINE#         612
  C:059CH         LINE#         613
  C:05AFH         LINE#         614
  C:05AFH         LINE#         615
  C:05B7H         LINE#         616
  C:05D0H         LINE#         617
  C:05DAH         LINE#         618
  C:05DAH         LINE#         619
  C:05E0H         LINE#         620
  C:05E9H         LINE#         621
  C:05EBH         LINE#         622
  C:05F5H         LINE#         623
  C:05F5H         LINE#         624
  C:05FCH         LINE#         625
BL51 BANKED LINKER/LOCATER V6.22.2.0                                                  07/08/2026  17:17:08  PAGE 57


  C:0614H         LINE#         626
  C:0614H         LINE#         627
  C:0617H         LINE#         628
  C:061AH         LINE#         629
  C:061DH         LINE#         630
  C:061DH         LINE#         631
  C:061DH         LINE#         632
  C:0620H         LINE#         633
  C:0620H         LINE#         634
  C:0625H         LINE#         635
  C:063EH         LINE#         636
  C:064AH         LINE#         637
  C:0662H         LINE#         638
  C:067BH         LINE#         640
  C:0682H         LINE#         641
  C:069AH         LINE#         642
  C:06ACH         LINE#         643
  C:06AFH         LINE#         644
  C:06BBH         LINE#         645
  C:06D2H         LINE#         646
  C:06EBH         LINE#         648
  C:0704H         LINE#         649
  C:0716H         LINE#         650
  C:0719H         LINE#         651
  C:0725H         LINE#         652
  C:073DH         LINE#         653
  C:0756H         LINE#         655
  C:076FH         LINE#         656
  C:0781H         LINE#         657
  C:0784H         LINE#         658
  C:0790H         LINE#         659
  C:07A8H         LINE#         660
  C:07C1H         LINE#         662
  C:07DAH         LINE#         663
  C:07ECH         LINE#         664
  C:07EFH         LINE#         665
  C:07FBH         LINE#         666
  C:0813H         LINE#         667
  C:082CH         LINE#         669
  C:0845H         LINE#         670
  C:0857H         LINE#         671
  C:085AH         LINE#         672
  C:0869H         LINE#         673
  C:0881H         LINE#         674
  C:089AH         LINE#         676
  C:08B3H         LINE#         677
  C:08C5H         LINE#         678
  C:08C5H         LINE#         681
  C:08C8H         LINE#         682
  C:08C8H         LINE#         683
  C:08CAH         LINE#         684
  C:08CDH         LINE#         685
  C:08CDH         LINE#         686
  C:08D2H         LINE#         688
  C:08EAH         LINE#         689
  C:0903H         LINE#         690
  C:090FH         LINE#         691
BL51 BANKED LINKER/LOCATER V6.22.2.0                                                  07/08/2026  17:17:08  PAGE 58


  C:090FH         LINE#         692
  C:0921H         LINE#         693
  C:093CH         LINE#         694
  C:095AH         LINE#         695
  C:0962H         LINE#         696
  C:096EH         LINE#         697
  C:0973H         LINE#         699
  C:0975H         LINE#         700
  C:0978H         LINE#         701
  C:0978H         LINE#         702
  C:098BH         LINE#         703
  C:09A6H         LINE#         704
  C:09C4H         LINE#         705
  C:09CCH         LINE#         706
  C:09D8H         LINE#         707
  C:09DDH         LINE#         709
  C:09DFH         LINE#         710
  C:09DFH         LINE#         711
  C:09DFH         LINE#         712
  C:09E2H         LINE#         713
  C:09E2H         LINE#         714
  C:09E5H         LINE#         715
  C:09E8H         LINE#         716
  C:09E8H         LINE#         717
  C:09EBH         LINE#         718
  C:09EEH         LINE#         719
  C:09EEH         LINE#         720
  C:0A07H         LINE#         721
  C:0A13H         LINE#         722
  C:0A2BH         LINE#         723
  C:0A37H         LINE#         724
  C:0A3CH         LINE#         726
  C:0A3EH         LINE#         727
  C:0A41H         LINE#         728
  C:0A50H         LINE#         729
  C:0A68H         LINE#         730
  C:0A74H         LINE#         731
  C:0A79H         LINE#         733
  C:0A7BH         LINE#         734
  C:0A7BH         LINE#         735
  C:0A7EH         LINE#         736
  C:0A7EH         LINE#         737
  C:0A83H         LINE#         738
  C:0A9CH         LINE#         739
  C:0AB5H         LINE#         741
  C:0ACEH         LINE#         742
  C:0AE0H         LINE#         743
  C:0AE3H         LINE#         744
  C:0AE3H         LINE#         745
  C:0AE3H         LINE#         747
  C:0AFCH         LINE#         748
  C:0B07H         LINE#         749
  C:0B0CH         LINE#         750
  C:0B11H         LINE#         751
  C:0B2AH         LINE#         752
  C:0B43H         LINE#         754
  C:0B5CH         LINE#         755
BL51 BANKED LINKER/LOCATER V6.22.2.0                                                  07/08/2026  17:17:08  PAGE 59


  C:0B6CH         LINE#         756
  C:0B7BH         LINE#         757
  C:0B80H         LINE#         758
  C:0B99H         LINE#         759
  C:0BB1H         LINE#         761
  C:0BCAH         LINE#         762
  C:0BDAH         LINE#         763
  C:0BE9H         LINE#         764
  C:0BEEH         LINE#         765
  C:0C07H         LINE#         766
  C:0C20H         LINE#         768
  C:0C39H         LINE#         769
  C:0C49H         LINE#         770
  C:0C58H         LINE#         771
  C:0C5DH         LINE#         772
  C:0C76H         LINE#         773
  C:0C8FH         LINE#         775
  C:0CA8H         LINE#         776
  C:0CB8H         LINE#         777
  C:0CC7H         LINE#         778
  C:0CCCH         LINE#         779
  C:0CE5H         LINE#         780
  C:0CFEH         LINE#         782
  C:0D17H         LINE#         783
  C:0D27H         LINE#         784
  C:0D35H         LINE#         785
  C:0D3AH         LINE#         786
  C:0D53H         LINE#         787
  C:0D6CH         LINE#         789
  C:0D85H         LINE#         790
  C:0D9EH         LINE#         791
  C:0D9EH         LINE#         792
  C:0DA1H         LINE#         793
  C:0DC1H         LINE#         794
  C:0DC1H         LINE#         795
  C:0DCBH         LINE#         796
  C:0DD6H         LINE#         797
  C:0DD6H         LINE#         798
  C:0DD6H         LINE#         799
  C:0DD9H         LINE#         800
  C:0DD9H         LINE#         801
  C:0DF2H         LINE#         802
  C:0E01H         LINE#         803
  C:0E03H         LINE#         804
  C:0E05H         LINE#         805
  C:0E05H         LINE#         806
  C:0E1EH         LINE#         807
  C:0E2DH         LINE#         808
  C:0E33H         LINE#         809
  C:0E36H         LINE#         810
  C:0E36H         LINE#         811
  C:0E4FH         LINE#         812
  C:0E5EH         LINE#         813
  C:0E64H         LINE#         814
  C:0E67H         LINE#         815
  C:0E67H         LINE#         816
  C:0E80H         LINE#         817
BL51 BANKED LINKER/LOCATER V6.22.2.0                                                  07/08/2026  17:17:08  PAGE 60


  C:0E8FH         LINE#         818
  C:0E94H         LINE#         819
  C:0E96H         LINE#         820
  C:0E96H         LINE#         821
  C:0EAFH         LINE#         822
  C:0EBEH         LINE#         823
  C:0EC3H         LINE#         824
  C:0EC5H         LINE#         825
  C:0EC5H         LINE#         826
  C:0EDEH         LINE#         827
  C:0EEDH         LINE#         828
  C:0EF6H         LINE#         829
  C:0EF9H         LINE#         834
  C:0EF9H         LINE#         835
  C:0EFCH         LINE#         836
  C:0EFFH         LINE#         837
  C:0EFFH         LINE#         844
  C:0F18H         LINE#         845
  C:0F27H         LINE#         846
  C:0F27H         LINE#         847
  C:0F3DH         LINE#         848
  C:0F56H         LINE#         849
  C:0F6BH         LINE#         850
  C:0F84H         LINE#         851
  C:0F9DH         LINE#         852
  C:0FA3H         LINE#         853
  C:0FB6H         LINE#         854
  C:0FD5H         LINE#         855
  C:0FD7H         LINE#         856
  C:0FDAH         LINE#         858
  C:0FDAH         LINE#         860
  C:0FF1H         LINE#         861
  C:100AH         LINE#         862
  C:1018H         LINE#         863
  C:1031H         LINE#         864
  C:104AH         LINE#         865
  C:1050H         LINE#         866
  C:1063H         LINE#         867
  C:1082H         LINE#         868
  C:1087H         LINE#         869
  C:1087H         LINE#         870
  C:1089H         LINE#         871
  C:108CH         LINE#         872
  C:108FH         LINE#         873
  C:108FH         LINE#         874
  C:1092H         LINE#         875
  C:1092H         LINE#         876
  C:10ABH         LINE#         877
  C:10B6H         LINE#         878
  C:10B8H         LINE#         879
  C:10BBH         LINE#         880
  C:10BEH         LINE#         881
  C:10C1H         LINE#         896
  C:10C1H         LINE#         897
  C:10C6H         LINE#         898
  C:10C9H         LINE#         899
  C:10CCH         LINE#         900
BL51 BANKED LINKER/LOCATER V6.22.2.0                                                  07/08/2026  17:17:08  PAGE 61


  C:10CCH         LINE#         901
  C:10E5H         LINE#         902
  C:10F5H         LINE#         903
  C:10F8H         LINE#         904
  C:10F8H         LINE#         905
  C:10FBH         LINE#         919
  C:10FBH         LINE#         920
  C:1104H         LINE#         921
  C:1107H         LINE#         922
  C:110AH         LINE#         923
  C:110DH         LINE#         932
  C:110DH         LINE#         933
  C:1126H         LINE#         934
  C:113FH         LINE#         935
  C:1148H         LINE#         936
  C:1148H         LINE#         937
  C:114BH         LINE#         938
  C:114BH         LINE#         939
  C:1152H         LINE#         940
  C:116AH         LINE#         941
  C:1183H         LINE#         942
  C:1186H         LINE#         943
  C:1189H         LINE#         944
  C:118CH         LINE#         945
  C:118CH         LINE#         946
  C:118FH         LINE#         947
  C:118FH         LINE#         948
  C:1191H         LINE#         949
  C:1194H         LINE#         950
  C:1194H         LINE#         951
  C:1197H         LINE#         952
  C:119AH         LINE#         953
  C:119DH         LINE#         954
  C:119FH         LINE#         955
  C:11A2H         LINE#         956
  C:11A2H         LINE#         957
  C:11A4H         LINE#         958
  C:11A7H         LINE#         959
  C:11A7H         LINE#         960
  C:11C0H         LINE#         961
  C:11CAH         LINE#         962
  C:11CFH         LINE#         964
  C:11D1H         LINE#         965
  C:11D4H         LINE#         966
  C:11D4H         LINE#         967
  C:11EDH         LINE#         968
  C:11F7H         LINE#         969
  C:11FCH         LINE#         971
  C:11FEH         LINE#         972
  C:1201H         LINE#         973
  C:1201H         LINE#         974
  C:121AH         LINE#         975
  C:1224H         LINE#         976
  C:1229H         LINE#         978
  C:122BH         LINE#         979
  C:122EH         LINE#         980
  C:122EH         LINE#         981
BL51 BANKED LINKER/LOCATER V6.22.2.0                                                  07/08/2026  17:17:08  PAGE 62


  C:1247H         LINE#         982
  C:1256H         LINE#         983
  C:126EH         LINE#         984
  C:127AH         LINE#         985
  C:127AH         LINE#         986
  C:1292H         LINE#         987
  C:12ABH         LINE#         988
  C:12C4H         LINE#         989
  C:12DDH         LINE#         990
  C:12E0H         LINE#         991
  C:12E0H         LINE#         992
  C:12E2H         LINE#         993
  C:12E5H         LINE#         994
  C:12F4H         LINE#         995
  C:130CH         LINE#         996
  C:1318H         LINE#         997
  C:1318H         LINE#         998
  C:1330H         LINE#         999
  C:1349H         LINE#         1000
  C:1362H         LINE#         1001
  C:137BH         LINE#         1002
  C:137EH         LINE#         1003
  C:137EH         LINE#         1004
  C:1380H         LINE#         1005
  C:1383H         LINE#         1006
  C:1392H         LINE#         1007
  C:13AAH         LINE#         1008
  C:13B6H         LINE#         1009
  C:13B6H         LINE#         1010
  C:13CEH         LINE#         1011
  C:13E7H         LINE#         1012
  C:1400H         LINE#         1013
  C:1419H         LINE#         1014
  C:141CH         LINE#         1015
  C:141CH         LINE#         1016
  C:141EH         LINE#         1017
  C:1421H         LINE#         1018
  C:1430H         LINE#         1019
  C:1448H         LINE#         1020
  C:1454H         LINE#         1021
  C:1454H         LINE#         1022
  C:146CH         LINE#         1023
  C:1485H         LINE#         1024
  C:149EH         LINE#         1025
  C:14B7H         LINE#         1026
  C:14BAH         LINE#         1027
  C:14BAH         LINE#         1028
  C:14BCH         LINE#         1029
  C:14BCH         LINE#         1030
  C:14BFH         LINE#         1031
  C:14BFH         LINE#         1032
  C:14D8H         LINE#         1033
  C:14E2H         LINE#         1034
  C:14E6H         LINE#         1036
  C:14EBH         LINE#         1037
  C:14EEH         LINE#         1038
  C:14F1H         LINE#         1039
BL51 BANKED LINKER/LOCATER V6.22.2.0                                                  07/08/2026  17:17:08  PAGE 63


  C:14F1H         LINE#         1040
  C:14F1H         LINE#         1041
  C:14F1H         LINE#         1042
  C:150CH         LINE#         1043
  C:1516H         LINE#         1044
  C:1516H         LINE#         1045
  C:151CH         LINE#         1046
  C:151CH         LINE#         1047
  C:151EH         LINE#         1048
  C:1525H         LINE#         1049
  C:1534H         LINE#         1050
  C:1534H         LINE#         1051
  C:1537H         LINE#         1052
  C:1549H         LINE#         1053
  C:1549H         LINE#         1054
  C:154BH         LINE#         1055
  C:154FH         LINE#         1056
  C:154FH         LINE#         1057
  C:1552H         LINE#         1058
  C:1552H         LINE#         1061
  C:156BH         LINE#         1062
  C:157EH         LINE#         1063
  C:1598H         LINE#         1064
  C:15A0H         LINE#         1065
  C:15BEH         LINE#         1066
  C:15C6H         LINE#         1068
  C:15DFH         LINE#         1069
  C:15F2H         LINE#         1070
  C:1615H         LINE#         1072
  C:162EH         LINE#         1073
  C:1641H         LINE#         1074
  C:1664H         LINE#         1075
  C:1667H         LINE#         1076
  C:166EH         LINE#         1077
  C:1671H         LINE#         1078
  C:1674H         LINE#         1079
  C:1676H         LINE#         1080
  C:1676H         LINE#         1081
  C:1679H         LINE#         1082
  C:1679H         LINE#         1083
  C:1692H         LINE#         1084
  C:16ABH         LINE#         1085
  C:16ADH         LINE#         1086
  C:16B0H         LINE#         1087
  C:16B3H         LINE#         1088
  C:16B6H         LINE#         1089
  C:16B6H         LINE#         1090
  C:16B9H         LINE#         1091
  C:16BEH         LINE#         1092
  C:16C1H         LINE#         1093
  C:16C4H         LINE#         1094
  C:16C4H         LINE#         1095
  C:16DDH         LINE#         1096
  C:16ECH         LINE#         1097
  C:16ECH         LINE#         1098
  C:16EFH         LINE#         1099
  C:16F2H         LINE#         1100
BL51 BANKED LINKER/LOCATER V6.22.2.0                                                  07/08/2026  17:17:08  PAGE 64


  C:16F9H         LINE#         1101
  C:1711H         LINE#         1102
  C:1711H         LINE#         1103
  C:1714H         LINE#         1104
  C:1714H         LINE#         1105
  C:1714H         LINE#         1106
  C:1714H         LINE#         1107
  C:1714H         LINE#         1108
  C:1714H         LINE#         1109
  C:171FH         LINE#         1110
  C:1722H         LINE#         1111
  C:1725H         LINE#         1112
  C:1728H         LINE#         1113
  C:172BH         LINE#         1114
  C:172EH         LINE#         1115
  C:172EH         LINE#         1116
  C:172EH         LINE#         1117
  C:172EH         LINE#         1118
  C:172EH         LINE#         1119
  C:172EH         LINE#         1120
  C:172EH         LINE#         1121
  C:173EH         LINE#         1122
  C:1747H         LINE#         1123
  C:1747H         LINE#         1124
  C:1747H         LINE#         1125
  C:174AH         LINE#         1126
  C:174AH         LINE#         1127
  C:174AH         LINE#         1128
  C:174AH         LINE#         1129
  C:174AH         LINE#         1130
  C:174AH         LINE#         1131
  C:174AH         LINE#         1132
  C:1758H         LINE#         1133
  C:175DH         LINE#         1134
  C:175DH         LINE#         1135
  C:175DH         LINE#         1136
  C:1760H         LINE#         1137
  C:1760H         LINE#         1138
  C:1760H         LINE#         1139
  C:1760H         LINE#         1140
  C:1760H         LINE#         1141
  C:1760H         LINE#         1142
  C:1760H         LINE#         1143
  C:1770H         LINE#         1144
  C:1779H         LINE#         1145
  C:1779H         LINE#         1146
  C:1779H         LINE#         1147
  C:177CH         LINE#         1148
  C:177CH         LINE#         1149
  C:177CH         LINE#         1150
  C:177CH         LINE#         1151
  C:177CH         LINE#         1152
  C:177CH         LINE#         1153
  C:177CH         LINE#         1154
  C:177CH         LINE#         1155
  C:177CH         LINE#         1156
  C:1789H         LINE#         1157
BL51 BANKED LINKER/LOCATER V6.22.2.0                                                  07/08/2026  17:17:08  PAGE 65


  C:1799H         LINE#         1158
  C:17A2H         LINE#         1159
  C:17A2H         LINE#         1160
  C:17A2H         LINE#         1161
  C:17A4H         LINE#         1162
  C:17A4H         LINE#         1163
  C:17A4H         LINE#         1164
  C:17A4H         LINE#         1165
  C:17A4H         LINE#         1166
  C:17A4H         LINE#         1167
  C:17A4H         LINE#         1168
  C:17A4H         LINE#         1173
  C:17A7H         LINE#         1174
  C:17B5H         LINE#         1175
  C:17CCH         LINE#         1176
  C:17DAH         LINE#         1177
  C:17F8H         LINE#         1178
  C:1802H         LINE#         1179
  C:1805H         LINE#         1180
  C:1808H         LINE#         1181
  C:1808H         LINE#         1182
  C:180BH         LINE#         1183
  C:180BH         LINE#         1184
  C:180EH         LINE#         1185
  C:1813H         LINE#         1186
  C:1815H         LINE#         1187
  C:1818H         LINE#         1191
  C:1818H         LINE#         1192
  C:1818H         LINE#         1193
  C:1818H         LINE#         1194
  C:1818H         LINE#         1195
  C:1818H         LINE#         1196
  C:181BH         LINE#         1197
  C:181BH         LINE#         1198
  C:181EH         LINE#         1199
  C:181EH         LINE#         1200
  C:181EH         LINE#         1204
  C:1839H         LINE#         1205
  C:1847H         LINE#         1206
  C:1860H         LINE#         1207
  C:1863H         LINE#         1208
  C:1863H         LINE#         1209
  C:1863H         LINE#         1210
  C:1866H         LINE#         1211
  C:1866H         LINE#         1212
  C:1866H         LINE#         1213
  C:1866H         LINE#         1214
  C:186DH         LINE#         1215
  C:1870H         LINE#         1216
  C:1870H         LINE#         1217
  C:1873H         LINE#         1218
  C:1873H         LINE#         1219
  C:1873H         LINE#         1223
  C:188EH         LINE#         1224
  C:189CH         LINE#         1225
  C:18B5H         LINE#         1226
  C:18BCH         LINE#         1227
BL51 BANKED LINKER/LOCATER V6.22.2.0                                                  07/08/2026  17:17:08  PAGE 66


  C:18BFH         LINE#         1228
  C:18BFH         LINE#         1229
  C:18BFH         LINE#         1230
  C:18C1H         LINE#         1231
  C:18C1H         LINE#         1232
  C:18C1H         LINE#         1233
  C:18C1H         LINE#         1234
  C:18C8H         LINE#         1235
  C:18CBH         LINE#         1236
  C:18CBH         LINE#         1237
  C:18CDH         LINE#         1238
  C:18CDH         LINE#         1239
  C:18CDH         LINE#         1240
  C:18CDH         LINE#         1241
  C:18CDH         LINE#         1242
  C:18CDH         LINE#         1243
  C:18CDH         LINE#         1244
  C:18CDH         LINE#         1245
  C:18CDH         LINE#         1246
  C:18CDH         LINE#         1247
  C:18CDH         LINE#         1252
  C:18CDH         LINE#         1253
  C:18CDH         LINE#         1254
  C:18CDH         LINE#         1255
  C:18D0H         LINE#         1256
  C:18D0H         LINE#         1257
  C:18D2H         LINE#         1258
  C:18D2H         LINE#         1259
  C:18D2H         LINE#         1260
  C:18D2H         LINE#         1261
  C:18D2H         LINE#         1262
  C:18D2H         LINE#         1263
  C:18D2H         LINE#         1264
  C:18D2H         LINE#         1265
  C:18D5H         LINE#         1266
  C:18D5H         LINE#         1267
  C:18D7H         LINE#         1268
  C:18D7H         LINE#         1269
  C:18F0H         LINE#         1270
  C:18FAH         LINE#         1271
  C:18FEH         LINE#         1273
  C:1900H         LINE#         1274
  C:1908H         LINE#         1275
  C:190BH         LINE#         1276
  C:190DH         LINE#         1277
  C:190DH         LINE#         1278
  C:190DH         LINE#         1279
  C:190DH         LINE#         1280
  C:190DH         LINE#         1281
  C:190DH         LINE#         1282
  C:1910H         LINE#         1283
  C:1912H         LINE#         1284
  C:1912H         LINE#         1285
  C:1915H         LINE#         1286
  C:1918H         LINE#         1287
  C:191BH         LINE#         1288
  C:1920H         LINE#         1289
BL51 BANKED LINKER/LOCATER V6.22.2.0                                                  07/08/2026  17:17:08  PAGE 67


  C:1920H         LINE#         1290
  C:1920H         LINE#         1291
  C:193DH         LINE#         1292
  C:193DH         LINE#         1295
  C:19A3H         LINE#         1298
  C:19BDH         LINE#         1299
  C:19BDH         LINE#         1300
  C:19C2H         LINE#         1301
  C:19C5H         LINE#         1302
  C:19C8H         LINE#         1303
  C:19C8H         LINE#         1304
  C:19E9H         LINE#         1305
  C:19E9H         LINE#         1306
  C:19ECH         LINE#         1307
  C:19ECH         LINE#         1308
  C:19EFH         LINE#         1310
  C:19EFH         LINE#         1311
  C:1A0AH         LINE#         1312
  C:1A13H         LINE#         1313
  C:1A42H         LINE#         1314
  C:1A42H         LINE#         1315
  C:1A56H         LINE#         1316
  C:1A6FH         LINE#         1317
  C:1A90H         LINE#         1318
  C:1A98H         LINE#         1319
  C:1A98H         LINE#         1320
  C:1AB3H         LINE#         1321
  C:1AB6H         LINE#         1322
  C:1AB6H         LINE#         1323
  C:1AB6H         LINE#         1324
  C:1AB6H         LINE#         1325
  -------         ENDPROC       CONTROL_FUNCTION1
  -------         PROC          _ISITHOMEPAGE
  D:0007H         SYMBOL        NowPage
  -------         DO            
  B:0023H.2       SYMBOL        IsHomePage
  D:0006H         SYMBOL        i
  -------         ENDDO         
  C:F910H         LINE#         1337
  C:F910H         LINE#         1338
  C:F910H         LINE#         1339
  C:F912H         LINE#         1342
  C:F91EH         LINE#         1343
  C:F91EH         LINE#         1344
  C:F92CH         LINE#         1345
  C:F92CH         LINE#         1346
  C:F92EH         LINE#         1347
  C:F930H         LINE#         1348
  C:F930H         LINE#         1349
  C:F933H         LINE#         1350
  C:F935H         LINE#         1351
  -------         ENDPROC       _ISITHOMEPAGE
  -------         PROC          HOMEPAGE_SYNCINDOORDISPLAY
  -------         DO            
  X:8E1DH         SYMBOL        HomePage_Power
  X:8E1FH         SYMBOL        i
  X:8E20H         SYMBOL        first_one
BL51 BANKED LINKER/LOCATER V6.22.2.0                                                  07/08/2026  17:17:08  PAGE 68


  X:9472H         SYMBOL        s_last_anim_mode
  -------         ENDDO         
  C:B319H         LINE#         1353
  C:B319H         LINE#         1354
  C:B319H         LINE#         1355
  C:B320H         LINE#         1356
  C:B322H         LINE#         1357
  C:B326H         LINE#         1360
  C:B339H         LINE#         1361
  C:B339H         LINE#         1362
  C:B354H         LINE#         1363
  C:B360H         LINE#         1364
  C:B360H         LINE#         1365
  C:B366H         LINE#         1366
  C:B368H         LINE#         1367
  C:B368H         LINE#         1368
  C:B370H         LINE#         1369
  C:B377H         LINE#         1370
  C:B385H         LINE#         1371
  C:B385H         LINE#         1372
  C:B3A5H         LINE#         1373
  C:B3B4H         LINE#         1374
  C:B3B4H         LINE#         1375
  C:B3D2H         LINE#         1376
  C:B3E1H         LINE#         1377
  C:B3E5H         LINE#         1378
  C:B3E5H         LINE#         1379
  C:B3E5H         LINE#         1380
  C:B3FDH         LINE#         1381
  C:B410H         LINE#         1382
  C:B410H         LINE#         1383
  C:B415H         LINE#         1384
  C:B41EH         LINE#         1385
  C:B41EH         LINE#         1386
  -------         ENDPROC       HOMEPAGE_SYNCINDOORDISPLAY
  -------         PROC          HOMEPAGE
  B:0023H.1       SYMBOL        TurnPage
  -------         DO            
  X:8DF1H         SYMBOL        HomePage_TempType
  -------         ENDDO         
  C:EE81H         LINE#         1388
  C:EE81H         LINE#         1389
  C:EE81H         LINE#         1390
  C:EE88H         LINE#         1392
  C:EE8BH         LINE#         1393
  C:EE8BH         LINE#         1394
  C:EE93H         LINE#         1396
  C:EE95H         LINE#         1398
  C:EE95H         LINE#         1400
  C:EEAEH         LINE#         1401
  C:EEB8H         LINE#         1402
  C:EEBCH         LINE#         1404
  C:EEC1H         LINE#         1405
  C:EEC4H         LINE#         1406
  -------         ENDPROC       HOMEPAGE
  -------         PROC          L?0765
  -------         ENDPROC       L?0765
BL51 BANKED LINKER/LOCATER V6.22.2.0                                                  07/08/2026  17:17:08  PAGE 69


  -------         PROC          _TEMP_LIMIT
  X:8D8DH         SYMBOL        Addr
  X:8D8FH         SYMBOL        TempType
  -------         DO            
  X:8D90H         SYMBOL        Temp_Limit_Temp
  X:8D92H         SYMBOL        lo
  X:8D94H         SYMBOL        hi
  -------         DO            
  X:8D96H         SYMBOL        mode
  -------         ENDDO         
  -------         ENDDO         
  C:6A9AH         LINE#         1408
  C:6AA7H         LINE#         1409
  C:6AA7H         LINE#         1413
  C:6AA7H         LINE#         1414
  C:6ABAH         LINE#         1415
  C:6AD3H         LINE#         1416
  C:6AD3H         LINE#         1417
  C:6AD3H         LINE#         1418
  C:6AD3H         LINE#         1419
  C:6AD5H         LINE#         1420
  C:6AE7H         LINE#         1421
  C:6AE7H         LINE#         1422
  C:6AE7H         LINE#         1423
  C:6AE7H         LINE#         1424
  C:6AE9H         LINE#         1425
  C:6AF7H         LINE#         1426
  C:6AF7H         LINE#         1427
  C:6B00H         LINE#         1428
  C:6B07H         LINE#         1429
  C:6B0AH         LINE#         1430
  C:6B10H         LINE#         1431
  C:6B10H         LINE#         1432
  C:6B21H         LINE#         1433
  C:6B25H         LINE#         1434
  C:6B28H         LINE#         1435
  C:6B36H         LINE#         1436
  C:6B36H         LINE#         1437
  C:6B3FH         LINE#         1438
  C:6B46H         LINE#         1439
  C:6B49H         LINE#         1440
  C:6B4FH         LINE#         1441
  C:6B4FH         LINE#         1442
  C:6B58H         LINE#         1443
  C:6B5FH         LINE#         1444
  C:6B62H         LINE#         1445
  C:6B68H         LINE#         1446
  C:6B68H         LINE#         1447
  C:6B71H         LINE#         1448
  C:6B78H         LINE#         1449
  C:6B7AH         LINE#         1450
  C:6B80H         LINE#         1451
  C:6B80H         LINE#         1452
  C:6B91H         LINE#         1453
  C:6B95H         LINE#         1454
  C:6B97H         LINE#         1455
  C:6BA3H         LINE#         1456
BL51 BANKED LINKER/LOCATER V6.22.2.0                                                  07/08/2026  17:17:08  PAGE 70


  C:6BA3H         LINE#         1457
  C:6BB4H         LINE#         1458
  C:6BB8H         LINE#         1459
  C:6BBAH         LINE#         1460
  C:6BCBH         LINE#         1461
  C:6BCBH         LINE#         1462
  C:6BDBH         LINE#         1463
  C:6BECH         LINE#         1464
  C:6BECH         LINE#         1467
  C:6C02H         LINE#         1468
  C:6C04H         LINE#         1469
  C:6C13H         LINE#         1470
  C:6C1BH         LINE#         1471
  C:6C36H         LINE#         1472
  C:6C4FH         LINE#         1473
  C:6C54H         LINE#         1474
  C:6C6DH         LINE#         1475
  C:6C6DH         LINE#         1476
  C:6C78H         LINE#         1477
  C:6C8BH         LINE#         1478
  C:6C8BH         LINE#         1479
  C:6C97H         LINE#         1480
  C:6CA1H         LINE#         1481
  C:6CADH         LINE#         1482
  C:6CB3H         LINE#         1483
  C:6CD8H         LINE#         1484
  C:6CD8H         LINE#         1485
  C:6CEFH         LINE#         1486
  C:6CF5H         LINE#         1487
  C:6D0DH         LINE#         1488
  C:6D0FH         LINE#         1489
  C:6D34H         LINE#         1491
  C:6D53H         LINE#         1492
  -------         ENDPROC       _TEMP_LIMIT
  -------         PROC          CONTROL_SANITIZESETTEMPINTVP
  C:F31BH         LINE#         1494
  C:F31BH         LINE#         1495
  C:F31BH         LINE#         1496
  C:F324H         LINE#         1497
  C:F32DH         LINE#         1498
  C:F336H         LINE#         1499
  C:F33FH         LINE#         1500
  C:F348H         LINE#         1501
  -------         ENDPROC       CONTROL_SANITIZESETTEMPINTVP
  -------         PROC          _SETMODEPROCESS
  X:8D82H         SYMBOL        NewMode
  C:FAD6H         LINE#         1503
  C:FADEH         LINE#         1504
  C:FADEH         LINE#         1505
  -------         ENDPROC       _SETMODEPROCESS
  -------         PROC          RTCDISPLAY4CHANGE
  -------         DO            
  X:8D82H         SYMBOL        RTCS2C_temp
  X:8D84H         SYMBOL        year
  X:8D86H         SYMBOL        month_vp
  X:8D88H         SYMBOL        month
  -------         ENDDO         
BL51 BANKED LINKER/LOCATER V6.22.2.0                                                  07/08/2026  17:17:08  PAGE 71


  C:ADCDH         LINE#         1507
  C:ADCDH         LINE#         1508
  C:ADCDH         LINE#         1512
  C:ADE6H         LINE#         1513
  C:ADFFH         LINE#         1514
  C:AE18H         LINE#         1515
  C:AE31H         LINE#         1516
  C:AE4AH         LINE#         1517
  C:AE63H         LINE#         1518
  C:AE7CH         LINE#         1519
  C:AE95H         LINE#         1520
  C:AEAEH         LINE#         1521
  C:AEC7H         LINE#         1522
  -------         ENDPROC       RTCDISPLAY4CHANGE
  -------         PROC          READY4WRITERTC
  -------         DO            
  X:8D82H         SYMBOL        RTCC2W_write
  X:8D88H         SYMBOL        year_full
  X:8D8AH         SYMBOL        month
  X:8D8CH         SYMBOL        day
  X:8D8EH         SYMBOL        hour
  X:8D90H         SYMBOL        minute
  X:8D92H         SYMBOL        year
  -------         ENDDO         
  C:B712H         LINE#         1524
  C:B712H         LINE#         1525
  C:B712H         LINE#         1529
  C:B72BH         LINE#         1530
  C:B744H         LINE#         1531
  C:B75DH         LINE#         1532
  C:B776H         LINE#         1533
  C:B78FH         LINE#         1534
  C:B79FH         LINE#         1535
  C:B7ABH         LINE#         1537
  C:B7BAH         LINE#         1538
  C:B7CEH         LINE#         1539
  C:B7E2H         LINE#         1540
  C:B7EDH         LINE#         1541
  -------         ENDPROC       READY4WRITERTC
  -------         PROC          _SYNCSETTEMPCACHESFROMC
  X:8E02H         SYMBOL        temp_c
  -------         DO            
  X:8E04H         SYMBOL        temp_f
  X:8E06H         SYMBOL        mode
  -------         ENDDO         
  C:CF9CH         LINE#         1544
  C:CFA4H         LINE#         1545
  C:CFA4H         LINE#         1549
  C:CFB9H         LINE#         1550
  C:CFD2H         LINE#         1551
  C:CFEBH         LINE#         1552
  C:D004H         LINE#         1553
  C:D01DH         LINE#         1554
  C:D01DH         LINE#         1555
  C:D023H         LINE#         1556
  C:D036H         LINE#         1557
  C:D036H         LINE#         1558
BL51 BANKED LINKER/LOCATER V6.22.2.0                                                  07/08/2026  17:17:08  PAGE 72


  -------         ENDPROC       _SYNCSETTEMPCACHESFROMC
  -------         PROC          TEMPUNIT_REFRESHACTIVESETFROMMODE
  -------         DO            
  X:8DFEH         SYMBOL        mode
  X:8E00H         SYMBOL        unit
  D:0006H         SYMBOL        temp_c
  -------         ENDDO         
  C:DFE1H         LINE#         1560
  C:DFE1H         LINE#         1561
  C:DFE1H         LINE#         1566
  C:DFFAH         LINE#         1567
  C:E013H         LINE#         1568
  C:E02CH         LINE#         1570
  C:E033H         LINE#         1571
  C:E041H         LINE#         1572
  C:E046H         LINE#         1573
  C:E04AH         LINE#         1574
  C:E04DH         LINE#         1575
  -------         ENDPROC       TEMPUNIT_REFRESHACTIVESETFROMMODE
  -------         PROC          TEMPUNIT_REFRESHALL
  -------         DO            
  X:8DF3H         SYMBOL        unit
  X:8DF5H         SYMBOL        temp_c
  X:8DF7H         SYMBOL        temp_f
  X:8DF9H         SYMBOL        i
  -------         DO            
  X:8DFAH         SYMBOL        room_c
  -------         ENDDO         
  -------         ENDDO         
  C:64AEH         LINE#         1577
  C:64AEH         LINE#         1578
  C:64AEH         LINE#         1584
  C:64C7H         LINE#         1585
  C:64E0H         LINE#         1586
  C:64F9H         LINE#         1587
  C:6503H         LINE#         1588
  C:6503H         LINE#         1589
  C:650EH         LINE#         1590
  C:6510H         LINE#         1591
  C:651BH         LINE#         1592
  C:651BH         LINE#         1593
  C:651DH         LINE#         1595
  C:651DH         LINE#         1596
  C:6528H         LINE#         1597
  C:6532H         LINE#         1598
  C:653DH         LINE#         1599
  C:654AH         LINE#         1600
  C:654AH         LINE#         1601
  C:6555H         LINE#         1602
  C:6557H         LINE#         1603
  C:6562H         LINE#         1604
  C:6562H         LINE#         1605
  C:656FH         LINE#         1606
  C:657AH         LINE#         1607
  C:657AH         LINE#         1608
  C:6593H         LINE#         1609
  C:65ACH         LINE#         1610
BL51 BANKED LINKER/LOCATER V6.22.2.0                                                  07/08/2026  17:17:08  PAGE 73


  C:65AFH         LINE#         1612
  C:65BEH         LINE#         1613
  C:65CDH         LINE#         1614
  C:65DCH         LINE#         1615
  C:65EBH         LINE#         1616
  C:65FFH         LINE#         1617
  C:65FFH         LINE#         1618
  C:6602H         LINE#         1619
  C:6614H         LINE#         1620
  C:661FH         LINE#         1621
  C:661FH         LINE#         1622
  C:662CH         LINE#         1623
  C:663CH         LINE#         1624
  C:663CH         LINE#         1625
  C:663FH         LINE#         1626
  C:6647H         LINE#         1627
  C:6658H         LINE#         1628
  C:6669H         LINE#         1630
  C:667FH         LINE#         1631
  C:667FH         LINE#         1634
  C:669AH         LINE#         1635
  C:66AAH         LINE#         1636
  C:66D0H         LINE#         1637
  C:66EAH         LINE#         1640
  C:6728H         LINE#         1641
  C:672BH         LINE#         1642
  C:6734H         LINE#         1644
  C:674DH         LINE#         1645
  C:6758H         LINE#         1646
  C:676FH         LINE#         1647
  C:6788H         LINE#         1648
  C:6793H         LINE#         1649
  C:67AAH         LINE#         1651
  -------         ENDPROC       TEMPUNIT_REFRESHALL
  C:C26BH         SYMBOL        L?0757
  C:C26EH         SYMBOL        L?0758
  -------         PROC          L?0756
  -------         ENDPROC       L?0756
  C:C26BH         SYMBOL        L?0757
  C:C26EH         SYMBOL        L?0758
  -------         PROC          _TEMPUNITTRANS
  D:0006H         SYMBOL        temp
  X:8E1DH         SYMBOL        type
  -------         DO            
  X:8E1EH         SYMBOL        Cache
  -------         ENDDO         
  C:C275H         LINE#         1654
  C:C27AH         LINE#         1655
  C:C27AH         LINE#         1658
  C:C27EH         LINE#         1659
  C:C27EH         LINE#         1660
  C:C289H         LINE#         1661
  C:C28FH         LINE#         1662
  C:C29AH         LINE#         1663
  C:C29EH         LINE#         1664
  C:C2B6H         LINE#         1665
  C:C2B8H         LINE#         1666
BL51 BANKED LINKER/LOCATER V6.22.2.0                                                  07/08/2026  17:17:08  PAGE 74


  C:C2C0H         LINE#         1667
  C:C2C0H         LINE#         1668
  C:C2CBH         LINE#         1669
  C:C2D1H         LINE#         1670
  C:C2DCH         LINE#         1671
  C:C2E0H         LINE#         1672
  C:C2FAH         LINE#         1673
  C:C2FAH         LINE#         1675
  C:C331H         LINE#         1676
  C:C331H         LINE#         1677
  -------         ENDPROC       _TEMPUNITTRANS
  -------         PROC          UNITCHANGEPRO
  -------         DO            
  X:8DF1H         SYMBOL        UnitChange_TempType
  -------         ENDDO         
  C:FA0EH         LINE#         1678
  C:FA0EH         LINE#         1679
  C:FA0EH         LINE#         1680
  C:FA15H         LINE#         1682
  C:FA2DH         LINE#         1683
  -------         ENDPROC       UNITCHANGEPRO
  -------         PROC          SYNCTIMERFROMVP
  -------         DO            
  X:8D78H         SYMBOL        u8tou16
  -------         ENDDO         
  C:7C1EH         LINE#         1725
  C:7C1EH         LINE#         1726
  C:7C1EH         LINE#         1727
  C:7C31H         LINE#         1729
  C:7C4AH         LINE#         1730
  C:7C52H         LINE#         1731
  C:7C6BH         LINE#         1732
  C:7C73H         LINE#         1733
  C:7C8CH         LINE#         1734
  C:7C94H         LINE#         1735
  C:7CADH         LINE#         1736
  C:7CB5H         LINE#         1737
  C:7CCEH         LINE#         1738
  C:7CD6H         LINE#         1739
  C:7CEFH         LINE#         1740
  C:7CF7H         LINE#         1741
  C:7D10H         LINE#         1742
  C:7D18H         LINE#         1743
  C:7D2CH         LINE#         1745
  C:7D45H         LINE#         1746
  C:7D4DH         LINE#         1747
  C:7D66H         LINE#         1748
  C:7D6EH         LINE#         1749
  C:7D87H         LINE#         1750
  C:7D8FH         LINE#         1751
  C:7DA8H         LINE#         1752
  C:7DB0H         LINE#         1753
  C:7DC9H         LINE#         1754
  C:7DD1H         LINE#         1755
  C:7DEAH         LINE#         1756
  C:7DF2H         LINE#         1757
  C:7E0BH         LINE#         1758
BL51 BANKED LINKER/LOCATER V6.22.2.0                                                  07/08/2026  17:17:08  PAGE 75


  C:7E13H         LINE#         1759
  C:7E2CH         LINE#         1760
  C:7E34H         LINE#         1761
  C:7E48H         LINE#         1762
  -------         ENDPROC       SYNCTIMERFROMVP
  -------         PROC          _TIMER_ISINDOORWEEKDAYMATCH
  D:0007H         SYMBOL        rtc_week
  -------         DO            
  X:8D78H         SYMBOL        bit_idx
  X:8D79H         SYMBOL        week_en
  X:8D7AH         SYMBOL        week_mask
  X:8D7CH         SYMBOL        i
  -------         ENDDO         
  C:CB1EH         LINE#         1764
  C:CB1EH         LINE#         1765
  C:CB1EH         LINE#         1767
  C:CB25H         LINE#         1770
  C:CB36H         LINE#         1771
  C:CB49H         LINE#         1772
  C:CB49H         LINE#         1773
  C:CB64H         LINE#         1774
  C:CB6AH         LINE#         1775
  C:CB8AH         LINE#         1776
  C:CB92H         LINE#         1777
  C:CB9DH         LINE#         1778
  C:CBA0H         LINE#         1779
  C:CBC4H         LINE#         1780
  -------         ENDPROC       _TIMER_ISINDOORWEEKDAYMATCH
  -------         PROC          _TIMER_ISEXTERNALWEEKDAYMATCH
  D:0007H         SYMBOL        rtc_week
  -------         DO            
  X:8D78H         SYMBOL        bit_idx
  X:8D79H         SYMBOL        week_en
  X:8D7AH         SYMBOL        week_mask
  X:8D7CH         SYMBOL        i
  -------         ENDDO         
  C:CC6CH         LINE#         1782
  C:CC6CH         LINE#         1783
  C:CC6CH         LINE#         1785
  C:CC73H         LINE#         1788
  C:CC84H         LINE#         1789
  C:CC97H         LINE#         1790
  C:CC97H         LINE#         1791
  C:CCB1H         LINE#         1792
  C:CCB7H         LINE#         1793
  C:CCD7H         LINE#         1794
  C:CCDFH         LINE#         1795
  C:CCEAH         LINE#         1796
  C:CCEDH         LINE#         1797
  C:CD11H         LINE#         1798
  -------         ENDPROC       _TIMER_ISEXTERNALWEEKDAYMATCH
  -------         PROC          TIMER_APPLYINDOORON
  -------         DO            
  X:8D78H         SYMBOL        i
  X:8D79H         SYMBOL        power
  X:8D7BH         SYMBOL        mode
  X:8D7DH         SYMBOL        temp
BL51 BANKED LINKER/LOCATER V6.22.2.0                                                  07/08/2026  17:17:08  PAGE 76


  X:8D7FH         SYMBOL        fan
  -------         DO            
  X:8D81H         SYMBOL        sel
  -------         ENDDO         
  -------         ENDDO         
  C:A955H         LINE#         1800
  C:A955H         LINE#         1801
  C:A955H         LINE#         1805
  C:A96EH         LINE#         1806
  C:A987H         LINE#         1807
  C:A9A0H         LINE#         1808
  C:A9B6H         LINE#         1809
  C:A9B6H         LINE#         1810
  C:A9BDH         LINE#         1811
  C:A9D8H         LINE#         1812
  C:A9E5H         LINE#         1813
  C:A9E5H         LINE#         1814
  C:A9EDH         LINE#         1815
  C:AA0BH         LINE#         1816
  C:AA29H         LINE#         1817
  C:AA47H         LINE#         1818
  C:AA65H         LINE#         1819
  C:AA6FH         LINE#         1820
  C:AA78H         LINE#         1821
  -------         ENDPROC       TIMER_APPLYINDOORON
  -------         PROC          TIMER_APPLYINDOOROFF
  -------         DO            
  X:8D78H         SYMBOL        i
  X:8D79H         SYMBOL        power
  -------         DO            
  X:8D7BH         SYMBOL        sel
  -------         ENDDO         
  -------         ENDDO         
  C:DAE3H         LINE#         1824
  C:DAE3H         LINE#         1825
  C:DAE3H         LINE#         1827
  C:DAEAH         LINE#         1829
  C:DAFCH         LINE#         1830
  C:DAFCH         LINE#         1831
  C:DB03H         LINE#         1832
  C:DB1EH         LINE#         1833
  C:DB28H         LINE#         1834
  C:DB28H         LINE#         1835
  C:DB46H         LINE#         1836
  C:DB50H         LINE#         1837
  C:DB58H         LINE#         1838
  -------         ENDPROC       TIMER_APPLYINDOOROFF
  -------         PROC          TIMERRUNNING
  -------         DO            
  X:8D71H         SYMBOL        Timer_ReadRtc
  X:8D73H         SYMBOL        Timer_Power
  X:8D75H         SYMBOL        rtc_week
  X:8D76H         SYMBOL        time_key
  X:9473H         SYMBOL        s_last_ext_on
  X:9475H         SYMBOL        s_last_ext_off
  X:9477H         SYMBOL        s_last_in_on
  X:9479H         SYMBOL        s_last_in_off
BL51 BANKED LINKER/LOCATER V6.22.2.0                                                  07/08/2026  17:17:08  PAGE 77


  -------         ENDDO         
  C:6D54H         LINE#         1841
  C:6D54H         LINE#         1842
  C:6D54H         LINE#         1852
  C:6D6DH         LINE#         1853
  C:6D70H         LINE#         1854
  C:6D78H         LINE#         1855
  C:6D8AH         LINE#         1857
  C:6DA1H         LINE#         1858
  C:6DA1H         LINE#         1859
  C:6DBFH         LINE#         1860
  C:6DBFH         LINE#         1861
  C:6DD6H         LINE#         1862
  C:6DD6H         LINE#         1863
  C:6DDEH         LINE#         1864
  C:6DF6H         LINE#         1865
  C:6E0FH         LINE#         1866
  C:6E17H         LINE#         1867
  C:6E22H         LINE#         1868
  C:6E2AH         LINE#         1869
  C:6E35H         LINE#         1870
  C:6E3DH         LINE#         1871
  C:6E49H         LINE#         1872
  C:6E53H         LINE#         1873
  C:6E55H         LINE#         1874
  C:6E58H         LINE#         1875
  C:6E5BH         LINE#         1876
  C:6E5EH         LINE#         1877
  C:6E61H         LINE#         1878
  C:6E70H         LINE#         1879
  C:6E70H         LINE#         1880
  C:6E72H         LINE#         1881
  C:6E86H         LINE#         1882
  C:6E8EH         LINE#         1883
  C:6E8EH         LINE#         1884
  C:6EA5H         LINE#         1885
  C:6EA5H         LINE#         1886
  C:6EBDH         LINE#         1887
  C:6EBDH         LINE#         1888
  C:6ED1H         LINE#         1889
  C:6ED1H         LINE#         1890
  C:6ED8H         LINE#         1891
  C:6EF0H         LINE#         1892
  C:6EF2H         LINE#         1893
  C:6EF5H         LINE#         1894
  C:6EF8H         LINE#         1895
  C:6F07H         LINE#         1896
  C:6F07H         LINE#         1897
  C:6F09H         LINE#         1898
  C:6F1DH         LINE#         1899
  C:6F25H         LINE#         1900
  C:6F25H         LINE#         1901
  C:6F36H         LINE#         1902
  C:6F36H         LINE#         1903
  C:6F4EH         LINE#         1904
  C:6F4EH         LINE#         1905
  C:6F62H         LINE#         1906
BL51 BANKED LINKER/LOCATER V6.22.2.0                                                  07/08/2026  17:17:08  PAGE 78


  C:6F62H         LINE#         1907
  C:6F65H         LINE#         1908
  C:6F68H         LINE#         1909
  C:6F6BH         LINE#         1910
  C:6F7AH         LINE#         1911
  C:6F7AH         LINE#         1912
  C:6F7CH         LINE#         1913
  C:6F90H         LINE#         1914
  C:6F98H         LINE#         1915
  C:6F98H         LINE#         1916
  C:6FA9H         LINE#         1917
  C:6FA9H         LINE#         1918
  C:6FC1H         LINE#         1919
  C:6FC1H         LINE#         1920
  C:6FD5H         LINE#         1921
  C:6FD5H         LINE#         1922
  C:6FD8H         LINE#         1923
  C:6FDBH         LINE#         1924
  C:6FDEH         LINE#         1925
  C:6FEDH         LINE#         1926
  C:6FEDH         LINE#         1927
  C:6FEFH         LINE#         1928
  C:7003H         LINE#         1929
  C:700BH         LINE#         1930
  C:700BH         LINE#         1931
  -------         ENDPROC       TIMERRUNNING
  -------         PROC          HOMEPAGE_ICON
  -------         DO            
  X:8DF1H         SYMBOL        HomePage_Icon_u16temp
  X:947BH         SYMBOL        s_last_home_mode
  X:947CH         SYMBOL        s_last_wifi_st
  X:8DF3H         SYMBOL        cur_mode
  D:0007H         SYMBOL        wifi_st
  -------         ENDDO         
  C:A5A8H         LINE#         1933
  C:A5A8H         LINE#         1934
  C:A5A8H         LINE#         1941
  C:A5ABH         LINE#         1942
  C:A5BFH         LINE#         1943
  C:A5C1H         LINE#         1944
  C:A5CCH         LINE#         1945
  C:A5CEH         LINE#         1946
  C:A5D3H         LINE#         1947
  C:A5D3H         LINE#         1948
  C:A5D3H         LINE#         1949
  C:A5DBH         LINE#         1950
  C:A5DDH         LINE#         1951
  C:A5DDH         LINE#         1952
  C:A5E4H         LINE#         1953
  C:A5E4H         LINE#         1954
  C:A5E4H         LINE#         1955
  C:A5FDH         LINE#         1957
  C:A604H         LINE#         1958
  C:A61CH         LINE#         1959
  C:A626H         LINE#         1960
  C:A63EH         LINE#         1961
  C:A648H         LINE#         1962
BL51 BANKED LINKER/LOCATER V6.22.2.0                                                  07/08/2026  17:17:08  PAGE 79


  C:A660H         LINE#         1963
  C:A66AH         LINE#         1964
  C:A682H         LINE#         1965
  C:A69BH         LINE#         1967
  C:A6B3H         LINE#         1968
  C:A6C0H         LINE#         1969
  C:A6C0H         LINE#         1970
  C:A6C3H         LINE#         1971
  C:A6CBH         LINE#         1972
  C:A6CBH         LINE#         1974
  -------         ENDPROC       HOMEPAGE_ICON
  -------         PROC          WIFI_RESTING_PRO
  -------         DO            
  X:947DH         SYMBOL        Wifi_Resting_Pro_Count
  -------         ENDDO         
  C:F451H         LINE#         1977
  C:F451H         LINE#         1978
  C:F451H         LINE#         1981
  C:F454H         LINE#         1982
  C:F454H         LINE#         1983
  C:F456H         LINE#         1985
  C:F456H         LINE#         1987
  C:F45CH         LINE#         1988
  C:F45CH         LINE#         1989
  C:F461H         LINE#         1990
  C:F463H         LINE#         1991
  C:F465H         LINE#         1993
  C:F465H         LINE#         1995
  C:F46BH         LINE#         1996
  C:F475H         LINE#         1997
  C:F475H         LINE#         1998
  C:F47AH         LINE#         1999
  C:F47CH         LINE#         2000
  C:F481H         LINE#         2001
  C:F481H         LINE#         2002
  -------         ENDPROC       WIFI_RESTING_PRO
  -------         PROC          OTARELOAD_DELAYPAGE
  -------         DO            
  X:947EH         SYMBOL        OTAReloadDelayCount
  -------         ENDDO         
  C:F84BH         LINE#         2003
  C:F84BH         LINE#         2004
  C:F84BH         LINE#         2007
  C:F84EH         LINE#         2008
  C:F84EH         LINE#         2009
  C:F85BH         LINE#         2010
  C:F85FH         LINE#         2012
  C:F85FH         LINE#         2013
  C:F861H         LINE#         2014
  C:F866H         LINE#         2015
  C:F86BH         LINE#         2016
  C:F872H         LINE#         2017
  C:F872H         LINE#         2018
  C:F872H         LINE#         2019
  -------         ENDPROC       OTARELOAD_DELAYPAGE
  -------         PROC          SCREENSAVER_PRO
  -------         DO            
BL51 BANKED LINKER/LOCATER V6.22.2.0                                                  07/08/2026  17:17:08  PAGE 80


  X:947FH         SYMBOL        ScreenSaveType_Old
  X:8D71H         SYMBOL        i
  X:8D72H         SYMBOL        ScreenSaveType
  X:8D73H         SYMBOL        ScreenSaver_Pro_SetMode
  X:8D75H         SYMBOL        ScreenSaver_Pro_Power
  X:8D77H         SYMBOL        ScreenSaver_Pro_Error
  X:8D79H         SYMBOL        ScreenSaver_Pro_Temp
  X:8D7BH         SYMBOL        ScreenSaver_Pro_TempA
  -------         ENDDO         
  C:A1C9H         LINE#         2020
  C:A1C9H         LINE#         2021
  C:A1C9H         LINE#         2026
  C:A1D5H         LINE#         2027
  C:A1D5H         LINE#         2028
  C:A1EDH         LINE#         2029
  C:A1EDH         LINE#         2030
  C:A1F6H         LINE#         2031
  C:A1F6H         LINE#         2032
  C:A1FEH         LINE#         2033
  C:A203H         LINE#         2034
  C:A203H         LINE#         2035
  C:A21CH         LINE#         2036
  C:A234H         LINE#         2037
  C:A24DH         LINE#         2038
  C:A257H         LINE#         2039
  C:A25FH         LINE#         2040
  C:A269H         LINE#         2041
  C:A26FH         LINE#         2043
  C:A26FH         LINE#         2044
  C:A282H         LINE#         2045
  C:A282H         LINE#         2046
  C:A282H         LINE#         2047
  C:A288H         LINE#         2048
  C:A28AH         LINE#         2049
  C:A28AH         LINE#         2050
  C:A290H         LINE#         2051
  C:A292H         LINE#         2052
  C:A292H         LINE#         2053
  C:A292H         LINE#         2054
  C:A298H         LINE#         2055
  C:A298H         LINE#         2056
  C:A298H         LINE#         2057
  C:A298H         LINE#         2058
  C:A2A4H         LINE#         2059
  C:A2A4H         LINE#         2060
  C:A2B7H         LINE#         2061
  C:A2B7H         LINE#         2062
  C:A2BCH         LINE#         2063
  C:A2BCH         LINE#         2064
  C:A2C5H         LINE#         2065
  C:A2C9H         LINE#         2067
  C:A2D9H         LINE#         2068
  C:A2DBH         LINE#         2070
  C:A2DBH         LINE#         2071
  C:A2F2H         LINE#         2072
  C:A2F8H         LINE#         2074
  C:A30BH         LINE#         2075
BL51 BANKED LINKER/LOCATER V6.22.2.0                                                  07/08/2026  17:17:08  PAGE 81


  C:A30BH         LINE#         2076
  C:A313H         LINE#         2077
  C:A31BH         LINE#         2078
  C:A31BH         LINE#         2079
  C:A31BH         LINE#         2080
  C:A31BH         LINE#         2081
  -------         ENDPROC       SCREENSAVER_PRO
  -------         ENDMOD        CONTROL

  -------         MODULE        UART
  C:0000H         SYMBOL        _ICE_DUMMY_
  X:91A0H         PUBLIC        Uart5_Rx
  D:0080H         PUBLIC        P0
  X:92A0H         PUBLIC        modbus_send_finish
  B:00A8H.7       PUBLIC        EA
  D:00F8H         PUBLIC        RAMMODE
  X:92A1H         PUBLIC        nUart0Sending
  D:00B7H         PUBLIC        P0MDOUT
  D:00A8H         PUBLIC        IEN0
  B:0080H.0       PUBLIC        RS485_UART4_EN
  D:00B8H         PUBLIC        IEN1
  X:92A2H         PUBLIC        nUart5Sending
  X:92A3H         PUBLIC        uart2_busy
  C:DB5BH         PUBLIC        _UART5_SendStr
  X:92A4H         PUBLIC        wifi_rx_byte_total
  X:92A8H         PUBLIC        modbus_error
  B:00B8H.5       PUBLIC        ES3R
  X:92AAH         PUBLIC        modbus_res_finish
  B:00B8H.4       PUBLIC        ES3T
  X:92ABH         PUBLIC        wifi_rx_drop_count
  D:00BAH         PUBLIC        SREL0H
  D:0087H         PUBLIC        PCON
  C:C7B2H         PUBLIC        UART2_ISR_PC
  D:00AAH         PUBLIC        SREL0L
  D:0088H         PUBLIC        TCON
  D:0097H         PUBLIC        SCON2R
  D:00ABH         PUBLIC        SCON3R
  D:00D9H         PUBLIC        BODE2_DIV_H
  D:00AEH         PUBLIC        BODE3_DIV_H
  D:0096H         PUBLIC        SCON2T
  D:00A7H         PUBLIC        SCON3T
  D:00E7H         PUBLIC        BODE2_DIV_L
  D:00AFH         PUBLIC        BODE3_DIV_L
  D:00C9H         PUBLIC        MUX_SEL
  C:B20EH         PUBLIC        UART5_RX_ISR_PC
  C:D1FAH         PUBLIC        UART5_TX_ISR_PC
  X:92ADH         PUBLIC        nUart0SendIndex
  B:0080H.1       PUBLIC        RS485_TX_EN
  B:00A8H.4       PUBLIC        ES0
  X:92AFH         PUBLIC        uart2_rx_count
  X:92B1H         PUBLIC        pUart0SendAddr
  X:92B4H         PUBLIC        nUart5SendIndex
  B:0098H.0       PUBLIC        RI0
  X:92B6H         PUBLIC        uart5_rx_count
  B:0098H.1       PUBLIC        TI0
  X:92B8H         PUBLIC        pUart5SendAddr
  C:FBCDH         PUBLIC        _Uart2SendData
BL51 BANKED LINKER/LOCATER V6.22.2.0                                                  07/08/2026  17:17:08  PAGE 82


  D:0099H         PUBLIC        SBUF0
  X:92BBH         PUBLIC        modbus_rx_status
  D:0098H         PUBLIC        SCON0
  C:FBB0H         PUBLIC        UART2_Init
  D:00D8H         PUBLIC        ADCON
  D:00C8H         PUBLIC        T2CON
  C:FE26H         PUBLIC        UART4_Init
  C:FD8AH         PUBLIC        UART5_Init
  D:00ADH         PUBLIC        SBUF3_RX
  D:009EH         PUBLIC        SBUF2_TX
  D:00ACH         PUBLIC        SBUF3_TX
  X:92BDH         PUBLIC        wifi_send_en
  D:00D0H         PUBLIC        PSW
  X:92BEH         PUBLIC        Uart2_Rx
  C:FAF6H         PUBLIC        _putchar
  D:00C0H         PUBLIC        IRCON
  -------         PROC          UART2_INIT
  C:FBB0H         LINE#         63
  C:FBB0H         LINE#         64
  C:FBB0H         LINE#         65
  C:FBB3H         LINE#         66
  C:FBB6H         LINE#         67
  C:FBB9H         LINE#         68
  C:FBBCH         LINE#         69
  C:FBBFH         LINE#         70
  C:FBC2H         LINE#         72
  C:FBC5H         LINE#         73
  C:FBC8H         LINE#         75
  C:FBCAH         LINE#         76
  C:FBCCH         LINE#         77
  -------         ENDPROC       UART2_INIT
  -------         PROC          _UART2SENDDATA
  D:0007H         SYMBOL        byte
  C:FBCDH         LINE#         80
  C:FBCDH         LINE#         81
  C:FBCDH         LINE#         82
  C:FBD3H         LINE#         83
  C:FBD5H         LINE#         84
  C:FBD7H         LINE#         85
  C:FBDAH         LINE#         86
  C:FBDDH         LINE#         87
  C:FBE0H         LINE#         88
  C:FBE2H         LINE#         89
  C:FBE4H         LINE#         90
  C:FBE9H         LINE#         91
  -------         ENDPROC       _UART2SENDDATA
  -------         PROC          UART2_ISR_PC
  -------         DO            
  D:0003H         SYMBOL        res
  -------         ENDDO         
  C:C7B2H         LINE#         94
  C:C7CFH         LINE#         97
  C:C7D1H         LINE#         99
  C:C7D4H         LINE#         100
  C:C7D4H         LINE#         101
  C:C7D6H         LINE#         102
  C:C7D8H         LINE#         103
BL51 BANKED LINKER/LOCATER V6.22.2.0                                                  07/08/2026  17:17:08  PAGE 83


  C:C7F7H         LINE#         104
  C:C7FCH         LINE#         105
  C:C7FCH         LINE#         107
  C:C7FFH         LINE#         108
  C:C7FFH         LINE#         109
  C:C805H         LINE#         110
  C:C805H         LINE#         111
  C:C807H         LINE#         112
  C:C816H         LINE#         113
  C:C816H         LINE#         114
  C:C826H         LINE#         115
  C:C830H         LINE#         116
  C:C83EH         LINE#         117
  C:C844H         LINE#         118
  C:C846H         LINE#         120
  C:C846H         LINE#         121
  C:C84BH         LINE#         122
  C:C84BH         LINE#         123
  C:C84BH         LINE#         124
  C:C84BH         LINE#         125
  C:C84DH         LINE#         126
  -------         ENDPROC       UART2_ISR_PC
  -------         PROC          UART5_INIT
  C:FD8AH         LINE#         136
  C:FD8AH         LINE#         137
  C:FD8AH         LINE#         138
  C:FD8DH         LINE#         139
  C:FD90H         LINE#         145
  C:FD93H         LINE#         146
  C:FD96H         LINE#         149
  C:FD98H         LINE#         150
  C:FD9AH         LINE#         152
  C:FD9CH         LINE#         153
  C:FD9EH         LINE#         154
  -------         ENDPROC       UART5_INIT
  -------         PROC          _UART5_SENDSTR
  X:8D86H         SYMBOL        pstr
  D:0004H         SYMBOL        strlen
  C:DB5BH         LINE#         166
  C:DB66H         LINE#         167
  C:DB66H         LINE#         168
  C:DB7DH         LINE#         171
  C:DB84H         LINE#         172
  C:DB96H         LINE#         173
  C:DBA0H         LINE#         175
  C:DBA2H         LINE#         177
  C:DBB2H         LINE#         178
  C:DBBCH         LINE#         179
  C:DBCAH         LINE#         180
  C:DBD0H         LINE#         181
  C:DBD2H         LINE#         182
  -------         ENDPROC       _UART5_SENDSTR
  -------         PROC          UART5_TX_ISR_PC
  -------         DO            
  X:8F99H         SYMBOL        i
  -------         ENDDO         
  C:D1FAH         LINE#         188
BL51 BANKED LINKER/LOCATER V6.22.2.0                                                  07/08/2026  17:17:08  PAGE 84


  C:D20FH         LINE#         190
  C:D211H         LINE#         191
  C:D214H         LINE#         193
  C:D223H         LINE#         194
  C:D223H         LINE#         195
  C:D233H         LINE#         196
  C:D23DH         LINE#         197
  C:D24BH         LINE#         198
  C:D24DH         LINE#         200
  C:D24DH         LINE#         203
  C:D252H         LINE#         204
  C:D254H         LINE#         205
  C:D274H         LINE#         206
  C:D276H         LINE#         207
  C:D276H         LINE#         208
  C:D278H         LINE#         209
  -------         ENDPROC       UART5_TX_ISR_PC
  -------         PROC          UART5_RX_ISR_PC
  -------         DO            
  D:0005H         SYMBOL        res
  D:0006H         SYMBOL        modbus_len
  -------         ENDDO         
  C:B20EH         LINE#         215
  C:B229H         LINE#         218
  C:B22CH         LINE#         220
  C:B22EH         LINE#         222
  C:B239H         LINE#         223
  C:B239H         LINE#         224
  C:B23BH         LINE#         225
  C:B23EH         LINE#         227
  C:B247H         LINE#         228
  C:B24BH         LINE#         230
  C:B25DH         LINE#         233
  C:B25DH         LINE#         234
  C:B275H         LINE#         236
  C:B284H         LINE#         237
  C:B284H         LINE#         238
  C:B28CH         LINE#         239
  C:B295H         LINE#         240
  C:B2A1H         LINE#         241
  C:B2ABH         LINE#         242
  C:B2B6H         LINE#         243
  C:B2B8H         LINE#         245
  C:B2BCH         LINE#         247
  C:B2C5H         LINE#         248
  C:B2C9H         LINE#         249
  C:B2D2H         LINE#         250
  C:B2D8H         LINE#         251
  C:B2E5H         LINE#         252
  C:B2E5H         LINE#         253
  C:B2EBH         LINE#         254
  C:B2F2H         LINE#         255
  C:B2F8H         LINE#         256
  C:B2FEH         LINE#         257
  C:B2FEH         LINE#         258
  C:B2FEH         LINE#         259
  C:B2FEH         LINE#         260
BL51 BANKED LINKER/LOCATER V6.22.2.0                                                  07/08/2026  17:17:08  PAGE 85


  C:B2FEH         LINE#         261
  C:B300H         LINE#         262
  -------         ENDPROC       UART5_RX_ISR_PC
  -------         PROC          UART4_INIT
  C:FE26H         LINE#         268
  C:FE26H         LINE#         269
  C:FE26H         LINE#         270
  C:FE29H         LINE#         271
  C:FE2CH         LINE#         275
  C:FE2FH         LINE#         276
  C:FE32H         LINE#         279
  C:FE35H         LINE#         280
  C:FE37H         LINE#         281
  -------         ENDPROC       UART4_INIT
  -------         PROC          _PUTCHAR
  D:0007H         SYMBOL        c
  -------         DO            
  D:0004H         SYMBOL        i
  -------         ENDDO         
  C:FAF6H         LINE#         288
  C:FAF6H         LINE#         289
  C:FAF6H         LINE#         291
  C:FAF8H         LINE#         293
  C:FAFAH         LINE#         294
  C:FAFFH         LINE#         295
  C:FB02H         LINE#         299
  C:FB10H         LINE#         301
  C:FB12H         LINE#         303
  C:FB15H         LINE#         304
  C:FB15H         LINE#         305
  -------         ENDPROC       _PUTCHAR
  -------         ENDMOD        UART

  -------         MODULE        MODBUS
  C:0000H         SYMBOL        _ICE_DUMMY_
  C:C1A9H         SYMBOL        _Modbus_WriteFloatTempPair
  C:8078H         SYMBOL        _Modbus_FillIndoorUnitRegs
  D:0080H         PUBLIC        P0
  C:D552H         SYMBOL        _Modbus_SaveIndoorSentRegs
  C:D8F2H         SYMBOL        _Modbus_IndoorRegsChanged
  X:8005H         PUBLIC        FirstQueryMember
  D:00B0H         PUBLIC        P3
  C:FD5EH         PUBLIC        _Modbus_TriggerDefrostParamWrite
  D:00F8H         PUBLIC        RAMMODE
  X:8011H         PUBLIC        En_change_Controller
  X:8013H         SYMBOL        s_indoor_w_q
  X:8019H         SYMBOL        s_defrost_param_vp
  D:00A8H         PUBLIC        IEN0
  B:0020H.0       PUBLIC        Modbus_Write_DefrostParam
  B:0020H.1       PUBLIC        Modbus_Read_Check
  D:00B8H         PUBLIC        IEN1
  X:801BH         PUBLIC        Read_Or_Write
  B:0020H.2       PUBLIC        First_Write600
  X:801CH         SYMBOL        s_indoor_sent_regs
  X:807CH         SYMBOL        s_group_sent_valid
  C:F1FAH         SYMBOL        Modbus_StartNextTimerWrite
  C:FC41H         SYMBOL        Modbus_IndoorWritePending
BL51 BANKED LINKER/LOCATER V6.22.2.0                                                  07/08/2026  17:17:08  PAGE 86


  X:807DH         SYMBOL        s_group_regs
  C:F77FH         SYMBOL        Modbus_FinishIndoorWriteChain
  X:80ADH         SYMBOL        s_indoor_write_idx
  B:0020H.3       PUBLIC        Modbus_Write_Defrost
  C:DC4AH         SYMBOL        _Modbus_SyncDefrostFromReg205
  C:D6EDH         SYMBOL        _Modbus_AppendModeSetTempReg
  B:0020H.4       SYMBOL        Modbus_Write_5_Pending
  B:0020H.5       SYMBOL        Modbus_Write_6_Pending
  C:F0C9H         SYMBOL        _Modbus_DecodeIndoorFan
  C:C640H         PUBLIC        _CalculateModbusCrc
  C:F9A6H         PUBLIC        Modbus_StartManualDefrost
  X:80AEH         PUBLIC        Modbus_Dbg_LastTxAddr
  B:0020H.6       PUBLIC        Modbus_Read_Check_2
  B:0020H.7       PUBLIC        Modbus_Read_Check_3
  C:2CC7H         PUBLIC        Modbus_Salve_Handler1
  C:EB5BH         SYMBOL        _Modbus_SaveGroupSentRegs
  C:E403H         SYMBOL        _Modbus_GroupRegsChanged
  B:0021H.0       PUBLIC        Modbus_Read_Check_4
  C:F629H         SYMBOL        _Modbus_DecodeIndoorModeBits
  B:0021H.1       PUBLIC        Modbus_Read_Check_5
  C:E82DH         SYMBOL        Modbus_StartNextIndoorUnitWrite
  X:80B0H         SYMBOL        s_indoor_mb_power
  C:BE56H         SYMBOL        Modbus_RetryIndoorPowerMismatch
  X:80B6H         SYMBOL        s_indoor_retry_cd
  C:1AB7H         PUBLIC        Modbus_Analysis_Data1
  C:F5FCH         SYMBOL        _Modbus_EncodeIndoorFan
  X:80C2H         SYMBOL        s_user_hold_mode
  C:C923H         SYMBOL        _Modbus_PackCheckStatusBlock
  C:C6F9H         SYMBOL        _Modbus_SyncHomeIndoorModeFromUnit
  X:80C4H         PUBLIC        Modbus_Buffer
  X:81F0H         SYMBOL        s_indoor_w_q_len
  C:FBEAH         PUBLIC        Modbus_TriggerGroupControlWrite
  X:81F1H         SYMBOL        s_user_power_hold
  C:EC92H         PUBLIC        _GetModbusReg
  X:81F3H         SYMBOL        Modbus_Timer_Unit_Index
  C:E193H         SYMBOL        _Modbus_Indoor11000BlockEmpty
  X:81F4H         PUBLIC        xuantest1
  C:E0BBH         PUBLIC        _Modbus_SetDefrostDisplay
  X:81F6H         PUBLIC        xuantest2
  X:81F8H         SYMBOL        s_group_sent_regs
  D:0088H         PUBLIC        TCON
  B:0021H.2       SYMBOL        Modbus_Write_DefrostParam_Pending
  C:FF94H         SYMBOL        Modbus_YieldWiFi
  B:0021H.3       PUBLIC        Modbus_Read_Error
  B:0021H.4       PUBLIC        Modbus_Read_LowerLimit
  B:0021H.5       PUBLIC        Modbus_Read_UpperLimit
  X:8228H         SYMBOL        s_indoor_w_q_pos
  D:00C9H         PUBLIC        MUX_SEL
  B:0021H.6       PUBLIC        Modbus_Write_Timer
  C:FEFAH         SYMBOL        Modbus_ClearPollReadFlags
  C:FF9DH         SYMBOL        _?ix1000
  B:0021H.7       PUBLIC        Modbus_Read_Check_4_old
  X:8229H         SYMBOL        Modbus_Dbg_LastTxUnit
  B:0022H.0       PUBLIC        Modbus_Write_Ueser
  X:822AH         PUBLIC        Analysis_OK
  X:822BH         SYMBOL        s_timer_q
  C:CBC5H         PUBLIC        _Modbus_TriggerIndoorUnitWrite
BL51 BANKED LINKER/LOCATER V6.22.2.0                                                  07/08/2026  17:17:08  PAGE 87


  X:8231H         PUBLIC        Modbus_Dbg_FuncCode
  C:EBA7H         SYMBOL        Modbus_AdvancePollOnTimeout
  C:F982H         SYMBOL        _Modbus_ReportFaultCode
  X:8232H         PUBLIC        Indoor_Unit_Index
  B:0022H.1       PUBLIC        Modbus_Read_User
  C:F04DH         SYMBOL        _Modbus_EncodeIndoorRunMode
  C:FD4FH         SYMBOL        _Modbus_PackCheckStatusByte
  X:8233H         PUBLIC        send_type
  X:8234H         PUBLIC        Modbus_DefrostRetryLeft
  C:9C31H         PUBLIC        Modbus_RefreshCheckParamDisplay
  C:FC75H         SYMBOL        _Modbus_UnscaleIndoorSetTemp
  C:E39DH         SYMBOL        Modbus_IndoorHoldTick
  C:FC07H         SYMBOL        _Modbus_RxU16
  C:C332H         PUBLIC        Modbus_TriggerUserWrite
  C:F8C2H         SYMBOL        _Modbus_QueueIndoorTimerWrite
  X:8235H         SYMBOL        s_user_hold_pwr
  C:ED1EH         PUBLIC        _Modbus_GetCheckStatus
  B:0022H.2       PUBLIC        Modbus_Read_Set
  X:8237H         SYMBOL        s_check_status
  X:8282H         PUBLIC        IsCheckParameterTemperature
  C:FE43H         SYMBOL        _Modbus_RxRelReg
  C:AEE6H         SYMBOL        _Modbus_FillGroupControlRegs
  C:FFDBH         PUBLIC        Modbus_Init
  D:0098H         PUBLIC        SCON0
  X:829BH         PUBLIC        SetParameterLowerLimit
  C:EC4CH         SYMBOL        _Modbus_AppendU16
  D:00C8H         PUBLIC        T2CON
  X:835BH         PUBLIC        SetParameterUpperLimit
  X:841BH         SYMBOL        s_timer_q_len
  X:841CH         SYMBOL        Modbus_Dbg_LastTxRw
  B:0022H.3       SYMBOL        Modbus_Write_Timer_Pending
  X:841DH         SYMBOL        s_defrost_want
  B:0022H.4       PUBLIC        Modbus_Write_6_All
  B:0022H.5       SYMBOL        Modbus_Write_Ueser_Pending
  X:841EH         PUBLIC        Modbus_Dbg_SendType
  X:841FH         PUBLIC        IsCheckParameterTemperature_2
  C:700EH         PUBLIC        _Modbus_ApplyIndoorTimerVpToUnits
  C:FC5CH         SYMBOL        _Modbus_ScaleIndoorSetTemp
  B:0022H.6       PUBLIC        Modbus_Write_5
  B:0022H.7       PUBLIC        Modbus_Write_6
  C:FF6AH         SYMBOL        Modbus_StartIndoorPollAfterCheck2
  X:844CH         SYMBOL        s_indoor_sent_valid
  C:FB74H         SYMBOL        _Modbus_IndoorHoldSet
  X:8452H         SYMBOL        s_indoor_regs
  C:E77CH         SYMBOL        _Modbus_QueueIndoorUnitWrite
  D:00D0H         PUBLIC        PSW
  B:0023H.0       PUBLIC        Modbus_Read_Initial
  D:00C0H         PUBLIC        IRCON
  X:848EH         SYMBOL        s_indoor_power_hold
  X:849AH         SYMBOL        s_timer_q_pos
  -------         PROC          _MODBUS_INDOORHOLDSET
  D:0007H         SYMBOL        idx
  C:FB74H         LINE#         78
  C:FB74H         LINE#         79
  C:FB74H         LINE#         80
  C:FB7EH         LINE#         81
  C:FB91H         LINE#         82
BL51 BANKED LINKER/LOCATER V6.22.2.0                                                  07/08/2026  17:17:08  PAGE 88


  -------         ENDPROC       _MODBUS_INDOORHOLDSET
  -------         PROC          MODBUS_INDOORHOLDTICK
  -------         DO            
  D:0007H         SYMBOL        i
  -------         ENDDO         
  C:E39DH         LINE#         84
  C:E39DH         LINE#         85
  C:E39DH         LINE#         88
  C:E3A9H         LINE#         89
  C:E3A9H         LINE#         90
  C:E3C1H         LINE#         91
  C:E3D4H         LINE#         92
  C:E3ECH         LINE#         93
  C:E3FFH         LINE#         94
  C:E402H         LINE#         95
  -------         ENDPROC       MODBUS_INDOORHOLDTICK
  -------         PROC          MODBUS_YIELDWIFI
  C:FF94H         LINE#         97
  C:FF94H         LINE#         98
  C:FF94H         LINE#         99
  C:FF97H         LINE#         100
  C:FF9AH         LINE#         101
  -------         ENDPROC       MODBUS_YIELDWIFI
  -------         PROC          _CALCULATEMODBUSCRC
  X:8DC3H         SYMBOL        pBuf
  X:8DC6H         SYMBOL        nLen
  -------         DO            
  X:8DC8H         SYMBOL        i
  D:0005H         SYMBOL        j
  X:8DCAH         SYMBOL        nData
  D:0002H         SYMBOL        nFlag
  -------         ENDDO         
  C:C640H         LINE#         152
  C:C651H         LINE#         153
  C:C651H         LINE#         159
  C:C659H         LINE#         160
  C:C675H         LINE#         161
  C:C675H         LINE#         162
  C:C698H         LINE#         163
  C:C6A4H         LINE#         164
  C:C6A4H         LINE#         165
  C:C6ABH         LINE#         166
  C:C6BEH         LINE#         167
  C:C6C8H         LINE#         169
  C:C6CDH         LINE#         170
  C:C6CDH         LINE#         171
  C:C6D9H         LINE#         172
  C:C6D9H         LINE#         173
  C:C6DCH         LINE#         174
  C:C6F0H         LINE#         176
  C:C6F8H         LINE#         177
  -------         ENDPROC       _CALCULATEMODBUSCRC
  -------         PROC          MODBUS_INIT
  C:FFDBH         LINE#         189
  C:FFDBH         LINE#         190
  C:FFDBH         LINE#         191
  -------         ENDPROC       MODBUS_INIT
BL51 BANKED LINKER/LOCATER V6.22.2.0                                                  07/08/2026  17:17:08  PAGE 89


  C:EC3FH         SYMBOL        L?0523
  -------         PROC          L?0522
  -------         ENDPROC       L?0522
  C:EC3FH         SYMBOL        L?0523
  -------         PROC          _MODBUS_APPENDU16
  D:0001H         SYMBOL        pLen
  X:8D8BH         SYMBOL        val
  C:EC4CH         LINE#         194
  C:EC54H         LINE#         195
  C:EC54H         LINE#         196
  C:EC6EH         LINE#         197
  C:EC89H         LINE#         198
  -------         ENDPROC       _MODBUS_APPENDU16
  -------         PROC          L?0529
  -------         ENDPROC       L?0529
  -------         PROC          _MODBUS_APPENDMODESETTEMPREG
  X:8D86H         SYMBOL        pLen
  D:0005H         SYMBOL        mode
  -------         DO            
  X:8D89H         SYMBOL        temp
  -------         ENDDO         
  C:D6EDH         LINE#         200
  C:D6F8H         LINE#         201
  C:D6F8H         LINE#         202
  C:D6FDH         LINE#         204
  C:D714H         LINE#         205
  C:D749H         LINE#         206
  -------         ENDPROC       _MODBUS_APPENDMODESETTEMPREG
  -------         PROC          _MODBUS_ENCODEINDOORRUNMODE
  D:0006H         SYMBOL        power
  D:0004H         SYMBOL        dgus_mode
  -------         DO            
  D:0002H         SYMBOL        modbus_mode
  -------         ENDDO         
  C:F04DH         LINE#         209
  C:F04DH         LINE#         210
  C:F04DH         LINE#         212
  C:F051H         LINE#         213
  C:F054H         LINE#         214
  C:F068H         LINE#         215
  C:F068H         LINE#         216
  C:F06EH         LINE#         217
  C:F074H         LINE#         218
  C:F07AH         LINE#         219
  C:F080H         LINE#         220
  C:F080H         LINE#         221
  C:F084H         LINE#         222
  C:F084H         LINE#         223
  C:F08AH         LINE#         224
  -------         ENDPROC       _MODBUS_ENCODEINDOORRUNMODE
  -------         PROC          _MODBUS_ENCODEINDOORFAN
  D:0006H         SYMBOL        dgus_fan
  C:F5FCH         LINE#         226
  C:F5FCH         LINE#         227
  C:F5FCH         LINE#         228
  C:F60EH         LINE#         229
  C:F60EH         LINE#         230
BL51 BANKED LINKER/LOCATER V6.22.2.0                                                  07/08/2026  17:17:08  PAGE 90


  C:F610H         LINE#         231
  C:F615H         LINE#         232
  C:F61AH         LINE#         233
  C:F61FH         LINE#         234
  C:F624H         LINE#         235
  C:F628H         LINE#         236
  C:F628H         LINE#         237
  -------         ENDPROC       _MODBUS_ENCODEINDOORFAN
  -------         PROC          _MODBUS_DECODEINDOORMODEBITS
  D:0006H         SYMBOL        reg
  C:F629H         LINE#         239
  C:F629H         LINE#         240
  C:F629H         LINE#         241
  C:F63CH         LINE#         242
  C:F63CH         LINE#         243
  C:F63EH         LINE#         244
  C:F643H         LINE#         245
  C:F648H         LINE#         246
  C:F64DH         LINE#         247
  C:F652H         LINE#         248
  C:F655H         LINE#         249
  C:F655H         LINE#         250
  -------         ENDPROC       _MODBUS_DECODEINDOORMODEBITS
  -------         PROC          _MODBUS_DECODEINDOORFAN
  D:0006H         SYMBOL        reg
  C:F0C9H         LINE#         252
  C:F0C9H         LINE#         253
  C:F0C9H         LINE#         254
  C:F0CFH         LINE#         255
  C:F0D2H         LINE#         256
  C:F0D6H         LINE#         257
  C:F0D9H         LINE#         258
  C:F0E2H         LINE#         259
  C:F0E7H         LINE#         260
  C:F0F0H         LINE#         261
  C:F0F5H         LINE#         262
  C:F100H         LINE#         263
  C:F103H         LINE#         264
  C:F105H         LINE#         265
  -------         ENDPROC       _MODBUS_DECODEINDOORFAN
  -------         PROC          _MODBUS_SCALEINDOORSETTEMP
  D:0007H         SYMBOL        index
  D:0002H         SYMBOL        temp_c
  C:FC5CH         LINE#         267
  C:FC60H         LINE#         268
  C:FC60H         LINE#         269
  C:FC63H         LINE#         270
  C:FC6DH         LINE#         271
  C:FC74H         LINE#         272
  -------         ENDPROC       _MODBUS_SCALEINDOORSETTEMP
  -------         PROC          _MODBUS_UNSCALEINDOORSETTEMP
  D:0007H         SYMBOL        index
  D:0002H         SYMBOL        raw
  C:FC75H         LINE#         274
  C:FC79H         LINE#         275
  C:FC79H         LINE#         276
  C:FC7CH         LINE#         277
BL51 BANKED LINKER/LOCATER V6.22.2.0                                                  07/08/2026  17:17:08  PAGE 91


  C:FC86H         LINE#         278
  C:FC8DH         LINE#         279
  -------         ENDPROC       _MODBUS_UNSCALEINDOORSETTEMP
  -------         PROC          _MODBUS_INDOOR11000BLOCKEMPTY
  X:8DC3H         SYMBOL        rx
  C:E193H         LINE#         281
  C:E19EH         LINE#         282
  C:E19EH         LINE#         283
  C:E1B2H         LINE#         284
  C:E1B5H         LINE#         285
  C:E1BEH         LINE#         286
  C:E1C1H         LINE#         287
  C:E1CAH         LINE#         288
  C:E1CDH         LINE#         289
  C:E1E1H         LINE#         290
  C:E1E4H         LINE#         291
  C:E1F8H         LINE#         292
  C:E1FBH         LINE#         293
  C:E1FDH         LINE#         294
  -------         ENDPROC       _MODBUS_INDOOR11000BLOCKEMPTY
  -------         PROC          _MODBUS_SYNCHOMEINDOORMODEFROMUNIT
  X:8DC3H         SYMBOL        uidx
  X:8DC4H         SYMBOL        dgus_mode
  -------         DO            
  X:8DC6H         SYMBOL        i
  X:8DC7H         SYMBOL        first_on
  X:8DC8H         SYMBOL        power
  -------         ENDDO         
  C:C6F9H         LINE#         296
  C:C704H         LINE#         297
  C:C704H         LINE#         299
  C:C70AH         LINE#         302
  C:C719H         LINE#         303
  C:C71DH         LINE#         304
  C:C740H         LINE#         305
  C:C753H         LINE#         306
  C:C753H         LINE#         307
  C:C76EH         LINE#         308
  C:C77AH         LINE#         309
  C:C77AH         LINE#         310
  C:C780H         LINE#         311
  C:C782H         LINE#         312
  C:C782H         LINE#         313
  C:C78AH         LINE#         314
  C:C799H         LINE#         315
  C:C799H         LINE#         316
  C:C7B1H         LINE#         317
  C:C7B1H         LINE#         318
  -------         ENDPROC       _MODBUS_SYNCHOMEINDOORMODEFROMUNIT
  C:8070H         SYMBOL        L?0525
  C:8072H         SYMBOL        L?0526
  -------         PROC          L?0524
  -------         ENDPROC       L?0524
  C:8070H         SYMBOL        L?0525
  C:8072H         SYMBOL        L?0526
  -------         PROC          _MODBUS_FILLINDOORUNITREGS
  X:8E20H         SYMBOL        index
BL51 BANKED LINKER/LOCATER V6.22.2.0                                                  07/08/2026  17:17:08  PAGE 92


  X:8E21H         SYMBOL        regs
  -------         DO            
  D:0007H         SYMBOL        i
  X:8E24H         SYMBOL        power
  X:8E26H         SYMBOL        mode
  X:8E28H         SYMBOL        temp
  X:8E2AH         SYMBOL        fan
  X:8E2CH         SYMBOL        vp_base
  -------         ENDDO         
  C:8078H         LINE#         330
  C:8086H         LINE#         331
  C:8086H         LINE#         336
  C:80A4H         LINE#         337
  C:80C2H         LINE#         338
  C:80E0H         LINE#         339
  C:80FEH         LINE#         341
  C:8120H         LINE#         342
  C:813FH         LINE#         343
  C:8163H         LINE#         345
  C:8185H         LINE#         346
  C:8199H         LINE#         347
  C:81B9H         LINE#         348
  C:81EDH         LINE#         349
  C:8221H         LINE#         350
  C:8255H         LINE#         352
  C:8261H         LINE#         353
  C:827FH         LINE#         354
  -------         ENDPROC       _MODBUS_FILLINDOORUNITREGS
  -------         PROC          _MODBUS_INDOORREGSCHANGED
  X:8E1FH         SYMBOL        idx
  X:8E20H         SYMBOL        regs
  -------         DO            
  X:8E23H         SYMBOL        i
  -------         ENDDO         
  C:D8F2H         LINE#         356
  C:D900H         LINE#         357
  C:D900H         LINE#         360
  C:D910H         LINE#         361
  C:D913H         LINE#         362
  C:D925H         LINE#         363
  C:D925H         LINE#         364
  C:D964H         LINE#         365
  C:D967H         LINE#         366
  C:D96FH         LINE#         367
  C:D971H         LINE#         368
  -------         ENDPROC       _MODBUS_INDOORREGSCHANGED
  -------         PROC          _MODBUS_SAVEINDOORSENTREGS
  X:8DC3H         SYMBOL        idx
  X:8DC4H         SYMBOL        regs
  -------         DO            
  D:0007H         SYMBOL        i
  -------         ENDDO         
  C:D552H         LINE#         370
  C:D560H         LINE#         371
  C:D560H         LINE#         374
  C:D56CH         LINE#         375
  C:D5A6H         LINE#         376
BL51 BANKED LINKER/LOCATER V6.22.2.0                                                  07/08/2026  17:17:08  PAGE 93


  C:D5B7H         LINE#         377
  C:D5DAH         LINE#         378
  -------         ENDPROC       _MODBUS_SAVEINDOORSENTREGS
  -------         PROC          L?0531
  -------         ENDPROC       L?0531
  -------         PROC          _MODBUS_FILLGROUPCONTROLREGS
  X:8D86H         SYMBOL        regs
  -------         DO            
  D:0007H         SYMBOL        i
  X:8D89H         SYMBOL        val
  -------         ENDDO         
  C:AEE6H         LINE#         387
  C:AEF1H         LINE#         388
  C:AEF1H         LINE#         392
  C:AEFDH         LINE#         393
  C:AF1CH         LINE#         395
  C:AF35H         LINE#         396
  C:AF58H         LINE#         398
  C:AF71H         LINE#         399
  C:AF8DH         LINE#         401
  C:AFA6H         LINE#         402
  C:AFC5H         LINE#         404
  C:AFD1H         LINE#         405
  C:AFEFH         LINE#         406
  -------         ENDPROC       _MODBUS_FILLGROUPCONTROLREGS
  -------         PROC          _MODBUS_GROUPREGSCHANGED
  X:8D82H         SYMBOL        regs
  -------         DO            
  X:8D85H         SYMBOL        i
  -------         ENDDO         
  C:E403H         LINE#         408
  C:E40EH         LINE#         409
  C:E40EH         LINE#         412
  C:E414H         LINE#         413
  C:E417H         LINE#         414
  C:E42AH         LINE#         415
  C:E42AH         LINE#         416
  C:E45BH         LINE#         417
  C:E45EH         LINE#         418
  C:E466H         LINE#         419
  C:E468H         LINE#         420
  -------         ENDPROC       _MODBUS_GROUPREGSCHANGED
  -------         PROC          _MODBUS_SAVEGROUPSENTREGS
  X:8DC3H         SYMBOL        regs
  -------         DO            
  D:0007H         SYMBOL        i
  -------         ENDDO         
  C:EB5BH         LINE#         422
  C:EB66H         LINE#         423
  C:EB66H         LINE#         426
  C:EB72H         LINE#         427
  C:EBA0H         LINE#         428
  C:EBA6H         LINE#         429
  -------         ENDPROC       _MODBUS_SAVEGROUPSENTREGS
  -------         PROC          MODBUS_TRIGGERGROUPCONTROLWRITE
  C:FBEAH         LINE#         431
  C:FBEAH         LINE#         432
BL51 BANKED LINKER/LOCATER V6.22.2.0                                                  07/08/2026  17:17:08  PAGE 94


  C:FBEAH         LINE#         433
  C:FBEDH         LINE#         434
  C:FBF9H         LINE#         435
  C:FBF9H         LINE#         436
  C:FBFBH         LINE#         437
  C:FBFDH         LINE#         438
  C:FC06H         LINE#         439
  C:FC06H         LINE#         440
  -------         ENDPROC       MODBUS_TRIGGERGROUPCONTROLWRITE
  -------         PROC          _MODBUS_REPORTFAULTCODE
  X:8D86H         SYMBOL        fault_code
  C:F982H         LINE#         442
  C:F98AH         LINE#         443
  C:F98AH         LINE#         444
  C:F9A3H         LINE#         445
  -------         ENDPROC       _MODBUS_REPORTFAULTCODE
  -------         PROC          L?0530
  -------         ENDPROC       L?0530
  -------         PROC          _MODBUS_PACKCHECKSTATUSBYTE
  D:0002H         SYMBOL        val
  D:0005H         SYMBOL        is_temp
  -------         DO            
  D:0006H         SYMBOL        temp
  -------         ENDDO         
  C:FD4FH         LINE#         463
  C:FD51H         LINE#         464
  C:FD51H         LINE#         467
  C:FD54H         LINE#         468
  C:FD54H         LINE#         469
  C:FD5BH         LINE#         470
  C:FD5BH         LINE#         471
  C:FD5BH         LINE#         472
  C:FD5DH         LINE#         473
  -------         ENDPROC       _MODBUS_PACKCHECKSTATUSBYTE
  -------         PROC          L?0532
  -------         ENDPROC       L?0532
  -------         PROC          _MODBUS_PACKCHECKSTATUSBLOCK
  X:8DC3H         SYMBOL        rx
  X:8DC6H         SYMBOL        count
  X:8DC7H         SYMBOL        is_temp_arr
  X:8DCAH         SYMBOL        dst_off
  -------         DO            
  X:8DCBH         SYMBOL        i
  X:8DCCH         SYMBOL        u8tou16
  -------         ENDDO         
  C:C923H         LINE#         475
  C:C931H         LINE#         476
  C:C931H         LINE#         480
  C:C947H         LINE#         481
  C:C947H         LINE#         482
  C:C967H         LINE#         483
  C:C987H         LINE#         484
  C:C9BFH         LINE#         485
  C:C9C8H         LINE#         486
  -------         ENDPROC       _MODBUS_PACKCHECKSTATUSBLOCK
  C:C1A3H         SYMBOL        L?0528
  -------         PROC          L?0527
BL51 BANKED LINKER/LOCATER V6.22.2.0                                                  07/08/2026  17:17:08  PAGE 95


  -------         ENDPROC       L?0527
  C:C1A3H         SYMBOL        L?0528
  -------         PROC          _MODBUS_WRITEFLOATTEMPPAIR
  X:8DC3H         SYMBOL        vp_c
  X:8DC7H         SYMBOL        vp_f
  X:8DCBH         SYMBOL        temp_c
  -------         DO            
  X:8DCFH         SYMBOL        old_c
  X:8DD3H         SYMBOL        temp_f
  -------         ENDDO         
  C:C1A9H         LINE#         488
  C:C1AFH         LINE#         489
  C:C1AFH         LINE#         493
  C:C1CFH         LINE#         494
  C:C201H         LINE#         495
  C:C204H         LINE#         496
  C:C228H         LINE#         497
  C:C248H         LINE#         498
  C:C268H         LINE#         499
  C:C26AH         LINE#         500
  -------         ENDPROC       _MODBUS_WRITEFLOATTEMPPAIR
  -------         PROC          _MODBUS_GETCHECKSTATUS
  X:8E2CH         SYMBOL        buf
  D:0005H         SYMBOL        len
  -------         DO            
  D:0006H         SYMBOL        i
  D:0007H         SYMBOL        n
  -------         ENDDO         
  C:ED1EH         LINE#         502
  C:ED29H         LINE#         503
  C:ED29H         LINE#         506
  C:ED2CH         LINE#         508
  C:ED3CH         LINE#         509
  C:ED43H         LINE#         510
  C:ED66H         LINE#         511
  -------         ENDPROC       _MODBUS_GETCHECKSTATUS
  -------         PROC          _MODBUS_SETDEFROSTDISPLAY
  X:8DF1H         SYMBOL        on
  -------         DO            
  X:8DF3H         SYMBOL        ui_val
  -------         ENDDO         
  C:E0BBH         LINE#         513
  C:E0C3H         LINE#         514
  C:E0C3H         LINE#         517
  C:E0DCH         LINE#         518
  C:E0F7H         LINE#         519
  C:E0FFH         LINE#         520
  C:E118H         LINE#         521
  C:E122H         LINE#         522
  C:E126H         LINE#         523
  -------         ENDPROC       _MODBUS_SETDEFROSTDISPLAY
  -------         PROC          _MODBUS_SYNCDEFROSTFROMREG205
  D:0006H         SYMBOL        reg205_raw
  -------         DO            
  X:8DC3H         SYMBOL        def_on
  X:8DC4H         SYMBOL        vp_old
  -------         ENDDO         
BL51 BANKED LINKER/LOCATER V6.22.2.0                                                  07/08/2026  17:17:08  PAGE 96


  C:DC4AH         LINE#         525
  C:DC4AH         LINE#         526
  C:DC4AH         LINE#         530
  C:DC51H         LINE#         531
  C:DC6AH         LINE#         533
  C:DC70H         LINE#         534
  C:DC70H         LINE#         535
  C:DC76H         LINE#         536
  C:DC78H         LINE#         537
  C:DC8EH         LINE#         538
  C:DC8EH         LINE#         539
  C:DC95H         LINE#         540
  C:DC95H         LINE#         541
  C:DC95H         LINE#         543
  C:DC95H         LINE#         544
  C:DC97H         LINE#         545
  C:DC9DH         LINE#         546
  C:DC9DH         LINE#         547
  C:DCB1H         LINE#         548
  C:DCB1H         LINE#         549
  C:DCB7H         LINE#         550
  C:DCBAH         LINE#         551
  C:DCBDH         LINE#         552
  C:DCC0H         LINE#         554
  C:DCC0H         LINE#         555
  C:DCC0H         LINE#         556
  -------         ENDPROC       _MODBUS_SYNCDEFROSTFROMREG205
  -------         PROC          MODBUS_STARTMANUALDEFROST
  -------         DO            
  D:0006H         SYMBOL        one
  -------         ENDDO         
  C:F9A6H         LINE#         558
  C:F9A6H         LINE#         559
  C:F9A6H         LINE#         560
  C:F9AAH         LINE#         562
  C:F9B0H         LINE#         563
  C:F9B6H         LINE#         564
  C:F9B9H         LINE#         565
  C:F9BBH         LINE#         566
  C:F9BDH         LINE#         567
  C:F9BFH         LINE#         568
  C:F9C8H         LINE#         570
  -------         ENDPROC       MODBUS_STARTMANUALDEFROST
  -------         PROC          MODBUS_STARTNEXTTIMERWRITE
  C:F1FAH         LINE#         572
  C:F1FAH         LINE#         573
  C:F1FAH         LINE#         574
  C:F207H         LINE#         575
  C:F207H         LINE#         576
  C:F20CH         LINE#         577
  C:F211H         LINE#         579
  C:F211H         LINE#         580
  C:F227H         LINE#         581
  C:F229H         LINE#         582
  C:F22BH         LINE#         583
  C:F234H         LINE#         584
  -------         ENDPROC       MODBUS_STARTNEXTTIMERWRITE
BL51 BANKED LINKER/LOCATER V6.22.2.0                                                  07/08/2026  17:17:08  PAGE 97


  -------         PROC          _MODBUS_QUEUEINDOORTIMERWRITE
  D:0007H         SYMBOL        index
  C:F8C2H         LINE#         586
  C:F8C2H         LINE#         587
  C:F8C2H         LINE#         588
  C:F8CFH         LINE#         589
  C:F8DFH         LINE#         590
  C:F8E5H         LINE#         591
  C:F8E8H         LINE#         592
  -------         ENDPROC       _MODBUS_QUEUEINDOORTIMERWRITE
  -------         PROC          _MODBUS_APPLYINDOORTIMERVPTOUNITS
  X:8E0FH         SYMBOL        update_on
  X:8E10H         SYMBOL        update_off
  -------         DO            
  X:8E11H         SYMBOL        i
  X:8E12H         SYMBOL        sel_count
  X:8E13H         SYMBOL        on_en
  X:8E15H         SYMBOL        off_en
  X:8E17H         SYMBOL        hour
  X:8E19H         SYMBOL        minute
  X:8E1BH         SYMBOL        on_time
  X:8E1DH         SYMBOL        off_time
  X:8E1FH         SYMBOL        sel
  X:8E21H         SYMBOL        vp_base
  -------         ENDDO         
  C:700EH         LINE#         594
  C:7018H         LINE#         595
  C:7018H         LINE#         596
  C:701DH         LINE#         600
  C:7021H         LINE#         601
  C:7025H         LINE#         603
  C:7028H         LINE#         604
  C:7028H         LINE#         605
  C:7041H         LINE#         606
  C:705AH         LINE#         607
  C:7073H         LINE#         608
  C:7084H         LINE#         609
  C:7084H         LINE#         610
  C:708AH         LINE#         611
  C:708AH         LINE#         612
  C:70A3H         LINE#         613
  C:70BCH         LINE#         614
  C:70D5H         LINE#         615
  C:70E8H         LINE#         616
  C:70E8H         LINE#         618
  C:70FEH         LINE#         619
  C:70FEH         LINE#         620
  C:7119H         LINE#         621
  C:7126H         LINE#         622
  C:7126H         LINE#         623
  C:712CH         LINE#         624
  C:714EH         LINE#         625
  C:7154H         LINE#         626
  C:7154H         LINE#         627
  C:7173H         LINE#         628
  C:719DH         LINE#         629
  C:719DH         LINE#         630
BL51 BANKED LINKER/LOCATER V6.22.2.0                                                  07/08/2026  17:17:08  PAGE 98


  C:71A3H         LINE#         631
  C:71A3H         LINE#         632
  C:71CDH         LINE#         633
  C:71F7H         LINE#         634
  C:71F7H         LINE#         635
  C:71FFH         LINE#         636
  C:7208H         LINE#         638
  C:720EH         LINE#         639
  C:720EH         LINE#         640
  C:7218H         LINE#         641
  C:7237H         LINE#         642
  C:7261H         LINE#         643
  C:7261H         LINE#         644
  C:7267H         LINE#         645
  C:7267H         LINE#         646
  C:7271H         LINE#         647
  C:729BH         LINE#         648
  C:72C5H         LINE#         649
  C:72C5H         LINE#         650
  -------         ENDPROC       _MODBUS_APPLYINDOORTIMERVPTOUNITS
  -------         PROC          MODBUS_INDOORWRITEPENDING
  C:FC41H         LINE#         657
  C:FC41H         LINE#         658
  C:FC41H         LINE#         659
  C:FC4AH         LINE#         660
  C:FC4CH         LINE#         661
  C:FC59H         LINE#         662
  C:FC5AH         LINE#         663
  C:FC5BH         LINE#         664
  -------         ENDPROC       MODBUS_INDOORWRITEPENDING
  -------         PROC          MODBUS_FINISHINDOORWRITECHAIN
  C:F77FH         LINE#         666
  C:F77FH         LINE#         667
  C:F77FH         LINE#         668
  C:F78CH         LINE#         669
  C:F78CH         LINE#         670
  C:F78FH         LINE#         672
  C:F78FH         LINE#         673
  C:F794H         LINE#         674
  C:F798H         LINE#         675
  C:F79DH         LINE#         676
  C:F79DH         LINE#         677
  C:F7A2H         LINE#         678
  C:F7A5H         LINE#         679
  C:F7A7H         LINE#         680
  C:F7A7H         LINE#         681
  -------         ENDPROC       MODBUS_FINISHINDOORWRITECHAIN
  -------         PROC          MODBUS_STARTNEXTINDOORUNITWRITE
  -------         DO            
  X:8E1FH         SYMBOL        idx
  -------         ENDDO         
  C:E82DH         LINE#         683
  C:E82DH         LINE#         684
  C:E82DH         LINE#         687
  C:E83AH         LINE#         688
  C:E83AH         LINE#         689
  C:E83FH         LINE#         690
BL51 BANKED LINKER/LOCATER V6.22.2.0                                                  07/08/2026  17:17:08  PAGE 99


  C:E844H         LINE#         692
  C:E844H         LINE#         693
  C:E85AH         LINE#         694
  C:E85FH         LINE#         695
  C:E86AH         LINE#         696
  C:E86DH         LINE#         697
  C:E873H         LINE#         698
  C:E875H         LINE#         699
  C:E877H         LINE#         700
  C:E880H         LINE#         702
  -------         ENDPROC       MODBUS_STARTNEXTINDOORUNITWRITE
  -------         PROC          _MODBUS_QUEUEINDOORUNITWRITE
  D:0007H         SYMBOL        index
  -------         DO            
  D:0006H         SYMBOL        i
  -------         ENDDO         
  C:E77CH         LINE#         704
  C:E77CH         LINE#         705
  C:E77CH         LINE#         708
  C:E786H         LINE#         710
  C:E792H         LINE#         711
  C:E79DH         LINE#         712
  C:E79DH         LINE#         713
  C:E7ABH         LINE#         715
  C:E7AEH         LINE#         716
  C:E7B8H         LINE#         717
  C:E7CBH         LINE#         718
  C:E7D4H         LINE#         719
  C:E7D7H         LINE#         720
  -------         ENDPROC       _MODBUS_QUEUEINDOORUNITWRITE
  -------         PROC          _MODBUS_TRIGGERINDOORUNITWRITE
  X:8E1DH         SYMBOL        index
  D:0005H         SYMBOL        write_all
  -------         DO            
  X:8E1EH         SYMBOL        i
  -------         ENDDO         
  C:CBC5H         LINE#         722
  C:CBCAH         LINE#         723
  C:CBCAH         LINE#         724
  C:CBCDH         LINE#         725
  C:CBCDH         LINE#         728
  C:CBD2H         LINE#         729
  C:CBD6H         LINE#         730
  C:CBDAH         LINE#         731
  C:CBECH         LINE#         732
  C:CBECH         LINE#         733
  C:CBEFH         LINE#         734
  C:CBFEH         LINE#         735
  C:CC06H         LINE#         736
  C:CC08H         LINE#         737
  C:CC0BH         LINE#         738
  C:CC16H         LINE#         739
  C:CC16H         LINE#         740
  C:CC16H         LINE#         741
  C:CC18H         LINE#         743
  C:CC18H         LINE#         745
  C:CC26H         LINE#         747
BL51 BANKED LINKER/LOCATER V6.22.2.0                                                  07/08/2026  17:17:08  PAGE 100


  C:CC29H         LINE#         748
  C:CC2FH         LINE#         749
  C:CC40H         LINE#         752
  C:CC49H         LINE#         753
  C:CC49H         LINE#         755
  C:CC51H         LINE#         757
  C:CC51H         LINE#         758
  C:CC59H         LINE#         759
  C:CC5BH         LINE#         760
  C:CC5EH         LINE#         761
  C:CC60H         LINE#         762
  C:CC62H         LINE#         763
  C:CC6BH         LINE#         765
  -------         ENDPROC       _MODBUS_TRIGGERINDOORUNITWRITE
  -------         PROC          MODBUS_RETRYINDOORPOWERMISMATCH
  -------         DO            
  X:8DC3H         SYMBOL        i
  X:8DC4H         SYMBOL        vp_pwr
  -------         ENDDO         
  C:BE56H         LINE#         767
  C:BE56H         LINE#         768
  C:BE56H         LINE#         772
  C:BE6CH         LINE#         773
  C:BE6CH         LINE#         774
  C:BE87H         LINE#         775
  C:BE87H         LINE#         776
  C:BEA5H         LINE#         777
  C:BEA5H         LINE#         778
  C:BEC0H         LINE#         779
  C:BECFH         LINE#         780
  C:BED4H         LINE#         781
  C:BEEEH         LINE#         782
  C:BEEEH         LINE#         783
  C:BEFEH         LINE#         784
  C:BF11H         LINE#         785
  C:BF1BH         LINE#         786
  C:BF20H         LINE#         788
  C:BF25H         LINE#         789
  C:BF2EH         LINE#         790
  -------         ENDPROC       MODBUS_RETRYINDOORPOWERMISMATCH
  -------         PROC          _MODBUS_TRIGGERDEFROSTPARAMWRITE
  D:0006H         SYMBOL        vp
  C:FD5EH         LINE#         792
  C:FD5EH         LINE#         793
  C:FD5EH         LINE#         794
  C:FD66H         LINE#         795
  C:FD68H         LINE#         796
  C:FD6AH         LINE#         797
  C:FD73H         LINE#         798
  -------         ENDPROC       _MODBUS_TRIGGERDEFROSTPARAMWRITE
  -------         PROC          MODBUS_TRIGGERUSERWRITE
  -------         DO            
  X:8DF5H         SYMBOL        pwr
  X:8DF7H         SYMBOL        mode
  -------         ENDDO         
  C:C332H         LINE#         800
  C:C332H         LINE#         801
BL51 BANKED LINKER/LOCATER V6.22.2.0                                                  07/08/2026  17:17:08  PAGE 101


  C:C332H         LINE#         804
  C:C34BH         LINE#         805
  C:C364H         LINE#         806
  C:C377H         LINE#         808
  C:C39FH         LINE#         810
  C:C3C2H         LINE#         812
  C:C3D1H         LINE#         813
  C:C3E0H         LINE#         814
  C:C3EAH         LINE#         815
  C:C3ECH         LINE#         816
  C:C3EEH         LINE#         817
  C:C3F7H         LINE#         821
  -------         ENDPROC       MODBUS_TRIGGERUSERWRITE
  -------         PROC          MODBUS_CLEARPOLLREADFLAGS
  C:FEFAH         LINE#         836
  C:FEFAH         LINE#         837
  C:FEFAH         LINE#         838
  C:FEFCH         LINE#         839
  C:FEFEH         LINE#         840
  C:FF00H         LINE#         841
  C:FF02H         LINE#         842
  C:FF04H         LINE#         843
  C:FF06H         LINE#         844
  -------         ENDPROC       MODBUS_CLEARPOLLREADFLAGS
  -------         PROC          MODBUS_STARTINDOORPOLLAFTERCHECK2
  C:FF6AH         LINE#         846
  C:FF6AH         LINE#         847
  C:FF6AH         LINE#         848
  C:FF6DH         LINE#         850
  C:FF72H         LINE#         854
  C:FF74H         LINE#         860
  -------         ENDPROC       MODBUS_STARTINDOORPOLLAFTERCHECK2
  -------         PROC          MODBUS_ADVANCEPOLLONTIMEOUT
  C:EBA7H         LINE#         862
  C:EBA7H         LINE#         863
  C:EBA7H         LINE#         864
  C:EBBFH         LINE#         865
  C:EBBFH         LINE#         866
  C:EBBFH         LINE#         867
  C:EBC1H         LINE#         868
  C:EBC3H         LINE#         869
  C:EBC4H         LINE#         870
  C:EBC4H         LINE#         871
  C:EBC6H         LINE#         872
  C:EBC8H         LINE#         873
  C:EBC9H         LINE#         874
  C:EBC9H         LINE#         875
  C:EBCCH         LINE#         876
  C:EBCCH         LINE#         896
  C:EBCCH         LINE#         897
  C:EBD9H         LINE#         898
  C:EBD9H         LINE#         899
  C:EBDCH         LINE#         900
  C:EBDEH         LINE#         901
  C:EBDFH         LINE#         903
  C:EBDFH         LINE#         904
  C:EBE4H         LINE#         905
BL51 BANKED LINKER/LOCATER V6.22.2.0                                                  07/08/2026  17:17:08  PAGE 102


  C:EBE6H         LINE#         906
  C:EBE8H         LINE#         907
  C:EBE8H         LINE#         908
  C:EBE9H         LINE#         909
  C:EBE9H         LINE#         910
  C:EBEBH         LINE#         911
  C:EBF0H         LINE#         912
  C:EBF2H         LINE#         913
  C:EBF2H         LINE#         914
  C:EBF2H         LINE#         915
  C:EBF2H         LINE#         916
  C:EBF2H         LINE#         917
  -------         ENDPROC       MODBUS_ADVANCEPOLLONTIMEOUT
  -------         PROC          MODBUS_SALVE_HANDLER1
  -------         DO            
  D:0006H         SYMBOL        Modbus_Crc
  X:8D71H         SYMBOL        Modbus_Len
  D:0004H         SYMBOL        Modbus_u16temp
  X:8D73H         SYMBOL        Modbus_Power
  X:8D75H         SYMBOL        Modbus_Mode
  D:0006H         SYMBOL        error
  D:0006H         SYMBOL        dbg_addr
  X:8000H         SYMBOL        s_modbus_depth
  C:3A95H         SYMBOL        modbus_done
  -------         DO            
  X:8D77H         SYMBOL        failed_idx
  -------         ENDDO         
  -------         DO            
  X:8D77H         SYMBOL        addr
  X:8D77H         SYMBOL        i
  X:8D77H         SYMBOL        ri
  X:8D78H         SYMBOL        addr
  X:8D77H         SYMBOL        freq
  X:8D79H         SYMBOL        dtime
  X:8D7BH         SYMBOL        t3c
  X:8D7DH         SYMBOL        reg
  X:8D77H         SYMBOL        ti
  X:8D78H         SYMBOL        addr
  X:8D7AH         SYMBOL        vp_base
  X:8D7EH         SYMBOL        treg
  -------         ENDDO         
  -------         DO            
  X:8D77H         SYMBOL        i
  X:8D77H         SYMBOL        ri
  X:8D78H         SYMBOL        addr
  X:8D77H         SYMBOL        freq
  X:8D79H         SYMBOL        dtime
  X:8D7BH         SYMBOL        t3c
  X:8D7DH         SYMBOL        reg
  X:8D77H         SYMBOL        ti
  X:8D78H         SYMBOL        addr
  X:8D7AH         SYMBOL        vp_base
  X:8D7EH         SYMBOL        treg
  -------         ENDDO         
  -------         DO            
  X:8D77H         SYMBOL        ri
  X:8D78H         SYMBOL        addr
BL51 BANKED LINKER/LOCATER V6.22.2.0                                                  07/08/2026  17:17:08  PAGE 103


  X:8D77H         SYMBOL        freq
  X:8D79H         SYMBOL        dtime
  X:8D7BH         SYMBOL        t3c
  X:8D7DH         SYMBOL        reg
  X:8D77H         SYMBOL        ti
  X:8D78H         SYMBOL        addr
  X:8D7AH         SYMBOL        vp_base
  X:8D7EH         SYMBOL        treg
  -------         ENDDO         
  -------         DO            
  X:8D77H         SYMBOL        freq
  X:8D79H         SYMBOL        dtime
  X:8D7BH         SYMBOL        t3c
  X:8D7DH         SYMBOL        reg
  X:8D77H         SYMBOL        ti
  X:8D78H         SYMBOL        addr
  X:8D7AH         SYMBOL        vp_base
  X:8D7EH         SYMBOL        treg
  -------         ENDDO         
  -------         DO            
  X:8D77H         SYMBOL        ti
  X:8D78H         SYMBOL        addr
  X:8D7AH         SYMBOL        vp_base
  X:8D7EH         SYMBOL        treg
  -------         ENDDO         
  -------         ENDDO         
  C:2CC7H         LINE#         919
  C:2CC7H         LINE#         920
  C:2CC7H         LINE#         922
  C:2CCEH         LINE#         928
  C:2CDEH         LINE#         930
  C:2CE1H         LINE#         932
  C:2CEFH         LINE#         933
  C:2CFBH         LINE#         934
  C:2CFEH         LINE#         935
  C:2D10H         LINE#         936
  C:2D17H         LINE#         938
  C:2D1AH         LINE#         940
  C:2D39H         LINE#         941
  C:2D40H         LINE#         943
  C:2D56H         LINE#         944
  C:2D56H         LINE#         945
  C:2D68H         LINE#         946
  C:2D68H         LINE#         947
  C:2D6FH         LINE#         948
  C:2D72H         LINE#         949
  C:2D72H         LINE#         950
  C:2D7AH         LINE#         952
  C:2D7CH         LINE#         953
  C:2D7EH         LINE#         954
  C:2D8AH         LINE#         955
  C:2D8DH         LINE#         956
  C:2D8DH         LINE#         957
  C:2D8FH         LINE#         958
  C:2D8FH         LINE#         959
  C:2D8FH         LINE#         960
  C:2D91H         LINE#         961
BL51 BANKED LINKER/LOCATER V6.22.2.0                                                  07/08/2026  17:17:08  PAGE 104


  C:2D9EH         LINE#         962
  C:2DA3H         LINE#         964
  C:2DA3H         LINE#         965
  C:2DA8H         LINE#         966
  C:2DACH         LINE#         967
  C:2DACH         LINE#         968
  C:2DB1H         LINE#         969
  C:2DB1H         LINE#         970
  C:2DB6H         LINE#         971
  C:2DB8H         LINE#         972
  C:2DB8H         LINE#         973
  C:2DBBH         LINE#         974
  C:2DBEH         LINE#         975
  C:2DBEH         LINE#         976
  C:2DC0H         LINE#         977
  C:2DC2H         LINE#         978
  C:2DC4H         LINE#         979
  C:2DC7H         LINE#         980
  C:2DCAH         LINE#         981
  C:2DCAH         LINE#         982
  C:2DCCH         LINE#         983
  C:2DCEH         LINE#         984
  C:2DD1H         LINE#         985
  C:2DD7H         LINE#         986
  C:2DD7H         LINE#         987
  C:2DDAH         LINE#         988
  C:2DDAH         LINE#         989
  C:2DDAH         LINE#         990
  C:2DDAH         LINE#         991
  C:2DDDH         LINE#         992
  C:2DDDH         LINE#         994
  C:2DFDH         LINE#         996
  C:2E00H         LINE#         998
  C:2E02H         LINE#         999
  C:2E05H         LINE#         1000
  C:2E0FH         LINE#         1001
  C:2E19H         LINE#         1002
  C:2E1FH         LINE#         1003
  C:2E21H         LINE#         1004
  C:2E24H         LINE#         1005
  C:2E2CH         LINE#         1006
  C:2E2FH         LINE#         1007
  C:2E37H         LINE#         1008
  C:2E3AH         LINE#         1009
  C:2E42H         LINE#         1010
  C:2E45H         LINE#         1011
  C:2E4DH         LINE#         1012
  C:2E50H         LINE#         1013
  C:2E55H         LINE#         1014
  C:2E58H         LINE#         1015
  C:2E60H         LINE#         1016
  C:2E63H         LINE#         1017
  C:2E6BH         LINE#         1018
  C:2E6EH         LINE#         1020
  C:2E6EH         LINE#         1021
  C:2E70H         LINE#         1022
  C:2E75H         LINE#         1027
BL51 BANKED LINKER/LOCATER V6.22.2.0                                                  07/08/2026  17:17:08  PAGE 105


  C:2E77H         LINE#         1028
  C:2E78H         LINE#         1030
  C:2E7AH         LINE#         1034
  C:2E7DH         LINE#         1035
  C:2E85H         LINE#         1036
  C:2E8BH         LINE#         1037
  C:2E90H         LINE#         1039
  C:2E93H         LINE#         1041
  C:2EACH         LINE#         1043
  C:2EECH         LINE#         1044
  C:2EECH         LINE#         1045
  C:2EECH         LINE#         1046
  C:2F05H         LINE#         1047
  C:2F1DH         LINE#         1048
  C:2F35H         LINE#         1049
  C:2F4DH         LINE#         1050
  C:2F65H         LINE#         1052
  C:2F68H         LINE#         1053
  C:2F68H         LINE#         1054
  C:2F81H         LINE#         1055
  C:2F99H         LINE#         1056
  C:2FB1H         LINE#         1057
  C:2FC9H         LINE#         1058
  C:2FE1H         LINE#         1060
  C:2FE4H         LINE#         1062
  C:2FE4H         LINE#         1063
  C:2FFDH         LINE#         1064
  C:3016H         LINE#         1065
  C:302FH         LINE#         1066
  C:3047H         LINE#         1067
  C:305FH         LINE#         1068
  C:3062H         LINE#         1070
  C:3062H         LINE#         1071
  C:307BH         LINE#         1072
  C:3094H         LINE#         1073
  C:30ADH         LINE#         1074
  C:30C5H         LINE#         1075
  C:30DDH         LINE#         1076
  C:30E0H         LINE#         1089
  C:30E0H         LINE#         1090
  C:30E0H         LINE#         1091
  C:30FCH         LINE#         1092
  C:3115H         LINE#         1093
  C:3137H         LINE#         1094
  C:314FH         LINE#         1095
  C:3167H         LINE#         1096
  C:317FH         LINE#         1097
  C:317FH         LINE#         1098
  C:3182H         LINE#         1099
  C:3182H         LINE#         1102
  C:3185H         LINE#         1103
  C:319EH         LINE#         1104
  C:31B7H         LINE#         1105
  C:31D0H         LINE#         1106
  C:31E8H         LINE#         1107
  C:3200H         LINE#         1108
  C:3219H         LINE#         1109
BL51 BANKED LINKER/LOCATER V6.22.2.0                                                  07/08/2026  17:17:08  PAGE 106


  C:322FH         LINE#         1110
  C:3244H         LINE#         1111
  C:3244H         LINE#         1112
  C:3244H         LINE#         1113
  C:3244H         LINE#         1114
  C:3244H         LINE#         1116
  C:3261H         LINE#         1118
  C:3266H         LINE#         1119
  C:327FH         LINE#         1120
  C:32A1H         LINE#         1121
  C:32B9H         LINE#         1122
  C:32D1H         LINE#         1123
  C:32E9H         LINE#         1124
  C:3302H         LINE#         1126
  C:3315H         LINE#         1127
  C:332AH         LINE#         1128
  C:333FH         LINE#         1129
  C:333FH         LINE#         1130
  C:3357H         LINE#         1131
  C:336EH         LINE#         1132
  C:3376H         LINE#         1133
  C:3376H         LINE#         1134
  C:3376H         LINE#         1135
  C:3376H         LINE#         1136
  C:338FH         LINE#         1137
  C:33A7H         LINE#         1138
  C:33BFH         LINE#         1139
  C:33D7H         LINE#         1140
  C:33EFH         LINE#         1141
  C:3408H         LINE#         1143
  C:3421H         LINE#         1144
  C:3437H         LINE#         1145
  C:3451H         LINE#         1146
  C:3469H         LINE#         1148
  C:3482H         LINE#         1149
  C:3482H         LINE#         1150
  C:348AH         LINE#         1155
  C:34A4H         LINE#         1156
  C:34BCH         LINE#         1158
  C:34C1H         LINE#         1159
  C:34C6H         LINE#         1161
  C:34C8H         LINE#         1162
  C:34DFH         LINE#         1163
  C:34F6H         LINE#         1165
  C:34F6H         LINE#         1166
  C:350DH         LINE#         1167
  C:3524H         LINE#         1169
  C:353AH         LINE#         1170
  C:3542H         LINE#         1171
  C:355CH         LINE#         1172
  C:3574H         LINE#         1174
  C:3575H         LINE#         1175
  C:358CH         LINE#         1176
  C:35A3H         LINE#         1178
  C:35A3H         LINE#         1179
  C:35BAH         LINE#         1180
  C:35D1H         LINE#         1182
BL51 BANKED LINKER/LOCATER V6.22.2.0                                                  07/08/2026  17:17:08  PAGE 107


  C:35DCH         LINE#         1184
  C:35DDH         LINE#         1185
  C:35F4H         LINE#         1186
  C:360BH         LINE#         1188
  C:360BH         LINE#         1189
  C:3622H         LINE#         1190
  C:363AH         LINE#         1192
  C:363CH         LINE#         1193
  C:3654H         LINE#         1194
  C:366CH         LINE#         1195
  C:366FH         LINE#         1196
  C:366FH         LINE#         1197
  C:366FH         LINE#         1199
  C:3679H         LINE#         1201
  C:3692H         LINE#         1202
  C:36ABH         LINE#         1203
  C:36C4H         LINE#         1204
  C:36DBH         LINE#         1206
  C:36F4H         LINE#         1207
  C:3716H         LINE#         1208
  C:372EH         LINE#         1209
  C:3746H         LINE#         1210
  C:375EH         LINE#         1211
  C:3777H         LINE#         1212
  C:3788H         LINE#         1213
  C:3793H         LINE#         1214
  C:379EH         LINE#         1215
  C:379EH         LINE#         1216
  C:37A1H         LINE#         1217
  C:37A1H         LINE#         1218
  C:37A1H         LINE#         1220
  C:37C0H         LINE#         1221
  C:37DBH         LINE#         1224
  C:37FAH         LINE#         1225
  C:3824H         LINE#         1226
  C:384EH         LINE#         1227
  C:3878H         LINE#         1229
  C:3891H         LINE#         1230
  C:38B3H         LINE#         1231
  C:38CBH         LINE#         1232
  C:38E3H         LINE#         1233
  C:38FBH         LINE#         1234
  C:3914H         LINE#         1235
  C:3927H         LINE#         1236
  C:393CH         LINE#         1237
  C:393CH         LINE#         1238
  C:393CH         LINE#         1240
  C:393CH         LINE#         1241
  C:394DH         LINE#         1242
  C:3965H         LINE#         1243
  C:397FH         LINE#         1245
  C:39C8H         LINE#         1246
  C:39C8H         LINE#         1247
  C:39D1H         LINE#         1248
  C:39D1H         LINE#         1249
  C:39DAH         LINE#         1250
  C:39E1H         LINE#         1252
BL51 BANKED LINKER/LOCATER V6.22.2.0                                                  07/08/2026  17:17:08  PAGE 108


  C:39E6H         LINE#         1253
  C:39F0H         LINE#         1254
  C:39F9H         LINE#         1255
  C:39FEH         LINE#         1256
  C:3A06H         LINE#         1257
  C:3A16H         LINE#         1258
  C:3A1BH         LINE#         1263
  C:3A23H         LINE#         1267
  C:3A34H         LINE#         1268
  C:3A37H         LINE#         1269
  C:3A39H         LINE#         1270
  C:3A3CH         LINE#         1271
  C:3A3EH         LINE#         1272
  C:3A41H         LINE#         1273
  C:3A43H         LINE#         1274
  C:3A46H         LINE#         1275
  C:3A48H         LINE#         1276
  C:3A4BH         LINE#         1277
  C:3A4DH         LINE#         1278
  C:3A54H         LINE#         1279
  C:3A5BH         LINE#         1280
  C:3A5BH         LINE#         1282
  C:3A5BH         LINE#         1284
  C:3A65H         LINE#         1285
  C:3A65H         LINE#         1286
  C:3A6BH         LINE#         1287
  C:3A6DH         LINE#         1288
  C:3A84H         LINE#         1289
  C:3A84H         LINE#         1290
  C:3A88H         LINE#         1291
  C:3A8BH         LINE#         1292
  C:3A92H         LINE#         1293
  C:3A92H         LINE#         1295
  C:3A95H         LINE#         1297
  C:3A95H         LINE#         1298
  C:3A9BH         LINE#         1299
  -------         ENDPROC       MODBUS_SALVE_HANDLER1
  -------         PROC          L?0520
  -------         ENDPROC       L?0520
  -------         PROC          _GETMODBUSREG
  X:8DC3H         SYMBOL        rx
  D:0004H         SYMBOL        reg
  -------         DO            
  D:0004H         SYMBOL        index
  -------         ENDDO         
  C:EC92H         LINE#         1301
  C:EC9DH         LINE#         1302
  C:EC9DH         LINE#         1303
  C:ECAEH         LINE#         1306
  C:ECD3H         LINE#         1307
  -------         ENDPROC       _GETMODBUSREG
  -------         PROC          _MODBUS_RXU16
  D:0001H         SYMBOL        rx
  D:0005H         SYMBOL        byte_off
  C:FC07H         LINE#         1309
  C:FC07H         LINE#         1310
  C:FC07H         LINE#         1311
BL51 BANKED LINKER/LOCATER V6.22.2.0                                                  07/08/2026  17:17:08  PAGE 109


  C:FC23H         LINE#         1312
  -------         ENDPROC       _MODBUS_RXU16
  -------         PROC          L?0521
  -------         ENDPROC       L?0521
  -------         PROC          _MODBUS_RXRELREG
  D:0001H         SYMBOL        rx
  D:0005H         SYMBOL        reg_index
  C:FE43H         LINE#         1315
  C:FE43H         LINE#         1316
  C:FE43H         LINE#         1317
  -------         ENDPROC       _MODBUS_RXRELREG
  -------         PROC          MODBUS_ANALYSIS_DATA1
  -------         DO            
  X:8D86H         SYMBOL        modbus_addr
  X:8D88H         SYMBOL        u8tou16
  X:8D8CH         SYMBOL        u8tos16
  X:8D8EH         SYMBOL        Modbus_Analysis_TempType
  D:0006H         SYMBOL        Modbus_Analysis_Onoff
  X:8D90H         SYMBOL        Modbus_Analysis_mode
  X:8D92H         SYMBOL        Modbus_Analysis_ModeTemp
  X:8D94H         SYMBOL        Modbus_Analysis_SetTemp
  X:8D96H         SYMBOL        Modbus_Analysis_FanMode
  X:8D98H         SYMBOL        Modbus_Temp1
  X:8001H         SYMBOL        SetTempOld
  X:8003H         SYMBOL        modeOld
  X:8D9AH         SYMBOL        i
  X:8D9CH         SYMBOL        j
  X:8D9EH         SYMBOL        modbus_rec_len
  X:8DA0H         SYMBOL        modbus_rec_CRC
  X:8DA2H         SYMBOL        modbus_calculate_CRC
  X:8DA4H         SYMBOL        ftemp
  X:8DA8H         SYMBOL        Error_Code
  X:8DAAH         SYMBOL        Error_Cnt
  X:8DACH         SYMBOL        NewError
  X:8DB4H         SYMBOL        Error_Temp
  -------         DO            
  X:8DB6H         SYMBOL        power_vp
  X:8DB8H         SYMBOL        active_mode
  X:8DB6H         SYMBOL        old_e
  X:8DB6H         SYMBOL        temp_c
  X:8DB8H         SYMBOL        freq_raw
  X:8DBAH         SYMBOL        time_raw
  X:8DBCH         SYMBOL        t3_raw
  X:8DBEH         SYMBOL        vp_u16
  -------         DO            
  X:8DBAH         SYMBOL        cur_pwr
  -------         ENDDO         
  -------         ENDDO         
  -------         DO            
  X:8DB6H         SYMBOL        old_e
  X:8DB6H         SYMBOL        temp_c
  X:8DB8H         SYMBOL        freq_raw
  X:8DBAH         SYMBOL        time_raw
  X:8DBCH         SYMBOL        t3_raw
  X:8DBEH         SYMBOL        vp_u16
  -------         ENDDO         
  -------         DO            
BL51 BANKED LINKER/LOCATER V6.22.2.0                                                  07/08/2026  17:17:08  PAGE 110


  X:8DB6H         SYMBOL        temp_c
  X:8DB8H         SYMBOL        freq_raw
  X:8DBAH         SYMBOL        time_raw
  X:8DBCH         SYMBOL        t3_raw
  X:8DBEH         SYMBOL        vp_u16
  -------         ENDDO         
  -------         DO            
  X:8DB6H         SYMBOL        reg_val
  X:8DB8H         SYMBOL        dgus_mode
  X:8DBAH         SYMBOL        dgus_fan
  X:8DBCH         SYMBOL        dgus_power
  X:8DBEH         SYMBOL        temp_c
  X:8DC0H         SYMBOL        uidx
  -------         DO            
  X:8DC1H         SYMBOL        cur_power
  -------         ENDDO         
  -------         ENDDO         
  -------         ENDDO         
  C:1AB7H         LINE#         1353
  C:1AB7H         LINE#         1354
  C:1AB7H         LINE#         1355
  C:1ABEH         LINE#         1367
  C:1AC8H         LINE#         1369
  C:1ACCH         LINE#         1370
  C:1AD0H         LINE#         1371
  C:1AD4H         LINE#         1374
  C:1ADAH         LINE#         1375
  C:1AECH         LINE#         1376
  C:1AF3H         LINE#         1377
  C:1AFEH         LINE#         1378
  C:1AFEH         LINE#         1379
  C:1AFFH         LINE#         1380
  C:1B02H         LINE#         1386
  C:1B0AH         LINE#         1387
  C:1B0AH         LINE#         1388
  C:1B1AH         LINE#         1389
  C:1B1CH         LINE#         1391
  C:1B1CH         LINE#         1392
  C:1B25H         LINE#         1393
  C:1B25H         LINE#         1396
  C:1B3BH         LINE#         1397
  C:1B4AH         LINE#         1398
  C:1B59H         LINE#         1400
  C:1B78H         LINE#         1403
  C:1B84H         LINE#         1404
  C:1B84H         LINE#         1405
  C:1B91H         LINE#         1406
  C:1B96H         LINE#         1407
  C:1B9AH         LINE#         1408
  C:1B9AH         LINE#         1412
  C:1B9CH         LINE#         1414
  C:1B9CH         LINE#         1418
  C:1B9CH         LINE#         1419
  C:1B9CH         LINE#         1421
  C:1B9CH         LINE#         1422
  C:1BA4H         LINE#         1426
  C:1BB2H         LINE#         1427
BL51 BANKED LINKER/LOCATER V6.22.2.0                                                  07/08/2026  17:17:08  PAGE 111


  C:1BB2H         LINE#         1428
  C:1BB4H         LINE#         1429
  C:1BB6H         LINE#         1430
  C:1BB6H         LINE#         1431
  C:1BB6H         LINE#         1433
  C:1BC1H         LINE#         1434
  C:1BC1H         LINE#         1435
  C:1BF3H         LINE#         1436
  C:1BF3H         LINE#         1437
  C:1BF3H         LINE#         1438
  C:1BF9H         LINE#         1439
  C:1BF9H         LINE#         1443
  C:1C01H         LINE#         1444
  C:1C09H         LINE#         1445
  C:1C10H         LINE#         1446
  C:1C23H         LINE#         1448
  C:1C2DH         LINE#         1449
  C:1C2DH         LINE#         1452
  C:1C45H         LINE#         1453
  C:1C59H         LINE#         1454
  C:1C72H         LINE#         1455
  C:1C72H         LINE#         1456
  C:1C86H         LINE#         1457
  C:1C8DH         LINE#         1460
  C:1CA6H         LINE#         1461
  C:1CAEH         LINE#         1462
  C:1CB6H         LINE#         1463
  C:1CC5H         LINE#         1464
  C:1CE3H         LINE#         1465
  C:1CE3H         LINE#         1466
  C:1CFCH         LINE#         1467
  C:1CFFH         LINE#         1468
  C:1D02H         LINE#         1469
  C:1D02H         LINE#         1471
  C:1D1BH         LINE#         1472
  C:1D23H         LINE#         1473
  C:1D2BH         LINE#         1474
  C:1D42H         LINE#         1475
  C:1D56H         LINE#         1476
  C:1D5DH         LINE#         1477
  C:1D75H         LINE#         1478
  C:1D8EH         LINE#         1479
  C:1D9AH         LINE#         1480
  C:1DA5H         LINE#         1481
  C:1DA8H         LINE#         1482
  C:1DB4H         LINE#         1483
  C:1DB7H         LINE#         1484
  C:1DB7H         LINE#         1486
  C:1DD0H         LINE#         1487
  C:1DD8H         LINE#         1488
  C:1DE0H         LINE#         1489
  C:1DF7H         LINE#         1490
  C:1E0BH         LINE#         1491
  C:1E12H         LINE#         1492
  C:1E2AH         LINE#         1493
  C:1E43H         LINE#         1494
  C:1E4FH         LINE#         1495
BL51 BANKED LINKER/LOCATER V6.22.2.0                                                  07/08/2026  17:17:08  PAGE 112


  C:1E5AH         LINE#         1496
  C:1E5DH         LINE#         1497
  C:1E69H         LINE#         1498
  C:1E6CH         LINE#         1499
  C:1E6CH         LINE#         1501
  C:1E85H         LINE#         1502
  C:1E8DH         LINE#         1503
  C:1E95H         LINE#         1504
  C:1EACH         LINE#         1505
  C:1EC0H         LINE#         1506
  C:1EC7H         LINE#         1507
  C:1EDFH         LINE#         1508
  C:1EF8H         LINE#         1509
  C:1F04H         LINE#         1510
  C:1F0FH         LINE#         1511
  C:1F12H         LINE#         1512
  C:1F1EH         LINE#         1513
  C:1F21H         LINE#         1514
  C:1F21H         LINE#         1516
  C:1F21H         LINE#         1518
  C:1F23H         LINE#         1519
  C:1F25H         LINE#         1520
  C:1F25H         LINE#         1521
  C:1F28H         LINE#         1522
  C:1F28H         LINE#         1523
  C:1F28H         LINE#         1524
  C:1F41H         LINE#         1525
  C:1F4EH         LINE#         1526
  C:1F4EH         LINE#         1530
  C:1F55H         LINE#         1531
  C:1F55H         LINE#         1532
  C:1F72H         LINE#         1533
  C:1F81H         LINE#         1534
  C:1F8EH         LINE#         1535
  C:1F8EH         LINE#         1536
  C:1F95H         LINE#         1537
  C:1FACH         LINE#         1538
  C:1FC1H         LINE#         1539
  C:1FD4H         LINE#         1540
  C:1FD6H         LINE#         1542
  C:1FD6H         LINE#         1543
  C:1FFEH         LINE#         1544
  C:1FFEH         LINE#         1545
  C:2008H         LINE#         1546
  C:200BH         LINE#         1547
  C:202EH         LINE#         1548
  C:202EH         LINE#         1550
  C:202EH         LINE#         1553
  C:2035H         LINE#         1554
  C:2035H         LINE#         1555
  C:2052H         LINE#         1556
  C:2061H         LINE#         1558
  C:206EH         LINE#         1559
  C:206EH         LINE#         1560
  C:2075H         LINE#         1561
  C:208CH         LINE#         1562
  C:20A9H         LINE#         1563
BL51 BANKED LINKER/LOCATER V6.22.2.0                                                  07/08/2026  17:17:08  PAGE 113


  C:20ABH         LINE#         1565
  C:20ABH         LINE#         1566
  C:20D3H         LINE#         1567
  C:20D3H         LINE#         1568
  C:20DDH         LINE#         1569
  C:20E0H         LINE#         1571
  C:2100H         LINE#         1572
  C:2100H         LINE#         1574
  C:2116H         LINE#         1576
  C:212CH         LINE#         1577
  C:2152H         LINE#         1579
  C:2155H         LINE#         1581
  C:216BH         LINE#         1582
  C:2191H         LINE#         1584
  C:2194H         LINE#         1586
  C:21B2H         LINE#         1587
  C:21D8H         LINE#         1589
  C:21DBH         LINE#         1591
  C:21F0H         LINE#         1592
  C:2209H         LINE#         1595
  C:221EH         LINE#         1596
  C:2237H         LINE#         1604
  C:2247H         LINE#         1606
  C:2249H         LINE#         1607
  C:224BH         LINE#         1608
  C:224BH         LINE#         1609
  C:224BH         LINE#         1610
  C:224EH         LINE#         1612
  C:224EH         LINE#         1615
  C:2267H         LINE#         1616
  C:2274H         LINE#         1617
  C:2274H         LINE#         1618
  C:227BH         LINE#         1619
  C:227BH         LINE#         1620
  C:2298H         LINE#         1621
  C:22A7H         LINE#         1622
  C:22B4H         LINE#         1623
  C:22B4H         LINE#         1624
  C:22BBH         LINE#         1625
  C:22D2H         LINE#         1626
  C:22E7H         LINE#         1627
  C:22FBH         LINE#         1628
  C:22FDH         LINE#         1630
  C:22FDH         LINE#         1631
  C:2326H         LINE#         1632
  C:2326H         LINE#         1633
  C:2330H         LINE#         1634
  C:2333H         LINE#         1635
  C:2356H         LINE#         1636
  C:2356H         LINE#         1638
  C:2356H         LINE#         1639
  C:235DH         LINE#         1640
  C:235DH         LINE#         1641
  C:237AH         LINE#         1642
  C:2389H         LINE#         1644
  C:2396H         LINE#         1645
  C:2396H         LINE#         1646
BL51 BANKED LINKER/LOCATER V6.22.2.0                                                  07/08/2026  17:17:08  PAGE 114


  C:239DH         LINE#         1647
  C:23B4H         LINE#         1648
  C:23D2H         LINE#         1649
  C:23D4H         LINE#         1651
  C:23D4H         LINE#         1652
  C:23FDH         LINE#         1653
  C:23FDH         LINE#         1654
  C:2407H         LINE#         1655
  C:240AH         LINE#         1656
  C:242AH         LINE#         1657
  C:242AH         LINE#         1660
  C:2431H         LINE#         1661
  C:244AH         LINE#         1662
  C:244AH         LINE#         1663
  C:2460H         LINE#         1664
  C:246FH         LINE#         1665
  C:248DH         LINE#         1666
  C:24A4H         LINE#         1669
  C:24AEH         LINE#         1670
  C:24AEH         LINE#         1671
  C:24BCH         LINE#         1672
  C:24BCH         LINE#         1673
  C:24CDH         LINE#         1675
  C:24DCH         LINE#         1676
  C:24DCH         LINE#         1677
  C:24E3H         LINE#         1678
  C:24EBH         LINE#         1679
  C:2504H         LINE#         1680
  C:251BH         LINE#         1681
  C:251BH         LINE#         1682
  C:2534H         LINE#         1683
  C:253DH         LINE#         1684
  C:2540H         LINE#         1685
  C:2540H         LINE#         1686
  C:2543H         LINE#         1688
  C:2543H         LINE#         1689
  C:254AH         LINE#         1690
  C:254AH         LINE#         1691
  C:2564H         LINE#         1692
  C:2564H         LINE#         1693
  C:258FH         LINE#         1694
  C:258FH         LINE#         1695
  C:2596H         LINE#         1696
  C:25BCH         LINE#         1697
  C:25D5H         LINE#         1698
  C:25E9H         LINE#         1699
  C:25E9H         LINE#         1700
  C:2602H         LINE#         1701
  C:2608H         LINE#         1702
  C:260BH         LINE#         1703
  C:260BH         LINE#         1704
  C:260BH         LINE#         1705
  C:261CH         LINE#         1706
  C:263CH         LINE#         1707
  C:263CH         LINE#         1709
  C:2653H         LINE#         1710
  C:2659H         LINE#         1711
BL51 BANKED LINKER/LOCATER V6.22.2.0                                                  07/08/2026  17:17:08  PAGE 115


  C:265CH         LINE#         1713
  C:2664H         LINE#         1714
  C:266CH         LINE#         1715
  C:2688H         LINE#         1716
  C:2688H         LINE#         1719
  C:26A2H         LINE#         1720
  C:26D4H         LINE#         1721
  C:26D4H         LINE#         1722
  C:26EEH         LINE#         1723
  C:2712H         LINE#         1724
  C:272CH         LINE#         1725
  C:2732H         LINE#         1726
  C:2735H         LINE#         1727
  C:2735H         LINE#         1728
  C:2735H         LINE#         1730
  C:273DH         LINE#         1731
  C:2745H         LINE#         1732
  C:277AH         LINE#         1734
  C:277DH         LINE#         1737
  C:2780H         LINE#         1738
  C:2783H         LINE#         1739
  C:2783H         LINE#         1740
  C:2783H         LINE#         1741
  C:2783H         LINE#         1746
  C:278BH         LINE#         1747
  C:2793H         LINE#         1748
  C:27A2H         LINE#         1749
  C:27BBH         LINE#         1750
  C:27CFH         LINE#         1751
  C:27CFH         LINE#         1752
  C:27D7H         LINE#         1753
  C:27F1H         LINE#         1754
  C:280AH         LINE#         1755
  C:2810H         LINE#         1756
  C:2813H         LINE#         1757
  C:2813H         LINE#         1759
  C:281BH         LINE#         1760
  C:2823H         LINE#         1761
  C:2832H         LINE#         1762
  C:284BH         LINE#         1763
  C:285FH         LINE#         1764
  C:285FH         LINE#         1765
  C:2867H         LINE#         1766
  C:2881H         LINE#         1767
  C:289AH         LINE#         1768
  C:28A0H         LINE#         1769
  C:28A3H         LINE#         1770
  C:28A3H         LINE#         1772
  C:28ABH         LINE#         1773
  C:28B3H         LINE#         1774
  C:28C2H         LINE#         1775
  C:28D9H         LINE#         1776
  C:28F2H         LINE#         1777
  C:2906H         LINE#         1778
  C:2906H         LINE#         1779
  C:2910H         LINE#         1780
  C:292AH         LINE#         1781
BL51 BANKED LINKER/LOCATER V6.22.2.0                                                  07/08/2026  17:17:08  PAGE 116


  C:2945H         LINE#         1782
  C:295FH         LINE#         1783
  C:2978H         LINE#         1784
  C:297EH         LINE#         1785
  C:2981H         LINE#         1786
  C:2981H         LINE#         1787
  C:298CH         LINE#         1788
  C:2997H         LINE#         1789
  C:29A9H         LINE#         1790
  C:29A9H         LINE#         1791
  C:29ABH         LINE#         1792
  C:29B0H         LINE#         1793
  C:29B1H         LINE#         1869
  C:29B1H         LINE#         1870
  C:29B1H         LINE#         1878
  C:29C1H         LINE#         1879
  C:29D7H         LINE#         1881
  C:29DFH         LINE#         1882
  C:29ECH         LINE#         1883
  C:29EEH         LINE#         1885
  C:2A01H         LINE#         1886
  C:2A14H         LINE#         1887
  C:2A29H         LINE#         1889
  C:2A38H         LINE#         1890
  C:2A38H         LINE#         1891
  C:2A49H         LINE#         1892
  C:2A6AH         LINE#         1893
  C:2A6AH         LINE#         1894
  C:2A88H         LINE#         1895
  C:2A8AH         LINE#         1897
  C:2A8AH         LINE#         1900
  C:2AA8H         LINE#         1901
  C:2ABCH         LINE#         1902
  C:2ACFH         LINE#         1903
  C:2ACFH         LINE#         1904
  C:2AEDH         LINE#         1905
  C:2AFDH         LINE#         1907
  C:2B10H         LINE#         1908
  C:2B13H         LINE#         1909
  C:2B13H         LINE#         1910
  C:2B26H         LINE#         1911
  C:2B42H         LINE#         1912
  C:2B42H         LINE#         1914
  C:2B55H         LINE#         1915
  C:2B5DH         LINE#         1916
  C:2B5DH         LINE#         1917
  C:2B75H         LINE#         1918
  C:2B8EH         LINE#         1919
  C:2BAAH         LINE#         1920
  C:2BAAH         LINE#         1923
  C:2BAAH         LINE#         1925
  C:2BB8H         LINE#         1926
  C:2BB8H         LINE#         1927
  C:2BBEH         LINE#         1928
  C:2BC0H         LINE#         1929
  C:2BC1H         LINE#         1931
  C:2BC1H         LINE#         1932
BL51 BANKED LINKER/LOCATER V6.22.2.0                                                  07/08/2026  17:17:08  PAGE 117


  C:2BC6H         LINE#         1933
  C:2BC8H         LINE#         1934
  C:2BCAH         LINE#         1935
  C:2BCDH         LINE#         1936
  C:2BD0H         LINE#         1937
  C:2BD9H         LINE#         1938
  C:2BDCH         LINE#         1939
  C:2BDCH         LINE#         1940
  C:2BDCH         LINE#         1941
  C:2BDCH         LINE#         1942
  C:2BDCH         LINE#         1944
  C:2BDCH         LINE#         1946
  C:2BDCH         LINE#         1947
  C:2BE1H         LINE#         1948
  C:2BEDH         LINE#         1949
  C:2BEDH         LINE#         1950
  C:2BF4H         LINE#         1951
  C:2C06H         LINE#         1952
  C:2C06H         LINE#         1954
  C:2C52H         LINE#         1955
  C:2C52H         LINE#         1956
  C:2C52H         LINE#         1957
  C:2C54H         LINE#         1958
  C:2C56H         LINE#         1959
  C:2C58H         LINE#         1960
  C:2C67H         LINE#         1962
  C:2C69H         LINE#         1963
  C:2C6AH         LINE#         1965
  C:2C6AH         LINE#         1966
  C:2C6CH         LINE#         1967
  C:2C6EH         LINE#         1968
  C:2C77H         LINE#         1969
  C:2C77H         LINE#         1971
  C:2C77H         LINE#         1972
  C:2C77H         LINE#         1973
  C:2C77H         LINE#         1974
  C:2C77H         LINE#         1975
  C:2C77H         LINE#         1976
  C:2C77H         LINE#         1977
  C:2C79H         LINE#         1978
  C:2C87H         LINE#         1979
  C:2C89H         LINE#         1980
  C:2C8CH         LINE#         1981
  C:2C8CH         LINE#         1982
  C:2C99H         LINE#         1983
  C:2C99H         LINE#         1984
  C:2C9CH         LINE#         1985
  C:2C9FH         LINE#         1986
  C:2CA1H         LINE#         1987
  C:2CA2H         LINE#         1989
  C:2CA2H         LINE#         1990
  C:2CA7H         LINE#         1991
  C:2CA9H         LINE#         1992
  C:2CA9H         LINE#         1993
  C:2CA9H         LINE#         1994
  C:2CABH         LINE#         1996
  C:2CAEH         LINE#         1997
BL51 BANKED LINKER/LOCATER V6.22.2.0                                                  07/08/2026  17:17:08  PAGE 118


  C:2CAEH         LINE#         1999
  C:2CAEH         LINE#         2000
  C:2CAEH         LINE#         2001
  C:2CAEH         LINE#         2002
  C:2CAEH         LINE#         2003
  C:2CAEH         LINE#         2004
  C:2CAEH         LINE#         2005
  C:2CB0H         LINE#         2006
  C:2CB2H         LINE#         2007
  C:2CBFH         LINE#         2008
  C:2CC2H         LINE#         2010
  C:2CC2H         LINE#         2012
  C:2CC2H         LINE#         2013
  C:2CC4H         LINE#         2014
  C:2CC6H         LINE#         2015
  C:2CC6H         LINE#         2016
  C:2CC6H         LINE#         2017
  C:2CC6H         LINE#         2018
  C:2CC6H         LINE#         2019
  -------         ENDPROC       MODBUS_ANALYSIS_DATA1
  -------         PROC          MODBUS_REFRESHCHECKPARAMDISPLAY
  -------         DO            
  X:8DFEH         SYMBOL        i
  X:8DFFH         SYMBOL        raw
  X:8E01H         SYMBOL        temp_c
  X:8E03H         SYMBOL        temp_f
  X:8E05H         SYMBOL        unit
  -------         ENDDO         
  C:9C31H         LINE#         2021
  C:9C31H         LINE#         2022
  C:9C31H         LINE#         2028
  C:9C4AH         LINE#         2029
  C:9C60H         LINE#         2030
  C:9C60H         LINE#         2031
  C:9C80H         LINE#         2032
  C:9C90H         LINE#         2033
  C:9C90H         LINE#         2034
  C:9CA5H         LINE#         2035
  C:9CB2H         LINE#         2036
  C:9CBAH         LINE#         2037
  C:9CDDH         LINE#         2038
  C:9CDDH         LINE#         2039
  C:9CE7H         LINE#         2040
  C:9CEAH         LINE#         2041
  C:9CF3H         LINE#         2042
  C:9D09H         LINE#         2043
  C:9D09H         LINE#         2044
  C:9D29H         LINE#         2045
  C:9D39H         LINE#         2046
  C:9D39H         LINE#         2047
  C:9D4EH         LINE#         2048
  C:9D5BH         LINE#         2049
  C:9D63H         LINE#         2050
  C:9D86H         LINE#         2051
  C:9D86H         LINE#         2052
  C:9D90H         LINE#         2053
  C:9D93H         LINE#         2054
BL51 BANKED LINKER/LOCATER V6.22.2.0                                                  07/08/2026  17:17:08  PAGE 119


  C:9D9CH         LINE#         2055
  -------         ENDPROC       MODBUS_REFRESHCHECKPARAMDISPLAY
  -------         ENDMOD        MODBUS

  -------         MODULE        RTC
  C:0000H         SYMBOL        _ICE_DUMMY_
  C:F7A8H         PUBLIC        RTCcack
  D:0080H         PUBLIC        P0
  C:911EH         PUBLIC        RTC_GetUnixLocal
  D:00B0H         PUBLIC        P3
  C:8840H         PUBLIC        _RTC_UnixFromLocalParts
  D:00F8H         PUBLIC        RAMMODE
  C:8BF3H         PUBLIC        rdtime
  C:FE4AH         PUBLIC        RTCmack
  C:F5A6H         SYMBOL        _rtc_is_leap
  D:00A8H         PUBLIC        IEN0
  C:FF07H         PUBLIC        _RTC_MonthFromDisplayVp
  D:00B8H         PUBLIC        IEN1
  D:00BEH         PUBLIC        P3MDOUT
  C:FE8EH         PUBLIC        RTCmnak
  C:FF3BH         PUBLIC        RTC_GetFullYear
  C:FC8EH         PUBLIC        RTCi2cstart
  C:EFD9H         SYMBOL        _rtc_days_in_month
  C:FEDDH         PUBLIC        GetSystickTime
  B:00B0H.3       PUBLIC        RTC_SDA
  C:BC97H         PUBLIC        _rtc_config
  X:94D9H         SYMBOL        s_rtc_month
  X:94DAH         SYMBOL        s_rtc_week
  B:00B0H.2       PUBLIC        RTC_SCL
  C:DA6AH         PUBLIC        _GetTimeDiff
  X:94DBH         SYMBOL        s_rtc_year
  C:FCD6H         PUBLIC        RTCi2cstop
  D:0088H         PUBLIC        TCON
  X:94DCH         SYMBOL        s_rtc_sec
  C:FFBAH         PUBLIC        rtc_get_weekday
  X:94DDH         SYMBOL        s_rtc_day
  X:94DEH         SYMBOL        s_rtc_hour
  C:F41FH         PUBLIC        RTCi2cbr
  C:FE9EH         SYMBOL        _?ix1000
  C:FEA6H         SYMBOL        _?ix1001
  X:94DFH         SYMBOL        s_rtc_min
  C:F090H         PUBLIC        _RTCi2cbw
  C:D28BH         PUBLIC        _RTC_WriteDisplayTime
  C:FDDAH         PUBLIC        _BCD
  C:CDB8H         PUBLIC        RTCUpdate
  C:9D9DH         PUBLIC        check_rtc_set
  C:F3F3H         PUBLIC        _delay_us
  X:94E0H         PUBLIC        ulSystickCount
  C:C4BCH         PUBLIC        init_rtc
  D:0098H         PUBLIC        SCON0
  D:00C8H         PUBLIC        T2CON
  C:D31CH         PUBLIC        _RTC_WriteEditTime
  D:00D0H         PUBLIC        PSW
  C:D166H         PUBLIC        _rtc_get_week
  D:00C0H         PUBLIC        IRCON
  -------         PROC          _RTC_MONTHFROMDISPLAYVP
  X:8D8AH         SYMBOL        year
BL51 BANKED LINKER/LOCATER V6.22.2.0                                                  07/08/2026  17:17:08  PAGE 120


  D:0004H         SYMBOL        month_vp
  C:FF07H         LINE#         18
  C:FF0FH         LINE#         19
  C:FF0FH         LINE#         20
  C:FF0FH         LINE#         21
  C:FF13H         LINE#         22
  -------         ENDPROC       _RTC_MONTHFROMDISPLAYVP
  -------         PROC          _RTC_WRITEDISPLAYTIME
  X:8E04H         SYMBOL        year
  X:8E06H         SYMBOL        month
  X:8E08H         SYMBOL        day
  X:8E0AH         SYMBOL        hour
  X:8E0CH         SYMBOL        minute
  C:D28BH         LINE#         26
  C:D29FH         LINE#         27
  C:D29FH         LINE#         28
  C:D2B8H         LINE#         29
  C:D2D1H         LINE#         30
  C:D2EAH         LINE#         31
  C:D303H         LINE#         32
  -------         ENDPROC       _RTC_WRITEDISPLAYTIME
  -------         PROC          _RTC_WRITEEDITTIME
  X:8E04H         SYMBOL        year
  X:8E06H         SYMBOL        month
  X:8E08H         SYMBOL        day
  X:8E0AH         SYMBOL        hour
  X:8E0CH         SYMBOL        minute
  C:D31CH         LINE#         35
  C:D330H         LINE#         36
  C:D330H         LINE#         37
  C:D349H         LINE#         38
  C:D362H         LINE#         39
  C:D37BH         LINE#         40
  C:D394H         LINE#         41
  -------         ENDPROC       _RTC_WRITEEDITTIME
  -------         PROC          INIT_RTC
  -------         DO            
  X:8D71H         SYMBOL        dat1
  X:8D72H         SYMBOL        dat2
  -------         ENDDO         
  C:C4BCH         LINE#         47
  C:C4BCH         LINE#         48
  C:C4BCH         LINE#         49
  C:C4BCH         LINE#         50
  C:C4BFH         LINE#         52
  C:C4C2H         LINE#         53
  C:C4C7H         LINE#         54
  C:C4CCH         LINE#         55
  C:C4CFH         LINE#         56
  C:C4D2H         LINE#         57
  C:C4D7H         LINE#         58
  C:C4DFH         LINE#         59
  C:C4E2H         LINE#         60
  C:C4E5H         LINE#         61
  C:C4E8H         LINE#         62
  C:C4EBH         LINE#         63
  C:C4F8H         LINE#         64
BL51 BANKED LINKER/LOCATER V6.22.2.0                                                  07/08/2026  17:17:08  PAGE 121


  C:C4F8H         LINE#         66
  C:C4FBH         LINE#         67
  C:C500H         LINE#         68
  C:C505H         LINE#         69
  C:C50AH         LINE#         70
  C:C50DH         LINE#         71
  C:C510H         LINE#         72
  C:C515H         LINE#         73
  C:C51AH         LINE#         74
  C:C51FH         LINE#         75
  C:C524H         LINE#         76
  C:C529H         LINE#         77
  C:C52EH         LINE#         78
  C:C531H         LINE#         79
  C:C534H         LINE#         80
  C:C539H         LINE#         81
  C:C53EH         LINE#         82
  C:C543H         LINE#         83
  C:C548H         LINE#         84
  C:C54DH         LINE#         85
  C:C552H         LINE#         86
  C:C557H         LINE#         87
  C:C55CH         LINE#         88
  C:C561H         LINE#         89
  C:C564H         LINE#         90
  C:C567H         LINE#         91
  C:C56CH         LINE#         92
  C:C571H         LINE#         93
  C:C576H         LINE#         94
  C:C57BH         LINE#         95
  C:C57EH         LINE#         96
  C:C57EH         LINE#         97
  -------         ENDPROC       INIT_RTC
  C:F3EFH         SYMBOL        L?0105
  -------         PROC          L?0104
  -------         ENDPROC       L?0104
  C:F3EFH         SYMBOL        L?0105
  -------         PROC          _DELAY_US
  D:0006H         SYMBOL        n
  -------         DO            
  D:0008H         SYMBOL        ui
  D:000AH         SYMBOL        uj
  -------         ENDDO         
  C:F3F3H         LINE#         110
  C:F3F3H         LINE#         111
  C:F3F3H         LINE#         113
  C:F401H         LINE#         114
  C:F41EH         LINE#         116
  -------         ENDPROC       _DELAY_US
  -------         PROC          _RTC_CONFIG
  X:8D9AH         SYMBOL        prtc_set
  -------         DO            
  X:8D9DH         SYMBOL        dat
  X:8D9EH         SYMBOL        dat1
  -------         ENDDO         
  C:BC97H         LINE#         118
  C:BCA2H         LINE#         119
BL51 BANKED LINKER/LOCATER V6.22.2.0                                                  07/08/2026  17:17:08  PAGE 122


  C:BCA2H         LINE#         121
  C:BCA5H         LINE#         122
  C:BCAAH         LINE#         123
  C:BCAFH         LINE#         124
  C:BCB4H         LINE#         125
  C:BCB7H         LINE#         126
  C:BCBAH         LINE#         127
  C:BCBFH         LINE#         128
  C:BCC4H         LINE#         129
  C:BCC9H         LINE#         130
  C:BCCEH         LINE#         131
  C:BCD3H         LINE#         132
  C:BCD8H         LINE#         133
  C:BCDBH         LINE#         134
  C:BCDEH         LINE#         135
  C:BCE3H         LINE#         136
  C:BCE8H         LINE#         137
  C:BCFAH         LINE#         138
  C:BD0AH         LINE#         139
  C:BD1AH         LINE#         140
  C:BD2BH         LINE#         141
  C:BD3CH         LINE#         142
  C:BD4DH         LINE#         143
  C:BD5EH         LINE#         144
  C:BD61H         LINE#         145
  C:BD64H         LINE#         146
  C:BD69H         LINE#         147
  C:BD6EH         LINE#         148
  C:BD73H         LINE#         149
  C:BD78H         LINE#         150
  -------         ENDPROC       _RTC_CONFIG
  -------         PROC          RDTIME
  -------         DO            
  X:8D77H         SYMBOL        rtcdata
  X:8D7FH         SYMBOL        i
  X:8D80H         SYMBOL        n
  X:8D81H         SYMBOL        m
  -------         DO            
  X:8D82H         SYMBOL        rtc_vp
  -------         ENDDO         
  -------         ENDDO         
  C:8BF3H         LINE#         154
  C:8BF3H         LINE#         155
  C:8BF3H         LINE#         156
  C:8BF3H         LINE#         158
  C:8BF6H         LINE#         159
  C:8BF9H         LINE#         160
  C:8BFEH         LINE#         161
  C:8C03H         LINE#         162
  C:8C06H         LINE#         163
  C:8C09H         LINE#         164
  C:8C0EH         LINE#         165
  C:8C21H         LINE#         166
  C:8C21H         LINE#         167
  C:8C33H         LINE#         168
  C:8C36H         LINE#         169
  C:8C3EH         LINE#         170
BL51 BANKED LINKER/LOCATER V6.22.2.0                                                  07/08/2026  17:17:08  PAGE 123


  C:8C46H         LINE#         172
  C:8C49H         LINE#         173
  C:8C4CH         LINE#         174
  C:8C5FH         LINE#         175
  C:8C5FH         LINE#         176
  C:8C73H         LINE#         177
  C:8C79H         LINE#         178
  C:8C8CH         LINE#         179
  C:8C94H         LINE#         180
  C:8CA8H         LINE#         181
  C:8CA8H         LINE#         182
  C:8CBCH         LINE#         183
  C:8CC2H         LINE#         184
  C:8CD5H         LINE#         185
  C:8CDDH         LINE#         187
  C:8CE2H         LINE#         188
  C:8CEAH         LINE#         189
  C:8CFCH         LINE#         190
  C:8CFCH         LINE#         191
  C:8D04H         LINE#         193
  C:8D0AH         LINE#         194
  C:8D0FH         LINE#         195
  C:8D17H         LINE#         196
  C:8D1FH         LINE#         197
  C:8D24H         LINE#         198
  C:8D2CH         LINE#         199
  C:8D2CH         LINE#         202
  C:8D3EH         LINE#         203
  C:8D52H         LINE#         204
  C:8D64H         LINE#         205
  C:8D7EH         LINE#         206
  C:8D7EH         LINE#         207
  C:8D86H         LINE#         208
  C:8D8EH         LINE#         209
  C:8D96H         LINE#         210
  C:8D9EH         LINE#         211
  C:8DA6H         LINE#         212
  C:8DAEH         LINE#         214
  -------         ENDPROC       RDTIME
  -------         PROC          _BCD
  D:0007H         SYMBOL        dat
  C:FDDAH         LINE#         239
  C:FDDAH         LINE#         240
  C:FDDAH         LINE#         241
  C:FDECH         LINE#         242
  -------         ENDPROC       _BCD
  -------         PROC          _RTC_GET_WEEK
  D:0004H         SYMBOL        year
  D:0005H         SYMBOL        month
  X:8D9AH         SYMBOL        day
  -------         DO            
  D:0006H         SYMBOL        tmp
  X:8D9BH         SYMBOL        mon
  X:8D9DH         SYMBOL        y
  D:0007H         SYMBOL        week
  -------         ENDDO         
  C:D166H         LINE#         249
BL51 BANKED LINKER/LOCATER V6.22.2.0                                                  07/08/2026  17:17:08  PAGE 124


  C:D16DH         LINE#         250
  C:D16DH         LINE#         253
  C:D17AH         LINE#         254
  C:D17AH         LINE#         255
  C:D187H         LINE#         256
  C:D193H         LINE#         257
  C:D195H         LINE#         259
  C:D195H         LINE#         260
  C:D19FH         LINE#         261
  C:D1A7H         LINE#         262
  C:D1A7H         LINE#         263
  C:D1F2H         LINE#         264
  C:D1F9H         LINE#         265
  C:D1F9H         LINE#         266
  -------         ENDPROC       _RTC_GET_WEEK
  -------         PROC          CHECK_RTC_SET
  -------         DO            
  X:8D88H         SYMBOL        rtc_parm
  X:8D90H         SYMBOL        rtc_set
  -------         DO            
  X:8D98H         SYMBOL        yfull
  -------         ENDDO         
  -------         ENDDO         
  C:9D9DH         LINE#         268
  C:9D9DH         LINE#         269
  C:9D9DH         LINE#         270
  C:9DB0H         LINE#         271
  C:9DC3H         LINE#         272
  C:9DDDH         LINE#         273
  C:9DF1H         LINE#         274
  C:9DF1H         LINE#         275
  C:9DFCH         LINE#         276
  C:9E09H         LINE#         277
  C:9E16H         LINE#         278
  C:9E33H         LINE#         279
  C:9E40H         LINE#         280
  C:9E4DH         LINE#         281
  C:9E58H         LINE#         282
  C:9E61H         LINE#         283
  C:9E61H         LINE#         284
  C:9E70H         LINE#         286
  C:9E78H         LINE#         287
  C:9E83H         LINE#         288
  C:9EB2H         LINE#         289
  C:9EE1H         LINE#         290
  C:9EE1H         LINE#         291
  C:9EE6H         LINE#         292
  C:9EE8H         LINE#         293
  C:9F00H         LINE#         294
  C:9F03H         LINE#         295
  C:9F03H         LINE#         296
  -------         ENDPROC       CHECK_RTC_SET
  -------         PROC          RTCI2CSTART
  C:FC8EH         LINE#         300
  C:FC8EH         LINE#         301
  C:FC8EH         LINE#         302
  C:FC91H         LINE#         303
BL51 BANKED LINKER/LOCATER V6.22.2.0                                                  07/08/2026  17:17:08  PAGE 125


  C:FC93H         LINE#         304
  C:FC95H         LINE#         305
  C:FC9CH         LINE#         306
  C:FC9EH         LINE#         307
  C:FCA1H         LINE#         308
  C:FCA3H         LINE#         309
  -------         ENDPROC       RTCI2CSTART
  -------         PROC          RTCI2CSTOP
  C:FCD6H         LINE#         312
  C:FCD6H         LINE#         313
  C:FCD6H         LINE#         314
  C:FCD9H         LINE#         315
  C:FCDBH         LINE#         316
  C:FCDDH         LINE#         317
  C:FCE4H         LINE#         318
  C:FCE6H         LINE#         319
  C:FCE9H         LINE#         320
  C:FCECH         LINE#         321
  -------         ENDPROC       RTCI2CSTOP
  -------         PROC          RTCMACK
  C:FE4AH         LINE#         323
  C:FE4AH         LINE#         324
  C:FE4AH         LINE#         325
  C:FE4DH         LINE#         326
  C:FE4FH         LINE#         327
  C:FE52H         LINE#         328
  C:FE54H         LINE#         329
  C:FE57H         LINE#         330
  C:FE59H         LINE#         331
  -------         ENDPROC       RTCMACK
  -------         PROC          RTCMNAK
  C:FE8EH         LINE#         334
  C:FE8EH         LINE#         335
  C:FE8EH         LINE#         336
  C:FE91H         LINE#         337
  C:FE91H         LINE#         338
  C:FE94H         LINE#         339
  C:FE96H         LINE#         340
  C:FE99H         LINE#         341
  C:FE9BH         LINE#         342
  -------         ENDPROC       RTCMNAK
  -------         PROC          RTCCACK
  -------         DO            
  D:0005H         SYMBOL        i
  -------         ENDDO         
  C:F7A8H         LINE#         345
  C:F7A8H         LINE#         346
  C:F7A8H         LINE#         347
  C:F7A8H         LINE#         348
  C:F7ABH         LINE#         349
  C:F7ABH         LINE#         350
  C:F7AEH         LINE#         351
  C:F7B0H         LINE#         352
  C:F7B3H         LINE#         353
  C:F7BFH         LINE#         354
  C:F7BFH         LINE#         355
  C:F7C2H         LINE#         356
BL51 BANKED LINKER/LOCATER V6.22.2.0                                                  07/08/2026  17:17:08  PAGE 126


  C:F7C2H         LINE#         357
  C:F7C2H         LINE#         358
  C:F7C2H         LINE#         359
  C:F7C5H         LINE#         360
  C:F7C8H         LINE#         361
  C:F7CAH         LINE#         362
  C:F7CDH         LINE#         363
  C:F7D0H         LINE#         364
  -------         ENDPROC       RTCCACK
  C:F08CH         SYMBOL        L?0107
  -------         PROC          L?0106
  -------         ENDPROC       L?0106
  C:F08CH         SYMBOL        L?0107
  -------         PROC          _RTCI2CBW
  D:0005H         SYMBOL        dat
  -------         DO            
  D:0004H         SYMBOL        i
  -------         ENDDO         
  C:F090H         LINE#         367
  C:F092H         LINE#         368
  C:F092H         LINE#         369
  C:F092H         LINE#         370
  C:F095H         LINE#         371
  C:F0A8H         LINE#         372
  C:F0A8H         LINE#         373
  C:F0ACH         LINE#         374
  C:F0ACH         LINE#         375
  C:F0AEH         LINE#         376
  C:F0B0H         LINE#         378
  C:F0B0H         LINE#         379
  C:F0B2H         LINE#         380
  C:F0B2H         LINE#         381
  C:F0B6H         LINE#         382
  C:F0B9H         LINE#         383
  C:F0BBH         LINE#         384
  C:F0BEH         LINE#         385
  C:F0C0H         LINE#         386
  C:F0C3H         LINE#         387
  C:F0C6H         LINE#         388
  -------         ENDPROC       _RTCI2CBW
  -------         PROC          RTCI2CBR
  -------         DO            
  D:0004H         SYMBOL        i
  D:0005H         SYMBOL        dat
  -------         ENDDO         
  C:F41FH         LINE#         392
  C:F41FH         LINE#         393
  C:F41FH         LINE#         394
  C:F41FH         LINE#         396
  C:F422H         LINE#         397
  C:F42EH         LINE#         398
  C:F42EH         LINE#         399
  C:F431H         LINE#         400
  C:F433H         LINE#         401
  C:F436H         LINE#         402
  C:F43AH         LINE#         403
  C:F43DH         LINE#         404
BL51 BANKED LINKER/LOCATER V6.22.2.0                                                  07/08/2026  17:17:08  PAGE 127


  C:F43DH         LINE#         405
  C:F440H         LINE#         406
  C:F442H         LINE#         408
  C:F442H         LINE#         409
  C:F446H         LINE#         410
  C:F446H         LINE#         412
  C:F448H         LINE#         413
  C:F44BH         LINE#         414
  C:F44EH         LINE#         415
  C:F450H         LINE#         416
  -------         ENDPROC       RTCI2CBR
  -------         PROC          RTCUPDATE
  -------         DO            
  X:94C9H         SYMBOL        ulUpdateTime
  X:8D71H         SYMBOL        year
  D:0004H         SYMBOL        month
  D:0002H         SYMBOL        day
  X:8D73H         SYMBOL        hour
  X:8D75H         SYMBOL        minute
  -------         ENDDO         
  C:CDB8H         LINE#         417
  C:CDB8H         LINE#         418
  C:CDB8H         LINE#         421
  C:CDEFH         LINE#         422
  C:CDEFH         LINE#         423
  C:CDF8H         LINE#         424
  C:CDFBH         LINE#         425
  C:CE0CH         LINE#         426
  C:CE13H         LINE#         427
  C:CE1AH         LINE#         428
  C:CE25H         LINE#         429
  C:CE32H         LINE#         430
  C:CE5BH         LINE#         431
  C:CE5BH         LINE#         432
  -------         ENDPROC       RTCUPDATE
  -------         PROC          GETSYSTICKTIME
  C:FEDDH         LINE#         440
  C:FEDDH         LINE#         441
  C:FEDDH         LINE#         442
  C:FEEBH         LINE#         443
  -------         ENDPROC       GETSYSTICKTIME
  -------         PROC          _GETTIMEDIFF
  X:8D77H         SYMBOL        currtime
  X:8D7BH         SYMBOL        lasttime
  C:DA6AH         LINE#         453
  C:DA70H         LINE#         454
  C:DA70H         LINE#         455
  C:DAA0H         LINE#         456
  C:DAA0H         LINE#         457
  C:DAB9H         LINE#         458
  C:DAB9H         LINE#         460
  C:DAB9H         LINE#         462
  C:DAE2H         LINE#         463
  C:DAE2H         LINE#         464
  -------         ENDPROC       _GETTIMEDIFF
  -------         PROC          RTC_GET_WEEKDAY
  C:FFBAH         LINE#         466
BL51 BANKED LINKER/LOCATER V6.22.2.0                                                  07/08/2026  17:17:08  PAGE 128


  C:FFBAH         LINE#         467
  C:FFBAH         LINE#         468
  C:FFBFH         LINE#         469
  -------         ENDPROC       RTC_GET_WEEKDAY
  -------         PROC          L?0109
  -------         ENDPROC       L?0109
  -------         PROC          _RTC_IS_LEAP
  D:0002H         SYMBOL        year
  C:F5A6H         LINE#         471
  C:F5AAH         LINE#         472
  C:F5AAH         LINE#         473
  C:F5CDH         LINE#         474
  -------         ENDPROC       _RTC_IS_LEAP
  -------         PROC          L?0108
  -------         ENDPROC       L?0108
  -------         PROC          _RTC_DAYS_IN_MONTH
  D:0006H         SYMBOL        year
  D:0001H         SYMBOL        month
  -------         DO            
  X:94CDH         SYMBOL        mdays
  -------         ENDDO         
  C:EFD9H         LINE#         476
  C:EFDBH         LINE#         477
  C:EFDBH         LINE#         480
  C:EFE6H         LINE#         481
  C:EFE9H         LINE#         482
  C:EFFEH         LINE#         483
  C:F00BH         LINE#         484
  C:F00DH         LINE#         485
  -------         ENDPROC       _RTC_DAYS_IN_MONTH
  -------         PROC          RTC_GETUNIXLOCAL
  -------         DO            
  X:8DAAH         SYMBOL        days
  X:8DAEH         SYMBOL        year
  X:8DB0H         SYMBOL        month
  X:8DB1H         SYMBOL        full_year
  -------         ENDDO         
  C:911EH         LINE#         487
  C:911EH         LINE#         488
  C:911EH         LINE#         489
  C:9128H         LINE#         494
  C:9139H         LINE#         495
  C:9158H         LINE#         496
  C:91AAH         LINE#         497
  C:91BDH         LINE#         498
  C:9209H         LINE#         499
  C:9216H         LINE#         500
  C:9246H         LINE#         501
  C:92C2H         LINE#         502
  -------         ENDPROC       RTC_GETUNIXLOCAL
  -------         PROC          RTC_GETFULLYEAR
  C:FF3BH         LINE#         504
  C:FF3BH         LINE#         505
  C:FF3BH         LINE#         506
  C:FF46H         LINE#         507
  -------         ENDPROC       RTC_GETFULLYEAR
  -------         PROC          _RTC_UNIXFROMLOCALPARTS
BL51 BANKED LINKER/LOCATER V6.22.2.0                                                  07/08/2026  17:17:08  PAGE 129


  X:8E7FH         SYMBOL        full_year
  X:8E81H         SYMBOL        month
  X:8E82H         SYMBOL        day
  X:8E83H         SYMBOL        hour
  X:8E84H         SYMBOL        minute
  X:8E85H         SYMBOL        second
  -------         DO            
  X:8E86H         SYMBOL        days
  X:8E8AH         SYMBOL        year
  X:8E8CH         SYMBOL        m
  -------         ENDDO         
  C:8840H         LINE#         509
  C:884EH         LINE#         510
  C:884EH         LINE#         511
  C:8858H         LINE#         515
  C:8889H         LINE#         516
  C:888FH         LINE#         517
  C:88AEH         LINE#         518
  C:8900H         LINE#         519
  C:8913H         LINE#         520
  C:895FH         LINE#         521
  C:896AH         LINE#         522
  C:8972H         LINE#         523
  C:89A2H         LINE#         524
  C:8A1CH         LINE#         525
  -------         ENDPROC       _RTC_UNIXFROMLOCALPARTS
  -------         ENDMOD        RTC

  -------         MODULE        ERRORHISTORY
  C:0000H         SYMBOL        _ICE_DUMMY_
  C:79E2H         PUBLIC        _ErrorHistory_PackRec
  D:00B0H         PUBLIC        P3
  X:8FA3H         PUBLIC        ErrorHistory
  D:00F8H         PUBLIC        RAMMODE
  D:00A8H         PUBLIC        IEN0
  D:00B8H         PUBLIC        IEN1
  C:FA30H         SYMBOL        ErrorHistory_GetCount
  C:F692H         SYMBOL        _ErrorHistory_IsValidCode
  C:FFA5H         SYMBOL        ErrorHistory_FlashVpAddr
  C:FEAEH         SYMBOL        ErrorHistory_GetMaxPage
  C:F3BAH         PUBLIC        _ErrorHistory_PageChange
  C:EA20H         PUBLIC        ErrorHistory_Sanitize
  D:0088H         PUBLIC        TCON
  C:9609H         SYMBOL        _ErrorHistory_UnpackRecLegacy
  C:FF53H         SYMBOL        _?ix1000
  X:9197H         PUBLIC        AllErrorBit
  C:E881H         PUBLIC        DecodeErrorHistory
  C:7530H         PUBLIC        _ErrorHistory_FlashRead
  C:B41FH         PUBLIC        ErrorHistoryDisplay
  D:0098H         PUBLIC        SCON0
  C:C9C9H         PUBLIC        _ErrorHistory_FlashWrite
  C:D43EH         PUBLIC        ErrorHistory_TryMigrateFlash
  C:97A0H         SYMBOL        _ErrorHistory_UnpackRec
  D:00C8H         PUBLIC        T2CON
  C:FFC0H         PUBLIC        ErrorHistory_ResetPage
  C:FDF2H         SYMBOL        _ErrorHistory_ClampByte
  C:FFEAH         PUBLIC        _UWOErrorCodeProcess
BL51 BANKED LINKER/LOCATER V6.22.2.0                                                  07/08/2026  17:17:08  PAGE 130


  C:A06BH         PUBLIC        _UpdateErrorHistory
  C:E04EH         SYMBOL        _ErrorHistory_ConvertLegacyRawRec
  C:EF09H         PUBLIC        ClearErrorHistory
  C:FF47H         PUBLIC        ErrorHistory_LoadFromFlash
  X:919FH         SYMBOL        s_page
  C:AFF0H         SYMBOL        _ErrorHistory_ReadTime
  C:EEC5H         PUBLIC        ErrorHistory_FlashCommitNow
  D:00D0H         PUBLIC        PSW
  D:00C0H         PUBLIC        IRCON
  -------         PROC          L?0133
  -------         ENDPROC       L?0133
  -------         PROC          _ERRORHISTORY_ISVALIDCODE
  D:0007H         SYMBOL        fault_code
  C:F692H         LINE#         390
  C:F692H         LINE#         391
  C:F692H         LINE#         392
  C:F6ACH         LINE#         393
  -------         ENDPROC       _ERRORHISTORY_ISVALIDCODE
  -------         PROC          L?0134
  -------         ENDPROC       L?0134
  -------         PROC          _ERRORHISTORY_CLAMPBYTE
  D:0006H         SYMBOL        v
  D:0005H         SYMBOL        maxv
  C:FDF2H         LINE#         395
  C:FDF2H         LINE#         396
  C:FDF2H         LINE#         397
  C:FDFCH         LINE#         398
  C:FDFFH         LINE#         399
  C:FDFFH         LINE#         400
  -------         ENDPROC       _ERRORHISTORY_CLAMPBYTE
  -------         PROC          _ERRORHISTORY_READTIME
  X:8D7BH         SYMBOL        rec
  -------         DO            
  X:8D7EH         SYMBOL        year
  X:8D80H         SYMBOL        month_vp
  X:8D82H         SYMBOL        day
  X:8D84H         SYMBOL        hour
  X:8D86H         SYMBOL        minute
  -------         ENDDO         
  C:AFF0H         LINE#         403
  C:AFFBH         LINE#         404
  C:AFFBH         LINE#         405
  C:B000H         LINE#         406
  C:B004H         LINE#         407
  C:B008H         LINE#         408
  C:B00CH         LINE#         409
  C:B010H         LINE#         411
  C:B028H         LINE#         412
  C:B041H         LINE#         413
  C:B05AH         LINE#         414
  C:B073H         LINE#         415
  C:B08CH         LINE#         416
  C:B0ACH         LINE#         417
  C:B0C6H         LINE#         418
  C:B0E0H         LINE#         419
  -------         ENDPROC       _ERRORHISTORY_READTIME
  -------         PROC          _ERRORHISTORY_PACKREC
BL51 BANKED LINKER/LOCATER V6.22.2.0                                                  07/08/2026  17:17:08  PAGE 131


  X:8F89H         SYMBOL        out
  X:8F8CH         SYMBOL        rec
  -------         DO            
  X:8F8FH         SYMBOL        v
  -------         ENDDO         
  C:79E2H         LINE#         422
  C:79EDH         LINE#         423
  C:79EDH         LINE#         426
  C:7A03H         LINE#         427
  C:7A03H         LINE#         428
  C:7A12H         LINE#         429
  C:7A24H         LINE#         430
  C:7A2BH         LINE#         431
  C:7A32H         LINE#         433
  C:7A32H         LINE#         434
  C:7A50H         LINE#         435
  C:7AA8H         LINE#         436
  C:7B00H         LINE#         437
  C:7B58H         LINE#         438
  C:7BADH         LINE#         439
  C:7BC4H         LINE#         440
  C:7BE9H         LINE#         441
  C:7C03H         LINE#         442
  C:7C1DH         LINE#         443
  -------         ENDPROC       _ERRORHISTORY_PACKREC
  -------         PROC          _ERRORHISTORY_UNPACKREC
  X:8F0EH         SYMBOL        rec
  X:8F11H         SYMBOL        in
  -------         DO            
  X:8F14H         SYMBOL        v
  -------         ENDDO         
  C:97A0H         LINE#         445
  C:97ABH         LINE#         446
  C:97ABH         LINE#         449
  C:9853H         LINE#         450
  C:986BH         LINE#         451
  C:986BH         LINE#         452
  C:987AH         LINE#         453
  C:988CH         LINE#         454
  C:9893H         LINE#         455
  C:989AH         LINE#         456
  C:98A1H         LINE#         458
  C:98A1H         LINE#         459
  C:98BDH         LINE#         460
  C:98DBH         LINE#         461
  C:98F9H         LINE#         462
  C:9917H         LINE#         463
  C:9932H         LINE#         464
  -------         ENDPROC       _ERRORHISTORY_UNPACKREC
  -------         PROC          _ERRORHISTORY_UNPACKRECLEGACY
  X:8F0EH         SYMBOL        rec
  X:8F11H         SYMBOL        in
  -------         DO            
  X:8F14H         SYMBOL        v
  D:0007H         SYMBOL        month
  X:8F18H         SYMBOL        day
  X:8F19H         SYMBOL        hour
BL51 BANKED LINKER/LOCATER V6.22.2.0                                                  07/08/2026  17:17:08  PAGE 132


  -------         ENDDO         
  C:9609H         LINE#         466
  C:9614H         LINE#         467
  C:9614H         LINE#         473
  C:96BCH         LINE#         474
  C:96D4H         LINE#         475
  C:96D4H         LINE#         476
  C:96E3H         LINE#         477
  C:96F5H         LINE#         478
  C:96FCH         LINE#         479
  C:9703H         LINE#         480
  C:970AH         LINE#         482
  C:970AH         LINE#         483
  C:9726H         LINE#         484
  C:9740H         LINE#         485
  C:9757H         LINE#         486
  C:9766H         LINE#         487
  C:977DH         LINE#         488
  C:9787H         LINE#         489
  C:978EH         LINE#         490
  C:979FH         LINE#         491
  -------         ENDPROC       _ERRORHISTORY_UNPACKRECLEGACY
  -------         PROC          _ERRORHISTORY_CONVERTLEGACYRAWREC
  D:0001H         SYMBOL        rec
  -------         DO            
  X:8F0EH         SYMBOL        month
  D:0007H         SYMBOL        day
  D:0006H         SYMBOL        hour
  D:0005H         SYMBOL        fault_code
  -------         ENDDO         
  C:E04EH         LINE#         493
  C:E04EH         LINE#         494
  C:E04EH         LINE#         500
  C:E05BH         LINE#         501
  C:E05BH         LINE#         502
  C:E05EH         LINE#         503
  C:E064H         LINE#         504
  C:E06BH         LINE#         505
  C:E072H         LINE#         506
  C:E078H         LINE#         508
  C:E078H         LINE#         509
  C:E082H         LINE#         510
  C:E089H         LINE#         511
  C:E090H         LINE#         512
  C:E097H         LINE#         513
  C:E09EH         LINE#         514
  C:E0A5H         LINE#         515
  C:E0ACH         LINE#         516
  C:E0B3H         LINE#         517
  C:E0BAH         LINE#         518
  -------         ENDPROC       _ERRORHISTORY_CONVERTLEGACYRAWREC
  -------         PROC          _ERRORHISTORY_FLASHWRITE
  X:8DF2H         SYMBOL        flash_vp_addr
  -------         DO            
  X:8DF6H         SYMBOL        packed
  X:8F86H         SYMBOL        i
  X:8F87H         SYMBOL        magic
BL51 BANKED LINKER/LOCATER V6.22.2.0                                                  07/08/2026  17:17:08  PAGE 133


  -------         ENDDO         
  C:C9C9H         LINE#         520
  C:C9CFH         LINE#         521
  C:C9CFH         LINE#         524
  C:C9D9H         LINE#         526
  C:C9ECH         LINE#         527
  C:CA2AH         LINE#         528
  C:CA49H         LINE#         529
  -------         ENDPROC       _ERRORHISTORY_FLASHWRITE
  -------         PROC          ERRORHISTORY_FLASHVPADDR
  C:FFA5H         LINE#         532
  C:FFA5H         LINE#         533
  C:FFA5H         LINE#         534
  C:FFACH         LINE#         536
  -------         ENDPROC       ERRORHISTORY_FLASHVPADDR
  -------         PROC          ERRORHISTORY_FLASHCOMMITNOW
  -------         DO            
  X:8DF0H         SYMBOL        enable_memory
  -------         ENDDO         
  C:EEC5H         LINE#         538
  C:EEC5H         LINE#         539
  C:EEC5H         LINE#         540
  C:EECCH         LINE#         542
  C:EED2H         LINE#         543
  C:EEEBH         LINE#         544
  C:EEF7H         LINE#         545
  C:EEF7H         LINE#         546
  C:EEFAH         LINE#         547
  C:EEFDH         LINE#         548
  C:EF02H         LINE#         549
  C:EF08H         LINE#         550
  C:EF08H         LINE#         551
  -------         ENDPROC       ERRORHISTORY_FLASHCOMMITNOW
  -------         PROC          ERRORHISTORY_TRYMIGRATEFLASH
  -------         DO            
  X:8D82H         SYMBOL        magic
  X:8D84H         SYMBOL        enable_memory
  X:8D86H         SYMBOL        addr
  -------         ENDDO         
  C:D43EH         LINE#         553
  C:D43EH         LINE#         554
  C:D43EH         LINE#         555
  C:D445H         LINE#         556
  C:D449H         LINE#         559
  C:D450H         LINE#         560
  C:D46FH         LINE#         561
  C:D47DH         LINE#         564
  C:D480H         LINE#         565
  C:D491H         LINE#         567
  C:D4AAH         LINE#         568
  C:D4B6H         LINE#         569
  C:D4B6H         LINE#         570
  C:D4B9H         LINE#         571
  C:D4BCH         LINE#         572
  C:D4C1H         LINE#         573
  C:D4C7H         LINE#         574
  C:D4C7H         LINE#         575
BL51 BANKED LINKER/LOCATER V6.22.2.0                                                  07/08/2026  17:17:08  PAGE 134


  -------         ENDPROC       ERRORHISTORY_TRYMIGRATEFLASH
  -------         PROC          _ERRORHISTORY_FLASHREAD
  X:8D75H         SYMBOL        flash_vp_addr
  -------         DO            
  X:8D79H         SYMBOL        magic
  X:8D7BH         SYMBOL        packed
  X:8F0BH         SYMBOL        i
  X:8F0CH         SYMBOL        j
  -------         DO            
  X:8F0DH         SYMBOL        k
  -------         ENDDO         
  -------         ENDDO         
  C:7530H         LINE#         577
  C:7536H         LINE#         578
  C:7536H         LINE#         579
  C:753DH         LINE#         583
  C:755CH         LINE#         584
  C:756DH         LINE#         585
  C:756DH         LINE#         586
  C:7598H         LINE#         587
  C:75AEH         LINE#         588
  C:75ECH         LINE#         590
  C:75ECH         LINE#         591
  C:75FDH         LINE#         592
  C:75FDH         LINE#         593
  C:7628H         LINE#         594
  C:763EH         LINE#         595
  C:767CH         LINE#         597
  C:767CH         LINE#         599
  C:769CH         LINE#         600
  C:76AFH         LINE#         601
  C:76C9H         LINE#         602
  C:76DCH         LINE#         603
  C:76DCH         LINE#         604
  C:76EDH         LINE#         605
  C:7713H         LINE#         606
  C:771BH         LINE#         607
  C:772EH         LINE#         608
  C:772EH         LINE#         609
  C:7735H         LINE#         610
  C:7735H         LINE#         611
  C:7748H         LINE#         612
  C:7748H         LINE#         614
  C:7759H         LINE#         615
  C:777FH         LINE#         616
  C:7787H         LINE#         617
  C:7787H         LINE#         618
  C:7787H         LINE#         619
  C:778FH         LINE#         620
  -------         ENDPROC       _ERRORHISTORY_FLASHREAD
  -------         PROC          ERRORHISTORY_LOADFROMFLASH
  C:FF47H         LINE#         622
  C:FF47H         LINE#         623
  C:FF47H         LINE#         624
  C:FF4DH         LINE#         625
  C:FF50H         LINE#         626
  -------         ENDPROC       ERRORHISTORY_LOADFROMFLASH
BL51 BANKED LINKER/LOCATER V6.22.2.0                                                  07/08/2026  17:17:08  PAGE 135


  -------         PROC          ERRORHISTORY_SANITIZE
  -------         DO            
  D:0006H         SYMBOL        i
  D:0007H         SYMBOL        j
  D:0005H         SYMBOL        k
  -------         ENDDO         
  C:EA20H         LINE#         629
  C:EA20H         LINE#         630
  C:EA20H         LINE#         633
  C:EA2CH         LINE#         634
  C:EA2CH         LINE#         635
  C:EA33H         LINE#         636
  C:EA33H         LINE#         637
  C:EA3FH         LINE#         638
  C:EA3FH         LINE#         639
  C:EA4BH         LINE#         640
  C:EA69H         LINE#         641
  C:EA6CH         LINE#         642
  C:EA6CH         LINE#         643
  C:EA6CH         LINE#         644
  C:EA6FH         LINE#         645
  -------         ENDPROC       ERRORHISTORY_SANITIZE
  -------         PROC          ERRORHISTORY_GETCOUNT
  -------         DO            
  D:0007H         SYMBOL        i
  -------         ENDDO         
  C:FA30H         LINE#         647
  C:FA30H         LINE#         648
  C:FA30H         LINE#         651
  C:FA3CH         LINE#         652
  C:FA3CH         LINE#         653
  C:FA4EH         LINE#         654
  C:FA4EH         LINE#         655
  C:FA51H         LINE#         656
  C:FA51H         LINE#         657
  -------         ENDPROC       ERRORHISTORY_GETCOUNT
  -------         PROC          ERRORHISTORY_GETMAXPAGE
  -------         DO            
  D:0007H         SYMBOL        count
  -------         ENDDO         
  C:FEAEH         LINE#         659
  C:FEAEH         LINE#         660
  C:FEAEH         LINE#         663
  C:FEB1H         LINE#         664
  C:FEB4H         LINE#         665
  C:FEB6H         LINE#         666
  C:FEBDH         LINE#         667
  -------         ENDPROC       ERRORHISTORY_GETMAXPAGE
  -------         PROC          _UPDATEERRORHISTORY
  X:8D72H         SYMBOL        NewError
  X:8D74H         SYMBOL        ErrorBuffNum
  -------         DO            
  X:8F9BH         SYMBOL        OldError
  X:8D75H         SYMBOL        i
  D:0007H         SYMBOL        j
  X:8D76H         SYMBOL        k
  X:8D77H         SYMBOL        time_rec
BL51 BANKED LINKER/LOCATER V6.22.2.0                                                  07/08/2026  17:17:08  PAGE 136


  -------         ENDDO         
  C:A06BH         LINE#         669
  C:A076H         LINE#         670
  C:A076H         LINE#         675
  C:A08FH         LINE#         676
  C:A08FH         LINE#         677
  C:A098H         LINE#         678
  C:A0ADH         LINE#         679
  C:A0ADH         LINE#         680
  C:A0F6H         LINE#         681
  C:A0F6H         LINE#         682
  C:A102H         LINE#         683
  C:A102H         LINE#         684
  C:A114H         LINE#         685
  C:A114H         LINE#         686
  C:A14CH         LINE#         687
  C:A154H         LINE#         688
  C:A157H         LINE#         689
  C:A169H         LINE#         690
  C:A169H         LINE#         691
  C:A182H         LINE#         692
  C:A18AH         LINE#         693
  C:A19FH         LINE#         694
  C:A19FH         LINE#         695
  C:A1A8H         LINE#         696
  C:A1C2H         LINE#         697
  C:A1C5H         LINE#         698
  C:A1C8H         LINE#         699
  C:A1C8H         LINE#         700
  -------         ENDPROC       _UPDATEERRORHISTORY
  -------         PROC          ERRORHISTORYDISPLAY
  -------         DO            
  X:8D82H         SYMBOL        i
  X:8D83H         SYMBOL        j
  D:0003H         SYMBOL        rowIdx
  X:8D84H         SYMBOL        ErrorHistoryDisplay_Temp
  -------         ENDDO         
  C:B41FH         LINE#         701
  C:B41FH         LINE#         702
  C:B41FH         LINE#         705
  C:B432H         LINE#         707
  C:B448H         LINE#         708
  C:B448H         LINE#         709
  C:B454H         LINE#         710
  C:B472H         LINE#         711
  C:B472H         LINE#         712
  C:B47FH         LINE#         713
  C:B492H         LINE#         714
  C:B492H         LINE#         715
  C:B4C0H         LINE#         716
  C:B4C8H         LINE#         717
  C:B4C8H         LINE#         719
  C:B4C8H         LINE#         720
  C:B4DBH         LINE#         721
  C:B4DBH         LINE#         722
  C:B4EBH         LINE#         723
  C:B4F3H         LINE#         724
BL51 BANKED LINKER/LOCATER V6.22.2.0                                                  07/08/2026  17:17:08  PAGE 137


  C:B4F3H         LINE#         725
  C:B517H         LINE#         726
  C:B520H         LINE#         727
  -------         ENDPROC       ERRORHISTORYDISPLAY
  -------         PROC          _ERRORHISTORY_PAGECHANGE
  D:0004H         SYMBOL        keyValue
  -------         DO            
  D:0007H         SYMBOL        maxPage
  -------         ENDDO         
  C:F3BAH         LINE#         728
  C:F3BEH         LINE#         729
  C:F3BEH         LINE#         732
  C:F3C1H         LINE#         733
  C:F3C7H         LINE#         734
  C:F3C7H         LINE#         735
  C:F3D4H         LINE#         736
  C:F3D7H         LINE#         737
  C:F3D9H         LINE#         738
  C:F3DFH         LINE#         739
  C:F3DFH         LINE#         740
  C:F3E7H         LINE#         741
  C:F3EAH         LINE#         742
  C:F3EAH         LINE#         743
  -------         ENDPROC       _ERRORHISTORY_PAGECHANGE
  -------         PROC          ERRORHISTORY_RESETPAGE
  C:FFC0H         LINE#         745
  C:FFC0H         LINE#         746
  C:FFC0H         LINE#         747
  C:FFC5H         LINE#         748
  -------         ENDPROC       ERRORHISTORY_RESETPAGE
  -------         PROC          CLEARERRORHISTORY
  -------         DO            
  D:0007H         SYMBOL        i
  D:0006H         SYMBOL        j
  -------         ENDDO         
  C:EF09H         LINE#         749
  C:EF09H         LINE#         750
  C:EF09H         LINE#         753
  C:EF15H         LINE#         754
  C:EF15H         LINE#         755
  C:EF21H         LINE#         756
  C:EF21H         LINE#         757
  C:EF3CH         LINE#         758
  C:EF3FH         LINE#         759
  C:EF42H         LINE#         760
  C:EF47H         LINE#         761
  C:EF4AH         LINE#         762
  -------         ENDPROC       CLEARERRORHISTORY
  -------         PROC          DECODEERRORHISTORY
  -------         DO            
  X:8D71H         SYMBOL        i
  D:0006H         SYMBOL        DecodeErrorHistory_Page
  -------         ENDDO         
  C:E881H         LINE#         764
  C:E881H         LINE#         765
  C:E881H         LINE#         769
  C:E894H         LINE#         770
BL51 BANKED LINKER/LOCATER V6.22.2.0                                                  07/08/2026  17:17:08  PAGE 138


  C:E894H         LINE#         771
  C:E8A8H         LINE#         772
  C:E8B0H         LINE#         773
  C:E8B3H         LINE#         774
  C:E8D1H         LINE#         775
  C:E8D1H         LINE#         776
  C:E8D4H         LINE#         777
  C:E8D4H         LINE#         778
  -------         ENDPROC       DECODEERRORHISTORY
  -------         PROC          _UWOERRORCODEPROCESS
  D:0007H         SYMBOL        Code
  C:FFEAH         LINE#         779
  C:FFEAH         LINE#         780
  C:FFEAH         LINE#         781
  C:FFEAH         LINE#         782
  -------         ENDPROC       _UWOERRORCODEPROCESS
  -------         ENDMOD        ERRORHISTORY

  -------         MODULE        UPLOAD
  C:0000H         SYMBOL        _ICE_DUMMY_
  X:8D3FH         SYMBOL        s_lock
  X:8D40H         SYMBOL        s_evap
  C:FB55H         PUBLIC        _upload_shadow_bool
  C:DE8CH         PUBLIC        upload_dp_evaporator_temp
  D:00B0H         PUBLIC        P3
  C:F106H         PUBLIC        upload_dp_temp_set
  C:D972H         SYMBOL        Upload_PackTimerRoomByte
  C:E469H         PUBLIC        upload_timestamp_from_rtc
  D:00F8H         PUBLIC        RAMMODE
  C:AB9CH         SYMBOL        _Upload_UlToStr
  C:F7D1H         PUBLIC        _upload_shadow_enum
  C:DD36H         PUBLIC        upload_dp_temp_top
  D:00A8H         PUBLIC        IEN0
  C:F936H         SYMBOL        Upload_GetUnit
  D:00B8H         PUBLIC        IEN1
  C:846DH         PUBLIC        upload_inside_time_open
  X:8D44H         SYMBOL        s_def_freq
  X:8D48H         SYMBOL        s_def_time
  X:8D4CH         SYMBOL        s_unit
  C:DDA8H         PUBLIC        upload_dp_effluent_temp
  X:8D4DH         SYMBOL        s_work
  C:F72BH         PUBLIC        upload_dp_defrost
  C:7E49H         PUBLIC        upload_indoor_unit
  X:8D4EH         SYMBOL        s_dp_switch
  X:8D4FH         SYMBOL        s_invalidate_raw
  C:E2D0H         SYMBOL        _Upload_ValueIfChanged
  C:F180H         PUBLIC        upload_dp_defrost_freq
  C:F1BDH         PUBLIC        upload_dp_defrost_time
  X:8D50H         SYMBOL        s_dp_mode
  C:C57FH         SYMBOL        _Upload_PackHistoryFaultBlock
  X:8D51H         SYMBOL        s_effluent
  C:F701H         PUBLIC        upload_dp_child_lock
  C:FEBEH         SYMBOL        Upload_YieldWiFi
  C:F6ADH         PUBLIC        upload_dp_switch
  D:0088H         PUBLIC        TCON
  C:FCEDH         SYMBOL        _Upload_BoolIfChanged
  X:8D55H         SYMBOL        s_temp_cur
BL51 BANKED LINKER/LOCATER V6.22.2.0                                                  07/08/2026  17:17:08  PAGE 139


  C:D5DBH         PUBLIC        upload_state_query_reply
  X:8D59H         SYMBOL        s_temp_set
  X:8D5DH         SYMBOL        s_def_out
  C:F143H         PUBLIC        upload_dp_fault
  C:FD04H         SYMBOL        _Upload_EnumIfChanged
  C:DF70H         PUBLIC        upload_dp_temp_current
  D:00C9H         PUBLIC        MUX_SEL
  X:8D61H         SYMBOL        s_temp_top
  C:FA7CH         SYMBOL        _Upload_ClampIndoorTemp
  C:F2E3H         SYMBOL        _?ix1000
  C:F307H         SYMBOL        _?ix1001
  C:F30FH         SYMBOL        _?ix1002
  C:DE1AH         PUBLIC        upload_dp_around_temp
  C:F315H         SYMBOL        _?ix1003
  C:F542H         PUBLIC        upload_dp_mode
  C:F318H         SYMBOL        _?ix1004
  C:F9C9H         PUBLIC        _upload_set_boot_ready
  C:F755H         PUBLIC        upload_dp_relay_status
  X:8D65H         SYMBOL        s_defrost
  C:FA95H         SYMBOL        _Upload_DgusIndoorModeToDp
  X:8D66H         SYMBOL        s_invalidate_scalar
  C:FFC6H         PUBLIC        upload_is_boot_ready
  C:FCA6H         SYMBOL        _Upload_ModeToDp101
  C:A31CH         SYMBOL        _Upload_PackHistoryFaultRec
  C:B8F3H         PUBLIC        upload_external_time_close
  X:8D67H         SYMBOL        s_around
  D:0098H         PUBLIC        SCON0
  D:00C8H         PUBLIC        T2CON
  C:F5CEH         PUBLIC        upload_dp_work_state
  X:8D6BH         SYMBOL        s_upload_boot_ready
  C:FB92H         SYMBOL        _Upload_WorkStateToDp
  C:DEFEH         PUBLIC        upload_dp_defrost_out_temp
  X:8D6CH         SYMBOL        s_fault
  X:8D70H         SYMBOL        s_relay
  C:CD12H         PUBLIC        upload_check_status
  C:B9E0H         PUBLIC        _upload_shadow_value
  C:B0FFH         PUBLIC        upload_history_faults
  C:B806H         PUBLIC        upload_inside_time_close
  C:FB36H         SYMBOL        _Upload_DgusModeToDp116
  C:8DB1H         PUBLIC        upload_external_time_open
  C:F6D7H         PUBLIC        upload_dp_temp_unit
  D:00D0H         PUBLIC        PSW
  D:00C0H         PUBLIC        IRCON
  -------         PROC          _UPLOAD_ULTOSTR
  X:8DAAH         SYMBOL        v
  X:8DAEH         SYMBOL        buf
  -------         DO            
  X:8DB1H         SYMBOL        rev
  X:8DBBH         SYMBOL        n
  X:8DBCH         SYMBOL        i
  -------         ENDDO         
  C:AB9CH         LINE#         27
  C:ABADH         LINE#         28
  C:ABADH         LINE#         30
  C:ABB2H         LINE#         33
  C:ABCAH         LINE#         34
  C:ABCAH         LINE#         35
BL51 BANKED LINKER/LOCATER V6.22.2.0                                                  07/08/2026  17:17:08  PAGE 140


  C:ABDAH         LINE#         36
  C:ABECH         LINE#         37
  C:ABEFH         LINE#         38
  C:ABEFH         LINE#         39
  C:AC10H         LINE#         40
  C:AC10H         LINE#         41
  C:AC37H         LINE#         42
  C:AC54H         LINE#         43
  C:AC56H         LINE#         44
  C:AC67H         LINE#         45
  C:AC9DH         LINE#         46
  C:ACB6H         LINE#         47
  C:ACB6H         LINE#         48
  -------         ENDPROC       _UPLOAD_ULTOSTR
  -------         PROC          L?0255
  -------         ENDPROC       L?0255
  -------         PROC          _UPLOAD_CLAMPINDOORTEMP
  D:0006H         SYMBOL        v
  C:FA7CH         LINE#         50
  C:FA7CH         LINE#         51
  C:FA7CH         LINE#         52
  C:FA85H         LINE#         53
  C:FA88H         LINE#         54
  C:FA91H         LINE#         55
  C:FA94H         LINE#         56
  C:FA94H         LINE#         57
  -------         ENDPROC       _UPLOAD_CLAMPINDOORTEMP
  -------         PROC          _UPLOAD_DGUSINDOORMODETODP
  D:0006H         SYMBOL        dgus
  C:FA95H         LINE#         59
  C:FA95H         LINE#         60
  C:FA95H         LINE#         61
  C:FAA7H         LINE#         62
  C:FAA7H         LINE#         63
  C:FAAAH         LINE#         64
  C:FAADH         LINE#         65
  C:FAB0H         LINE#         66
  C:FAB3H         LINE#         67
  -------         ENDPROC       _UPLOAD_DGUSINDOORMODETODP
  -------         PROC          _UPLOAD_DGUSMODETODP116
  D:0006H         SYMBOL        dgus
  C:FB36H         LINE#         72
  C:FB36H         LINE#         73
  C:FB36H         LINE#         74
  C:FB46H         LINE#         75
  C:FB46H         LINE#         76
  C:FB49H         LINE#         77
  C:FB4CH         LINE#         78
  C:FB4FH         LINE#         79
  C:FB52H         LINE#         80
  -------         ENDPROC       _UPLOAD_DGUSMODETODP116
  -------         PROC          UPLOAD_PACKTIMERROOMBYTE
  -------         DO            
  X:8D8DH         SYMBOL        i
  X:8D8EH         SYMBOL        sel
  X:8D90H         SYMBOL        count
  X:8D91H         SYMBOL        single_room
BL51 BANKED LINKER/LOCATER V6.22.2.0                                                  07/08/2026  17:17:08  PAGE 141


  X:8D92H         SYMBOL        mask
  -------         ENDDO         
  C:D972H         LINE#         85
  C:D972H         LINE#         86
  C:D972H         LINE#         89
  C:D977H         LINE#         90
  C:D979H         LINE#         91
  C:D97BH         LINE#         93
  C:D98DH         LINE#         94
  C:D98DH         LINE#         95
  C:D9A8H         LINE#         96
  C:D9B2H         LINE#         97
  C:D9B2H         LINE#         98
  C:D9B8H         LINE#         99
  C:D9C2H         LINE#         100
  C:D9D5H         LINE#         101
  C:D9D5H         LINE#         102
  C:D9DDH         LINE#         103
  C:D9E5H         LINE#         104
  C:D9E9H         LINE#         105
  C:D9EEH         LINE#         106
  -------         ENDPROC       UPLOAD_PACKTIMERROOMBYTE
  -------         PROC          UPLOAD_TIMESTAMP_FROM_RTC
  -------         DO            
  X:8D9AH         SYMBOL        ts_buf
  X:8DA6H         SYMBOL        ts_local
  D:0004H         SYMBOL        ts_utc
  -------         ENDDO         
  C:E469H         LINE#         125
  C:E469H         LINE#         126
  C:E469H         LINE#         131
  C:E472H         LINE#         132
  C:E48DH         LINE#         134
  C:E4A9H         LINE#         135
  C:E4B2H         LINE#         136
  C:E4CEH         LINE#         137
  -------         ENDPROC       UPLOAD_TIMESTAMP_FROM_RTC
  -------         PROC          UPLOAD_INDOOR_UNIT
  -------         DO            
  X:8E1DH         SYMBOL        mode1
  X:8E1FH         SYMBOL        i
  X:8E20H         SYMBOL        num
  X:8E44H         SYMBOL        ftemp
  X:8AC3H         SYMBOL        s_shadow
  B:0025H.0       SYMBOL        s_valid
  -------         ENDDO         
  C:7E49H         LINE#         149
  C:7E49H         LINE#         150
  C:7E49H         LINE#         151
  C:7E50H         LINE#         152
  C:7E52H         LINE#         153
  C:7E64H         LINE#         158
  C:7E6AH         LINE#         159
  C:7E6CH         LINE#         160
  C:7E82H         LINE#         161
  C:7E82H         LINE#         162
  C:7E96H         LINE#         163
BL51 BANKED LINKER/LOCATER V6.22.2.0                                                  07/08/2026  17:17:08  PAGE 142


  C:7EB1H         LINE#         164
  C:7EC9H         LINE#         165
  C:7EECH         LINE#         166
  C:7F05H         LINE#         167
  C:7F1EH         LINE#         168
  C:7F25H         LINE#         169
  C:7F3AH         LINE#         170
  C:7F55H         LINE#         171
  C:7F72H         LINE#         172
  C:7F8DH         LINE#         173
  C:7FA5H         LINE#         174
  C:7FC0H         LINE#         175
  C:7FD4H         LINE#         176
  C:7FDDH         LINE#         177
  C:7FE0H         LINE#         178
  C:7FE0H         LINE#         179
  C:7FF5H         LINE#         180
  C:7FF5H         LINE#         181
  C:8010H         LINE#         182
  C:8010H         LINE#         183
  C:8018H         LINE#         184
  C:8023H         LINE#         186
  C:8023H         LINE#         187
  C:8035H         LINE#         188
  C:8056H         LINE#         189
  C:8058H         LINE#         190
  C:806CH         LINE#         191
  C:806FH         LINE#         192
  -------         ENDPROC       UPLOAD_INDOOR_UNIT
  -------         PROC          UPLOAD_INSIDE_TIME_OPEN
  -------         DO            
  X:8D82H         SYMBOL        num
  X:8D8AH         SYMBOL        mode1
  X:8D8CH         SYMBOL        i
  X:8AE7H         SYMBOL        s_shadow
  B:0025H.1       SYMBOL        s_valid
  -------         ENDDO         
  C:846DH         LINE#         194
  C:846DH         LINE#         195
  C:846DH         LINE#         196
  C:8480H         LINE#         197
  C:8487H         LINE#         198
  C:8489H         LINE#         202
  C:848FH         LINE#         203
  C:8491H         LINE#         204
  C:84AAH         LINE#         205
  C:84B3H         LINE#         206
  C:84CCH         LINE#         207
  C:84D5H         LINE#         208
  C:84EEH         LINE#         209
  C:84F7H         LINE#         211
  C:850AH         LINE#         212
  C:850AH         LINE#         213
  C:8525H         LINE#         214
  C:852FH         LINE#         215
  C:8548H         LINE#         216
  C:8550H         LINE#         217
BL51 BANKED LINKER/LOCATER V6.22.2.0                                                  07/08/2026  17:17:08  PAGE 143


  C:8569H         LINE#         218
  C:8572H         LINE#         219
  C:858BH         LINE#         220
  C:859BH         LINE#         221
  C:85B4H         LINE#         222
  C:85BEH         LINE#         223
  C:85C6H         LINE#         224
  C:85C9H         LINE#         225
  C:85C9H         LINE#         226
  C:85DEH         LINE#         227
  C:85DEH         LINE#         228
  C:85F9H         LINE#         229
  C:85F9H         LINE#         230
  C:8601H         LINE#         231
  C:860CH         LINE#         233
  C:860CH         LINE#         234
  C:861EH         LINE#         235
  C:863FH         LINE#         236
  C:8641H         LINE#         237
  C:8655H         LINE#         238
  C:8658H         LINE#         239
  -------         ENDPROC       UPLOAD_INSIDE_TIME_OPEN
  -------         PROC          UPLOAD_EXTERNAL_TIME_OPEN
  -------         DO            
  X:8D82H         SYMBOL        num
  X:8D88H         SYMBOL        mode1
  X:8D8AH         SYMBOL        i
  X:8AEFH         SYMBOL        s_shadow
  B:0025H.2       SYMBOL        s_valid
  -------         ENDDO         
  C:8DB1H         LINE#         241
  C:8DB1H         LINE#         242
  C:8DB1H         LINE#         243
  C:8DC4H         LINE#         244
  C:8DCBH         LINE#         245
  C:8DCDH         LINE#         249
  C:8DD3H         LINE#         250
  C:8DD5H         LINE#         251
  C:8DEEH         LINE#         252
  C:8DF7H         LINE#         253
  C:8E10H         LINE#         254
  C:8E19H         LINE#         255
  C:8E32H         LINE#         256
  C:8E3BH         LINE#         258
  C:8E4EH         LINE#         259
  C:8E4EH         LINE#         260
  C:8E68H         LINE#         261
  C:8E72H         LINE#         262
  C:8E8BH         LINE#         263
  C:8E93H         LINE#         264
  C:8EACH         LINE#         265
  C:8EB5H         LINE#         266
  C:8ECEH         LINE#         267
  C:8ED7H         LINE#         268
  C:8EDAH         LINE#         269
  C:8EDAH         LINE#         270
  C:8EEFH         LINE#         271
BL51 BANKED LINKER/LOCATER V6.22.2.0                                                  07/08/2026  17:17:08  PAGE 144


  C:8EEFH         LINE#         272
  C:8F0AH         LINE#         273
  C:8F0AH         LINE#         274
  C:8F12H         LINE#         275
  C:8F1DH         LINE#         277
  C:8F1DH         LINE#         278
  C:8F2FH         LINE#         279
  C:8F50H         LINE#         280
  C:8F52H         LINE#         281
  C:8F66H         LINE#         282
  C:8F69H         LINE#         283
  -------         ENDPROC       UPLOAD_EXTERNAL_TIME_OPEN
  -------         PROC          UPLOAD_INSIDE_TIME_CLOSE
  -------         DO            
  X:8D82H         SYMBOL        mode1
  X:8D84H         SYMBOL        num
  D:0007H         SYMBOL        i
  X:8AF5H         SYMBOL        s_shadow
  B:0025H.3       SYMBOL        s_valid
  -------         ENDDO         
  C:B806H         LINE#         285
  C:B806H         LINE#         286
  C:B806H         LINE#         287
  C:B80DH         LINE#         288
  C:B81FH         LINE#         293
  C:B825H         LINE#         294
  C:B827H         LINE#         295
  C:B840H         LINE#         296
  C:B847H         LINE#         297
  C:B860H         LINE#         298
  C:B869H         LINE#         299
  C:B882H         LINE#         300
  C:B88BH         LINE#         301
  C:B8B2H         LINE#         303
  C:B8BEH         LINE#         304
  C:B8D9H         LINE#         305
  C:B8DBH         LINE#         306
  C:B8EFH         LINE#         307
  C:B8F2H         LINE#         308
  -------         ENDPROC       UPLOAD_INSIDE_TIME_CLOSE
  -------         PROC          UPLOAD_EXTERNAL_TIME_CLOSE
  -------         DO            
  X:8D82H         SYMBOL        mode1
  X:8D84H         SYMBOL        num
  D:0007H         SYMBOL        i
  X:8AF8H         SYMBOL        s_shadow
  B:0025H.4       SYMBOL        s_valid
  -------         ENDDO         
  C:B8F3H         LINE#         310
  C:B8F3H         LINE#         311
  C:B8F3H         LINE#         312
  C:B8FAH         LINE#         313
  C:B90CH         LINE#         318
  C:B912H         LINE#         319
  C:B914H         LINE#         320
  C:B92DH         LINE#         321
  C:B934H         LINE#         322
BL51 BANKED LINKER/LOCATER V6.22.2.0                                                  07/08/2026  17:17:08  PAGE 145


  C:B94DH         LINE#         323
  C:B956H         LINE#         324
  C:B96FH         LINE#         325
  C:B978H         LINE#         326
  C:B99FH         LINE#         328
  C:B9ABH         LINE#         329
  C:B9C6H         LINE#         330
  C:B9C8H         LINE#         331
  C:B9DCH         LINE#         332
  C:B9DFH         LINE#         333
  -------         ENDPROC       UPLOAD_EXTERNAL_TIME_CLOSE
  -------         PROC          UPLOAD_CHECK_STATUS
  -------         DO            
  X:8DE0H         SYMBOL        buf
  X:8E2BH         SYMBOL        i
  X:8AFBH         SYMBOL        s_shadow
  B:0025H.5       SYMBOL        s_valid
  -------         ENDDO         
  C:CD12H         LINE#         335
  C:CD12H         LINE#         336
  C:CD12H         LINE#         342
  C:CD18H         LINE#         343
  C:CD1AH         LINE#         344
  C:CD25H         LINE#         345
  C:CD28H         LINE#         346
  C:CD28H         LINE#         347
  C:CD3DH         LINE#         348
  C:CD3DH         LINE#         349
  C:CD58H         LINE#         350
  C:CD58H         LINE#         351
  C:CD60H         LINE#         352
  C:CD6BH         LINE#         354
  C:CD6BH         LINE#         355
  C:CD7DH         LINE#         356
  C:CD9EH         LINE#         357
  C:CDA0H         LINE#         358
  C:CDB4H         LINE#         359
  C:CDB7H         LINE#         360
  -------         ENDPROC       UPLOAD_CHECK_STATUS
  -------         PROC          _UPLOAD_PACKHISTORYFAULTREC
  X:8E75H         SYMBOL        out5
  X:8E78H         SYMBOL        rec
  -------         DO            
  X:8E7BH         SYMBOL        ts
  -------         ENDDO         
  C:A31CH         LINE#         362
  C:A327H         LINE#         363
  C:A327H         LINE#         366
  C:A346H         LINE#         367
  C:A359H         LINE#         368
  C:A359H         LINE#         369
  C:A36BH         LINE#         370
  C:A372H         LINE#         371
  C:A379H         LINE#         372
  C:A380H         LINE#         374
  C:A380H         LINE#         375
  C:A3C2H         LINE#         376
BL51 BANKED LINKER/LOCATER V6.22.2.0                                                  07/08/2026  17:17:08  PAGE 146


  C:A3DDH         LINE#         377
  C:A3FFH         LINE#         378
  C:A419H         LINE#         379
  C:A433H         LINE#         380
  C:A44DH         LINE#         381
  C:A467H         LINE#         382
  -------         ENDPROC       _UPLOAD_PACKHISTORYFAULTREC
  -------         PROC          _UPLOAD_PACKHISTORYFAULTBLOCK
  X:8E6FH         SYMBOL        buf
  X:8E72H         SYMBOL        block
  -------         DO            
  X:8E73H         SYMBOL        rec
  X:8E74H         SYMBOL        idx
  -------         ENDDO         
  C:C57FH         LINE#         384
  C:C58DH         LINE#         385
  C:C58DH         LINE#         389
  C:C59EH         LINE#         390
  C:C5BAH         LINE#         391
  C:C5CDH         LINE#         392
  C:C5CDH         LINE#         393
  C:C5DCH         LINE#         394
  C:C5F7H         LINE#         395
  C:C5F7H         LINE#         396
  C:C637H         LINE#         397
  C:C63FH         LINE#         398
  -------         ENDPROC       _UPLOAD_PACKHISTORYFAULTBLOCK
  -------         PROC          UPLOAD_HISTORY_FAULTS
  -------         DO            
  X:8DF0H         SYMBOL        buf
  X:8E6DH         SYMBOL        block
  X:8E6EH         SYMBOL        i
  X:8B46H         SYMBOL        s_shadow
  X:8D3AH         SYMBOL        s_valid
  -------         ENDDO         
  C:B0FFH         LINE#         400
  C:B0FFH         LINE#         401
  C:B0FFH         LINE#         408
  C:B105H         LINE#         409
  C:B105H         LINE#         410
  C:B10AH         LINE#         411
  C:B10CH         LINE#         412
  C:B10EH         LINE#         413
  C:B110H         LINE#         414
  C:B110H         LINE#         415
  C:B126H         LINE#         416
  C:B126H         LINE#         417
  C:B12FH         LINE#         418
  C:B13FH         LINE#         419
  C:B13FH         LINE#         420
  C:B154H         LINE#         421
  C:B154H         LINE#         422
  C:B182H         LINE#         423
  C:B182H         LINE#         424
  C:B18AH         LINE#         425
  C:B195H         LINE#         426
  C:B195H         LINE#         427
BL51 BANKED LINKER/LOCATER V6.22.2.0                                                  07/08/2026  17:17:08  PAGE 147


  C:B195H         LINE#         428
  C:B1A7H         LINE#         429
  C:B1DAH         LINE#         430
  C:B1EBH         LINE#         431
  C:B201H         LINE#         432
  C:B204H         LINE#         433
  C:B20DH         LINE#         434
  -------         ENDPROC       UPLOAD_HISTORY_FAULTS
  -------         PROC          UPLOAD_YIELDWIFI
  C:FEBEH         LINE#         449
  C:FEBEH         LINE#         450
  C:FEBEH         LINE#         451
  C:FEC1H         LINE#         452
  C:FEC4H         LINE#         453
  C:FECAH         LINE#         454
  C:FECDH         LINE#         455
  -------         ENDPROC       UPLOAD_YIELDWIFI
  -------         PROC          _UPLOAD_SHADOW_BOOL
  D:0007H         SYMBOL        dpid
  D:0005H         SYMBOL        val
  C:FB55H         LINE#         457
  C:FB55H         LINE#         458
  C:FB55H         LINE#         459
  C:FB62H         LINE#         460
  C:FB62H         LINE#         461
  C:FB68H         LINE#         462
  C:FB6EH         LINE#         463
  C:FB73H         LINE#         464
  C:FB73H         LINE#         465
  C:FB73H         LINE#         466
  -------         ENDPROC       _UPLOAD_SHADOW_BOOL
  -------         PROC          _UPLOAD_SHADOW_ENUM
  D:0007H         SYMBOL        dpid
  D:0005H         SYMBOL        val
  C:F7D1H         LINE#         468
  C:F7D1H         LINE#         469
  C:F7D1H         LINE#         470
  C:F7E2H         LINE#         471
  C:F7E2H         LINE#         472
  C:F7E8H         LINE#         473
  C:F7EEH         LINE#         474
  C:F7F4H         LINE#         475
  C:F7F9H         LINE#         476
  C:F7F9H         LINE#         477
  C:F7F9H         LINE#         478
  -------         ENDPROC       _UPLOAD_SHADOW_ENUM
  -------         PROC          _UPLOAD_SHADOW_VALUE
  D:0007H         SYMBOL        dpid
  X:8DFBH         SYMBOL        val
  C:B9E0H         LINE#         480
  C:B9E0H         LINE#         481
  C:B9E0H         LINE#         482
  C:BA06H         LINE#         483
  C:BA06H         LINE#         484
  C:BA1AH         LINE#         485
  C:BA2EH         LINE#         486
  C:BA42H         LINE#         487
BL51 BANKED LINKER/LOCATER V6.22.2.0                                                  07/08/2026  17:17:08  PAGE 148


  C:BA55H         LINE#         488
  C:BA68H         LINE#         489
  C:BA7BH         LINE#         490
  C:BA8EH         LINE#         491
  C:BAA1H         LINE#         492
  C:BAB4H         LINE#         493
  C:BAC8H         LINE#         494
  C:BAC8H         LINE#         495
  C:BAC8H         LINE#         496
  -------         ENDPROC       _UPLOAD_SHADOW_VALUE
  -------         PROC          _UPLOAD_MODETODP101
  D:0007H         SYMBOL        mode
  C:FCA6H         LINE#         498
  C:FCA6H         LINE#         499
  C:FCA6H         LINE#         500
  C:FCB2H         LINE#         501
  C:FCB2H         LINE#         502
  C:FCB5H         LINE#         503
  C:FCB8H         LINE#         504
  C:FCBBH         LINE#         505
  C:FCBDH         LINE#         506
  C:FCBDH         LINE#         507
  -------         ENDPROC       _UPLOAD_MODETODP101
  -------         PROC          _UPLOAD_WORKSTATETODP
  D:0007H         SYMBOL        mode
  C:FB92H         LINE#         509
  C:FB92H         LINE#         510
  C:FB92H         LINE#         511
  C:FBA1H         LINE#         512
  C:FBA1H         LINE#         513
  C:FBA4H         LINE#         514
  C:FBA7H         LINE#         515
  C:FBAAH         LINE#         516
  C:FBADH         LINE#         517
  -------         ENDPROC       _UPLOAD_WORKSTATETODP
  -------         PROC          _UPLOAD_BOOLIFCHANGED
  D:0007H         SYMBOL        dpid
  D:0005H         SYMBOL        val
  D:0001H         SYMBOL        shadow
  C:FCEDH         LINE#         522
  C:FCEDH         LINE#         523
  C:FCEDH         LINE#         524
  C:FCF9H         LINE#         526
  C:FCFDH         LINE#         527
  C:FD00H         LINE#         528
  C:FD03H         LINE#         529
  -------         ENDPROC       _UPLOAD_BOOLIFCHANGED
  -------         PROC          _UPLOAD_ENUMIFCHANGED
  D:0007H         SYMBOL        dpid
  D:0005H         SYMBOL        val
  D:0001H         SYMBOL        shadow
  C:FD04H         LINE#         531
  C:FD04H         LINE#         532
  C:FD04H         LINE#         533
  C:FD10H         LINE#         535
  C:FD14H         LINE#         536
  C:FD17H         LINE#         537
BL51 BANKED LINKER/LOCATER V6.22.2.0                                                  07/08/2026  17:17:08  PAGE 149


  C:FD1AH         LINE#         538
  -------         ENDPROC       _UPLOAD_ENUMIFCHANGED
  -------         PROC          _UPLOAD_VALUEIFCHANGED
  X:8DE8H         SYMBOL        dpid
  X:8DE9H         SYMBOL        val
  X:8DEDH         SYMBOL        shadow
  C:E2D0H         LINE#         540
  C:E2D5H         LINE#         541
  C:E2D5H         LINE#         542
  C:E2FDH         LINE#         544
  C:E317H         LINE#         545
  C:E333H         LINE#         546
  C:E336H         LINE#         547
  -------         ENDPROC       _UPLOAD_VALUEIFCHANGED
  -------         PROC          UPLOAD_GETUNIT
  -------         DO            
  X:8DE8H         SYMBOL        unit
  -------         ENDDO         
  C:F936H         LINE#         549
  C:F936H         LINE#         550
  C:F936H         LINE#         551
  C:F93DH         LINE#         552
  C:F955H         LINE#         553
  C:F95BH         LINE#         554
  -------         ENDPROC       UPLOAD_GETUNIT
  -------         PROC          UPLOAD_DP_SWITCH
  -------         DO            
  X:8DE0H         SYMBOL        vp_u16
  -------         ENDDO         
  C:F6ADH         LINE#         556
  C:F6ADH         LINE#         557
  C:F6ADH         LINE#         559
  C:F6C6H         LINE#         560
  -------         ENDPROC       UPLOAD_DP_SWITCH
  -------         PROC          UPLOAD_DP_MODE
  -------         DO            
  X:8DE0H         SYMBOL        vp_u16
  D:0007H         SYMBOL        dp_val
  -------         ENDDO         
  C:F542H         LINE#         563
  C:F542H         LINE#         564
  C:F542H         LINE#         567
  C:F55BH         LINE#         568
  C:F564H         LINE#         569
  -------         ENDPROC       UPLOAD_DP_MODE
  -------         PROC          UPLOAD_DP_TEMP_SET
  -------         DO            
  X:8DE0H         SYMBOL        vp_u16
  -------         ENDDO         
  C:F106H         LINE#         572
  C:F106H         LINE#         573
  C:F106H         LINE#         575
  C:F11FH         LINE#         576
  -------         ENDPROC       UPLOAD_DP_TEMP_SET
  -------         PROC          UPLOAD_DP_TEMP_UNIT
  -------         DO            
  X:8DE0H         SYMBOL        vp_u16
BL51 BANKED LINKER/LOCATER V6.22.2.0                                                  07/08/2026  17:17:08  PAGE 150


  -------         ENDDO         
  C:F6D7H         LINE#         579
  C:F6D7H         LINE#         580
  C:F6D7H         LINE#         582
  C:F6F0H         LINE#         583
  -------         ENDPROC       UPLOAD_DP_TEMP_UNIT
  -------         PROC          UPLOAD_DP_WORK_STATE
  -------         DO            
  X:8DE0H         SYMBOL        vp_u16
  D:0007H         SYMBOL        dp_val
  -------         ENDDO         
  C:F5CEH         LINE#         586
  C:F5CEH         LINE#         587
  C:F5CEH         LINE#         590
  C:F5E6H         LINE#         591
  C:F5EFH         LINE#         592
  -------         ENDPROC       UPLOAD_DP_WORK_STATE
  -------         PROC          UPLOAD_DP_CHILD_LOCK
  -------         DO            
  X:8DE0H         SYMBOL        vp_u16
  -------         ENDDO         
  C:F701H         LINE#         595
  C:F701H         LINE#         596
  C:F701H         LINE#         598
  C:F71AH         LINE#         599
  -------         ENDPROC       UPLOAD_DP_CHILD_LOCK
  -------         PROC          UPLOAD_DP_DEFROST
  -------         DO            
  X:8DE0H         SYMBOL        vp_u16
  -------         ENDDO         
  C:F72BH         LINE#         602
  C:F72BH         LINE#         603
  C:F72BH         LINE#         605
  C:F744H         LINE#         606
  -------         ENDPROC       UPLOAD_DP_DEFROST
  -------         PROC          UPLOAD_DP_RELAY_STATUS
  -------         DO            
  X:8DE0H         SYMBOL        vp_u16
  -------         ENDDO         
  C:F755H         LINE#         609
  C:F755H         LINE#         610
  C:F755H         LINE#         612
  C:F76EH         LINE#         613
  -------         ENDPROC       UPLOAD_DP_RELAY_STATUS
  -------         PROC          UPLOAD_DP_FAULT
  -------         DO            
  X:8DE0H         SYMBOL        vp_u16
  -------         ENDDO         
  C:F143H         LINE#         616
  C:F143H         LINE#         617
  C:F143H         LINE#         619
  C:F15CH         LINE#         620
  -------         ENDPROC       UPLOAD_DP_FAULT
  -------         PROC          UPLOAD_DP_TEMP_CURRENT
  -------         DO            
  D:0007H         SYMBOL        unit
  X:8DE0H         SYMBOL        ft
BL51 BANKED LINKER/LOCATER V6.22.2.0                                                  07/08/2026  17:17:08  PAGE 151


  X:8DE4H         SYMBOL        set_temp32
  -------         ENDDO         
  C:DF70H         LINE#         623
  C:DF70H         LINE#         624
  C:DF70H         LINE#         625
  C:DF73H         LINE#         628
  C:DF7FH         LINE#         629
  C:DF89H         LINE#         631
  C:DF99H         LINE#         632
  C:DFBAH         LINE#         633
  -------         ENDPROC       UPLOAD_DP_TEMP_CURRENT
  -------         PROC          UPLOAD_DP_TEMP_TOP
  -------         DO            
  D:0007H         SYMBOL        unit
  X:8DC3H         SYMBOL        ft
  X:8DC7H         SYMBOL        set_temp32
  -------         ENDDO         
  C:DD36H         LINE#         636
  C:DD36H         LINE#         637
  C:DD36H         LINE#         638
  C:DD39H         LINE#         641
  C:DD45H         LINE#         642
  C:DD4FH         LINE#         644
  C:DD60H         LINE#         645
  C:DD81H         LINE#         646
  -------         ENDPROC       UPLOAD_DP_TEMP_TOP
  -------         PROC          UPLOAD_DP_EFFLUENT_TEMP
  -------         DO            
  D:0007H         SYMBOL        unit
  X:8DC3H         SYMBOL        ft
  X:8DC7H         SYMBOL        set_temp32
  -------         ENDDO         
  C:DDA8H         LINE#         649
  C:DDA8H         LINE#         650
  C:DDA8H         LINE#         651
  C:DDABH         LINE#         654
  C:DDB7H         LINE#         655
  C:DDC1H         LINE#         657
  C:DDD2H         LINE#         658
  C:DDF3H         LINE#         659
  -------         ENDPROC       UPLOAD_DP_EFFLUENT_TEMP
  -------         PROC          UPLOAD_DP_AROUND_TEMP
  -------         DO            
  D:0007H         SYMBOL        unit
  X:8DC3H         SYMBOL        ft
  X:8DC7H         SYMBOL        set_temp32
  -------         ENDDO         
  C:DE1AH         LINE#         662
  C:DE1AH         LINE#         663
  C:DE1AH         LINE#         664
  C:DE1DH         LINE#         667
  C:DE29H         LINE#         668
  C:DE33H         LINE#         670
  C:DE44H         LINE#         671
  C:DE65H         LINE#         672
  -------         ENDPROC       UPLOAD_DP_AROUND_TEMP
  -------         PROC          UPLOAD_DP_EVAPORATOR_TEMP
BL51 BANKED LINKER/LOCATER V6.22.2.0                                                  07/08/2026  17:17:08  PAGE 152


  -------         DO            
  D:0007H         SYMBOL        unit
  X:8DC3H         SYMBOL        ft
  X:8DC7H         SYMBOL        set_temp32
  -------         ENDDO         
  C:DE8CH         LINE#         675
  C:DE8CH         LINE#         676
  C:DE8CH         LINE#         677
  C:DE8FH         LINE#         680
  C:DE9BH         LINE#         681
  C:DEA5H         LINE#         683
  C:DEB6H         LINE#         684
  C:DED7H         LINE#         685
  -------         ENDPROC       UPLOAD_DP_EVAPORATOR_TEMP
  -------         PROC          UPLOAD_DP_DEFROST_FREQ
  -------         DO            
  X:8DC3H         SYMBOL        vp_u16
  -------         ENDDO         
  C:F180H         LINE#         688
  C:F180H         LINE#         689
  C:F180H         LINE#         691
  C:F199H         LINE#         692
  -------         ENDPROC       UPLOAD_DP_DEFROST_FREQ
  -------         PROC          UPLOAD_DP_DEFROST_OUT_TEMP
  -------         DO            
  D:0007H         SYMBOL        unit
  X:8DC3H         SYMBOL        ft
  X:8DC7H         SYMBOL        set_temp32
  -------         ENDDO         
  C:DEFEH         LINE#         695
  C:DEFEH         LINE#         696
  C:DEFEH         LINE#         697
  C:DF01H         LINE#         700
  C:DF0DH         LINE#         701
  C:DF17H         LINE#         703
  C:DF28H         LINE#         704
  C:DF49H         LINE#         705
  -------         ENDPROC       UPLOAD_DP_DEFROST_OUT_TEMP
  -------         PROC          UPLOAD_DP_DEFROST_TIME
  -------         DO            
  X:8DC3H         SYMBOL        vp_u16
  -------         ENDDO         
  C:F1BDH         LINE#         708
  C:F1BDH         LINE#         709
  C:F1BDH         LINE#         711
  C:F1D6H         LINE#         712
  -------         ENDPROC       UPLOAD_DP_DEFROST_TIME
  -------         PROC          _UPLOAD_SET_BOOT_READY
  D:0007H         SYMBOL        ready
  C:F9C9H         LINE#         715
  C:F9C9H         LINE#         716
  C:F9C9H         LINE#         717
  C:F9D7H         LINE#         718
  C:F9D9H         LINE#         719
  C:F9D9H         LINE#         720
  C:F9DCH         LINE#         721
  C:F9DFH         LINE#         722
BL51 BANKED LINKER/LOCATER V6.22.2.0                                                  07/08/2026  17:17:08  PAGE 153


  C:F9E2H         LINE#         723
  C:F9E5H         LINE#         724
  C:F9E8H         LINE#         725
  C:F9EBH         LINE#         726
  C:F9EBH         LINE#         727
  -------         ENDPROC       _UPLOAD_SET_BOOT_READY
  -------         PROC          UPLOAD_IS_BOOT_READY
  C:FFC6H         LINE#         729
  C:FFC6H         LINE#         730
  C:FFC6H         LINE#         731
  C:FFCBH         LINE#         732
  -------         ENDPROC       UPLOAD_IS_BOOT_READY
  -------         PROC          UPLOAD_STATE_QUERY_REPLY
  -------         DO            
  X:8D3EH         SYMBOL        s_cmd8_idx
  -------         ENDDO         
  C:D5DBH         LINE#         734
  C:D5DBH         LINE#         735
  C:D5DBH         LINE#         739
  C:D5E1H         LINE#         740
  C:D612H         LINE#         741
  C:D612H         LINE#         742
  C:D617H         LINE#         743
  C:D61CH         LINE#         744
  C:D621H         LINE#         745
  C:D626H         LINE#         746
  C:D62BH         LINE#         747
  C:D630H         LINE#         748
  C:D635H         LINE#         749
  C:D63AH         LINE#         750
  C:D63FH         LINE#         751
  C:D644H         LINE#         752
  C:D649H         LINE#         753
  C:D64CH         LINE#         754
  C:D64CH         LINE#         755
  C:D651H         LINE#         756
  C:D657H         LINE#         757
  C:D661H         LINE#         758
  C:D663H         LINE#         759
  -------         ENDPROC       UPLOAD_STATE_QUERY_REPLY
  -------         ENDMOD        UPLOAD

  -------         MODULE        WIFIPRO
  C:0000H         SYMBOL        _ICE_DUMMY_
  D:0080H         PUBLIC        P0
  C:FFCCH         PUBLIC        Wifi_Init
  D:00F8H         PUBLIC        RAMMODE
  D:00A8H         PUBLIC        IEN0
  D:00B8H         PUBLIC        IEN1
  D:0088H         PUBLIC        TCON
  D:0098H         PUBLIC        SCON0
  D:00C8H         PUBLIC        T2CON
  D:00D0H         PUBLIC        PSW
  D:00C0H         PUBLIC        IRCON
  -------         PROC          WIFI_INIT
  C:FFCCH         LINE#         12
  C:FFCCH         LINE#         13
BL51 BANKED LINKER/LOCATER V6.22.2.0                                                  07/08/2026  17:17:08  PAGE 154


  C:FFCCH         LINE#         14
  C:FFCFH         LINE#         15
  -------         ENDPROC       WIFI_INIT
  -------         ENDMOD        WIFIPRO

  -------         MODULE        OTA
  C:0000H         SYMBOL        _ICE_DUMMY_
  D:0080H         PUBLIC        P0
  B:0025H.6       PUBLIC        OTAReloading
  B:0025H.7       PUBLIC        OTAStartReply
  D:00F8H         PUBLIC        RAMMODE
  X:94FEH         PUBLIC        OTAStartSendTimes
  D:00A8H         PUBLIC        IEN0
  D:00B8H         PUBLIC        IEN1
  B:0026H.0       PUBLIC        TuyaOTAState
  C:F95CH         PUBLIC        OTAinit
  X:94FFH         PUBLIC        TuyaOTADisConnectCnt
  C:FB16H         PUBLIC        OTARecvPro
  D:0088H         PUBLIC        TCON
  X:9501H         PUBLIC        OTA_ModbusStep
  X:9502H         PUBLIC        OTAModbusRecvDelay
  X:9504H         PUBLIC        OTA_ModbusSendStep
  C:D9EFH         PUBLIC        OTADecodePro
  X:9505H         PUBLIC        OTAModbusRecvIndex
  D:0098H         PUBLIC        SCON0
  X:9507H         PUBLIC        OTAModbusRecvLenth
  X:9508H         PUBLIC        OTA_ModbusRecvStep
  C:FCBEH         PUBLIC        OTA_ModbusPro
  D:00C8H         PUBLIC        T2CON
  C:6120H         PUBLIC        OTAEncodePro
  B:0026H.1       PUBLIC        OTAReply
  D:00D0H         PUBLIC        PSW
  D:00C0H         PUBLIC        IRCON
  -------         PROC          OTAINIT
  -------         DO            
  D:0006H         SYMBOL        i
  -------         ENDDO         
  C:F95CH         LINE#         44
  C:F95CH         LINE#         45
  C:F95CH         LINE#         47
  C:F95CH         LINE#         48
  C:F95CH         LINE#         49
  C:F96AH         LINE#         50
  C:F96AH         LINE#         51
  C:F96FH         LINE#         52
  C:F973H         LINE#         53
  C:F977H         LINE#         54
  C:F979H         LINE#         55
  C:F97DH         LINE#         56
  C:F981H         LINE#         57
  -------         ENDPROC       OTAINIT
  -------         PROC          OTA_MODBUSPRO
  C:FCBEH         LINE#         58
  C:FCBEH         LINE#         59
  C:FCBEH         LINE#         60
  C:FCCCH         LINE#         61
  C:FCCCH         LINE#         62
BL51 BANKED LINKER/LOCATER V6.22.2.0                                                  07/08/2026  17:17:08  PAGE 155


  C:FCCCH         LINE#         63
  C:FCCFH         LINE#         64
  C:FCCFH         LINE#         65
  C:FCCFH         LINE#         66
  C:FCD2H         LINE#         67
  C:FCD2H         LINE#         68
  C:FCD2H         LINE#         69
  C:FCD5H         LINE#         70
  C:FCD5H         LINE#         71
  C:FCD5H         LINE#         72
  -------         ENDPROC       OTA_MODBUSPRO
  -------         PROC          OTAENCODEPRO
  -------         DO            
  X:8D71H         SYMBOL        SendIndex
  X:8D73H         SYMBOL        Crc
  D:0006H         SYMBOL        i
  -------         ENDDO         
  C:6120H         LINE#         73
  C:6120H         LINE#         74
  C:6120H         LINE#         75
  C:612DH         LINE#         76
  C:6136H         LINE#         77
  C:6136H         LINE#         78
  C:6148H         LINE#         79
  C:6148H         LINE#         80
  C:6161H         LINE#         81
  C:617AH         LINE#         82
  C:6193H         LINE#         83
  C:61A3H         LINE#         84
  C:61A3H         LINE#         85
  C:61A8H         LINE#         86
  C:61AAH         LINE#         87
  C:61ADH         LINE#         88
  C:61ADH         LINE#         89
  C:61B3H         LINE#         90
  C:61B5H         LINE#         92
  C:61B5H         LINE#         93
  C:61BEH         LINE#         94
  C:61BEH         LINE#         95
  C:61C0H         LINE#         96
  C:61C6H         LINE#         97
  C:61C7H         LINE#         99
  C:61C7H         LINE#         100
  C:61D7H         LINE#         101
  C:61D7H         LINE#         102
  C:61D7H         LINE#         103
  C:61DDH         LINE#         104
  C:61F6H         LINE#         105
  C:620FH         LINE#         106
  C:6228H         LINE#         107
  C:6241H         LINE#         108
  C:6259H         LINE#         109
  C:6271H         LINE#         110
  C:629CH         LINE#         111
  C:62C9H         LINE#         112
  C:62F4H         LINE#         113
  C:6314H         LINE#         114
BL51 BANKED LINKER/LOCATER V6.22.2.0                                                  07/08/2026  17:17:08  PAGE 156


  C:632CH         LINE#         115
  C:6357H         LINE#         116
  C:6370H         LINE#         117
  C:6389H         LINE#         118
  C:638CH         LINE#         119
  C:638CH         LINE#         120
  C:63A5H         LINE#         121
  C:63BEH         LINE#         122
  C:63E9H         LINE#         123
  C:6409H         LINE#         124
  C:640CH         LINE#         125
  C:640CH         LINE#         126
  C:6430H         LINE#         127
  C:643DH         LINE#         128
  C:643DH         LINE#         129
  C:643DH         LINE#         130
  C:645CH         LINE#         131
  C:647CH         LINE#         132
  C:6496H         LINE#         133
  C:64A7H         LINE#         134
  C:64ADH         LINE#         135
  C:64ADH         LINE#         136
  C:64ADH         LINE#         137
  -------         ENDPROC       OTAENCODEPRO
  -------         PROC          OTARECVPRO
  C:FB16H         LINE#         138
  C:FB16H         LINE#         139
  C:FB16H         LINE#         140
  C:FB22H         LINE#         141
  C:FB22H         LINE#         142
  C:FB27H         LINE#         143
  C:FB2FH         LINE#         144
  C:FB35H         LINE#         145
  C:FB35H         LINE#         146
  -------         ENDPROC       OTARECVPRO
  -------         PROC          OTADECODEPRO
  -------         DO            
  D:0006H         SYMBOL        Crc
  -------         ENDDO         
  C:D9EFH         LINE#         147
  C:D9EFH         LINE#         148
  C:D9EFH         LINE#         149
  C:D9F1H         LINE#         150
  C:DA05H         LINE#         151
  C:DA27H         LINE#         152
  C:DA27H         LINE#         153
  C:DA27H         LINE#         154
  C:DA29H         LINE#         156
  C:DA29H         LINE#         157
  C:DA5CH         LINE#         158
  C:DA5CH         LINE#         159
  C:DA5EH         LINE#         160
  C:DA60H         LINE#         161
  C:DA60H         LINE#         162
  C:DA65H         LINE#         163
  C:DA69H         LINE#         164
  -------         ENDPROC       OTADECODEPRO
BL51 BANKED LINKER/LOCATER V6.22.2.0                                                  07/08/2026  17:17:08  PAGE 157


  -------         ENDMOD        OTA

  -------         MODULE        SYSTEM
  C:0000H         SYMBOL        _ICE_DUMMY_
  C:F571H         SYMBOL        _get_dowmload_dpid_index
  D:0080H         PUBLIC        P0
  C:FF8AH         SYMBOL        get_mcu_wifi_mode
  C:F8E9H         SYMBOL        heat_beat_check
  X:84A7H         PUBLIC        set_wifimode_flag
  D:00F8H         PUBLIC        RAMMODE
  D:00A8H         PUBLIC        IEN0
  D:00B8H         PUBLIC        IEN1
  C:F656H         PUBLIC        _set_wifi_uart_byte
  C:F351H         PUBLIC        with_data_rxbuff
  X:84A8H         PUBLIC        stop_update_flag
  C:E65EH         PUBLIC        take_byte_rxbuff
  X:84A9H         PUBLIC        wifi_data_process_buf
  D:0088H         PUBLIC        TCON
  X:85DCH         PUBLIC        reset_wifi_flag
  X:85DDH         PUBLIC        wifi_uart_rx_buf
  X:8710H         PUBLIC        wifi_uart_tx_buf
  X:87B7H         PUBLIC        rx_buf_in
  C:F266H         SYMBOL        _?ix1000
  X:87BAH         PUBLIC        rx_buf_out
  C:E267H         PUBLIC        _wifi_uart_write_frame
  C:ECD4H         PUBLIC        _get_check_sum
  C:E8D5H         SYMBOL        _wifi_uart_write_data
  X:87BDH         PUBLIC        wifi_work_state
  C:E130H         PUBLIC        _set_wifi_uart_buffer
  D:0098H         PUBLIC        SCON0
  D:00C8H         PUBLIC        T2CON
  X:87BEH         PUBLIC        OTAlength
  C:5107H         PUBLIC        _data_handle
  C:D037H         SYMBOL        _data_point_handle
  D:00D0H         PUBLIC        PSW
  C:AA7BH         SYMBOL        product_info_update
  D:00C0H         PUBLIC        IRCON
  -------         PROC          _SET_WIFI_UART_BYTE
  X:8E75H         SYMBOL        dest
  D:0005H         SYMBOL        byte
  -------         DO            
  D:0001H         SYMBOL        obj
  -------         ENDDO         
  C:F656H         LINE#         35
  C:F65EH         LINE#         36
  C:F65EH         LINE#         37
  C:F667H         LINE#         39
  C:F66BH         LINE#         40
  C:F679H         LINE#         42
  C:F681H         LINE#         43
  -------         ENDPROC       _SET_WIFI_UART_BYTE
  -------         PROC          L?0092
  -------         ENDPROC       L?0092
  -------         PROC          _SET_WIFI_UART_BUFFER
  X:8E75H         SYMBOL        dest
  X:8E77H         SYMBOL        src
  X:8E7AH         SYMBOL        len
BL51 BANKED LINKER/LOCATER V6.22.2.0                                                  07/08/2026  17:17:08  PAGE 158


  -------         DO            
  D:0001H         SYMBOL        obj
  -------         ENDDO         
  C:E130H         LINE#         52
  C:E143H         LINE#         53
  C:E143H         LINE#         54
  C:E14CH         LINE#         56
  C:E179H         LINE#         58
  C:E18DH         LINE#         59
  C:E192H         LINE#         60
  -------         ENDPROC       _SET_WIFI_UART_BUFFER
  -------         PROC          _GET_CHECK_SUM
  X:8E77H         SYMBOL        pack
  X:8E7AH         SYMBOL        pack_len
  -------         DO            
  D:0006H         SYMBOL        i
  X:8E7CH         SYMBOL        check_sum
  -------         ENDDO         
  C:ECD4H         LINE#         68
  C:ECE5H         LINE#         69
  C:ECE5H         LINE#         71
  C:ECE8H         LINE#         73
  C:ECF7H         LINE#         74
  C:ED11H         LINE#         75
  C:ED18H         LINE#         77
  C:ED1DH         LINE#         78
  -------         ENDPROC       _GET_CHECK_SUM
  -------         PROC          _WIFI_UART_WRITE_DATA
  X:8E77H         SYMBOL        in
  X:8E7AH         SYMBOL        len
  C:E8D5H         LINE#         86
  C:E8E6H         LINE#         87
  C:E8E6H         LINE#         88
  C:E8FCH         LINE#         90
  C:E8FCH         LINE#         92
  C:E90AH         LINE#         93
  C:E91CH         LINE#         94
  C:E926H         LINE#         95
  C:E928H         LINE#         96
  -------         ENDPROC       _WIFI_UART_WRITE_DATA
  -------         PROC          _WIFI_UART_WRITE_FRAME
  D:0007H         SYMBOL        fr_type
  D:0005H         SYMBOL        fr_ver
  X:8E75H         SYMBOL        len
  -------         DO            
  D:0006H         SYMBOL        check_sum
  -------         ENDDO         
  C:E267H         LINE#         105
  C:E26FH         LINE#         106
  C:E26FH         LINE#         107
  C:E26FH         LINE#         109
  C:E275H         LINE#         110
  C:E279H         LINE#         111
  C:E27CH         LINE#         112
  C:E27FH         LINE#         113
  C:E28CH         LINE#         114
  C:E28FH         LINE#         116
BL51 BANKED LINKER/LOCATER V6.22.2.0                                                  07/08/2026  17:17:08  PAGE 159


  C:E29DH         LINE#         117
  C:E2B4H         LINE#         118
  C:E2C7H         LINE#         120
  -------         ENDPROC       _WIFI_UART_WRITE_FRAME
  -------         PROC          HEAT_BEAT_CHECK
  -------         DO            
  D:0007H         SYMBOL        length
  X:849BH         SYMBOL        mcu_reset_state
  -------         ENDDO         
  C:F8E9H         LINE#         128
  C:F8E9H         LINE#         129
  C:F8E9H         LINE#         130
  C:F8EBH         LINE#         133
  C:F8F1H         LINE#         134
  C:F8F6H         LINE#         135
  C:F8FCH         LINE#         136
  C:F8FEH         LINE#         137
  C:F905H         LINE#         138
  C:F905H         LINE#         140
  -------         ENDPROC       HEAT_BEAT_CHECK
  -------         PROC          PRODUCT_INFO_UPDATE
  -------         DO            
  X:8DE0H         SYMBOL        length
  X:8DE1H         SYMBOL        str
  X:8DEBH         SYMBOL        reset_flag
  -------         ENDDO         
  C:AA7BH         LINE#         148
  C:AA7BH         LINE#         149
  C:AA7BH         LINE#         150
  C:AA80H         LINE#         151
  C:AA92H         LINE#         153
  C:AA9AH         LINE#         154
  C:AAB7H         LINE#         155
  C:AAD4H         LINE#         156
  C:AAFAH         LINE#         157
  C:AB20H         LINE#         158
  C:AB46H         LINE#         159
  C:AB6CH         LINE#         177
  C:AB92H         LINE#         181
  -------         ENDPROC       PRODUCT_INFO_UPDATE
  -------         PROC          GET_MCU_WIFI_MODE
  -------         DO            
  D:0007H         SYMBOL        length
  -------         ENDDO         
  C:FF8AH         LINE#         190
  C:FF8AH         LINE#         191
  C:FF8AH         LINE#         192
  C:FF8BH         LINE#         201
  -------         ENDPROC       GET_MCU_WIFI_MODE
  -------         PROC          _GET_DOWMLOAD_DPID_INDEX
  X:8DE8H         SYMBOL        dpid
  -------         DO            
  D:0006H         SYMBOL        index
  D:0007H         SYMBOL        total
  -------         ENDDO         
  C:F571H         LINE#         209
  C:F576H         LINE#         210
BL51 BANKED LINKER/LOCATER V6.22.2.0                                                  07/08/2026  17:17:08  PAGE 160


  C:F576H         LINE#         212
  C:F579H         LINE#         214
  C:F580H         LINE#         215
  C:F59AH         LINE#         216
  C:F59AH         LINE#         217
  C:F59AH         LINE#         218
  C:F59DH         LINE#         220
  C:F59FH         LINE#         221
  -------         ENDPROC       _GET_DOWMLOAD_DPID_INDEX
  -------         PROC          _DATA_POINT_HANDLE
  X:8DE0H         SYMBOL        value
  -------         DO            
  X:8DE3H         SYMBOL        dp_id
  X:8DE4H         SYMBOL        index
  X:8DE5H         SYMBOL        dp_type
  D:0007H         SYMBOL        ret
  X:8DE6H         SYMBOL        dp_len
  -------         ENDDO         
  C:D037H         LINE#         229
  C:D042H         LINE#         230
  C:D042H         LINE#         236
  C:D04AH         LINE#         237
  C:D054H         LINE#         238
  C:D061H         LINE#         239
  C:D075H         LINE#         241
  C:D07FH         LINE#         243
  C:D08BH         LINE#         244
  C:D08EH         LINE#         245
  C:D0A6H         LINE#         246
  C:D0A9H         LINE#         247
  C:D0D0H         LINE#         249
  C:D0D0H         LINE#         250
  -------         ENDPROC       _DATA_POINT_HANDLE
  -------         PROC          _DATA_HANDLE
  X:8DCBH         SYMBOL        offset
  -------         DO            
  X:8DCDH         SYMBOL        firmware_addr
  X:849DH         SYMBOL        firm_size
  X:849FH         SYMBOL        firm_length
  X:84A3H         SYMBOL        firm_update_flag
  X:8DD0H         SYMBOL        dp_len
  D:0007H         SYMBOL        firm_flag
  X:8DD4H         SYMBOL        ret
  X:8DD5H         SYMBOL        i
  X:8DD7H         SYMBOL        total_len
  D:0007H         SYMBOL        cmd_type
  X:8DD9H         SYMBOL        result
  X:8DDAH         SYMBOL        file_data_addr
  X:84A4H         SYMBOL        file_package_size
  X:84A6H         SYMBOL        file_download_flag
  X:8DDDH         SYMBOL        file_download_size
  -------         DO            
  X:849CH         SYMBOL        s_last_wifi_state
  X:8DDFH         SYMBOL        new_state
  -------         ENDDO         
  -------         ENDDO         
  C:5107H         LINE#         396
BL51 BANKED LINKER/LOCATER V6.22.2.0                                                  07/08/2026  17:17:08  PAGE 161


  C:510FH         LINE#         397
  C:510FH         LINE#         399
  C:5116H         LINE#         411
  C:5128H         LINE#         423
  C:5131H         LINE#         426
  C:5135H         LINE#         429
  C:513AH         LINE#         430
  C:5148H         LINE#         432
  C:518BH         LINE#         433
  C:518BH         LINE#         434
  C:518BH         LINE#         435
  C:518EH         LINE#         436
  C:518EH         LINE#         438
  C:518EH         LINE#         439
  C:5191H         LINE#         440
  C:5191H         LINE#         442
  C:5191H         LINE#         443
  C:5194H         LINE#         444
  C:5194H         LINE#         447
  C:5194H         LINE#         448
  C:5194H         LINE#         452
  C:51A9H         LINE#         453
  C:51AFH         LINE#         454
  C:51B8H         LINE#         455
  C:51C0H         LINE#         456
  C:51C7H         LINE#         457
  C:51C7H         LINE#         464
  C:51CAH         LINE#         466
  C:51CAH         LINE#         467
  C:51CDH         LINE#         468
  C:51CFH         LINE#         470
  C:51CFH         LINE#         471
  C:51D5H         LINE#         472
  C:51D6H         LINE#         475
  C:51D6H         LINE#         476
  C:51DCH         LINE#         477
  C:5205H         LINE#         478
  C:5205H         LINE#         480
  C:5225H         LINE#         481
  C:5248H         LINE#         482
  C:528CH         LINE#         484
  C:52B0H         LINE#         486
  C:52B0H         LINE#         488
  C:52B0H         LINE#         490
  C:52B0H         LINE#         492
  C:52CBH         LINE#         493
  C:52CEH         LINE#         494
  C:52CEH         LINE#         496
  C:52CEH         LINE#         497
  C:52D4H         LINE#         498
  C:52D7H         LINE#         499
  C:52D7H         LINE#         502
  C:52D7H         LINE#         504
  C:52D8H         LINE#         505
  C:52DCH         LINE#         506
  C:52E0H         LINE#         507
  C:52E8H         LINE#         508
BL51 BANKED LINKER/LOCATER V6.22.2.0                                                  07/08/2026  17:17:08  PAGE 162


  C:52EDH         LINE#         509
  C:52F5H         LINE#         510
  C:52FEH         LINE#         511
  C:52FEH         LINE#         513
  C:531AH         LINE#         514
  C:5333H         LINE#         515
  C:5362H         LINE#         516
  C:537BH         LINE#         517
  C:53AAH         LINE#         518
  C:53C3H         LINE#         519
  C:53F2H         LINE#         521
  C:53F9H         LINE#         522
  C:53FBH         LINE#         523
  C:540FH         LINE#         524
  C:5412H         LINE#         525
  C:5412H         LINE#         526
  C:5414H         LINE#         527
  C:5414H         LINE#         528
  C:5419H         LINE#         529
  C:541FH         LINE#         530
  C:5420H         LINE#         532
  C:5420H         LINE#         533
  C:542BH         LINE#         535
  C:5430H         LINE#         537
  C:5459H         LINE#         539
  C:5475H         LINE#         540
  C:548EH         LINE#         541
  C:54BDH         LINE#         542
  C:54D6H         LINE#         543
  C:5505H         LINE#         544
  C:551EH         LINE#         545
  C:554DH         LINE#         547
  C:555DH         LINE#         548
  C:5572H         LINE#         552
  C:55A0H         LINE#         554
  C:55C6H         LINE#         556
  C:55CBH         LINE#         557
  C:55E8H         LINE#         558
  C:561DH         LINE#         559
  C:561FH         LINE#         560
  C:5624H         LINE#         561
  C:5628H         LINE#         562
  C:5628H         LINE#         565
  C:5630H         LINE#         566
  C:5639H         LINE#         568
  C:5639H         LINE#         570
  C:563EH         LINE#         571
  C:563EH         LINE#         572
  C:563FH         LINE#         660
  C:563FH         LINE#         662
  C:563FH         LINE#         663
  C:5648H         LINE#         664
  C:5648H         LINE#         665
  C:5648H         LINE#         666
  C:5648H         LINE#         667
  C:5648H         LINE#         668
  C:5648H         LINE#         670
BL51 BANKED LINKER/LOCATER V6.22.2.0                                                  07/08/2026  17:17:08  PAGE 163


  C:5663H         LINE#         671
  C:567DH         LINE#         672
  C:569EH         LINE#         673
  C:56B8H         LINE#         675
  C:56BDH         LINE#         676
  C:56C3H         LINE#         677
  C:56C4H         LINE#         679
  C:56C4H         LINE#         680
  C:56CFH         LINE#         681
  C:56F8H         LINE#         683
  C:5714H         LINE#         684
  C:572DH         LINE#         685
  C:575CH         LINE#         686
  C:5775H         LINE#         687
  C:57A4H         LINE#         688
  C:57BDH         LINE#         689
  C:57ECH         LINE#         691
  C:57FCH         LINE#         692
  C:5811H         LINE#         694
  C:583CH         LINE#         696
  C:5864H         LINE#         697
  C:5869H         LINE#         698
  C:586BH         LINE#         699
  C:5886H         LINE#         700
  C:58BBH         LINE#         701
  C:58BDH         LINE#         702
  C:58C2H         LINE#         703
  C:58C6H         LINE#         704
  C:58C6H         LINE#         706
  C:58CEH         LINE#         707
  C:58D7H         LINE#         708
  C:58D7H         LINE#         709
  C:58D7H         LINE#         710
  C:58D7H         LINE#         756
  C:58D7H         LINE#         757
  C:58D7H         LINE#         758
  -------         ENDPROC       _DATA_HANDLE
  -------         PROC          WITH_DATA_RXBUFF
  C:F351H         LINE#         765
  C:F351H         LINE#         766
  C:F351H         LINE#         767
  C:F380H         LINE#         768
  C:F383H         LINE#         770
  C:F385H         LINE#         771
  -------         ENDPROC       WITH_DATA_RXBUFF
  -------         PROC          TAKE_BYTE_RXBUFF
  -------         DO            
  D:0007H         SYMBOL        value
  -------         ENDDO         
  C:E65EH         LINE#         778
  C:E65EH         LINE#         779
  C:E65EH         LINE#         782
  C:E68BH         LINE#         784
  C:E69EH         LINE#         786
  C:E6ACH         LINE#         787
  C:E6ACH         LINE#         789
  C:E6C0H         LINE#         790
BL51 BANKED LINKER/LOCATER V6.22.2.0                                                  07/08/2026  17:17:08  PAGE 164


  C:E6C0H         LINE#         792
  C:E6C0H         LINE#         793
  -------         ENDPROC       TAKE_BYTE_RXBUFF
  -------         ENDMOD        SYSTEM

  -------         MODULE        MCU_API
  C:0000H         SYMBOL        _ICE_DUMMY_
  C:FFD2H         PUBLIC        mcu_get_reset_wifi_flag
  C:D4C8H         SYMBOL        wifi_uart_parse_cmd6_priority
  X:94E5H         SYMBOL        s_rx_cmd_win
  D:00F8H         PUBLIC        RAMMODE
  D:00A8H         PUBLIC        IEN0
  X:94E9H         SYMBOL        s_wifi_download_pending
  D:00B8H         PUBLIC        IEN1
  C:D76AH         PUBLIC        _mcu_dp_raw_update
  X:94EAH         PUBLIC        wifi_rx_c6_short_count
  X:94ECH         PUBLIC        wifi_rx_c6_chk_fail_count
  X:94EEH         PUBLIC        wifi_rx_ver_reject_count
  C:C003H         PUBLIC        _uart_receive_input
  C:F873H         PUBLIC        wifi_protocol_init
  C:9467H         SYMBOL        _wifi_uart_try_frame_len
  C:FD1BH         PUBLIC        mcu_get_wifi_work_state
  C:F4E2H         PUBLIC        wifi_uart_service
  C:A81DH         PUBLIC        _byte_to_int
  X:94EFH         PUBLIC        wifi_rx_last_cmd
  X:94F0H         PUBLIC        wifi_rx_raw_c6_seen
  C:C0D4H         SYMBOL        wifi_uart_parse_frames
  C:D3ADH         SYMBOL        _wifi_uart_remove_frame
  X:94F1H         PUBLIC        wifi_rx_raw_c8_seen
  X:94F2H         PUBLIC        wifi_rx_frame_ok_count
  D:0088H         PUBLIC        TCON
  C:EB0DH         PUBLIC        _wifi_uart_rx_byte_scan
  X:94F4H         SYMBOL        s_wifi_download_depth
  C:F270H         PUBLIC        wifi_uart_rx_pull
  X:94F5H         PUBLIC        wifi_rx_cmd6_count
  C:9F04H         PUBLIC        _my_memcpy
  X:94F6H         PUBLIC        wifi_rx_cmd8_count
  C:FF75H         PUBLIC        _mcu_get_dp_download_value
  C:FEECH         PUBLIC        mcu_reset_wifi
  X:94F7H         PUBLIC        wifi_rx_c6_hdr_ok_count
  C:D7EDH         PUBLIC        _mcu_dp_string_update
  C:DCC1H         PUBLIC        _my_strlen
  D:0098H         PUBLIC        SCON0
  C:C868H         PUBLIC        _mcu_dp_value_update
  C:FF2EH         SYMBOL        _wifi_uart_frame_version_ok
  D:00C8H         PUBLIC        T2CON
  C:FF14H         PUBLIC        _mcu_get_dp_download_bool
  C:E97DH         PUBLIC        _mcu_dp_bool_update
  C:FD74H         PUBLIC        wifi_uart_process_download
  C:FF21H         PUBLIC        _mcu_get_dp_download_enum
  X:94F9H         PUBLIC        wifi_tx_upload_count
  X:94FBH         SYMBOL        s_wifi_frame_rx_in
  D:00D0H         PUBLIC        PSW
  C:EBF3H         PUBLIC        _mcu_dp_enum_update
  X:94FDH         SYMBOL        s_wifi_parse_depth
  D:00C0H         PUBLIC        IRCON
  C:FFADH         PUBLIC        wifi_uart_request_download_parse
BL51 BANKED LINKER/LOCATER V6.22.2.0                                                  07/08/2026  17:17:08  PAGE 165


  -------         PROC          _MY_STRLEN
  X:8DEDH         SYMBOL        str
  -------         DO            
  X:8DF0H         SYMBOL        len
  -------         ENDDO         
  C:DCC1H         LINE#         70
  C:DCCCH         LINE#         71
  C:DCCCH         LINE#         72
  C:DCD4H         LINE#         73
  C:DCE2H         LINE#         74
  C:DCE7H         LINE#         75
  C:DCE7H         LINE#         77
  C:DD06H         LINE#         78
  C:DD25H         LINE#         79
  C:DD27H         LINE#         81
  C:DD35H         LINE#         82
  -------         ENDPROC       _MY_STRLEN
  -------         PROC          _MY_MEMCPY
  X:8E7CH         SYMBOL        dest
  X:8E7FH         SYMBOL        src
  X:8E82H         SYMBOL        count
  -------         DO            
  X:8E84H         SYMBOL        pdest
  X:8E87H         SYMBOL        psrc
  X:8E8AH         SYMBOL        i
  -------         ENDDO         
  C:9F04H         LINE#         115
  C:9F0FH         LINE#         116
  C:9F0FH         LINE#         117
  C:9F1AH         LINE#         118
  C:9F2FH         LINE#         121
  C:9F49H         LINE#         122
  C:9F50H         LINE#         123
  C:9F50H         LINE#         125
  C:9FACH         LINE#         126
  C:9FCCH         LINE#         127
  C:9FF2H         LINE#         128
  C:A002H         LINE#         129
  C:A002H         LINE#         130
  C:A021H         LINE#         131
  C:A04FH         LINE#         132
  C:A05FH         LINE#         133
  C:A05FH         LINE#         135
  C:A06AH         LINE#         136
  -------         ENDPROC       _MY_MEMCPY
  -------         PROC          _BYTE_TO_INT
  X:8DFCH         SYMBOL        value
  -------         DO            
  X:8DFFH         SYMBOL        nubmer
  -------         ENDDO         
  C:A81DH         LINE#         199
  C:A828H         LINE#         200
  C:A828H         LINE#         201
  C:A830H         LINE#         203
  C:A83EH         LINE#         204
  C:A857H         LINE#         205
  C:A896H         LINE#         206
BL51 BANKED LINKER/LOCATER V6.22.2.0                                                  07/08/2026  17:17:08  PAGE 166


  C:A8AFH         LINE#         207
  C:A8EEH         LINE#         208
  C:A907H         LINE#         209
  C:A946H         LINE#         211
  C:A954H         LINE#         212
  -------         ENDPROC       _BYTE_TO_INT
  -------         PROC          _MCU_DP_RAW_UPDATE
  D:0005H         SYMBOL        dpid
  X:8E70H         SYMBOL        value
  X:8E73H         SYMBOL        len
  -------         DO            
  D:0006H         SYMBOL        send_len
  -------         ENDDO         
  C:D76AH         LINE#         222
  C:D777H         LINE#         223
  C:D777H         LINE#         224
  C:D77AH         LINE#         226
  C:D782H         LINE#         227
  C:D784H         LINE#         228
  C:D79BH         LINE#         229
  C:D79EH         LINE#         230
  C:D7ACH         LINE#         232
  C:D7AFH         LINE#         233
  C:D7B4H         LINE#         235
  C:D7BCH         LINE#         236
  C:D7C4H         LINE#         238
  C:D7DFH         LINE#         240
  C:D7EAH         LINE#         242
  C:D7ECH         LINE#         243
  -------         ENDPROC       _MCU_DP_RAW_UPDATE
  -------         PROC          _MCU_DP_BOOL_UPDATE
  D:0004H         SYMBOL        dpid
  X:8DF5H         SYMBOL        value
  -------         DO            
  D:0006H         SYMBOL        send_len
  -------         ENDDO         
  C:E97DH         LINE#         252
  C:E984H         LINE#         253
  C:E984H         LINE#         254
  C:E987H         LINE#         256
  C:E98FH         LINE#         257
  C:E991H         LINE#         258
  C:E99FH         LINE#         260
  C:E9A4H         LINE#         261
  C:E9A9H         LINE#         263
  C:E9AEH         LINE#         264
  C:E9B3H         LINE#         266
  C:E9B9H         LINE#         267
  C:E9BAH         LINE#         268
  C:E9BCH         LINE#         269
  C:E9C1H         LINE#         270
  C:E9C1H         LINE#         272
  C:E9CCH         LINE#         274
  C:E9CEH         LINE#         275
  -------         ENDPROC       _MCU_DP_BOOL_UPDATE
  -------         PROC          _MCU_DP_VALUE_UPDATE
  D:0005H         SYMBOL        dpid
BL51 BANKED LINKER/LOCATER V6.22.2.0                                                  07/08/2026  17:17:08  PAGE 167


  X:8DFBH         SYMBOL        value
  -------         DO            
  D:0006H         SYMBOL        send_len
  -------         ENDDO         
  C:C868H         LINE#         284
  C:C86AH         LINE#         285
  C:C86AH         LINE#         286
  C:C86DH         LINE#         288
  C:C875H         LINE#         289
  C:C877H         LINE#         290
  C:C885H         LINE#         292
  C:C888H         LINE#         293
  C:C88DH         LINE#         295
  C:C892H         LINE#         296
  C:C897H         LINE#         298
  C:C8B7H         LINE#         299
  C:C8D7H         LINE#         300
  C:C8F7H         LINE#         301
  C:C90FH         LINE#         303
  C:C91AH         LINE#         305
  C:C91CH         LINE#         306
  -------         ENDPROC       _MCU_DP_VALUE_UPDATE
  -------         PROC          _MCU_DP_STRING_UPDATE
  D:0005H         SYMBOL        dpid
  X:8E05H         SYMBOL        value
  X:8E08H         SYMBOL        len
  -------         DO            
  D:0006H         SYMBOL        send_len
  -------         ENDDO         
  C:D7EDH         LINE#         316
  C:D7FAH         LINE#         317
  C:D7FAH         LINE#         318
  C:D7FDH         LINE#         320
  C:D805H         LINE#         321
  C:D807H         LINE#         322
  C:D81EH         LINE#         323
  C:D821H         LINE#         324
  C:D82FH         LINE#         326
  C:D832H         LINE#         327
  C:D837H         LINE#         329
  C:D83FH         LINE#         330
  C:D847H         LINE#         332
  C:D862H         LINE#         334
  C:D86DH         LINE#         336
  C:D86FH         LINE#         337
  -------         ENDPROC       _MCU_DP_STRING_UPDATE
  -------         PROC          _MCU_DP_ENUM_UPDATE
  D:0004H         SYMBOL        dpid
  X:8DF3H         SYMBOL        value
  -------         DO            
  D:0006H         SYMBOL        send_len
  -------         ENDDO         
  C:EBF3H         LINE#         346
  C:EBFAH         LINE#         347
  C:EBFAH         LINE#         348
  C:EBFDH         LINE#         350
  C:EC05H         LINE#         351
BL51 BANKED LINKER/LOCATER V6.22.2.0                                                  07/08/2026  17:17:08  PAGE 168


  C:EC07H         LINE#         352
  C:EC15H         LINE#         354
  C:EC1AH         LINE#         355
  C:EC1FH         LINE#         357
  C:EC24H         LINE#         358
  C:EC29H         LINE#         360
  C:EC31H         LINE#         362
  C:EC3CH         LINE#         364
  C:EC3EH         LINE#         365
  -------         ENDPROC       _MCU_DP_ENUM_UPDATE
  -------         PROC          _MCU_GET_DP_DOWNLOAD_BOOL
  D:0001H         SYMBOL        value
  X:8DF5H         SYMBOL        len
  C:FF14H         LINE#         600
  C:FF1CH         LINE#         601
  C:FF1CH         LINE#         602
  C:FF20H         LINE#         603
  -------         ENDPROC       _MCU_GET_DP_DOWNLOAD_BOOL
  -------         PROC          _MCU_GET_DP_DOWNLOAD_ENUM
  D:0001H         SYMBOL        value
  X:8DF3H         SYMBOL        len
  C:FF21H         LINE#         612
  C:FF29H         LINE#         613
  C:FF29H         LINE#         614
  C:FF2DH         LINE#         615
  -------         ENDPROC       _MCU_GET_DP_DOWNLOAD_ENUM
  -------         PROC          _MCU_GET_DP_DOWNLOAD_VALUE
  D:0001H         SYMBOL        value
  X:8DFAH         SYMBOL        len
  C:FF75H         LINE#         624
  C:FF7DH         LINE#         625
  C:FF7DH         LINE#         626
  -------         ENDPROC       _MCU_GET_DP_DOWNLOAD_VALUE
  -------         PROC          _UART_RECEIVE_INPUT
  X:8F98H         SYMBOL        value
  C:C003H         LINE#         635
  C:C008H         LINE#         636
  C:C008H         LINE#         639
  C:C027H         LINE#         640
  C:C035H         LINE#         641
  C:C082H         LINE#         642
  C:C090H         LINE#         643
  C:C091H         LINE#         644
  C:C0A4H         LINE#         645
  C:C0B2H         LINE#         646
  C:C0B2H         LINE#         648
  C:C0CBH         LINE#         649
  C:C0D3H         LINE#         650
  C:C0D3H         LINE#         651
  -------         ENDPROC       _UART_RECEIVE_INPUT
  -------         PROC          WIFI_UART_RX_PULL
  C:F270H         LINE#         676
  C:F270H         LINE#         677
  C:F270H         LINE#         678
  C:F28CH         LINE#         679
  C:F2A7H         LINE#         680
  C:F2A9H         LINE#         681
BL51 BANKED LINKER/LOCATER V6.22.2.0                                                  07/08/2026  17:17:08  PAGE 169


  -------         ENDPROC       WIFI_UART_RX_PULL
  -------         PROC          _WIFI_UART_FRAME_VERSION_OK
  D:0007H         SYMBOL        ver
  C:FF2EH         LINE#         683
  C:FF2EH         LINE#         684
  C:FF2EH         LINE#         685
  C:FF3AH         LINE#         686
  -------         ENDPROC       _WIFI_UART_FRAME_VERSION_OK
  -------         PROC          _WIFI_UART_TRY_FRAME_LEN
  X:8DCBH         SYMBOL        offset
  X:8DCDH         SYMBOL        out_len
  -------         DO            
  X:8DD0H         SYMBOL        rx_value_len
  D:0006H         SYMBOL        data_len
  D:0005H         SYMBOL        ver
  X:8DD2H         SYMBOL        cmd
  -------         ENDDO         
  C:9467H         LINE#         688
  C:947AH         LINE#         689
  C:947AH         LINE#         695
  C:948DH         LINE#         696
  C:9490H         LINE#         697
  C:94A6H         LINE#         698
  C:94A9H         LINE#         699
  C:94B8H         LINE#         700
  C:94BBH         LINE#         701
  C:94CEH         LINE#         702
  C:94DDH         LINE#         703
  C:94E5H         LINE#         704
  C:94F0H         LINE#         705
  C:94F6H         LINE#         706
  C:94F9H         LINE#         707
  C:94F9H         LINE#         709
  C:950EH         LINE#         710
  C:951EH         LINE#         711
  C:952CH         LINE#         712
  C:9534H         LINE#         713
  C:9537H         LINE#         714
  C:955AH         LINE#         715
  C:9564H         LINE#         716
  C:9572H         LINE#         717
  C:957CH         LINE#         718
  C:957FH         LINE#         719
  C:9582H         LINE#         720
  C:9582H         LINE#         721
  C:958AH         LINE#         722
  C:9598H         LINE#         723
  C:95D5H         LINE#         724
  C:95D5H         LINE#         725
  C:95DDH         LINE#         726
  C:95EBH         LINE#         727
  C:95EEH         LINE#         728
  C:95EEH         LINE#         730
  C:9606H         LINE#         731
  C:9608H         LINE#         732
  -------         ENDPROC       _WIFI_UART_TRY_FRAME_LEN
  -------         PROC          _WIFI_UART_REMOVE_FRAME
BL51 BANKED LINKER/LOCATER V6.22.2.0                                                  07/08/2026  17:17:08  PAGE 170


  X:8DCBH         SYMBOL        offset
  X:8DCDH         SYMBOL        len
  -------         DO            
  X:8DCFH         SYMBOL        tail
  -------         ENDDO         
  C:D3ADH         LINE#         734
  C:D3BBH         LINE#         735
  C:D3BBH         LINE#         738
  C:D3D4H         LINE#         739
  C:D3D7H         LINE#         741
  C:D423H         LINE#         742
  C:D43DH         LINE#         743
  -------         ENDPROC       _WIFI_UART_REMOVE_FRAME
  -------         PROC          _WIFI_UART_RX_BYTE_SCAN
  D:0007H         SYMBOL        value
  C:EB0DH         LINE#         760
  C:EB0DH         LINE#         761
  C:EB0DH         LINE#         762
  C:EB15H         LINE#         763
  C:EB1DH         LINE#         764
  C:EB25H         LINE#         765
  C:EB28H         LINE#         766
  C:EB36H         LINE#         767
  C:EB3EH         LINE#         768
  C:EB49H         LINE#         769
  C:EB4EH         LINE#         770
  C:EB54H         LINE#         771
  C:EB5AH         LINE#         772
  C:EB5AH         LINE#         773
  C:EB5AH         LINE#         774
  -------         ENDPROC       _WIFI_UART_RX_BYTE_SCAN
  -------         PROC          WIFI_UART_PARSE_CMD6_PRIORITY
  -------         DO            
  X:8DC7H         SYMBOL        offset
  X:8DC9H         SYMBOL        frame_len
  D:0007H         SYMBOL        ret
  -------         ENDDO         
  C:D4C8H         LINE#         776
  C:D4C8H         LINE#         777
  C:D4C8H         LINE#         778
  C:D4CAH         LINE#         782
  C:D4E5H         LINE#         783
  C:D4EEH         LINE#         784
  C:D4F4H         LINE#         785
  C:D4F4H         LINE#         786
  C:D4F7H         LINE#         787
  C:D505H         LINE#         788
  C:D507H         LINE#         789
  C:D507H         LINE#         790
  C:D51DH         LINE#         791
  C:D531H         LINE#         792
  C:D533H         LINE#         793
  C:D533H         LINE#         794
  C:D536H         LINE#         795
  C:D547H         LINE#         796
  C:D54EH         LINE#         797
  C:D551H         LINE#         798
BL51 BANKED LINKER/LOCATER V6.22.2.0                                                  07/08/2026  17:17:08  PAGE 171


  -------         ENDPROC       WIFI_UART_PARSE_CMD6_PRIORITY
  -------         PROC          WIFI_UART_PARSE_FRAMES
  -------         DO            
  X:8DC3H         SYMBOL        offset
  X:8DC5H         SYMBOL        rx_value_len
  D:0007H         SYMBOL        ret
  -------         ENDDO         
  C:C0D4H         LINE#         800
  C:C0D4H         LINE#         801
  C:C0D4H         LINE#         802
  C:C0DBH         LINE#         803
  C:C0DFH         LINE#         806
  C:C0E2H         LINE#         808
  C:C0F4H         LINE#         811
  C:C112H         LINE#         812
  C:C11BH         LINE#         813
  C:C121H         LINE#         814
  C:C121H         LINE#         815
  C:C124H         LINE#         816
  C:C132H         LINE#         817
  C:C134H         LINE#         818
  C:C134H         LINE#         820
  C:C13FH         LINE#         821
  C:C153H         LINE#         822
  C:C155H         LINE#         824
  C:C16EH         LINE#         825
  C:C176H         LINE#         827
  C:C1A2H         LINE#         828
  C:C1A2H         LINE#         829
  -------         ENDPROC       WIFI_UART_PARSE_FRAMES
  -------         PROC          WIFI_UART_REQUEST_DOWNLOAD_PARSE
  C:FFADH         LINE#         834
  C:FFADH         LINE#         835
  C:FFADH         LINE#         836
  C:FFB3H         LINE#         837
  -------         ENDPROC       WIFI_UART_REQUEST_DOWNLOAD_PARSE
  -------         PROC          WIFI_UART_PROCESS_DOWNLOAD
  C:FD74H         LINE#         842
  C:FD74H         LINE#         843
  C:FD74H         LINE#         844
  C:FD7AH         LINE#         846
  C:FD7DH         LINE#         847
  C:FD80H         LINE#         848
  C:FD83H         LINE#         849
  C:FD89H         LINE#         850
  -------         ENDPROC       WIFI_UART_PROCESS_DOWNLOAD
  -------         PROC          WIFI_UART_SERVICE
  C:F4E2H         LINE#         858
  C:F4E2H         LINE#         859
  C:F4E2H         LINE#         860
  C:F4EFH         LINE#         862
  C:F4F2H         LINE#         863
  C:F4F5H         LINE#         864
  C:F4F8H         LINE#         865
  C:F4FEH         LINE#         866
  C:F50AH         LINE#         867
  C:F50EH         LINE#         868
BL51 BANKED LINKER/LOCATER V6.22.2.0                                                  07/08/2026  17:17:08  PAGE 172


  C:F511H         LINE#         869
  C:F511H         LINE#         870
  -------         ENDPROC       WIFI_UART_SERVICE
  -------         PROC          WIFI_PROTOCOL_INIT
  C:F873H         LINE#         894
  C:F873H         LINE#         895
  C:F873H         LINE#         897
  C:F881H         LINE#         898
  C:F88FH         LINE#         900
  C:F894H         LINE#         903
  C:F89AH         LINE#         905
  -------         ENDPROC       WIFI_PROTOCOL_INIT
  -------         PROC          MCU_GET_RESET_WIFI_FLAG
  C:FFD2H         LINE#         919
  C:FFD2H         LINE#         920
  C:FFD2H         LINE#         921
  C:FFD7H         LINE#         922
  -------         ENDPROC       MCU_GET_RESET_WIFI_FLAG
  -------         PROC          MCU_RESET_WIFI
  C:FEECH         LINE#         931
  C:FEECH         LINE#         932
  C:FEECH         LINE#         933
  C:FEF1H         LINE#         935
  -------         ENDPROC       MCU_RESET_WIFI
  -------         PROC          MCU_GET_WIFI_WORK_STATE
  -------         DO            
  X:94E4H         SYMBOL        s_last
  -------         ENDDO         
  C:FD1BH         LINE#         988
  C:FD1BH         LINE#         989
  C:FD1BH         LINE#         992
  C:FD27H         LINE#         993
  C:FD27H         LINE#         994
  C:FD2CH         LINE#         996
  C:FD2CH         LINE#         997
  C:FD31H         LINE#         998
  -------         ENDPROC       MCU_GET_WIFI_WORK_STATE
  -------         ENDMOD        MCU_API

  -------         MODULE        PROTOCOL
  C:0000H         SYMBOL        _ICE_DUMMY_
  D:0080H         PUBLIC        P0
  D:00B0H         PUBLIC        P3
  C:FE00H         PUBLIC        _upgrade_package_choose
  C:E9CFH         SYMBOL        _dp_download_temp_unit_convert_handle
  D:00F8H         PUBLIC        RAMMODE
  D:00A8H         PUBLIC        IEN0
  D:00B8H         PUBLIC        IEN1
  C:CEFDH         PUBLIC        _mcu_firm_update_handle
  C:72C6H         PUBLIC        _timestamp_to_ymdhms
  X:9343H         PUBLIC        OTAdataindex
  C:FFE4H         PUBLIC        get_download_cmd_total
  C:8A1DH         SYMBOL        _dp_download_timestamp_handle
  C:FFE1H         PUBLIC        all_data_update
  X:9443H         SYMBOL        mdays
  C:F7FAH         SYMBOL        _mode_map_to_dgus
  C:C3F8H         SYMBOL        _dp_download_temp_set_handle
BL51 BANKED LINKER/LOCATER V6.22.2.0                                                  07/08/2026  17:17:08  PAGE 173


  C:FFDEH         PUBLIC        _uart_transmit_output
  C:FE5CH         PUBLIC        _file_download_handle
  X:944FH         PUBLIC        SendCnt
  D:0088H         PUBLIC        TCON
  C:BF2FH         SYMBOL        _dp_download_external_time_close_handle
  C:F00EH         SYMBOL        _dp_download_defrost_handle
  C:EAB1H         SYMBOL        _?ix1000
  C:EAB7H         SYMBOL        _?ix1001
  C:EAB9H         SYMBOL        _?ix1002
  B:0026H.3       PUBLIC        OTADataUpdate
  C:BD7BH         SYMBOL        _dp_download_inside_time_close_handle
  C:FC24H         SYMBOL        _dp117_mode_to_dgus
  C:8659H         SYMBOL        _dp_download_external_time_open_handle
  C:E929H         SYMBOL        _dp_download_child_lock_handle
  C:A6E4H         SYMBOL        _dp_download_switch_handle
  X:9450H         PUBLIC        PackageNum
  C:9933H         PUBLIC        _dp_download_handle
  D:0098H         PUBLIC        SCON0
  D:00C8H         PUBLIC        T2CON
  C:67ADH         SYMBOL        _dp_download_inside_time_open_handle
  C:BAC9H         SYMBOL        _dp_download_mode_handle
  C:ED67H         SYMBOL        _dp_download_relay_status_handle
  C:FA52H         SYMBOL        _dp_download_history_fault_empty_handle
  X:9454H         PUBLIC        download_cmd
  C:F51AH         SYMBOL        _is_leap_year
  C:5D5BH         SYMBOL        _dp_download_indoor_unit_handle
  C:FE13H         PUBLIC        _file_download_package_choose
  D:00D0H         PUBLIC        PSW
  D:00C0H         PUBLIC        IRCON
  -------         PROC          _UART_TRANSMIT_OUTPUT
  D:0007H         SYMBOL        value
  C:FFDEH         LINE#         125
  C:FFDEH         LINE#         126
  C:FFDEH         LINE#         128
  -------         ENDPROC       _UART_TRANSMIT_OUTPUT
  -------         PROC          ALL_DATA_UPDATE
  C:FFE1H         LINE#         161
  C:FFE1H         LINE#         162
  C:FFE1H         LINE#         163
  -------         ENDPROC       ALL_DATA_UPDATE
  -------         PROC          _DP_DOWNLOAD_SWITCH_HANDLE
  D:0001H         SYMBOL        value
  D:0004H         SYMBOL        length
  -------         DO            
  X:8DEFH         SYMBOL        ret
  X:8DF0H         SYMBOL        switch_1
  X:8DF1H         SYMBOL        control_mode
  X:8DF3H         SYMBOL        external_switch
  X:933EH         SYMBOL        s_last_switch
  -------         ENDDO         
  C:A6E4H         LINE#         181
  C:A6E4H         LINE#         182
  C:A6E4H         LINE#         186
  C:A6EBH         LINE#         189
  C:A6F3H         LINE#         190
  C:A6FAH         LINE#         191
  C:A6FAH         LINE#         192
BL51 BANKED LINKER/LOCATER V6.22.2.0                                                  07/08/2026  17:17:08  PAGE 174


  C:A704H         LINE#         193
  C:A70EH         LINE#         194
  C:A711H         LINE#         195
  C:A711H         LINE#         196
  C:A719H         LINE#         197
  C:A726H         LINE#         198
  C:A72EH         LINE#         199
  C:A746H         LINE#         200
  C:A750H         LINE#         201
  C:A750H         LINE#         202
  C:A757H         LINE#         203
  C:A76FH         LINE#         204
  C:A76FH         LINE#         205
  C:A777H         LINE#         206
  C:A780H         LINE#         207
  C:A782H         LINE#         208
  C:A782H         LINE#         209
  C:A789H         LINE#         210
  C:A7A1H         LINE#         211
  C:A7A8H         LINE#         212
  C:A7C0H         LINE#         213
  C:A7C0H         LINE#         214
  C:A7C3H         LINE#         215
  C:A7C6H         LINE#         216
  C:A7DFH         LINE#         217
  C:A7F8H         LINE#         219
  C:A807H         LINE#         220
  C:A80FH         LINE#         221
  C:A817H         LINE#         222
  C:A81AH         LINE#         224
  C:A81CH         LINE#         225
  -------         ENDPROC       _DP_DOWNLOAD_SWITCH_HANDLE
  -------         PROC          _DP_DOWNLOAD_MODE_HANDLE
  D:0001H         SYMBOL        value
  D:0004H         SYMBOL        length
  -------         DO            
  X:8DEFH         SYMBOL        ret
  X:8DF0H         SYMBOL        mode
  X:8DF1H         SYMBOL        control_mode
  -------         ENDDO         
  C:BAC9H         LINE#         234
  C:BAC9H         LINE#         235
  C:BAC9H         LINE#         240
  C:BAD1H         LINE#         241
  C:BAE1H         LINE#         242
  C:BAE1H         LINE#         243
  C:BAE9H         LINE#         244
  C:BAEAH         LINE#         245
  C:BAEAH         LINE#         246
  C:BAEAH         LINE#         247
  C:BAECH         LINE#         249
  C:BAECH         LINE#         250
  C:BAF5H         LINE#         251
  C:BAF7H         LINE#         252
  C:BAF7H         LINE#         253
  C:BAF7H         LINE#         254
  C:BAF9H         LINE#         256
BL51 BANKED LINKER/LOCATER V6.22.2.0                                                  07/08/2026  17:17:08  PAGE 175


  C:BAF9H         LINE#         257
  C:BB02H         LINE#         258
  C:BB1BH         LINE#         259
  C:BB23H         LINE#         260
  C:BB34H         LINE#         261
  C:BB36H         LINE#         263
  C:BB36H         LINE#         264
  C:BB3DH         LINE#         265
  C:BB55H         LINE#         266
  C:BB6EH         LINE#         267
  C:BB6EH         LINE#         269
  C:BB6EH         LINE#         271
  C:BB6EH         LINE#         272
  C:BB6EH         LINE#         273
  C:BB71H         LINE#         274
  C:BB74H         LINE#         275
  C:BB8DH         LINE#         277
  C:BB9CH         LINE#         278
  C:BBA4H         LINE#         279
  C:BBACH         LINE#         280
  C:BBAFH         LINE#         282
  C:BBB1H         LINE#         283
  -------         ENDPROC       _DP_DOWNLOAD_MODE_HANDLE
  -------         PROC          _DP_DOWNLOAD_CHILD_LOCK_HANDLE
  D:0001H         SYMBOL        value
  D:0004H         SYMBOL        length
  -------         DO            
  X:8DEFH         SYMBOL        ret
  X:8DF0H         SYMBOL        child_lock
  -------         ENDDO         
  C:E929H         LINE#         292
  C:E929H         LINE#         293
  C:E929H         LINE#         299
  C:E931H         LINE#         300
  C:E94AH         LINE#         301
  C:E950H         LINE#         302
  C:E950H         LINE#         303
  C:E955H         LINE#         304
  C:E958H         LINE#         305
  C:E958H         LINE#         306
  C:E967H         LINE#         307
  C:E96FH         LINE#         308
  C:E977H         LINE#         309
  C:E97AH         LINE#         311
  C:E97CH         LINE#         312
  -------         ENDPROC       _DP_DOWNLOAD_CHILD_LOCK_HANDLE
  -------         PROC          _DP_DOWNLOAD_TEMP_SET_HANDLE
  D:0001H         SYMBOL        value
  D:0004H         SYMBOL        length
  -------         DO            
  X:8DEFH         SYMBOL        ret
  X:8DF0H         SYMBOL        temp_set
  X:8DF4H         SYMBOL        temp_set1
  X:8DF8H         SYMBOL        unit
  -------         ENDDO         
  C:C3F8H         LINE#         321
  C:C3F8H         LINE#         322
BL51 BANKED LINKER/LOCATER V6.22.2.0                                                  07/08/2026  17:17:08  PAGE 176


  C:C3F8H         LINE#         327
  C:C401H         LINE#         332
  C:C41AH         LINE#         333
  C:C433H         LINE#         334
  C:C44CH         LINE#         335
  C:C467H         LINE#         336
  C:C474H         LINE#         337
  C:C476H         LINE#         338
  C:C479H         LINE#         339
  C:C497H         LINE#         340
  C:C4AEH         LINE#         341
  C:C4B6H         LINE#         342
  C:C4B9H         LINE#         344
  C:C4BBH         LINE#         345
  -------         ENDPROC       _DP_DOWNLOAD_TEMP_SET_HANDLE
  -------         PROC          _DP_DOWNLOAD_TEMP_UNIT_CONVERT_HANDLE
  D:0001H         SYMBOL        value
  D:0004H         SYMBOL        length
  -------         DO            
  X:8DEFH         SYMBOL        ret
  X:8DF0H         SYMBOL        temp_unit_convert
  -------         ENDDO         
  C:E9CFH         LINE#         354
  C:E9CFH         LINE#         355
  C:E9CFH         LINE#         360
  C:E9D7H         LINE#         361
  C:E9D7H         LINE#         362
  C:E9D7H         LINE#         363
  C:E9D7H         LINE#         365
  C:E9D7H         LINE#         366
  C:E9D7H         LINE#         368
  C:E9D7H         LINE#         370
  C:E9D7H         LINE#         371
  C:E9D7H         LINE#         372
  C:E9F0H         LINE#         373
  C:E9F3H         LINE#         374
  C:E9F8H         LINE#         375
  C:E9FBH         LINE#         376
  C:EA0AH         LINE#         377
  C:EA12H         LINE#         378
  C:EA1AH         LINE#         379
  C:EA1DH         LINE#         381
  C:EA1FH         LINE#         382
  -------         ENDPROC       _DP_DOWNLOAD_TEMP_UNIT_CONVERT_HANDLE
  -------         PROC          _DP_DOWNLOAD_DEFROST_HANDLE
  D:0001H         SYMBOL        value
  D:0004H         SYMBOL        length
  -------         DO            
  X:8DEFH         SYMBOL        ret
  X:8DF0H         SYMBOL        defrost
  -------         ENDDO         
  C:F00EH         LINE#         391
  C:F00EH         LINE#         392
  C:F00EH         LINE#         398
  C:F016H         LINE#         399
  C:F018H         LINE#         400
  C:F018H         LINE#         401
BL51 BANKED LINKER/LOCATER V6.22.2.0                                                  07/08/2026  17:17:08  PAGE 177


  C:F01BH         LINE#         402
  C:F01DH         LINE#         404
  C:F01DH         LINE#         405
  C:F023H         LINE#         406
  C:F026H         LINE#         407
  C:F028H         LINE#         408
  C:F028H         LINE#         409
  C:F037H         LINE#         410
  C:F03FH         LINE#         411
  C:F047H         LINE#         412
  C:F04AH         LINE#         414
  C:F04CH         LINE#         415
  -------         ENDPROC       _DP_DOWNLOAD_DEFROST_HANDLE
  -------         PROC          _DP_DOWNLOAD_RELAY_STATUS_HANDLE
  D:0001H         SYMBOL        value
  D:0004H         SYMBOL        length
  -------         DO            
  X:8DEFH         SYMBOL        ret
  X:8DF0H         SYMBOL        relay_status
  -------         ENDDO         
  C:ED67H         LINE#         424
  C:ED67H         LINE#         425
  C:ED67H         LINE#         430
  C:ED6FH         LINE#         431
  C:ED6FH         LINE#         432
  C:ED6FH         LINE#         433
  C:ED6FH         LINE#         435
  C:ED6FH         LINE#         436
  C:ED6FH         LINE#         438
  C:ED6FH         LINE#         440
  C:ED6FH         LINE#         441
  C:ED6FH         LINE#         442
  C:ED88H         LINE#         443
  C:ED8BH         LINE#         444
  C:ED9AH         LINE#         445
  C:EDA2H         LINE#         446
  C:EDAAH         LINE#         447
  C:EDADH         LINE#         449
  C:EDAFH         LINE#         450
  -------         ENDPROC       _DP_DOWNLOAD_RELAY_STATUS_HANDLE
  -------         PROC          L?0198
  -------         ENDPROC       L?0198
  -------         PROC          _IS_LEAP_YEAR
  D:0002H         SYMBOL        year
  C:F51AH         LINE#         468
  C:F51EH         LINE#         469
  C:F51EH         LINE#         470
  C:F541H         LINE#         472
  -------         ENDPROC       _IS_LEAP_YEAR
  -------         PROC          _TIMESTAMP_TO_YMDHMS
  D:0004H         SYMBOL        timestamp
  X:8E04H         SYMBOL        dt
  -------         DO            
  X:8E07H         SYMBOL        sec
  X:8E0BH         SYMBOL        days
  X:8E0FH         SYMBOL        rem
  X:8E13H         SYMBOL        m
BL51 BANKED LINKER/LOCATER V6.22.2.0                                                  07/08/2026  17:17:08  PAGE 178


  X:8E14H         SYMBOL        leap
  X:8E15H         SYMBOL        full_year
  -------         DO            
  X:8E17H         SYMBOL        ydays
  X:8E17H         SYMBOL        dim
  -------         ENDDO         
  -------         DO            
  X:8E17H         SYMBOL        dim
  -------         ENDDO         
  -------         ENDDO         
  C:72C6H         LINE#         479
  C:72D1H         LINE#         480
  C:72D1H         LINE#         481
  C:72D5H         LINE#         487
  C:72F4H         LINE#         488
  C:7311H         LINE#         489
  C:7338H         LINE#         492
  C:7362H         LINE#         493
  C:739DH         LINE#         494
  C:73C8H         LINE#         497
  C:73D2H         LINE#         498
  C:73D2H         LINE#         499
  C:73E8H         LINE#         500
  C:73FFH         LINE#         501
  C:73FFH         LINE#         502
  C:7433H         LINE#         503
  C:7441H         LINE#         504
  C:7443H         LINE#         506
  C:745AH         LINE#         508
  C:7462H         LINE#         509
  C:7474H         LINE#         511
  C:748AH         LINE#         512
  C:7499H         LINE#         513
  C:74A4H         LINE#         514
  C:74AAH         LINE#         516
  C:74C7H         LINE#         517
  C:74C7H         LINE#         519
  C:74F3H         LINE#         520
  C:7506H         LINE#         521
  C:750FH         LINE#         523
  C:7522H         LINE#         524
  -------         ENDPROC       _TIMESTAMP_TO_YMDHMS
  -------         PROC          _DP_DOWNLOAD_TIMESTAMP_HANDLE
  X:8DEFH         SYMBOL        value
  X:8DF2H         SYMBOL        length
  -------         DO            
  D:0007H         SYMBOL        ret
  X:8DF4H         SYMBOL        RTCC2W_write
  X:8DFAH         SYMBOL        rtc_parm
  X:8DFCH         SYMBOL        dt
  D:0004H         SYMBOL        ts
  X:8E02H         SYMBOL        year
  -------         ENDDO         
  C:8A1DH         LINE#         527
  C:8A2EH         LINE#         528
  C:8A2EH         LINE#         531
  C:8A41H         LINE#         532
BL51 BANKED LINKER/LOCATER V6.22.2.0                                                  07/08/2026  17:17:08  PAGE 179


  C:8A54H         LINE#         533
  C:8A67H         LINE#         536
  C:8A82H         LINE#         537
  C:8A90H         LINE#         539
  C:8A99H         LINE#         540
  C:8AF4H         LINE#         541
  C:8B06H         LINE#         542
  C:8B31H         LINE#         543
  C:8B60H         LINE#         545
  C:8B72H         LINE#         546
  C:8B84H         LINE#         547
  C:8B8FH         LINE#         548
  C:8BA8H         LINE#         550
  C:8BAEH         LINE#         551
  C:8BB2H         LINE#         552
  C:8BCBH         LINE#         555
  C:8BE8H         LINE#         556
  C:8BEDH         LINE#         557
  C:8BF0H         LINE#         559
  C:8BF2H         LINE#         560
  -------         ENDPROC       _DP_DOWNLOAD_TIMESTAMP_HANDLE
  -------         PROC          _MODE_MAP_TO_DGUS
  D:0007H         SYMBOL        cloud_mode
  C:F7FAH         LINE#         569
  C:F7FAH         LINE#         570
  C:F7FAH         LINE#         571
  C:F80BH         LINE#         572
  C:F810H         LINE#         573
  C:F814H         LINE#         574
  C:F819H         LINE#         575
  C:F81EH         LINE#         576
  C:F81EH         LINE#         577
  C:F822H         LINE#         578
  C:F822H         LINE#         579
  -------         ENDPROC       _MODE_MAP_TO_DGUS
  -------         PROC          _DP_DOWNLOAD_INDOOR_UNIT_HANDLE
  X:8DEFH         SYMBOL        value
  X:8DF2H         SYMBOL        length
  -------         DO            
  X:8DF4H         SYMBOL        offset
  X:8DF5H         SYMBOL        idx
  X:8DF6H         SYMBOL        i
  X:8DF7H         SYMBOL        wr_list
  X:8DFDH         SYMBOL        wr_cnt
  D:0004H         SYMBOL        unit_id
  X:8DFEH         SYMBOL        power
  X:8E00H         SYMBOL        set_temp
  X:8E02H         SYMBOL        mode
  X:8E04H         SYMBOL        dgus_mode
  X:8E06H         SYMBOL        fan_speed
  X:8E08H         SYMBOL        room_temp
  C:60E1H         SYMBOL        next
  -------         DO            
  X:8E0AH         SYMBOL        p
  X:8E0DH         SYMBOL        old_pwr
  X:8E0FH         SYMBOL        old_mode
  X:8E11H         SYMBOL        old_temp
BL51 BANKED LINKER/LOCATER V6.22.2.0                                                  07/08/2026  17:17:08  PAGE 180


  X:8E13H         SYMBOL        old_fan
  -------         DO            
  X:8E15H         SYMBOL        set_f
  X:8E15H         SYMBOL        room_c
  X:8E19H         SYMBOL        room_f
  -------         ENDDO         
  -------         DO            
  X:8E15H         SYMBOL        room_c
  X:8E19H         SYMBOL        room_f
  -------         ENDDO         
  -------         ENDDO         
  -------         ENDDO         
  C:5D5BH         LINE#         580
  C:5D6CH         LINE#         581
  C:5D6CH         LINE#         582
  C:5D6FH         LINE#         586
  C:5D73H         LINE#         594
  C:5D8DH         LINE#         595
  C:5D8DH         LINE#         596
  C:5DB0H         LINE#         599
  C:5DB6H         LINE#         600
  C:5DC5H         LINE#         601
  C:5DD4H         LINE#         602
  C:5DE3H         LINE#         603
  C:5DF2H         LINE#         604
  C:5E01H         LINE#         606
  C:5E19H         LINE#         607
  C:5E2AH         LINE#         608
  C:5E49H         LINE#         609
  C:5E59H         LINE#         610
  C:5E6AH         LINE#         612
  C:5E75H         LINE#         613
  C:5E7DH         LINE#         614
  C:5E89H         LINE#         615
  C:5E89H         LINE#         617
  C:5EA3H         LINE#         618
  C:5EC1H         LINE#         619
  C:5EDFH         LINE#         620
  C:5EFDH         LINE#         622
  C:5F1BH         LINE#         623
  C:5F39H         LINE#         624
  C:5F39H         LINE#         625
  C:5F4EH         LINE#         626
  C:5F6CH         LINE#         627
  C:5F6CH         LINE#         628
  C:5F8AH         LINE#         629
  C:5FA8H         LINE#         630
  C:5FA8H         LINE#         631
  C:5FBAH         LINE#         632
  C:5FD5H         LINE#         634
  C:5FF9H         LINE#         635
  C:601DH         LINE#         636
  C:6041H         LINE#         637
  C:6041H         LINE#         639
  C:6091H         LINE#         640
  C:6091H         LINE#         641
  C:60A4H         LINE#         642
BL51 BANKED LINKER/LOCATER V6.22.2.0                                                  07/08/2026  17:17:08  PAGE 181


  C:60A4H         LINE#         643
  C:60B9H         LINE#         644
  C:60B9H         LINE#         645
  C:60BFH         LINE#         646
  C:60C9H         LINE#         647
  C:60E1H         LINE#         649
  C:60E1H         LINE#         651
  C:60E1H         LINE#         652
  C:60E8H         LINE#         653
  C:60EBH         LINE#         655
  C:60FEH         LINE#         656
  C:6117H         LINE#         658
  C:611AH         LINE#         659
  C:611DH         LINE#         660
  C:611FH         LINE#         661
  -------         ENDPROC       _DP_DOWNLOAD_INDOOR_UNIT_HANDLE
  -------         PROC          _DP_DOWNLOAD_HISTORY_FAULT_EMPTY_HANDLE
  D:0001H         SYMBOL        value
  D:0004H         SYMBOL        length
  -------         DO            
  D:0007H         SYMBOL        ret
  X:8DEFH         SYMBOL        history_fault_empty
  -------         ENDDO         
  C:FA52H         LINE#         670
  C:FA52H         LINE#         671
  C:FA52H         LINE#         677
  C:FA5AH         LINE#         678
  C:FA5CH         LINE#         680
  C:FA5CH         LINE#         681
  C:FA5FH         LINE#         683
  C:FA5FH         LINE#         686
  C:FA69H         LINE#         687
  C:FA6EH         LINE#         688
  C:FA71H         LINE#         690
  C:FA73H         LINE#         691
  -------         ENDPROC       _DP_DOWNLOAD_HISTORY_FAULT_EMPTY_HANDLE
  -------         PROC          _DP_DOWNLOAD_INSIDE_TIME_OPEN_HANDLE
  X:8DEFH         SYMBOL        value
  X:8DF2H         SYMBOL        length
  -------         DO            
  D:0007H         SYMBOL        ret
  X:8DF4H         SYMBOL        i
  X:8DF5H         SYMBOL        week_mask
  X:8DF6H         SYMBOL        switch1
  X:8DF8H         SYMBOL        hour
  X:8DFAH         SYMBOL        minute
  X:8DFCH         SYMBOL        week
  X:8DFEH         SYMBOL        temp
  D:0006H         SYMBOL        temp_mode
  X:8E00H         SYMBOL        dgus_mode
  X:8E02H         SYMBOL        fan_speed
  X:8E04H         SYMBOL        room
  X:8E06H         SYMBOL        set_val
  X:8E08H         SYMBOL        room1
  X:8E0AH         SYMBOL        p
  -------         DO            
  X:8E0DH         SYMBOL        temp_f
BL51 BANKED LINKER/LOCATER V6.22.2.0                                                  07/08/2026  17:17:08  PAGE 182


  -------         ENDDO         
  -------         ENDDO         
  C:67ADH         LINE#         700
  C:67BEH         LINE#         701
  C:67BEH         LINE#         707
  C:67C9H         LINE#         709
  C:67CFH         LINE#         710
  C:67D2H         LINE#         711
  C:67D2H         LINE#         712
  C:67E9H         LINE#         715
  C:6802H         LINE#         718
  C:681CH         LINE#         719
  C:6835H         LINE#         722
  C:684FH         LINE#         723
  C:6868H         LINE#         727
  C:686DH         LINE#         728
  C:6887H         LINE#         731
  C:689AH         LINE#         733
  C:68B0H         LINE#         734
  C:68B8H         LINE#         735
  C:68D6H         LINE#         736
  C:68D6H         LINE#         737
  C:68DEH         LINE#         740
  C:68F8H         LINE#         741
  C:6911H         LINE#         742
  C:6911H         LINE#         743
  C:6926H         LINE#         744
  C:693FH         LINE#         745
  C:693FH         LINE#         748
  C:6953H         LINE#         749
  C:6966H         LINE#         750
  C:6968H         LINE#         751
  C:6971H         LINE#         752
  C:697CH         LINE#         753
  C:6986H         LINE#         754
  C:6991H         LINE#         755
  C:699AH         LINE#         756
  C:699AH         LINE#         757
  C:69B3H         LINE#         760
  C:69CDH         LINE#         761
  C:69E6H         LINE#         764
  C:6A00H         LINE#         765
  C:6A13H         LINE#         766
  C:6A30H         LINE#         767
  C:6A38H         LINE#         768
  C:6A56H         LINE#         769
  C:6A56H         LINE#         770
  C:6A5EH         LINE#         773
  C:6A65H         LINE#         774
  C:6A68H         LINE#         777
  C:6A85H         LINE#         778
  C:6A8AH         LINE#         779
  C:6A8DH         LINE#         781
  C:6A8FH         LINE#         782
  -------         ENDPROC       _DP_DOWNLOAD_INSIDE_TIME_OPEN_HANDLE
  -------         PROC          _DP117_MODE_TO_DGUS
  D:0007H         SYMBOL        dp_mode
BL51 BANKED LINKER/LOCATER V6.22.2.0                                                  07/08/2026  17:17:08  PAGE 183


  C:FC24H         LINE#         791
  C:FC24H         LINE#         792
  C:FC24H         LINE#         793
  C:FC39H         LINE#         794
  C:FC3CH         LINE#         795
  C:FC40H         LINE#         796
  -------         ENDPROC       _DP117_MODE_TO_DGUS
  -------         PROC          _DP_DOWNLOAD_EXTERNAL_TIME_OPEN_HANDLE
  X:8DEFH         SYMBOL        value
  X:8DF2H         SYMBOL        length
  -------         DO            
  D:0007H         SYMBOL        ret
  X:8DF4H         SYMBOL        i
  X:8DF5H         SYMBOL        p
  X:8DF8H         SYMBOL        switch1
  X:8DFAH         SYMBOL        hour
  X:8DFCH         SYMBOL        min
  D:0006H         SYMBOL        mode
  X:8DFEH         SYMBOL        week
  X:8E00H         SYMBOL        temp
  X:8E02H         SYMBOL        set_val
  X:8E04H         SYMBOL        dgus_mode
  -------         DO            
  X:8E06H         SYMBOL        temp_f
  -------         ENDDO         
  -------         ENDDO         
  C:8659H         LINE#         798
  C:866CH         LINE#         799
  C:866CH         LINE#         803
  C:8677H         LINE#         806
  C:8683H         LINE#         807
  C:869CH         LINE#         810
  C:86B6H         LINE#         811
  C:86CFH         LINE#         814
  C:86E9H         LINE#         815
  C:8702H         LINE#         820
  C:871CH         LINE#         821
  C:872FH         LINE#         822
  C:8745H         LINE#         823
  C:874FH         LINE#         825
  C:8756H         LINE#         826
  C:8774H         LINE#         827
  C:877CH         LINE#         830
  C:8796H         LINE#         831
  C:87AFH         LINE#         832
  C:87AFH         LINE#         833
  C:87C4H         LINE#         834
  C:87DDH         LINE#         835
  C:87DDH         LINE#         837
  C:87F1H         LINE#         838
  C:87FCH         LINE#         839
  C:8815H         LINE#         840
  C:8818H         LINE#         843
  C:8835H         LINE#         844
  C:883AH         LINE#         845
  C:883DH         LINE#         847
  C:883FH         LINE#         848
BL51 BANKED LINKER/LOCATER V6.22.2.0                                                  07/08/2026  17:17:08  PAGE 184


  -------         ENDPROC       _DP_DOWNLOAD_EXTERNAL_TIME_OPEN_HANDLE
  -------         PROC          _DP_DOWNLOAD_INSIDE_TIME_CLOSE_HANDLE
  X:8DEFH         SYMBOL        value
  X:8DF2H         SYMBOL        length
  -------         DO            
  D:0007H         SYMBOL        ret
  X:8DF4H         SYMBOL        p
  X:8DF7H         SYMBOL        switch1
  X:8DF9H         SYMBOL        hour
  X:8DFBH         SYMBOL        min
  -------         ENDDO         
  C:BD7BH         LINE#         857
  C:BD8EH         LINE#         858
  C:BD8EH         LINE#         861
  C:BD99H         LINE#         865
  C:BDA5H         LINE#         866
  C:BDBEH         LINE#         869
  C:BDD8H         LINE#         870
  C:BDF1H         LINE#         873
  C:BE0BH         LINE#         874
  C:BE24H         LINE#         876
  C:BE2BH         LINE#         877
  C:BE2EH         LINE#         880
  C:BE4BH         LINE#         881
  C:BE50H         LINE#         882
  C:BE53H         LINE#         884
  C:BE55H         LINE#         885
  -------         ENDPROC       _DP_DOWNLOAD_INSIDE_TIME_CLOSE_HANDLE
  -------         PROC          _DP_DOWNLOAD_EXTERNAL_TIME_CLOSE_HANDLE
  X:8DEFH         SYMBOL        value
  X:8DF2H         SYMBOL        length
  -------         DO            
  D:0007H         SYMBOL        ret
  X:8DF4H         SYMBOL        p
  X:8DF7H         SYMBOL        switch1
  X:8DF9H         SYMBOL        hour
  X:8DFBH         SYMBOL        min
  -------         ENDDO         
  C:BF2FH         LINE#         894
  C:BF42H         LINE#         895
  C:BF42H         LINE#         898
  C:BF4DH         LINE#         901
  C:BF59H         LINE#         902
  C:BF72H         LINE#         905
  C:BF8CH         LINE#         906
  C:BFA5H         LINE#         909
  C:BFBFH         LINE#         910
  C:BFD8H         LINE#         911
  C:BFDBH         LINE#         914
  C:BFF8H         LINE#         915
  C:BFFDH         LINE#         916
  C:C000H         LINE#         918
  C:C002H         LINE#         919
  -------         ENDPROC       _DP_DOWNLOAD_EXTERNAL_TIME_CLOSE_HANDLE
  -------         PROC          _DP_DOWNLOAD_HANDLE
  D:0007H         SYMBOL        dpid
  X:8DE9H         SYMBOL        value
BL51 BANKED LINKER/LOCATER V6.22.2.0                                                  07/08/2026  17:17:08  PAGE 185


  X:8DECH         SYMBOL        length
  -------         DO            
  X:8DEEH         SYMBOL        ret
  -------         ENDDO         
  C:9933H         LINE#         938
  C:993EH         LINE#         939
  C:993EH         LINE#         945
  C:9943H         LINE#         946
  C:9975H         LINE#         947
  C:9975H         LINE#         949
  C:9989H         LINE#         950
  C:998CH         LINE#         951
  C:998CH         LINE#         953
  C:99A0H         LINE#         954
  C:99A3H         LINE#         955
  C:99A3H         LINE#         957
  C:99B7H         LINE#         958
  C:99BAH         LINE#         959
  C:99BAH         LINE#         961
  C:99CEH         LINE#         962
  C:99D1H         LINE#         963
  C:99D1H         LINE#         965
  C:99E5H         LINE#         966
  C:99E8H         LINE#         967
  C:99E8H         LINE#         969
  C:99FCH         LINE#         970
  C:99FFH         LINE#         971
  C:99FFH         LINE#         973
  C:9A13H         LINE#         974
  C:9A16H         LINE#         975
  C:9A16H         LINE#         977
  C:9A2AH         LINE#         978
  C:9A2DH         LINE#         979
  C:9A2DH         LINE#         981
  C:9A41H         LINE#         982
  C:9A43H         LINE#         983
  C:9A43H         LINE#         985
  C:9A57H         LINE#         986
  C:9A59H         LINE#         987
  C:9A59H         LINE#         989
  C:9A6DH         LINE#         990
  C:9A6FH         LINE#         991
  C:9A6FH         LINE#         993
  C:9A83H         LINE#         994
  C:9A85H         LINE#         995
  C:9A85H         LINE#         997
  C:9A99H         LINE#         998
  C:9A9BH         LINE#         999
  C:9A9BH         LINE#         1001
  C:9AB4H         LINE#         1002
  C:9AB4H         LINE#         1005
  C:9AB4H         LINE#         1006
  C:9AB4H         LINE#         1007
  C:9AB4H         LINE#         1008
  C:9AB9H         LINE#         1009
  -------         ENDPROC       _DP_DOWNLOAD_HANDLE
  -------         PROC          GET_DOWNLOAD_CMD_TOTAL
BL51 BANKED LINKER/LOCATER V6.22.2.0                                                  07/08/2026  17:17:08  PAGE 186


  C:FFE4H         LINE#         1017
  C:FFE4H         LINE#         1018
  C:FFE4H         LINE#         1019
  C:FFE6H         LINE#         1020
  -------         ENDPROC       GET_DOWNLOAD_CMD_TOTAL
  -------         PROC          _UPGRADE_PACKAGE_CHOOSE
  D:0005H         SYMBOL        package_sz
  -------         DO            
  D:0006H         SYMBOL        send_len
  -------         ENDDO         
  C:FE00H         LINE#         1038
  C:FE02H         LINE#         1039
  C:FE02H         LINE#         1041
  C:FE05H         LINE#         1042
  C:FE08H         LINE#         1043
  -------         ENDPROC       _UPGRADE_PACKAGE_CHOOSE
  -------         PROC          _MCU_FIRM_UPDATE_HANDLE
  X:8DE0H         SYMBOL        value
  X:8DE3H         SYMBOL        position
  X:8DE7H         SYMBOL        length
  -------         DO            
  D:0006H         SYMBOL        i
  X:933FH         SYMBOL        Oldposittion
  -------         ENDDO         
  C:CEFDH         LINE#         1057
  C:CF0CH         LINE#         1058
  C:CF0CH         LINE#         1062
  C:CF19H         LINE#         1065
  C:CF19H         LINE#         1067
  C:CF32H         LINE#         1068
  C:CF35H         LINE#         1069
  C:CF35H         LINE#         1070
  C:CF54H         LINE#         1071
  C:CF61H         LINE#         1072
  C:CF83H         LINE#         1073
  C:CF83H         LINE#         1074
  C:CF97H         LINE#         1075
  C:CF99H         LINE#         1076
  C:CF99H         LINE#         1077
  C:CF99H         LINE#         1079
  C:CF9BH         LINE#         1080
  -------         ENDPROC       _MCU_FIRM_UPDATE_HANDLE
  -------         PROC          _FILE_DOWNLOAD_PACKAGE_CHOOSE
  D:0005H         SYMBOL        package_sz
  -------         DO            
  D:0006H         SYMBOL        send_len
  -------         ENDDO         
  C:FE13H         LINE#         1518
  C:FE15H         LINE#         1519
  C:FE15H         LINE#         1521
  C:FE18H         LINE#         1522
  C:FE1BH         LINE#         1523
  -------         ENDPROC       _FILE_DOWNLOAD_PACKAGE_CHOOSE
  -------         PROC          _FILE_DOWNLOAD_HANDLE
  X:8DE0H         SYMBOL        value
  X:8DE3H         SYMBOL        position
  X:8DE7H         SYMBOL        length
BL51 BANKED LINKER/LOCATER V6.22.2.0                                                  07/08/2026  17:17:08  PAGE 187


  C:FE5CH         LINE#         1536
  C:FE6BH         LINE#         1537
  C:FE6BH         LINE#         1539
  C:FE6BH         LINE#         1542
  C:FE6BH         LINE#         1545
  C:FE6BH         LINE#         1547
  C:FE6DH         LINE#         1548
  -------         ENDPROC       _FILE_DOWNLOAD_HANDLE
  -------         ENDMOD        PROTOCOL

  -------         MODULE        ?C?FPMUL
  C:3A9CH         PUBLIC        ?C?FPMUL
  -------         ENDMOD        ?C?FPMUL

  -------         MODULE        ?C?FPDIV
  C:3BA5H         PUBLIC        ?C?FPDIV
  -------         ENDMOD        ?C?FPDIV

  -------         MODULE        ?C?FPCMP
  C:3C44H         PUBLIC        ?C?FPCMP
  C:3C42H         PUBLIC        ?C?FPCMP3
  -------         ENDMOD        ?C?FPCMP

  -------         MODULE        ?C?FCAST
  C:3CC5H         PUBLIC        ?C?FCASTC
  C:3CC0H         PUBLIC        ?C?FCASTI
  C:3CBBH         PUBLIC        ?C?FCASTL
  -------         ENDMOD        ?C?FCAST

  -------         MODULE        ?C?CASTF
  C:3CF9H         PUBLIC        ?C?CASTF
  -------         ENDMOD        ?C?CASTF

  -------         MODULE        PRINTF
  X:8E19H         PUBLIC        ?_PRINTF?BYTE
  X:8E19H         PUBLIC        ?_SPRINTF?BYTE
  C:5943H         PUBLIC        _PRINTF
  C:593DH         PUBLIC        _SPRINTF
  -------         ENDMOD        PRINTF

  -------         MODULE        ?C?FPROUND
  C:3D7AH         PUBLIC        ?C?FPROUND
  -------         ENDMOD        ?C?FPROUND

  -------         MODULE        ?C?FPCONVERT
  C:3DB7H         PUBLIC        ?C?FPCONVERT
  -------         ENDMOD        ?C?FPCONVERT

  -------         MODULE        ?C?FPADD
  C:3EC3H         PUBLIC        ?C?FPADD
  C:3EBFH         PUBLIC        ?C?FPSUB
  -------         ENDMOD        ?C?FPADD

  -------         MODULE        ?C?FTNPWR
  C:3FE4H         PUBLIC        ?C?FTNPWR
  -------         ENDMOD        ?C?FTNPWR

BL51 BANKED LINKER/LOCATER V6.22.2.0                                                  07/08/2026  17:17:08  PAGE 188


  -------         MODULE        ?C?COPY
  C:40F4H         PUBLIC        ?C?COPY
  -------         ENDMOD        ?C?COPY

  -------         MODULE        ?C?CLDPTR
  C:411AH         PUBLIC        ?C?CLDPTR
  -------         ENDMOD        ?C?CLDPTR

  -------         MODULE        ?C?CLDOPTR
  C:4133H         PUBLIC        ?C?CLDOPTR
  -------         ENDMOD        ?C?CLDOPTR

  -------         MODULE        ?C?CILDOPTR
  C:4160H         PUBLIC        ?C?CILDOPTR
  -------         ENDMOD        ?C?CILDOPTR

  -------         MODULE        ?C?CSTPTR
  C:4193H         PUBLIC        ?C?CSTPTR
  -------         ENDMOD        ?C?CSTPTR

  -------         MODULE        ?C?CSTOPTR
  C:41A5H         PUBLIC        ?C?CSTOPTR
  -------         ENDMOD        ?C?CSTOPTR

  -------         MODULE        ?C?IMUL
  C:41C7H         PUBLIC        ?C?IMUL
  -------         ENDMOD        ?C?IMUL

  -------         MODULE        ?C?UIDIV
  C:41D9H         PUBLIC        ?C?UIDIV
  -------         ENDMOD        ?C?UIDIV

  -------         MODULE        ?C?SIDIV
  C:422EH         PUBLIC        ?C?SIDIV
  -------         ENDMOD        ?C?SIDIV

  -------         MODULE        ?C?IILDX
  C:4264H         PUBLIC        ?C?IILDX
  -------         ENDMOD        ?C?IILDX

  -------         MODULE        ?C?ILDIX
  C:427AH         PUBLIC        ?C?ILDIX
  -------         ENDMOD        ?C?ILDIX

  -------         MODULE        ?C?ILDPTR
  C:4290H         PUBLIC        ?C?ILDPTR
  -------         ENDMOD        ?C?ILDPTR

  -------         MODULE        ?C?ILDIPTR
  C:42BBH         PUBLIC        ?C?ILDIPTR
  -------         ENDMOD        ?C?ILDIPTR

  -------         MODULE        ?C?ILDOPTR
  C:42F0H         PUBLIC        ?C?ILDOPTR
  -------         ENDMOD        ?C?ILDOPTR

  -------         MODULE        ?C?ISTPTR
BL51 BANKED LINKER/LOCATER V6.22.2.0                                                  07/08/2026  17:17:08  PAGE 189


  C:4328H         PUBLIC        ?C?ISTPTR
  -------         ENDMOD        ?C?ISTPTR

  -------         MODULE        ?C?ISTOPTR
  C:4347H         PUBLIC        ?C?ISTOPTR
  -------         ENDMOD        ?C?ISTOPTR

  -------         MODULE        ?C?LMUL
  C:4374H         PUBLIC        ?C?LMUL
  -------         ENDMOD        ?C?LMUL

  -------         MODULE        ?C?ULDIV
  C:43FFH         PUBLIC        ?C?ULDIV
  -------         ENDMOD        ?C?ULDIV

  -------         MODULE        ?C?LNEG
  C:4491H         PUBLIC        ?C?LNEG
  -------         ENDMOD        ?C?LNEG

  -------         MODULE        ?C?SLCMP
  C:449FH         PUBLIC        ?C?SLCMP
  -------         ENDMOD        ?C?SLCMP

  -------         MODULE        ?C?ULCMP
  C:44B5H         PUBLIC        ?C?ULCMP
  -------         ENDMOD        ?C?ULCMP

  -------         MODULE        ?C?ULSHR
  C:44C6H         PUBLIC        ?C?ULSHR
  -------         ENDMOD        ?C?ULSHR

  -------         MODULE        ?C?LSHL
  C:44D9H         PUBLIC        ?C?LSHL
  -------         ENDMOD        ?C?LSHL

  -------         MODULE        ?C?LLDPTR
  C:44ECH         PUBLIC        ?C?LLDPTR
  -------         ENDMOD        ?C?LLDPTR

  -------         MODULE        ?C?LSTPTR
  C:450CH         PUBLIC        ?C?LSTPTR
  -------         ENDMOD        ?C?LSTPTR

  -------         MODULE        ?C?LSTXDATA
  C:4526H         PUBLIC        ?C?LSTXDATA
  -------         ENDMOD        ?C?LSTXDATA

  -------         MODULE        ?C?LSTKXDATA
  C:4532H         PUBLIC        ?C?LSTKXDATA
  -------         ENDMOD        ?C?LSTKXDATA

  -------         MODULE        ?C?OFFXADD
  C:4563H         PUBLIC        ?C?OFFXADD
  -------         ENDMOD        ?C?OFFXADD

  -------         MODULE        ?C?PLDIXDATA
  C:456FH         PUBLIC        ?C?PLDIXDATA
BL51 BANKED LINKER/LOCATER V6.22.2.0                                                  07/08/2026  17:17:08  PAGE 190


  -------         ENDMOD        ?C?PLDIXDATA

  -------         MODULE        ?C?PSTXDATA
  C:4586H         PUBLIC        ?C?PSTXDATA
  -------         ENDMOD        ?C?PSTXDATA

  -------         MODULE        ?C?CCASE
  C:458FH         PUBLIC        ?C?CCASE
  -------         ENDMOD        ?C?CCASE

  -------         MODULE        ?C?ICASE
  C:45B5H         PUBLIC        ?C?ICASE
  -------         ENDMOD        ?C?ICASE

  -------         MODULE        ?C?LIMUL
  C:45E2H         PUBLIC        ?C?LIMUL
  -------         ENDMOD        ?C?LIMUL

  -------         MODULE        STRTOUL
  X:8E04H         PUBLIC        ?_strtoul?BYTE
  C:7790H         PUBLIC        _strtoul
  -------         ENDMOD        STRTOUL

  -------         MODULE        ?C?LLDIDATA
  C:460FH         PUBLIC        ?C?LLDIDATA
  -------         ENDMOD        ?C?LLDIDATA

  -------         MODULE        ?C?LLDXDATA
  C:461BH         PUBLIC        ?C?LLDXDATA
  -------         ENDMOD        ?C?LLDXDATA

  -------         MODULE        ?C?LLDPDATA
  C:4627H         PUBLIC        ?C?LLDPDATA
  -------         ENDMOD        ?C?LLDPDATA

  -------         MODULE        ?C?LLDCODE
  C:4633H         PUBLIC        ?C?LLDCODE
  -------         ENDMOD        ?C?LLDCODE

  -------         MODULE        ?C?LSTIDATA
  C:4643H         PUBLIC        ?C?LSTIDATA
  -------         ENDMOD        ?C?LSTIDATA

  -------         MODULE        ?C?LSTPDATA
  C:464FH         PUBLIC        ?C?LSTPDATA
  -------         ENDMOD        ?C?LSTPDATA

  -------         MODULE        ?C?PSTPTR
  C:465BH         PUBLIC        ?C?PSTPTR
  -------         ENDMOD        ?C?PSTPTR

  -------         MODULE        ?C?PSTIDATA
  C:46AAH         PUBLIC        ?C?PSTIDATA
  -------         ENDMOD        ?C?PSTIDATA

  -------         MODULE        ?C?PSTPDATA
  C:46B3H         PUBLIC        ?C?PSTPDATA
BL51 BANKED LINKER/LOCATER V6.22.2.0                                                  07/08/2026  17:17:08  PAGE 191


  -------         ENDMOD        ?C?PSTPDATA

Program Size: data=22.4 xdata=5387 code=65288
LINK/LOCATE RUN COMPLETE.  0 WARNING(S),  0 ERROR(S)
